; Listing generated by Microsoft (R) Optimizing Compiler Version 19.37.32822.0 

include listing.inc

INCLUDELIB OLDNAMES

PUBLIC	??_C@_1BK@LCODAJLO@?$AAo?$AAp?$AAe?$AAn?$AAg?$AAl?$AA3?$AA2?$AA?4?$AAd?$AAl?$AAl@ ; `string'
PUBLIC	??_C@_0BC@FFKMKEGM@wglGetProcAddress@		; `string'
PUBLIC	??_C@_0L@BAPBLHME@glCullFace@			; `string'
PUBLIC	??_C@_0M@ILBMDJDA@glFrontFace@			; `string'
PUBLIC	??_C@_06HEADGMBC@glHint@			; `string'
PUBLIC	??_C@_0M@CFLGNFPG@glLineWidth@			; `string'
PUBLIC	??_C@_0M@EEAPMMNM@glPointSize@			; `string'
PUBLIC	??_C@_0O@DKMNBFMB@glPolygonMode@		; `string'
PUBLIC	??_C@_09ECGPAEPL@glScissor@			; `string'
PUBLIC	??_C@_0BA@INKFIMGP@glTexParameterf@		; `string'
PUBLIC	??_C@_0BB@KEOFAHDF@glTexParameterfv@		; `string'
PUBLIC	??_C@_0BA@KDNJAKA@glTexParameteri@		; `string'
PUBLIC	??_C@_0BB@KPLJEAAI@glTexParameteriv@		; `string'
PUBLIC	??_C@_0N@JDMMMFHL@glTexImage1D@			; `string'
PUBLIC	??_C@_0N@JBIKHLCC@glTexImage2D@			; `string'
PUBLIC	??_C@_0N@EKCLGPL@glDrawBuffer@			; `string'
PUBLIC	??_C@_07IBAPPAHJ@glClear@			; `string'
PUBLIC	??_C@_0N@OGLMDNKC@glClearColor@			; `string'
PUBLIC	??_C@_0P@KBLPBBFP@glClearStencil@		; `string'
PUBLIC	??_C@_0N@LJIELNG@glClearDepth@			; `string'
PUBLIC	??_C@_0O@DJFHPFEP@glStencilMask@		; `string'
PUBLIC	??_C@_0M@DLGOAHPH@glColorMask@			; `string'
PUBLIC	??_C@_0M@KABMFLLN@glDepthMask@			; `string'
PUBLIC	??_C@_09MHGMIMKN@glDisable@			; `string'
PUBLIC	??_C@_08OOEHEKOP@glEnable@			; `string'
PUBLIC	??_C@_08DFCPOKBK@glFinish@			; `string'
PUBLIC	??_C@_07COFELLJA@glFlush@			; `string'
PUBLIC	??_C@_0M@PFBKOKOH@glBlendFunc@			; `string'
PUBLIC	??_C@_09GKGMNAKG@glLogicOp@			; `string'
PUBLIC	??_C@_0O@ENNLLOLN@glStencilFunc@		; `string'
PUBLIC	??_C@_0M@BILBNGF@glStencilOp@			; `string'
PUBLIC	??_C@_0M@NEJABAEP@glDepthFunc@			; `string'
PUBLIC	??_C@_0O@BFLAHHCK@glPixelStoref@		; `string'
PUBLIC	??_C@_0O@JCCIGLOF@glPixelStorei@		; `string'
PUBLIC	??_C@_0N@HFKHBECK@glReadBuffer@			; `string'
PUBLIC	??_C@_0N@CKFNNHOO@glReadPixels@			; `string'
PUBLIC	??_C@_0O@NLMELLCJ@glGetBooleanv@		; `string'
PUBLIC	??_C@_0N@OFBMMCDH@glGetDoublev@			; `string'
PUBLIC	??_C@_0L@FPKAMKHB@glGetError@			; `string'
PUBLIC	??_C@_0M@CKCOBONE@glGetFloatv@			; `string'
PUBLIC	??_C@_0O@DHHDCCLF@glGetIntegerv@		; `string'
PUBLIC	??_C@_0M@OPOBFDCB@glGetString@			; `string'
PUBLIC	??_C@_0O@DOIIJLAD@glGetTexImage@		; `string'
PUBLIC	??_C@_0BE@DNHBPKMC@glGetTexParameterfv@		; `string'
PUBLIC	??_C@_0BE@DGCNLNPP@glGetTexParameteriv@		; `string'
PUBLIC	??_C@_0BJ@GAMLGIFF@glGetTexLevelParameterfv@	; `string'
PUBLIC	??_C@_0BJ@GLJHCPGI@glGetTexLevelParameteriv@	; `string'
PUBLIC	??_C@_0M@INHMIHKC@glIsEnabled@			; `string'
PUBLIC	??_C@_0N@PEBDIKOA@glDepthRange@			; `string'
PUBLIC	??_C@_0L@KBLIPDFH@glViewport@			; `string'
PUBLIC	??_C@_0N@CMNPPOHA@glDrawArrays@			; `string'
PUBLIC	??_C@_0P@MENFIFGE@glDrawElements@		; `string'
PUBLIC	??_C@_0BA@FFBJGNC@glPolygonOffset@		; `string'
PUBLIC	??_C@_0BB@MEEDBHPL@glCopyTexImage1D@		; `string'
PUBLIC	??_C@_0BB@MGAFKJKC@glCopyTexImage2D@		; `string'
PUBLIC	??_C@_0BE@PKNCAIGI@glCopyTexSubImage1D@		; `string'
PUBLIC	??_C@_0BE@PIJELGDB@glCopyTexSubImage2D@		; `string'
PUBLIC	??_C@_0BA@NFOOCKJD@glTexSubImage1D@		; `string'
PUBLIC	??_C@_0BA@NHKIJEMK@glTexSubImage2D@		; `string'
PUBLIC	??_C@_0O@JKKCIBGC@glBindTexture@		; `string'
PUBLIC	??_C@_0BB@KMPLFJIC@glDeleteTextures@		; `string'
PUBLIC	??_C@_0O@LLMANLNK@glGenTextures@		; `string'
PUBLIC	??_C@_0M@NJHAEPDN@glIsTexture@			; `string'
PUBLIC	??_C@_0BE@IHNAGJGJ@glDrawRangeElements@		; `string'
PUBLIC	??_C@_0N@JAEIBBBF@glTexImage3D@			; `string'
PUBLIC	??_C@_0BA@NGGKPOPN@glTexSubImage3D@		; `string'
PUBLIC	??_C@_0BE@PJFGNMAG@glCopyTexSubImage3D@		; `string'
PUBLIC	??_C@_0BA@KOBBIKOF@glActiveTexture@		; `string'
PUBLIC	??_C@_0BB@BJGIPMOA@glSampleCoverage@		; `string'
PUBLIC	??_C@_0BH@GGHNMAGP@glCompressedTexImage3D@	; `string'
PUBLIC	??_C@_0BH@GHLPKKFI@glCompressedTexImage2D@	; `string'
PUBLIC	??_C@_0BH@GFPJBEAB@glCompressedTexImage1D@	; `string'
PUBLIC	??_C@_0BK@EBJMCDPA@glCompressedTexSubImage3D@	; `string'
PUBLIC	??_C@_0BK@EAFOEJMH@glCompressedTexSubImage2D@	; `string'
PUBLIC	??_C@_0BK@ECBIPHJO@glCompressedTexSubImage1D@	; `string'
PUBLIC	??_C@_0BI@MPANLPPL@glGetCompressedTexImage@	; `string'
PUBLIC	??_C@_0BE@LLLCIIOO@glBlendFuncSeparate@		; `string'
PUBLIC	??_C@_0BC@IBABPJFA@glMultiDrawArrays@		; `string'
PUBLIC	??_C@_0BE@MPDFJJLL@glMultiDrawElements@		; `string'
PUBLIC	??_C@_0BC@FGOOEDO@glPointParameterf@		; `string'
PUBLIC	??_C@_0BD@LIABKNDP@glPointParameterfv@		; `string'
PUBLIC	??_C@_0BC@ICPGPIPB@glPointParameteri@		; `string'
PUBLIC	??_C@_0BD@LDFNOKAC@glPointParameteriv@		; `string'
PUBLIC	??_C@_0N@PKBMFJDK@glBlendColor@			; `string'
PUBLIC	??_C@_0BA@PFHILPAN@glBlendEquation@		; `string'
PUBLIC	??_C@_0N@CJIGHHJ@glGenQueries@			; `string'
PUBLIC	??_C@_0BA@IOKEHMOH@glDeleteQueries@		; `string'
PUBLIC	??_C@_09CNNLCEBN@glIsQuery@			; `string'
PUBLIC	??_C@_0N@GIAGIGPA@glBeginQuery@			; `string'
PUBLIC	??_C@_0L@FLEBHIDM@glEndQuery@			; `string'
PUBLIC	??_C@_0N@BPACPFCI@glGetQueryiv@			; `string'
PUBLIC	??_C@_0BD@KMBBCJID@glGetQueryObjectiv@		; `string'
PUBLIC	??_C@_0BE@MNBBKJ@glGetQueryObjectuiv@		; `string'
PUBLIC	??_C@_0N@BONEPPLO@glBindBuffer@			; `string'
PUBLIC	??_C@_0BA@DMNLADIO@glDeleteBuffers@		; `string'
PUBLIC	??_C@_0N@LAOHBIBA@glGenBuffers@			; `string'
PUBLIC	??_C@_0L@KFPDMKNG@glIsBuffer@			; `string'
PUBLIC	??_C@_0N@JHHJMABP@glBufferData@			; `string'
PUBLIC	??_C@_0BA@GAJMDBBN@glBufferSubData@		; `string'
PUBLIC	??_C@_0BD@PNDAHMBO@glGetBufferSubData@		; `string'
PUBLIC	??_C@_0M@NNHDPACA@glMapBuffer@			; `string'
PUBLIC	??_C@_0O@OFGHBLEO@glUnmapBuffer@		; `string'
PUBLIC	??_C@_0BH@BMIEIFJP@glGetBufferParameteriv@	; `string'
PUBLIC	??_C@_0BE@KNJEIFMC@glGetBufferPointerv@		; `string'
PUBLIC	??_C@_0BI@JNHDNJAG@glBlendEquationSeparate@	; `string'
PUBLIC	??_C@_0O@COHJKDBH@glDrawBuffers@		; `string'
PUBLIC	??_C@_0BE@GAPLDNGF@glStencilOpSeparate@		; `string'
PUBLIC	??_C@_0BG@FCMNCEIA@glStencilFuncSeparate@	; `string'
PUBLIC	??_C@_0BG@MMKPIEJI@glStencilMaskSeparate@	; `string'
PUBLIC	??_C@_0P@LDMLEABL@glAttachShader@		; `string'
PUBLIC	??_C@_0BF@MHKEFIHM@glBindAttribLocation@	; `string'
PUBLIC	??_C@_0BA@DGIEGONF@glCompileShader@		; `string'
PUBLIC	??_C@_0BA@FLKLHNKP@glCreateProgram@		; `string'
PUBLIC	??_C@_0P@HGHBNC@glCreateShader@			; `string'
PUBLIC	??_C@_0BA@NKGCDOPO@glDeleteProgram@		; `string'
PUBLIC	??_C@_0P@HHCDONAG@glDeleteShader@		; `string'
PUBLIC	??_C@_0P@DJFJFCJL@glDetachShader@		; `string'
PUBLIC	??_C@_0BL@NKHLOFFF@glDisableVertexAttribArray@	; `string'
PUBLIC	??_C@_0BK@EHBAHNHE@glEnableVertexAttribArray@	; `string'
PUBLIC	??_C@_0BC@MBALAOHF@glGetActiveAttrib@		; `string'
PUBLIC	??_C@_0BD@NIMHLLKN@glGetActiveUniform@		; `string'
PUBLIC	??_C@_0BF@GHMDGFEM@glGetAttachedShaders@	; `string'
PUBLIC	??_C@_0BE@BEPGJDMM@glGetAttribLocation@		; `string'
PUBLIC	??_C@_0P@FMMDFLCO@glGetProgramiv@		; `string'
PUBLIC	??_C@_0BE@DHGHAJFL@glGetProgramInfoLog@		; `string'
PUBLIC	??_C@_0O@JBDFPDMG@glGetShaderiv@		; `string'
PUBLIC	??_C@_0BD@GIABBCMO@glGetShaderInfoLog@		; `string'
PUBLIC	??_C@_0BC@ELEIFJEL@glGetShaderSource@		; `string'
PUBLIC	??_C@_0BF@KIOPGICP@glGetUniformLocation@	; `string'
PUBLIC	??_C@_0P@DFCJIBG@glGetUniformfv@		; `string'
PUBLIC	??_C@_0P@IAONPCL@glGetUniformiv@		; `string'
PUBLIC	??_C@_0BE@HDPMJMIN@glGetVertexAttribdv@		; `string'
PUBLIC	??_C@_0BE@HAHIEIOD@glGetVertexAttribfv@		; `string'
PUBLIC	??_C@_0BE@HLCEAPNO@glGetVertexAttribiv@		; `string'
PUBLIC	??_C@_0BK@DOJMENLD@glGetVertexAttribPointerv@	; `string'
PUBLIC	??_C@_0M@INLOJDGO@glIsProgram@			; `string'
PUBLIC	??_C@_0L@MDDLFIHC@glIsShader@			; `string'
PUBLIC	??_C@_0O@PIOEEBPO@glLinkProgram@		; `string'
PUBLIC	??_C@_0P@DFHCPFMO@glShaderSource@		; `string'
PUBLIC	??_C@_0N@ICBDHBI@glUseProgram@			; `string'
PUBLIC	??_C@_0M@MLICAPOF@glUniform1f@			; `string'
PUBLIC	??_C@_0M@MJMELBLM@glUniform2f@			; `string'
PUBLIC	??_C@_0M@MIAGNLIL@glUniform3f@			; `string'
PUBLIC	??_C@_0M@MNEJMNAO@glUniform4f@			; `string'
PUBLIC	??_C@_0M@EMBKBDCK@glUniform1i@			; `string'
PUBLIC	??_C@_0M@EOFMKNHD@glUniform2i@			; `string'
PUBLIC	??_C@_0M@EPJOMHEE@glUniform3i@			; `string'
PUBLIC	??_C@_0M@EKNBNBMB@glUniform4i@			; `string'
PUBLIC	??_C@_0N@KJMOEKII@glUniform1fv@			; `string'
PUBLIC	??_C@_0N@LLHLOFGG@glUniform2fv@			; `string'
PUBLIC	??_C@_0N@DMHICAD@glUniform3fv@			; `string'
PUBLIC	??_C@_0N@JOBALKLK@glUniform4fv@			; `string'
PUBLIC	??_C@_0N@KCJCANLF@glUniform1iv@			; `string'
PUBLIC	??_C@_0N@LACHKCFL@glUniform2iv@			; `string'
PUBLIC	??_C@_0N@IJLMFDO@glUniform3iv@			; `string'
PUBLIC	??_C@_0N@JFEMPNIH@glUniform4iv@			; `string'
PUBLIC	??_C@_0BD@JIBJELHD@glUniformMatrix2fv@		; `string'
PUBLIC	??_C@_0BD@CAKFCMBG@glUniformMatrix3fv@		; `string'
PUBLIC	??_C@_0BD@LNHCBEKP@glUniformMatrix4fv@		; `string'
PUBLIC	??_C@_0BC@MAPGDLJK@glValidateProgram@		; `string'
PUBLIC	??_C@_0BB@PIOLPNPC@glVertexAttrib1d@		; `string'
PUBLIC	??_C@_0BC@CKCOKGLN@glVertexAttrib1dv@		; `string'
PUBLIC	??_C@_0BB@MKNNJPHA@glVertexAttrib1f@		; `string'
PUBLIC	??_C@_0BC@CJKKHCND@glVertexAttrib1fv@		; `string'
PUBLIC	??_C@_0BB@PNGIHJGE@glVertexAttrib1s@		; `string'
PUBLIC	??_C@_0BC@DDEHBDEI@glVertexAttrib1sv@		; `string'
PUBLIC	??_C@_0BB@PKKNEDKL@glVertexAttrib2d@		; `string'
PUBLIC	??_C@_0BC@DIJLAJFD@glVertexAttrib2dv@		; `string'
PUBLIC	??_C@_0BB@MIJLCBCJ@glVertexAttrib2f@		; `string'
PUBLIC	??_C@_0BC@DLBPNNDN@glVertexAttrib2fv@		; `string'
PUBLIC	??_C@_0BB@PPCOMHDN@glVertexAttrib2s@		; `string'
PUBLIC	??_C@_0BC@CBPCLMKG@glVertexAttrib2sv@		; `string'
PUBLIC	??_C@_0BB@PLGPCJJM@glVertexAttrib3d@		; `string'
PUBLIC	??_C@_0BC@IACHGODG@glVertexAttrib3dv@		; `string'
PUBLIC	??_C@_0BB@MJFJELBO@glVertexAttrib3f@		; `string'
PUBLIC	??_C@_0BC@IDKDLKFI@glVertexAttrib3fv@		; `string'
PUBLIC	??_C@_0BB@POOMKNAK@glVertexAttrib3s@		; `string'
PUBLIC	??_C@_0BC@JJEONLMD@glVertexAttrib3sv@		; `string'
PUBLIC	??_C@_0BD@NANPPEGB@glVertexAttrib4Nbv@		; `string'
PUBLIC	??_C@_0BD@NMIKBLIA@glVertexAttrib4Niv@		; `string'
PUBLIC	??_C@_0BD@MNDLDNCG@glVertexAttrib4Nsv@		; `string'
PUBLIC	??_C@_0BD@OHBIJGMB@glVertexAttrib4Nub@		; `string'
PUBLIC	??_C@_0BE@JFOBDEMA@glVertexAttrib4Nubv@		; `string'
PUBLIC	??_C@_0BE@JJLENLCB@glVertexAttrib4Nuiv@		; `string'
PUBLIC	??_C@_0BE@IIAFPNIH@glVertexAttrib4Nusv@		; `string'
PUBLIC	??_C@_0BC@BJHNCKDN@glVertexAttrib4bv@		; `string'
PUBLIC	??_C@_0BB@POCADPBJ@glVertexAttrib4d@		; `string'
PUBLIC	??_C@_0BC@BNPAFGIP@glVertexAttrib4dv@		; `string'
PUBLIC	??_C@_0BB@MMBGFNJL@glVertexAttrib4f@		; `string'
PUBLIC	??_C@_0BC@BOHEICOB@glVertexAttrib4fv@		; `string'
PUBLIC	??_C@_0BC@BFCIMFNM@glVertexAttrib4iv@		; `string'
PUBLIC	??_C@_0BB@PLKDLLIP@glVertexAttrib4s@		; `string'
PUBLIC	??_C@_0BC@EJJODHK@glVertexAttrib4sv@		; `string'
PUBLIC	??_C@_0BD@PHPFILMB@glVertexAttrib4ubv@		; `string'
PUBLIC	??_C@_0BD@PLKAGECA@glVertexAttrib4uiv@		; `string'
PUBLIC	??_C@_0BD@OKBBECIG@glVertexAttrib4usv@		; `string'
PUBLIC	??_C@_0BG@JPNNNPKG@glVertexAttribPointer@	; `string'
PUBLIC	??_C@_0BF@KDDJMCDK@glUniformMatrix2x3fv@	; `string'
PUBLIC	??_C@_0BF@NANJHGPK@glUniformMatrix3x2fv@	; `string'
PUBLIC	??_C@_0BF@DOOOPKID@glUniformMatrix2x4fv@	; `string'
PUBLIC	??_C@_0BF@MNNMEGEC@glUniformMatrix4x2fv@	; `string'
PUBLIC	??_C@_0BF@PFLCCJCG@glUniformMatrix3x4fv@	; `string'
PUBLIC	??_C@_0BF@HFGACBCH@glUniformMatrix4x3fv@	; `string'
PUBLIC	??_C@_0N@JHNNNJFG@glColorMaski@			; `string'
PUBLIC	??_C@_0BA@OAKNOBP@glGetBooleani_v@		; `string'
PUBLIC	??_C@_0BA@FKCNNMFO@glGetIntegeri_v@		; `string'
PUBLIC	??_C@_09IEGEGIEN@glEnablei@			; `string'
PUBLIC	??_C@_0L@BMJPGDDH@glDisablei@			; `string'
PUBLIC	??_C@_0N@IMGKGOKN@glIsEnabledi@			; `string'
PUBLIC	??_C@_0BJ@FHJKOECC@glBeginTransformFeedback@	; `string'
PUBLIC	??_C@_0BH@LCFLNNBH@glEndTransformFeedback@	; `string'
PUBLIC	??_C@_0BC@EEMMCHMB@glBindBufferRange@		; `string'
PUBLIC	??_C@_0BB@LDPKOCJI@glBindBufferBase@		; `string'
PUBLIC	??_C@_0BM@IJFAKBEF@glTransformFeedbackVaryings@	; `string'
PUBLIC	??_C@_0BO@ODFLPNG@glGetTransformFeedbackVarying@ ; `string'
PUBLIC	??_C@_0N@HLGAGIMI@glClampColor@			; `string'
PUBLIC	??_C@_0BJ@EHEPIEPF@glBeginConditionalRender@	; `string'
PUBLIC	??_C@_0BH@KCIOLNMA@glEndConditionalRender@	; `string'
PUBLIC	??_C@_0BH@NLOEHKCD@glVertexAttribIPointer@	; `string'
PUBLIC	??_C@_0BF@KPDNEONP@glGetVertexAttribIiv@	; `string'
PUBLIC	??_C@_0BG@GCBDCABB@glGetVertexAttribIuiv@	; `string'
PUBLIC	??_C@_0BC@CDIIMMAL@glVertexAttribI1i@		; `string'
PUBLIC	??_C@_0BC@CBMOHCFC@glVertexAttribI2i@		; `string'
PUBLIC	??_C@_0BC@CAAMBIGF@glVertexAttribI3i@		; `string'
PUBLIC	??_C@_0BC@CFEDAOOA@glVertexAttribI4i@		; `string'
PUBLIC	??_C@_0BD@DGPCNLLO@glVertexAttribI1ui@		; `string'
PUBLIC	??_C@_0BD@CEEHHEFA@glVertexAttribI2ui@		; `string'
PUBLIC	??_C@_0BD@JMPLBDDF@glVertexAttribI3ui@		; `string'
PUBLIC	??_C@_0BD@BCMCLIM@glVertexAttribI4ui@		; `string'
PUBLIC	??_C@_0BD@OOJEIPDE@glVertexAttribI1iv@		; `string'
PUBLIC	??_C@_0BD@PMCBCANK@glVertexAttribI2iv@		; `string'
PUBLIC	??_C@_0BD@EEJNEHLP@glVertexAttribI3iv@		; `string'
PUBLIC	??_C@_0BD@NJEKHPAG@glVertexAttribI4iv@		; `string'
PUBLIC	??_C@_0BE@FFIKLCCA@glVertexAttribI1uiv@		; `string'
PUBLIC	??_C@_0BE@BCCKMIPA@glVertexAttribI2uiv@		; `string'
PUBLIC	??_C@_0BE@CPEKOBEA@glVertexAttribI3uiv@		; `string'
PUBLIC	??_C@_0BE@JNGKDNFA@glVertexAttribI4uiv@		; `string'
PUBLIC	??_C@_0BD@NFBPJAOH@glVertexAttribI4bv@		; `string'
PUBLIC	??_C@_0BD@MIPLFJKA@glVertexAttribI4sv@		; `string'
PUBLIC	??_C@_0BE@JBDPNCLB@glVertexAttribI4ubv@		; `string'
PUBLIC	??_C@_0BE@IMNLBLPG@glVertexAttribI4usv@		; `string'
PUBLIC	??_C@_0BA@NIGECFIF@glGetUniformuiv@		; `string'
PUBLIC	??_C@_0BH@DLJLAGBA@glBindFragDataLocation@	; `string'
PUBLIC	??_C@_0BG@NDOIGAMC@glGetFragDataLocation@	; `string'
PUBLIC	??_C@_0N@HKPEFJDP@glUniform1ui@			; `string'
PUBLIC	??_C@_0N@GIEBPGNB@glUniform2ui@			; `string'
PUBLIC	??_C@_0N@NAPNJBLE@glUniform3ui@			; `string'
PUBLIC	??_C@_0N@ENCKKJAN@glUniform4ui@			; `string'
PUBLIC	??_C@_0O@MPHJAHBE@glUniform1uiv@		; `string'
PUBLIC	??_C@_0O@IINJHNME@glUniform2uiv@		; `string'
PUBLIC	??_C@_0O@LFLJFEHE@glUniform3uiv@		; `string'
PUBLIC	??_C@_0O@HJJIIGE@glUniform4uiv@			; `string'
PUBLIC	??_C@_0BC@MAFJKEHB@glTexParameterIiv@		; `string'
PUBLIC	??_C@_0BD@FDBCMKBE@glTexParameterIuiv@		; `string'
PUBLIC	??_C@_0BF@ODBJFHDD@glGetTexParameterIiv@	; `string'
PUBLIC	??_C@_0BG@MLODKKFL@glGetTexParameterIuiv@	; `string'
PUBLIC	??_C@_0BA@CGCJAEIN@glClearBufferiv@		; `string'
PUBLIC	??_C@_0BB@OHPPAEID@glClearBufferuiv@		; `string'
PUBLIC	??_C@_0BA@CNHFEDLA@glClearBufferfv@		; `string'
PUBLIC	??_C@_0BA@OACPENCO@glClearBufferfi@		; `string'
PUBLIC	??_C@_0N@PILJCBOD@glGetStringi@			; `string'
PUBLIC	??_C@_0BB@DGGHKKOH@glIsRenderbuffer@		; `string'
PUBLIC	??_C@_0BD@EPOPJGFA@glBindRenderbuffer@		; `string'
PUBLIC	??_C@_0BG@KKOKEJDE@glDeleteRenderbuffers@	; `string'
PUBLIC	??_C@_0BD@MIGEDNGJ@glGenRenderbuffers@		; `string'
PUBLIC	??_C@_0BG@EOIILGMJ@glRenderbufferStorage@	; `string'
PUBLIC	??_C@_0BN@FGKAECKO@glGetRenderbufferParameteriv@ ; `string'
PUBLIC	??_C@_0BA@FGBIJCNH@glIsFramebuffer@		; `string'
PUBLIC	??_C@_0BC@CJMIBNO@glBindFramebuffer@		; `string'
PUBLIC	??_C@_0BF@DJNJENP@glDeleteFramebuffers@		; `string'
PUBLIC	??_C@_0BC@FAPEBGID@glGenFramebuffers@		; `string'
PUBLIC	??_C@_0BJ@GIOLHEAD@glCheckFramebufferStatus@	; `string'
PUBLIC	??_C@_0BH@JAMDNNBM@glFramebufferTexture1D@	; `string'
PUBLIC	??_C@_0BH@JCIFGDEF@glFramebufferTexture2D@	; `string'
PUBLIC	??_C@_0BH@JDEHAJHC@glFramebufferTexture3D@	; `string'
PUBLIC	??_C@_0BK@OJDINAOA@glFramebufferRenderbuffer@	; `string'
PUBLIC	??_C@_0CG@KLDGJEON@glGetFramebufferAttachmentParam@ ; `string'
PUBLIC	??_C@_0BB@BHNIMGDM@glGenerateMipmap@		; `string'
PUBLIC	??_C@_0BC@OANBDDEP@glBlitFramebuffer@		; `string'
PUBLIC	??_C@_0CB@HNONLGJE@glRenderbufferStorageMultisampl@ ; `string'
PUBLIC	??_C@_0BK@NIHIDBBO@glFramebufferTextureLayer@	; `string'
PUBLIC	??_C@_0BB@EOHJGBIO@glMapBufferRange@		; `string'
PUBLIC	??_C@_0BJ@NCDMGHKF@glFlushMappedBufferRange@	; `string'
PUBLIC	??_C@_0BC@LHBAHFAN@glBindVertexArray@		; `string'
PUBLIC	??_C@_0BF@BMPCJLEF@glDeleteVertexArrays@	; `string'
PUBLIC	??_C@_0BC@EPJLBJBJ@glGenVertexArrays@		; `string'
PUBLIC	??_C@_0BA@ODJEGGAE@glIsVertexArray@		; `string'
PUBLIC	??_C@_0BG@HIOFINAN@glDrawArraysInstanced@	; `string'
PUBLIC	??_C@_0BI@CGJENFBH@glDrawElementsInstanced@	; `string'
PUBLIC	??_C@_0M@IIMBBALL@glTexBuffer@			; `string'
PUBLIC	??_C@_0BI@LJDLNGAF@glPrimitiveRestartIndex@	; `string'
PUBLIC	??_C@_0BE@EPKABDOG@glCopyBufferSubData@		; `string'
PUBLIC	??_C@_0BE@MDPMIDEE@glGetUniformIndices@		; `string'
PUBLIC	??_C@_0BG@JEHIMPCG@glGetActiveUniformsiv@	; `string'
PUBLIC	??_C@_0BH@EGGFHKJJ@glGetActiveUniformName@	; `string'
PUBLIC	??_C@_0BH@CBDIMHHE@glGetUniformBlockIndex@	; `string'
PUBLIC	??_C@_0BK@DMHOPJGL@glGetActiveUniformBlockiv@	; `string'
PUBLIC	??_C@_0BM@KEMCJPAJ@glGetActiveUniformBlockName@	; `string'
PUBLIC	??_C@_0BG@BOLEKKCP@glUniformBlockBinding@	; `string'
PUBLIC	??_C@_0BJ@LFMMIAHA@glDrawElementsBaseVertex@	; `string'
PUBLIC	??_C@_0BO@KBDDBILP@glDrawRangeElementsBaseVertex@ ; `string'
PUBLIC	??_C@_0CC@KLOIIKNA@glDrawElementsInstancedBaseVert@ ; `string'
PUBLIC	??_C@_0BO@NAPFJEEK@glMultiDrawElementsBaseVertex@ ; `string'
PUBLIC	??_C@_0BC@ECOAPEBI@glProvokingVertex@		; `string'
PUBLIC	??_C@_0M@EFGFPFLP@glFenceSync@			; `string'
PUBLIC	??_C@_08JPIIHJEO@glIsSync@			; `string'
PUBLIC	??_C@_0N@PIFDNDFG@glDeleteSync@			; `string'
PUBLIC	??_C@_0BB@KDMPGJAC@glClientWaitSync@		; `string'
PUBLIC	??_C@_0L@MHLOGHGO@glWaitSync@			; `string'
PUBLIC	??_C@_0BA@INMBOHGL@glGetInteger64v@		; `string'
PUBLIC	??_C@_0M@MPEEOPIN@glGetSynciv@			; `string'
PUBLIC	??_C@_0BC@KOJILIEC@glGetInteger64i_v@		; `string'
PUBLIC	??_C@_0BJ@KKBIDGPP@glGetBufferParameteri64v@	; `string'
PUBLIC	??_C@_0BF@ENLMLILA@glFramebufferTexture@	; `string'
PUBLIC	??_C@_0BI@FHDFLFA@glTexImage2DMultisample@	; `string'
PUBLIC	??_C@_0BI@JIHMLKCG@glTexImage3DMultisample@	; `string'
PUBLIC	??_C@_0BD@DHLIMGN@glGetMultisamplefv@		; `string'
PUBLIC	??_C@_0O@JNHBCHMB@glSampleMaski@		; `string'
PUBLIC	??_C@_0BO@POJBGCGG@glBindFragDataLocationIndexed@ ; `string'
PUBLIC	??_C@_0BD@COCJFEOH@glGetFragDataIndex@		; `string'
PUBLIC	??_C@_0O@EMMLGGLG@glGenSamplers@		; `string'
PUBLIC	??_C@_0BB@FLPAOEOO@glDeleteSamplers@		; `string'
PUBLIC	??_C@_0M@LAJKHOKJ@glIsSampler@			; `string'
PUBLIC	??_C@_0O@PDEILAPG@glBindSampler@		; `string'
PUBLIC	??_C@_0BE@KBCBMPJO@glSamplerParameteri@		; `string'
PUBLIC	??_C@_0BF@GOHDEBPM@glSamplerParameteriv@	; `string'
PUBLIC	??_C@_0BE@CGLJNDFB@glSamplerParameterf@		; `string'
PUBLIC	??_C@_0BF@GFCPAGMB@glSamplerParameterfv@	; `string'
PUBLIC	??_C@_0BG@HKEIFIHF@glSamplerParameterIiv@	; `string'
PUBLIC	??_C@_0BH@FEMFBPPB@glSamplerParameterIuiv@	; `string'
PUBLIC	??_C@_0BI@FECAOLJP@glGetSamplerParameteriv@	; `string'
PUBLIC	??_C@_0BJ@KOMJDLDN@glGetSamplerParameterIiv@	; `string'
PUBLIC	??_C@_0BI@FPHMKMKC@glGetSamplerParameterfv@	; `string'
PUBLIC	??_C@_0BK@CMBGFHDA@glGetSamplerParameterIuiv@	; `string'
PUBLIC	??_C@_0P@KALICDIM@glQueryCounter@		; `string'
PUBLIC	??_C@_0BF@JDAPDEPE@glGetQueryObjecti64v@	; `string'
PUBLIC	??_C@_0BG@NEGGOMJO@glGetQueryObjectui64v@	; `string'
PUBLIC	??_C@_0BG@NEBMAEHM@glVertexAttribDivisor@	; `string'
PUBLIC	??_C@_0BD@FLACCOEN@glVertexAttribP1ui@		; `string'
PUBLIC	??_C@_0BE@HBFDOBHD@glVertexAttribP1uiv@		; `string'
PUBLIC	??_C@_0BD@EJLHIBKD@glVertexAttribP2ui@		; `string'
PUBLIC	??_C@_0BE@DGPDJLKD@glVertexAttribP2uiv@		; `string'
PUBLIC	??_C@_0BD@PBALOGMG@glVertexAttribP3ui@		; `string'
PUBLIC	??_C@_0BE@LJDLCBD@glVertexAttribP3uiv@		; `string'
PUBLIC	??_C@_0BD@GMNMNOHP@glVertexAttribP4ui@		; `string'
PUBLIC	??_C@_0BE@LJLDGOAD@glVertexAttribP4uiv@		; `string'
PUBLIC	??_C@_0N@EFBCIBMC@glVertexP2ui@			; `string'
PUBLIC	??_C@_0O@MEKGPGN@glVertexP2uiv@			; `string'
PUBLIC	??_C@_0N@PNKOOGKH@glVertexP3ui@			; `string'
PUBLIC	??_C@_0O@DBCKEGNN@glVertexP3uiv@		; `string'
PUBLIC	??_C@_0N@GAHJNOBO@glVertexP4ui@			; `string'
PUBLIC	??_C@_0O@IDAKJKMN@glVertexP4uiv@		; `string'
PUBLIC	??_C@_0P@OLJHLLHJ@glTexCoordP1ui@		; `string'
PUBLIC	??_C@_0BA@FAFHIAFD@glTexCoordP1uiv@		; `string'
PUBLIC	??_C@_0P@PJCCBEJH@glTexCoordP2ui@		; `string'
PUBLIC	??_C@_0BA@BHPHPKID@glTexCoordP2uiv@		; `string'
PUBLIC	??_C@_0P@EBJOHDPC@glTexCoordP3ui@		; `string'
PUBLIC	??_C@_0BA@CKJHNDDD@glTexCoordP3uiv@		; `string'
PUBLIC	??_C@_0P@NMEJELEL@glTexCoordP4ui@		; `string'
PUBLIC	??_C@_0BA@JILHAPCD@glTexCoordP4uiv@		; `string'
PUBLIC	??_C@_0BE@OAHHKHKG@glMultiTexCoordP1ui@		; `string'
PUBLIC	??_C@_0BF@EGDAKPAK@glMultiTexCoordP1uiv@	; `string'
PUBLIC	??_C@_0BE@PCMCAIEI@glMultiTexCoordP2ui@		; `string'
PUBLIC	??_C@_0BF@BJANFNK@glMultiTexCoordP2uiv@		; `string'
PUBLIC	??_C@_0BE@EKHOGPCN@glMultiTexCoordP3ui@		; `string'
PUBLIC	??_C@_0BF@DMPAPMGK@glMultiTexCoordP3uiv@	; `string'
PUBLIC	??_C@_0BE@NHKJFHJE@glMultiTexCoordP4ui@		; `string'
PUBLIC	??_C@_0BF@IONACAHK@glMultiTexCoordP4uiv@	; `string'
PUBLIC	??_C@_0N@PBEFBNHO@glNormalP3ui@			; `string'
PUBLIC	??_C@_0O@MOCJMHFG@glNormalP3uiv@		; `string'
PUBLIC	??_C@_0M@PEKBINNN@glColorP3ui@			; `string'
PUBLIC	??_C@_0N@IBPDNBJE@glColorP3uiv@			; `string'
PUBLIC	??_C@_0M@GJHGLFGE@glColorP4ui@			; `string'
PUBLIC	??_C@_0N@DDNDANIE@glColorP4uiv@			; `string'
PUBLIC	??_C@_0BF@PDDGBPKP@glSecondaryColorP3ui@	; `string'
PUBLIC	??_C@_0BG@DPPPFGBG@glSecondaryColorP3uiv@	; `string'
PUBLIC	??_C@_0BD@EDGCEBP@glMinSampleShading@		; `string'
PUBLIC	??_C@_0BB@MKHLNEOM@glBlendEquationi@		; `string'
PUBLIC	??_C@_0BJ@FNMBAGAC@glBlendEquationSeparatei@	; `string'
PUBLIC	??_C@_0N@IKKELNNP@glBlendFunci@			; `string'
PUBLIC	??_C@_0BF@PDDGKNBJ@glBlendFuncSeparatei@	; `string'
PUBLIC	??_C@_0BF@BGDCPAEP@glDrawArraysIndirect@	; `string'
PUBLIC	??_C@_0BH@LJJDOEDH@glDrawElementsIndirect@	; `string'
PUBLIC	??_C@_0M@PJLEGNGH@glUniform1d@			; `string'
PUBLIC	??_C@_0M@PLPCNDDO@glUniform2d@			; `string'
PUBLIC	??_C@_0M@PKDALJAJ@glUniform3d@			; `string'
PUBLIC	??_C@_0M@PPHPKPIM@glUniform4d@			; `string'
PUBLIC	??_C@_0N@KKEKJOOG@glUniform1dv@			; `string'
PUBLIC	??_C@_0N@LIPPDBAI@glUniform2dv@			; `string'
PUBLIC	??_C@_0N@EDFGGN@glUniform3dv@			; `string'
PUBLIC	??_C@_0N@JNJEGONE@glUniform4dv@			; `string'
PUBLIC	??_C@_0BD@JLJNJPBN@glUniformMatrix2dv@		; `string'
PUBLIC	??_C@_0BD@CDCBPIHI@glUniformMatrix3dv@		; `string'
PUBLIC	??_C@_0BD@LOPGMAMB@glUniformMatrix4dv@		; `string'
PUBLIC	??_C@_0BF@KALNBGFE@glUniformMatrix2x3dv@	; `string'
PUBLIC	??_C@_0BF@DNGKCOON@glUniformMatrix2x4dv@	; `string'
PUBLIC	??_C@_0BF@NDFNKCJE@glUniformMatrix3x2dv@	; `string'
PUBLIC	??_C@_0BF@PGDGPNEI@glUniformMatrix3x4dv@	; `string'
PUBLIC	??_C@_0BF@MOFIJCCM@glUniformMatrix4x2dv@	; `string'
PUBLIC	??_C@_0BF@HGOEPFEJ@glUniformMatrix4x3dv@	; `string'
PUBLIC	??_C@_0P@NGEMHI@glGetUniformdv@			; `string'
PUBLIC	??_C@_0BP@IBIPLDOA@glGetSubroutineUniformLocation@ ; `string'
PUBLIC	??_C@_0BF@ONDIGCJG@glGetSubroutineIndex@	; `string'
PUBLIC	??_C@_0BP@FAPFAJFP@glGetActiveSubroutineUniformiv@ ; `string'
PUBLIC	??_C@_0CB@KCFFPCGJ@glGetActiveSubroutineUniformNam@ ; `string'
PUBLIC	??_C@_0BK@JPHEACLL@glGetActiveSubroutineName@	; `string'
PUBLIC	??_C@_0BI@CDPOBBHI@glUniformSubroutinesuiv@	; `string'
PUBLIC	??_C@_0BK@BLMOFAGJ@glGetUniformSubroutineuiv@	; `string'
PUBLIC	??_C@_0BE@LOKJCDFH@glGetProgramStageiv@		; `string'
PUBLIC	??_C@_0BC@PAPDGMLA@glPatchParameteri@		; `string'
PUBLIC	??_C@_0BD@LJKINJKN@glPatchParameterfv@		; `string'
PUBLIC	??_C@_0BI@BPJKLMIG@glBindTransformFeedback@	; `string'
PUBLIC	??_C@_0BL@DIGEBFBK@glDeleteTransformFeedbacks@	; `string'
PUBLIC	??_C@_0BI@KANKBGAE@glGenTransformFeedbacks@	; `string'
PUBLIC	??_C@_0BG@BGFLKHBM@glIsTransformFeedback@	; `string'
PUBLIC	??_C@_0BJ@FFNLKBCB@glPauseTransformFeedback@	; `string'
PUBLIC	??_C@_0BK@JMHONFHF@glResumeTransformFeedback@	; `string'
PUBLIC	??_C@_0BI@LEOILCPN@glDrawTransformFeedback@	; `string'
PUBLIC	??_C@_0BO@IGLFNCDG@glDrawTransformFeedbackStream@ ; `string'
PUBLIC	??_C@_0BE@BDKPJDEE@glBeginQueryIndexed@		; `string'
PUBLIC	??_C@_0BC@DPMHMNME@glEndQueryIndexed@		; `string'
PUBLIC	??_C@_0BE@CCFJPMFI@glGetQueryIndexediv@		; `string'
PUBLIC	??_C@_0BI@HGKABJPJ@glReleaseShaderCompiler@	; `string'
PUBLIC	??_C@_0P@IMINELFB@glShaderBinary@		; `string'
PUBLIC	??_C@_0BL@MLAOOHPD@glGetShaderPrecisionFormat@	; `string'
PUBLIC	??_C@_0O@JDFJDNND@glDepthRangef@		; `string'
PUBLIC	??_C@_0O@FMBMCDIL@glClearDepthf@		; `string'
PUBLIC	??_C@_0BD@JBCEHKON@glGetProgramBinary@		; `string'
PUBLIC	??_C@_0BA@MIIDHOO@glProgramBinary@		; `string'
PUBLIC	??_C@_0BE@EELDBEME@glProgramParameteri@		; `string'
PUBLIC	??_C@_0BD@CADKHDMH@glUseProgramStages@		; `string'
PUBLIC	??_C@_0BG@IAIOGMEB@glActiveShaderProgram@	; `string'
PUBLIC	??_C@_0BH@BOJGDFJN@glCreateShaderProgramv@	; `string'
PUBLIC	??_C@_0BG@GLPOKNCG@glBindProgramPipeline@	; `string'
PUBLIC	??_C@_0BJ@CHBGABHE@glDeleteProgramPipelines@	; `string'
PUBLIC	??_C@_0BG@CCBKOCA@glGenProgramPipelines@	; `string'
PUBLIC	??_C@_0BE@DLHPDHCH@glIsProgramPipeline@		; `string'
PUBLIC	??_C@_0BH@DNOPNJMO@glGetProgramPipelineiv@	; `string'
PUBLIC	??_C@_0BD@COCLMGIM@glProgramUniform1i@		; `string'
PUBLIC	??_C@_0BE@JNEFDKLN@glProgramUniform1iv@		; `string'
PUBLIC	??_C@_0BD@KJLDNKED@glProgramUniform1f@		; `string'
PUBLIC	??_C@_0BE@JGBJHNIA@glProgramUniform1fv@		; `string'
PUBLIC	??_C@_0BD@JLIFLIMB@glProgramUniform1d@		; `string'
PUBLIC	??_C@_0BE@JFJNKJOO@glProgramUniform1dv@		; `string'
PUBLIC	??_C@_0BE@EFCDGODH@glProgramUniform1ui@		; `string'
PUBLIC	??_C@_0BF@MBJNFIBB@glProgramUniform1uiv@	; `string'
PUBLIC	??_C@_0BD@CMGNHINF@glProgramUniform2i@		; `string'
PUBLIC	??_C@_0BE@IPPAJFFD@glProgramUniform2iv@		; `string'
PUBLIC	??_C@_0BD@KLPFGEBK@glProgramUniform2f@		; `string'
PUBLIC	??_C@_0BE@IEKMNCGO@glProgramUniform2fv@		; `string'
PUBLIC	??_C@_0BD@JJMDAGJI@glProgramUniform2d@		; `string'
PUBLIC	??_C@_0BE@IHCIAGAA@glProgramUniform2dv@		; `string'
PUBLIC	??_C@_0BE@FHJGMBNJ@glProgramUniform2ui@		; `string'
PUBLIC	??_C@_0BF@IGDNCCMB@glProgramUniform2uiv@	; `string'
PUBLIC	??_C@_0BD@CNKPBCOC@glProgramUniform3i@		; `string'
PUBLIC	??_C@_0BE@DHEMPCDG@glProgramUniform3iv@		; `string'
PUBLIC	??_C@_0BD@KKDHAOCN@glProgramUniform3f@		; `string'
PUBLIC	??_C@_0BE@DMBALFAL@glProgramUniform3fv@		; `string'
PUBLIC	??_C@_0BD@JIABGMKP@glProgramUniform3d@		; `string'
PUBLIC	??_C@_0BE@DPJEGBGF@glProgramUniform3dv@		; `string'
PUBLIC	??_C@_0BE@OPCKKGLM@glProgramUniform3ui@		; `string'
PUBLIC	??_C@_0BF@LLFNALHB@glProgramUniform3uiv@	; `string'
PUBLIC	??_C@_0BD@CIOAAEGH@glProgramUniform4i@		; `string'
PUBLIC	??_C@_0BE@KKJLMKIP@glProgramUniform4iv@		; `string'
PUBLIC	??_C@_0BD@KPHIBIKI@glProgramUniform4f@		; `string'
PUBLIC	??_C@_0BE@KBMHINLC@glProgramUniform4fv@		; `string'
PUBLIC	??_C@_0BD@JNEOHKCK@glProgramUniform4d@		; `string'
PUBLIC	??_C@_0BE@KCEDFJNM@glProgramUniform4dv@		; `string'
PUBLIC	??_C@_0BE@HCPNJOAF@glProgramUniform4ui@		; `string'
PUBLIC	??_C@_0BF@JHNNHGB@glProgramUniform4uiv@		; `string'
PUBLIC	??_C@_0BK@PDPPIOAF@glProgramUniformMatrix2fv@	; `string'
PUBLIC	??_C@_0BK@ELEDOJGA@glProgramUniformMatrix3fv@	; `string'
PUBLIC	??_C@_0BK@NGJENBNJ@glProgramUniformMatrix4fv@	; `string'
PUBLIC	??_C@_0BK@PAHLFKGL@glProgramUniformMatrix2dv@	; `string'
PUBLIC	??_C@_0BK@EIMHDNAO@glProgramUniformMatrix3dv@	; `string'
PUBLIC	??_C@_0BK@NFBAAFLH@glProgramUniformMatrix4dv@	; `string'
PUBLIC	??_C@_0BM@DBFCEBJD@glProgramUniformMatrix2x3fv@	; `string'
PUBLIC	??_C@_0BM@ECLCPFFD@glProgramUniformMatrix3x2fv@	; `string'
PUBLIC	??_C@_0BM@KMIFHJCK@glProgramUniformMatrix2x4fv@	; `string'
PUBLIC	??_C@_0BM@FPLHMFOL@glProgramUniformMatrix4x2fv@	; `string'
PUBLIC	??_C@_0BM@GHNJKKIP@glProgramUniformMatrix3x4fv@	; `string'
PUBLIC	??_C@_0BM@OHALKCIO@glProgramUniformMatrix4x3fv@	; `string'
PUBLIC	??_C@_0BM@DCNGJFPN@glProgramUniformMatrix2x3dv@	; `string'
PUBLIC	??_C@_0BM@EBDGCBDN@glProgramUniformMatrix3x2dv@	; `string'
PUBLIC	??_C@_0BM@KPABKNEE@glProgramUniformMatrix2x4dv@	; `string'
PUBLIC	??_C@_0BM@FMDDBBIF@glProgramUniformMatrix4x2dv@	; `string'
PUBLIC	??_C@_0BM@GEFNHOOB@glProgramUniformMatrix3x4dv@	; `string'
PUBLIC	??_C@_0BM@OEIPHGOA@glProgramUniformMatrix4x3dv@	; `string'
PUBLIC	??_C@_0BK@HHHCKEGH@glValidateProgramPipeline@	; `string'
PUBLIC	??_C@_0BM@BFFCFFFG@glGetProgramPipelineInfoLog@	; `string'
PUBLIC	??_C@_0BC@KBPIECHE@glVertexAttribL1d@		; `string'
PUBLIC	??_C@_0BC@KDLOPMCN@glVertexAttribL2d@		; `string'
PUBLIC	??_C@_0BC@KCHMJGBK@glVertexAttribL3d@		; `string'
PUBLIC	??_C@_0BC@KHDDIAJP@glVertexAttribL4d@		; `string'
PUBLIC	??_C@_0BD@COKMJDBH@glVertexAttribL1dv@		; `string'
PUBLIC	??_C@_0BD@DMBJDMPJ@glVertexAttribL2dv@		; `string'
PUBLIC	??_C@_0BD@IEKFFLJM@glVertexAttribL3dv@		; `string'
PUBLIC	??_C@_0BD@BJHCGDCF@glVertexAttribL4dv@		; `string'
PUBLIC	??_C@_0BH@JBHDDPGM@glVertexAttribLPointer@	; `string'
PUBLIC	??_C@_0BF@JADLCNLO@glGetVertexAttribLdv@	; `string'
PUBLIC	??_C@_0BB@JIDIDPIB@glViewportArrayv@		; `string'
PUBLIC	??_C@_0BD@JIBIAPIN@glViewportIndexedf@		; `string'
PUBLIC	??_C@_0BE@OKPEDJOC@glViewportIndexedfv@		; `string'
PUBLIC	??_C@_0BA@BMNFINIA@glScissorArrayv@		; `string'
PUBLIC	??_C@_0BB@BJHNCIAL@glScissorIndexed@		; `string'
PUBLIC	??_C@_0BC@OOKOHKNA@glScissorIndexedv@		; `string'
PUBLIC	??_C@_0BD@JLCIOMKN@glDepthRangeArrayv@		; `string'
PUBLIC	??_C@_0BE@FMCFIJBP@glDepthRangeIndexed@		; `string'
PUBLIC	??_C@_0O@JKEOHGC@glGetFloati_v@			; `string'
PUBLIC	??_C@_0P@PDJCBGIA@glGetDoublei_v@		; `string'
PUBLIC	??_C@_0CC@FBJBJHCN@glDrawArraysInstancedBaseInstan@ ; `string'
PUBLIC	??_C@_0CE@NGNINKJD@glDrawElementsInstancedBaseInst@ ; `string'
PUBLIC	??_C@_0CO@GCMNEAOA@glDrawElementsInstancedBaseVert@ ; `string'
PUBLIC	??_C@_0BG@BAOCDJPF@glGetInternalformativ@	; `string'
PUBLIC	??_C@_0CB@CEHFMJFN@glGetActiveAtomicCounterBufferi@ ; `string'
PUBLIC	??_C@_0BD@GAKEPNGD@glBindImageTexture@		; `string'
PUBLIC	??_C@_0BA@HIHPNLBJ@glMemoryBarrier@		; `string'
PUBLIC	??_C@_0P@LCLGPEBO@glTexStorage1D@		; `string'
PUBLIC	??_C@_0P@LAPAEKEH@glTexStorage2D@		; `string'
PUBLIC	??_C@_0P@LBDCCAHA@glTexStorage3D@		; `string'
PUBLIC	??_C@_0CB@NDMLCEF@glDrawTransformFeedbackInstance@ ; `string'
PUBLIC	??_C@_0CH@OMPFKBLK@glDrawTransformFeedbackStreamIn@ ; `string'
PUBLIC	??_C@_0BC@FCMBBKMP@glClearBufferData@		; `string'
PUBLIC	??_C@_0BF@FDHIBCMD@glClearBufferSubData@	; `string'
PUBLIC	??_C@_0BC@DKKFFIGC@glDispatchCompute@		; `string'
PUBLIC	??_C@_0BK@EJMOGMMI@glDispatchComputeIndirect@	; `string'
PUBLIC	??_C@_0BD@BNCHOBBL@glCopyImageSubData@		; `string'
PUBLIC	??_C@_0BI@MLACHGDK@glFramebufferParameteri@	; `string'
PUBLIC	??_C@_0BM@BFEEFCMK@glGetFramebufferParameteriv@	; `string'
PUBLIC	??_C@_0BI@PHNNEGBD@glGetInternalformati64v@	; `string'
PUBLIC	??_C@_0BI@FJDKFLGL@glInvalidateTexSubImage@	; `string'
PUBLIC	??_C@_0BF@KHIECPKG@glInvalidateTexImage@	; `string'
PUBLIC	??_C@_0BK@HOHOHNAC@glInvalidateBufferSubData@	; `string'
PUBLIC	??_C@_0BH@OGIFIBHA@glInvalidateBufferData@	; `string'
PUBLIC	??_C@_0BI@OAJPOHIP@glInvalidateFramebuffer@	; `string'
PUBLIC	??_C@_0BL@IHGLAPPE@glInvalidateSubFramebuffer@	; `string'
PUBLIC	??_C@_0BK@IKGAIKOP@glMultiDrawArraysIndirect@	; `string'
PUBLIC	??_C@_0BM@KHEEFMKO@glMultiDrawElementsIndirect@	; `string'
PUBLIC	??_C@_0BI@ICGPDPK@glGetProgramInterfaceiv@	; `string'
PUBLIC	??_C@_0BK@DBDCONKB@glGetProgramResourceIndex@	; `string'
PUBLIC	??_C@_0BJ@OHCPEAGJ@glGetProgramResourceName@	; `string'
PUBLIC	??_C@_0BH@LEDFEPHI@glGetProgramResourceiv@	; `string'
PUBLIC	??_C@_0BN@BIJNENLC@glGetProgramResourceLocation@ ; `string'
PUBLIC	??_C@_0CC@GHECGAIH@glGetProgramResourceLocationInd@ ; `string'
PUBLIC	??_C@_0BM@GDDCNIBO@glShaderStorageBlockBinding@	; `string'
PUBLIC	??_C@_0BB@DPMGLFNI@glTexBufferRange@		; `string'
PUBLIC	??_C@_0BK@PDJAKDKP@glTexStorage2DMultisample@	; `string'
PUBLIC	??_C@_0BK@GOJPECNJ@glTexStorage3DMultisample@	; `string'
PUBLIC	??_C@_0O@BNFDGIMP@glTextureView@		; `string'
PUBLIC	??_C@_0BD@FCGJAOHG@glBindVertexBuffer@		; `string'
PUBLIC	??_C@_0BF@JEIPPBFE@glVertexAttribFormat@	; `string'
PUBLIC	??_C@_0BG@KJAHAHDI@glVertexAttribIFormat@	; `string'
PUBLIC	??_C@_0BG@OBOHAJFM@glVertexAttribLFormat@	; `string'
PUBLIC	??_C@_0BG@MLFHCGE@glVertexAttribBinding@	; `string'
PUBLIC	??_C@_0BH@GNGCLGOI@glVertexBindingDivisor@	; `string'
PUBLIC	??_C@_0BG@MNBDCEEP@glDebugMessageControl@	; `string'
PUBLIC	??_C@_0BF@DGOJNFDO@glDebugMessageInsert@	; `string'
PUBLIC	??_C@_0BH@IGFENJCI@glDebugMessageCallback@	; `string'
PUBLIC	??_C@_0BF@FGBMJKND@glGetDebugMessageLog@	; `string'
PUBLIC	??_C@_0BB@DEFFBEGJ@glPushDebugGroup@		; `string'
PUBLIC	??_C@_0BA@PMJBDENK@glPopDebugGroup@		; `string'
PUBLIC	??_C@_0O@EFJDECDM@glObjectLabel@		; `string'
PUBLIC	??_C@_0BB@MOEDHKDB@glGetObjectLabel@		; `string'
PUBLIC	??_C@_0BB@FBABGDIL@glObjectPtrLabel@		; `string'
PUBLIC	??_C@_0BE@MIJFJOHM@glGetObjectPtrLabel@		; `string'
PUBLIC	??_C@_0O@LADEDGJO@glGetPointerv@		; `string'
PUBLIC	??_C@_0BA@COBILMHM@glBufferStorage@		; `string'
PUBLIC	??_C@_0BA@FNPOIBAF@glClearTexImage@		; `string'
PUBLIC	??_C@_0BD@CFALBON@glClearTexSubImage@		; `string'
PUBLIC	??_C@_0BC@ENBBLPHM@glBindBuffersBase@		; `string'
PUBLIC	??_C@_0BD@ODFFOKPN@glBindBuffersRange@		; `string'
PUBLIC	??_C@_0P@KHDEIIMA@glBindTextures@		; `string'
PUBLIC	??_C@_0P@FADPDFKM@glBindSamplers@		; `string'
PUBLIC	??_C@_0BE@NAMJLOCK@glBindImageTextures@		; `string'
PUBLIC	??_C@_0BE@LNCGJHDC@glBindVertexBuffers@		; `string'
PUBLIC	??_C@_0O@DMMKFMGC@glClipControl@		; `string'
PUBLIC	??_C@_0BL@HPCMJLAK@glCreateTransformFeedbacks@	; `string'
PUBLIC	??_C@_0BO@EGLKNJFA@glTransformFeedbackBufferBase@ ; `string'
PUBLIC	??_C@_0BP@NBIGCNHI@glTransformFeedbackBufferRange@ ; `string'
PUBLIC	??_C@_0BJ@OFMLPMDO@glGetTransformFeedbackiv@	; `string'
PUBLIC	??_C@_0BK@IPHNHFEI@glGetTransformFeedbacki_v@	; `string'
PUBLIC	??_C@_0BM@KDHFPNLE@glGetTransformFeedbacki64_v@	; `string'
PUBLIC	??_C@_0BA@LNBCEANP@glCreateBuffers@		; `string'
PUBLIC	??_C@_0BF@INMFIINC@glNamedBufferStorage@	; `string'
PUBLIC	??_C@_0BC@LHEABGCG@glNamedBufferData@		; `string'
PUBLIC	??_C@_0BF@MDEBAFLD@glNamedBufferSubData@	; `string'
PUBLIC	??_C@_0BJ@MJPDCHND@glCopyNamedBufferSubData@	; `string'
PUBLIC	??_C@_0BH@KJMLMCB@glClearNamedBufferData@	; `string'
PUBLIC	??_C@_0BK@BNIDNJBH@glClearNamedBufferSubData@	; `string'
PUBLIC	??_C@_0BB@JLMCGIDB@glMapNamedBuffer@		; `string'
PUBLIC	??_C@_0BG@JLCGKFD@glMapNamedBufferRange@	; `string'
PUBLIC	??_C@_0BD@LAAONAHD@glUnmapNamedBuffer@		; `string'
PUBLIC	??_C@_0BO@DBGNKBKH@glFlushMappedNamedBufferRange@ ; `string'
PUBLIC	??_C@_0BM@KFAGBFPK@glGetNamedBufferParameteriv@	; `string'
PUBLIC	??_C@_0BO@ECJNIDNL@glGetNamedBufferParameteri64v@ ; `string'
PUBLIC	??_C@_0BJ@NBEMEIKG@glGetNamedBufferPointerv@	; `string'
PUBLIC	??_C@_0BI@PJBCKPNA@glGetNamedBufferSubData@	; `string'
PUBLIC	??_C@_0BF@DDKJIBLC@glCreateFramebuffers@	; `string'
PUBLIC	??_C@_0BP@MGCPNBGC@glNamedFramebufferRenderbuffer@ ; `string'
PUBLIC	??_C@_0BN@LBMOOIHC@glNamedFramebufferParameteri@ ; `string'
PUBLIC	??_C@_0BK@PNJJLPPI@glNamedFramebufferTexture@	; `string'
PUBLIC	??_C@_0BP@PHGPDAJM@glNamedFramebufferTextureLayer@ ; `string'
PUBLIC	??_C@_0BN@MOAIHNEF@glNamedFramebufferDrawBuffer@ ; `string'
PUBLIC	??_C@_0BO@CGKJHFH@glNamedFramebufferDrawBuffers@ ; `string'
PUBLIC	??_C@_0BN@LPANNPJE@glNamedFramebufferReadBuffer@ ; `string'
PUBLIC	??_C@_0CB@OGGNKJIL@glInvalidateNamedFramebufferDat@ ; `string'
PUBLIC	??_C@_0CE@DEGDCFND@glInvalidateNamedFramebufferSub@ ; `string'
PUBLIC	??_C@_0BK@NPOLJJAK@glClearNamedFramebufferiv@	; `string'
PUBLIC	??_C@_0BL@JENKNAJN@glClearNamedFramebufferuiv@	; `string'
PUBLIC	??_C@_0BK@NELHNODH@glClearNamedFramebufferfv@	; `string'
PUBLIC	??_C@_0BK@BJONNAKJ@glClearNamedFramebufferfi@	; `string'
PUBLIC	??_C@_0BH@FNFDNHAI@glBlitNamedFramebuffer@	; `string'
PUBLIC	??_C@_0BO@LMABFPGK@glCheckNamedFramebufferStatus@ ; `string'
PUBLIC	??_C@_0CB@COGAJBEM@glGetNamedFramebufferParameteri@ ; `string'
PUBLIC	??_C@_0CL@BGDPEPCC@glGetNamedFramebufferAttachment@ ; `string'
PUBLIC	??_C@_0BG@JJNJGAME@glCreateRenderbuffers@	; `string'
PUBLIC	??_C@_0BL@DGDPFKGM@glNamedRenderbufferStorage@	; `string'
PUBLIC	??_C@_0CG@IDKJGKBA@glNamedRenderbufferStorageMulti@ ; `string'
PUBLIC	??_C@_0CC@FCEAEAHI@glGetNamedRenderbufferParameter@ ; `string'
PUBLIC	??_C@_0BB@LABGPBKD@glCreateTextures@		; `string'
PUBLIC	??_C@_0BA@BEJOBNBA@glTextureBuffer@		; `string'
PUBLIC	??_C@_0BF@HAEPGPBJ@glTextureBufferRange@	; `string'
PUBLIC	??_C@_0BD@CJOBHECL@glTextureStorage1D@		; `string'
PUBLIC	??_C@_0BD@CLKHMKHC@glTextureStorage2D@		; `string'
PUBLIC	??_C@_0BD@CKGFKAEF@glTextureStorage3D@		; `string'
PUBLIC	??_C@_0BO@CIHBMJOI@glTextureStorage2DMultisample@ ; `string'
PUBLIC	??_C@_0BO@LFHOCIJO@glTextureStorage3DMultisample@ ; `string'
PUBLIC	??_C@_0BE@IDMGLJDA@glTextureSubImage1D@		; `string'
PUBLIC	??_C@_0BE@IBIAAHGJ@glTextureSubImage2D@		; `string'
PUBLIC	??_C@_0BE@IAECGNFO@glTextureSubImage3D@		; `string'
PUBLIC	??_C@_0BO@NIHAIHFC@glCompressedTextureSubImage1D@ ; `string'
PUBLIC	??_C@_0BO@NKDGDJAL@glCompressedTextureSubImage2D@ ; `string'
PUBLIC	??_C@_0BO@NLPEFDDM@glCompressedTextureSubImage3D@ ; `string'
PUBLIC	??_C@_0BI@DBEKPOLO@glCopyTextureSubImage1D@	; `string'
PUBLIC	??_C@_0BI@DDAMEAOH@glCopyTextureSubImage2D@	; `string'
PUBLIC	??_C@_0BI@DCMOCKNA@glCopyTextureSubImage3D@	; `string'
PUBLIC	??_C@_0BE@NLINBPMM@glTextureParameterf@		; `string'
PUBLIC	??_C@_0BF@OLGMNNPE@glTextureParameterfv@	; `string'
PUBLIC	??_C@_0BE@FMBFADAD@glTextureParameteri@		; `string'
PUBLIC	??_C@_0BG@CMHFNPIN@glTextureParameterIiv@	; `string'
PUBLIC	??_C@_0BH@OHPFFIFI@glTextureParameterIuiv@	; `string'
PUBLIC	??_C@_0BF@OADAJKMJ@glTextureParameteriv@	; `string'
PUBLIC	??_C@_0BI@JJPLGFEG@glGenerateTextureMipmap@	; `string'
PUBLIC	??_C@_0BC@NKGMGGNI@glBindTextureUnit@		; `string'
PUBLIC	??_C@_0BC@PJDCJNIH@glGetTextureImage@		; `string'
PUBLIC	??_C@_0BM@JOKODHH@glGetCompressedTextureImage@	; `string'
PUBLIC	??_C@_0BN@HMEFKCC@glGetTextureLevelParameterfv@	; `string'
PUBLIC	??_C@_0BN@MJIBNBP@glGetTextureLevelParameteriv@	; `string'
PUBLIC	??_C@_0BI@NBDPHHJH@glGetTextureParameterfv@	; `string'
PUBLIC	??_C@_0BJ@PIPELMMF@glGetTextureParameterIiv@	; `string'
PUBLIC	??_C@_0BK@JPCGBAJJ@glGetTextureParameterIuiv@	; `string'
PUBLIC	??_C@_0BI@NKGDDAKK@glGetTextureParameteriv@	; `string'
PUBLIC	??_C@_0BF@CMMGIOCI@glCreateVertexArrays@	; `string'
PUBLIC	??_C@_0BL@FEKBMKFD@glDisableVertexArrayAttrib@	; `string'
PUBLIC	??_C@_0BK@MJMKFCHC@glEnableVertexArrayAttrib@	; `string'
PUBLIC	??_C@_0BL@GGCAPDMO@glVertexArrayElementBuffer@	; `string'
PUBLIC	??_C@_0BK@BIEMNHGJ@glVertexArrayVertexBuffer@	; `string'
PUBLIC	??_C@_0BL@DAGELPBO@glVertexArrayVertexBuffers@	; `string'
PUBLIC	??_C@_0BL@DJHJAEGB@glVertexArrayAttribBinding@	; `string'
PUBLIC	??_C@_0BK@ONFBAOHM@glVertexArrayAttribFormat@	; `string'
PUBLIC	??_C@_0BL@JMMLHBDN@glVertexArrayAttribIFormat@	; `string'
PUBLIC	??_C@_0BL@NECLHPFJ@glVertexArrayAttribLFormat@	; `string'
PUBLIC	??_C@_0BM@BNDNIOBB@glVertexArrayBindingDivisor@	; `string'
PUBLIC	??_C@_0BD@CPJNCJFG@glGetVertexArrayiv@		; `string'
PUBLIC	??_C@_0BK@FIIPMDBK@glGetVertexArrayIndexediv@	; `string'
PUBLIC	??_C@_0BM@HHNNHCN@glGetVertexArrayIndexed64iv@	; `string'
PUBLIC	??_C@_0BB@EHBNEMMP@glCreateSamplers@		; `string'
PUBLIC	??_C@_0BJ@GJEEIMGK@glCreateProgramPipelines@	; `string'
PUBLIC	??_C@_0BA@PGNDPLG@glCreateQueries@		; `string'
PUBLIC	??_C@_0BL@KFECDHBF@glGetQueryBufferObjecti64v@	; `string'
PUBLIC	??_C@_0BJ@OBIFNHGB@glGetQueryBufferObjectiv@	; `string'
PUBLIC	??_C@_0BM@DFNHDHD@glGetQueryBufferObjectui64v@	; `string'
PUBLIC	??_C@_0BK@EOIEAGAD@glGetQueryBufferObjectuiv@	; `string'
PUBLIC	??_C@_0BI@IDCHHHAI@glMemoryBarrierByRegion@	; `string'
PUBLIC	??_C@_0BF@JEEEKNGB@glGetTextureSubImage@	; `string'
PUBLIC	??_C@_0BP@BIDENANP@glGetCompressedTextureSubImage@ ; `string'
PUBLIC	??_C@_0BJ@ILPAOCDN@glGetGraphicsResetStatus@	; `string'
PUBLIC	??_C@_0BJ@HLNIHAOG@glGetnCompressedTexImage@	; `string'
PUBLIC	??_C@_0P@FBKOCLCM@glGetnTexImage@		; `string'
PUBLIC	??_C@_0BA@KLGIFHJB@glGetnUniformdv@		; `string'
PUBLIC	??_C@_0BA@KIOMIDPP@glGetnUniformfv@		; `string'
PUBLIC	??_C@_0BA@KDLAMEMC@glGetnUniformiv@		; `string'
PUBLIC	??_C@_0BB@BBJMBEC@glGetnUniformuiv@		; `string'
PUBLIC	??_C@_0O@NELODAJJ@glReadnPixels@		; `string'
PUBLIC	??_C@_0M@FBDPJCFH@glGetnMapdv@			; `string'
PUBLIC	??_C@_0M@FCLLEGDJ@glGetnMapfv@			; `string'
PUBLIC	??_C@_0M@FJOHABAE@glGetnMapiv@			; `string'
PUBLIC	??_C@_0BB@JKBANCED@glGetnPixelMapfv@		; `string'
PUBLIC	??_C@_0BC@MDPMMCLE@glGetnPixelMapuiv@		; `string'
PUBLIC	??_C@_0BC@NCENOEBC@glGetnPixelMapusv@		; `string'
PUBLIC	??_C@_0BF@NBHIHHJA@glGetnPolygonStipple@	; `string'
PUBLIC	??_C@_0BB@EFKGOAOL@glGetnColorTable@		; `string'
PUBLIC	??_C@_0BI@GBFNHONB@glGetnConvolutionFilter@	; `string'
PUBLIC	??_C@_0BG@LBKKJBFC@glGetnSeparableFilter@	; `string'
PUBLIC	??_C@_0BA@POEMGEO@glGetnHistogram@		; `string'
PUBLIC	??_C@_0N@EFFKFJMK@glGetnMinmax@			; `string'
PUBLIC	??_C@_0BB@MNKDFGFC@glTextureBarrier@		; `string'
PUBLIC	??_C@_0BD@LNCLLNDI@glSpecializeShader@		; `string'
PUBLIC	??_C@_0BP@GGIOCPJI@glMultiDrawArraysIndirectCount@ ; `string'
PUBLIC	??_C@_0CB@BPEMAMPH@glMultiDrawElementsIndirectCoun@ ; `string'
PUBLIC	??_C@_0BF@ECLDHBOO@glPolygonOffsetClamp@	; `string'
PUBLIC	??_C@_0O@ENGHJHNB@OpenGL?5ES?9CM?5@		; `string'
PUBLIC	??_C@_0O@EMKFPNOG@OpenGL?5ES?9CL?5@		; `string'
PUBLIC	??_C@_0L@JLFHOCGA@OpenGL?5ES?5@			; `string'
PUBLIC	??_C@_05KBEOJPB@?$CFd?4?$CFd@			; `string'
PUBLIC	??_C@_0M@BJGLMKCC@glAlphaFunc@			; `string'
PUBLIC	??_C@_0N@CIEBEEDM@glClipPlanef@			; `string'
PUBLIC	??_C@_09PKFCMFPF@glColor4f@			; `string'
PUBLIC	??_C@_06JJHNMGPD@glFogf@			; `string'
PUBLIC	??_C@_07FNEIAABA@glFogfv@			; `string'
PUBLIC	??_C@_0L@HFEMMHCG@glFrustumf@			; `string'
PUBLIC	??_C@_0BA@EGMBKDGG@glGetClipPlanef@		; `string'
PUBLIC	??_C@_0N@MGGMJGKA@glGetLightfv@			; `string'
PUBLIC	??_C@_0BA@GCPPEEDM@glGetMaterialfv@		; `string'
PUBLIC	??_C@_0O@KDAJGFCL@glGetTexEnvfv@		; `string'
PUBLIC	??_C@_0O@HPCJLAII@glLightModelf@		; `string'
PUBLIC	??_C@_0P@JKHJPMNC@glLightModelfv@		; `string'
PUBLIC	??_C@_08LPDPILEL@glLightf@			; `string'
PUBLIC	??_C@_09JINEHJOD@glLightfv@			; `string'
PUBLIC	??_C@_0O@DJGBMGEI@glLoadMatrixf@		; `string'
PUBLIC	??_C@_0M@HANOIKMC@glMaterialf@			; `string'
PUBLIC	??_C@_0N@MHPKDGG@glMaterialfv@			; `string'
PUBLIC	??_C@_0O@LHKDNPKJ@glMultMatrixf@		; `string'
PUBLIC	??_C@_0BC@LDICFFJG@glMultiTexCoord4f@		; `string'
PUBLIC	??_C@_0L@DGGCBPPM@glNormal3f@			; `string'
PUBLIC	??_C@_08NAPFMCEN@glOrthof@			; `string'
PUBLIC	??_C@_09FCODNBIM@glRotatef@			; `string'
PUBLIC	??_C@_08JCPEOPLK@glScalef@			; `string'
PUBLIC	??_C@_09FCLLGECI@glTexEnvf@			; `string'
PUBLIC	??_C@_0L@EMICMNOO@glTexEnvfv@			; `string'
PUBLIC	??_C@_0N@IFPDDBNE@glTranslatef@			; `string'
PUBLIC	??_C@_0N@DCJPNJNA@glAlphaFuncx@			; `string'
PUBLIC	??_C@_0O@NPNIINAH@glClearColorx@		; `string'
PUBLIC	??_C@_0O@IIFNBMFE@glClearDepthx@		; `string'
PUBLIC	??_C@_0BG@EGKOMLFO@glClientActiveTexture@	; `string'
PUBLIC	??_C@_0N@PMAAHLOD@glClipPlanex@			; `string'
PUBLIC	??_C@_0L@IEIGEAFK@glColor4ub@			; `string'
PUBLIC	??_C@_09COBDPKCK@glColor4x@			; `string'
PUBLIC	??_C@_0P@DPKEGLKI@glColorPointer@		; `string'
PUBLIC	??_C@_0O@EHBIACAM@glDepthRangex@		; `string'
PUBLIC	??_C@_0BF@LJDHBNBP@glDisableClientState@	; `string'
PUBLIC	??_C@_0BE@KECPKGNE@glEnableClientState@		; `string'
PUBLIC	??_C@_06ENDMPJCM@glFogx@			; `string'
PUBLIC	??_C@_07ELPAIOGK@glFogxv@			; `string'
PUBLIC	??_C@_0L@KBANPIPJ@glFrustumx@			; `string'
PUBLIC	??_C@_0BA@JCIAJMLJ@glGetClipPlanex@		; `string'
PUBLIC	??_C@_0M@DLGHPANC@glGetFixedv@			; `string'
PUBLIC	??_C@_0N@NANEBINK@glGetLightxv@			; `string'
PUBLIC	??_C@_0BA@HEEHMKEG@glGetMaterialxv@		; `string'
PUBLIC	??_C@_0O@KIFFCCBG@glGetTexEnviv@		; `string'
PUBLIC	??_C@_0O@LFLBOLFB@glGetTexEnvxv@		; `string'
PUBLIC	??_C@_0BE@CLMJHELI@glGetTexParameterxv@		; `string'
PUBLIC	??_C@_0O@KLGIIPFH@glLightModelx@		; `string'
PUBLIC	??_C@_0P@IMMBHCKI@glLightModelxv@		; `string'
PUBLIC	??_C@_08GLHOLEJE@glLightx@			; `string'
PUBLIC	??_C@_09IOGMPHJJ@glLightxv@			; `string'
PUBLIC	??_C@_0N@LDBNBCAC@glLineWidthx@			; `string'
PUBLIC	??_C@_0P@EJAFHEPO@glLoadIdentity@		; `string'
PUBLIC	??_C@_0O@ONCAPJJH@glLoadMatrixx@		; `string'
PUBLIC	??_C@_0M@KEJPLFBN@glMaterialx@			; `string'
PUBLIC	??_C@_0N@BKMHCNBM@glMaterialxv@			; `string'
PUBLIC	??_C@_0N@KDLNHKEJ@glMatrixMode@			; `string'
PUBLIC	??_C@_0O@GDOCOAHG@glMultMatrixx@		; `string'
PUBLIC	??_C@_0BC@GHMDGKEJ@glMultiTexCoord4x@		; `string'
PUBLIC	??_C@_0L@OCCDCACD@glNormal3x@			; `string'
PUBLIC	??_C@_0BA@DCLMCEOP@glNormalPointer@		; `string'
PUBLIC	??_C@_08ELEPNJC@glOrthox@			; `string'
PUBLIC	??_C@_0BC@NBCPNLOB@glPointParameterx@		; `string'
PUBLIC	??_C@_0BD@KOLJCDEF@glPointParameterxv@		; `string'
PUBLIC	??_C@_0N@GIMHGCMN@glPointSizex@			; `string'
PUBLIC	??_C@_0BB@IPDOBBJA@glPolygonOffsetx@		; `string'
PUBLIC	??_C@_0M@JPEAAEEK@glPopMatrix@			; `string'
PUBLIC	??_C@_0N@IHFNHGBL@glPushMatrix@			; `string'
PUBLIC	??_C@_09IGKCOOFD@glRotatex@			; `string'
PUBLIC	??_C@_0BC@EHPFHJHK@glSampleCoveragex@		; `string'
PUBLIC	??_C@_08EGLFNAGF@glScalex@			; `string'
PUBLIC	??_C@_0N@NALMFHKN@glShadeModel@			; `string'
PUBLIC	??_C@_0BC@DAOMILMO@glTexCoordPointer@		; `string'
PUBLIC	??_C@_09NFCDHIOH@glTexEnvi@			; `string'
PUBLIC	??_C@_09IGPKFLPH@glTexEnvx@			; `string'
PUBLIC	??_C@_0L@EHNOIKND@glTexEnviv@			; `string'
PUBLIC	??_C@_0L@FKDKEDJE@glTexEnvxv@			; `string'
PUBLIC	??_C@_0BA@FJOELDLA@glTexParameterx@		; `string'
PUBLIC	??_C@_0BB@LCFNIJEP@glTexParameterxv@		; `string'
PUBLIC	??_C@_0N@FBLCAOAL@glTranslatex@			; `string'
PUBLIC	??_C@_0BA@HAHECJNK@glVertexPointer@		; `string'
PUBLIC	??_C@_0P@NOCKEEAP@glBlendBarrier@		; `string'
PUBLIC	??_C@_0BH@DBMDBNBL@glPrimitiveBoundingBox@	; `string'
PUBLIC	glad_glNormal3x
PUBLIC	glad_glFogfv
PUBLIC	glad_glTexEnvfv
PUBLIC	glad_glRotatex
PUBLIC	glad_glLightxv
PUBLIC	glad_glMatrixMode
PUBLIC	glad_glGetIntegerv
PUBLIC	GLAD_GL_VERSION_4_6
PUBLIC	glad_glGetLightxv
PUBLIC	GLAD_GL_VERSION_1_5
PUBLIC	GLAD_GL_ES_VERSION_3_1
PUBLIC	glad_glTexParameterxv
PUBLIC	glad_glLightf
PUBLIC	GLAD_GL_VERSION_4_3
PUBLIC	GLAD_GL_VERSION_3_3
PUBLIC	glad_glPushMatrix
PUBLIC	glad_glGetFixedv
PUBLIC	GLAD_GL_VERSION_1_1
PUBLIC	GLAD_GL_VERSION_3_2
PUBLIC	glad_glTexCoordPointer
PUBLIC	glad_glPointSizex
PUBLIC	glad_glScalef
PUBLIC	glad_glShadeModel
PUBLIC	glad_glColor4f
PUBLIC	GLAD_GL_VERSION_4_4
PUBLIC	GLAD_GL_ES_VERSION_3_2
PUBLIC	GLAD_GL_VERSION_2_1
PUBLIC	glad_glClipPlanef
PUBLIC	glad_glLoadMatrixf
PUBLIC	glad_glClearDepthx
PUBLIC	glad_glMaterialfv
PUBLIC	glad_glVertexPointer
PUBLIC	glad_glNormal3f
PUBLIC	glad_glColorPointer
PUBLIC	glad_glClipPlanex
PUBLIC	glad_glGetClipPlanex
PUBLIC	GLAD_GL_VERSION_4_0
PUBLIC	GLAD_GL_SC_VERSION_2_0
PUBLIC	glad_glGetMaterialxv
PUBLIC	glad_glMultMatrixf
PUBLIC	glad_glClearColorx
PUBLIC	glad_glColor4ub
PUBLIC	glad_glLightx
PUBLIC	glad_glScalex
PUBLIC	glad_glLightModelx
PUBLIC	glad_glMaterialxv
PUBLIC	glad_glOrthox
PUBLIC	glad_glFogx
PUBLIC	glad_glAlphaFuncx
PUBLIC	GLAD_GL_VERSION_3_1
PUBLIC	GLAD_GL_ES_VERSION_2_0
PUBLIC	glad_glFrustumx
PUBLIC	GLAD_GL_ES_VERSION_3_0
PUBLIC	glad_glPrimitiveBoundingBox
PUBLIC	glad_glPolygonOffsetx
PUBLIC	glad_glTexParameterx
PUBLIC	glad_glDepthRangex
PUBLIC	glad_glPopMatrix
PUBLIC	glad_glMultMatrixx
PUBLIC	glad_glLightfv
PUBLIC	glad_glTranslatef
PUBLIC	glad_glRotatef
PUBLIC	glad_glEnableClientState
PUBLIC	GLAD_GL_VERSION_1_4
PUBLIC	glad_glSampleCoveragex
PUBLIC	GLAD_GL_VERSION_2_0
PUBLIC	GLAD_GL_VERSION_1_0
PUBLIC	glad_glGetLightfv
PUBLIC	glad_glFrustumf
PUBLIC	GLAD_GL_VERSION_4_5
PUBLIC	glad_glPointParameterxv
PUBLIC	glad_glAlphaFunc
PUBLIC	glad_glOrthof
PUBLIC	glad_glTexEnvxv
PUBLIC	glad_glLightModelf
PUBLIC	GLAD_GL_VERSION_1_3
PUBLIC	glad_glColor4x
PUBLIC	glad_glLightModelxv
PUBLIC	glad_glPointParameterx
PUBLIC	glad_glDisableClientState
PUBLIC	glad_glGetClipPlanef
PUBLIC	glad_glTranslatex
PUBLIC	GLAD_GL_VERSION_4_2
PUBLIC	glad_glTexEnvi
PUBLIC	glad_glTexEnviv
PUBLIC	GLVersion
PUBLIC	GLAD_GL_VERSION_4_1
PUBLIC	glad_glMaterialx
PUBLIC	glad_glMultiTexCoord4x
PUBLIC	glad_glGetStringi
PUBLIC	glad_glGetTexParameterxv
PUBLIC	glad_glLoadMatrixx
PUBLIC	glad_glGetTexEnvfv
PUBLIC	glad_glGetMaterialfv
PUBLIC	GLAD_GL_VERSION_1_2
PUBLIC	GLAD_GL_VERSION_ES_CM_1_0
PUBLIC	glad_glMaterialf
PUBLIC	glad_glClientActiveTexture
PUBLIC	glad_glGetTexEnviv
PUBLIC	glad_glBlendBarrier
PUBLIC	glad_glGetString
PUBLIC	glad_glNormalPointer
PUBLIC	glad_glGetTexEnvxv
PUBLIC	glad_glFogxv
PUBLIC	GLAD_GL_VERSION_3_0
PUBLIC	glad_glTexEnvf
PUBLIC	glad_glTexEnvx
PUBLIC	glad_glFogf
PUBLIC	glad_glLightModelfv
PUBLIC	glad_glMultiTexCoord4f
PUBLIC	glad_glLineWidthx
PUBLIC	glad_glLoadIdentity
EXTRN	__imp_malloc:PROC
EXTRN	__imp___stdio_common_vsscanf:PROC
EXTRN	__imp_strstr:PROC
EXTRN	__imp_FreeLibrary:PROC
EXTRN	__imp_free:PROC
EXTRN	__imp_GetProcAddress:PROC
EXTRN	__imp_LoadLibraryW:PROC
EXTRN	__imp_strncmp:PROC
EXTRN	__security_check_cookie:PROC
glad_glNormal3x DQ 01H DUP (?)
glad_glFogfv DQ	01H DUP (?)
glad_glTexEnvfv DQ 01H DUP (?)
glad_glRotatex DQ 01H DUP (?)
glad_glLightxv DQ 01H DUP (?)
glad_glMatrixMode DQ 01H DUP (?)
glad_glGetIntegerv DQ 01H DUP (?)
GLAD_GL_VERSION_4_6 DD 01H DUP (?)
	ALIGN	8

glad_glGetLightxv DQ 01H DUP (?)
GLAD_GL_VERSION_1_5 DD 01H DUP (?)
GLAD_GL_ES_VERSION_3_1 DD 01H DUP (?)
glad_glTexParameterxv DQ 01H DUP (?)
glad_glLightf DQ 01H DUP (?)
GLAD_GL_VERSION_4_3 DD 01H DUP (?)
GLAD_GL_VERSION_3_3 DD 01H DUP (?)
glad_glPushMatrix DQ 01H DUP (?)
glad_glGetFixedv DQ 01H DUP (?)
GLAD_GL_VERSION_1_1 DD 01H DUP (?)
GLAD_GL_VERSION_3_2 DD 01H DUP (?)
glad_glTexCoordPointer DQ 01H DUP (?)
glad_glPointSizex DQ 01H DUP (?)
glad_glScalef DQ 01H DUP (?)
glad_glShadeModel DQ 01H DUP (?)
glad_glColor4f DQ 01H DUP (?)
GLAD_GL_VERSION_4_4 DD 01H DUP (?)
GLAD_GL_ES_VERSION_3_2 DD 01H DUP (?)
GLAD_GL_VERSION_2_1 DD 01H DUP (?)
	ALIGN	8

glad_glClipPlanef DQ 01H DUP (?)
glad_glLoadMatrixf DQ 01H DUP (?)
glad_glClearDepthx DQ 01H DUP (?)
glad_glMaterialfv DQ 01H DUP (?)
glad_glVertexPointer DQ 01H DUP (?)
glad_glNormal3f DQ 01H DUP (?)
glad_glColorPointer DQ 01H DUP (?)
glad_glClipPlanex DQ 01H DUP (?)
glad_glGetClipPlanex DQ 01H DUP (?)
GLAD_GL_VERSION_4_0 DD 01H DUP (?)
GLAD_GL_SC_VERSION_2_0 DD 01H DUP (?)
glad_glGetMaterialxv DQ 01H DUP (?)
glad_glMultMatrixf DQ 01H DUP (?)
glad_glClearColorx DQ 01H DUP (?)
glad_glColor4ub DQ 01H DUP (?)
glad_glLightx DQ 01H DUP (?)
glad_glScalex DQ 01H DUP (?)
glad_glLightModelx DQ 01H DUP (?)
glad_glMaterialxv DQ 01H DUP (?)
glad_glOrthox DQ 01H DUP (?)
glad_glFogx DQ	01H DUP (?)
glad_glAlphaFuncx DQ 01H DUP (?)
GLAD_GL_VERSION_3_1 DD 01H DUP (?)
GLAD_GL_ES_VERSION_2_0 DD 01H DUP (?)
glad_glFrustumx DQ 01H DUP (?)
GLAD_GL_ES_VERSION_3_0 DD 01H DUP (?)
	ALIGN	8

glad_glPrimitiveBoundingBox DQ 01H DUP (?)
glad_glPolygonOffsetx DQ 01H DUP (?)
glad_glTexParameterx DQ 01H DUP (?)
glad_glDepthRangex DQ 01H DUP (?)
COMM	?_OptionsStorage@?1??__local_stdio_scanf_options@@9@9:QWORD							; `__local_stdio_scanf_options'::`2'::_OptionsStorage
glad_glPopMatrix DQ 01H DUP (?)
glad_glMultMatrixx DQ 01H DUP (?)
glad_glLightfv DQ 01H DUP (?)
glad_glTranslatef DQ 01H DUP (?)
glad_glRotatef DQ 01H DUP (?)
glad_glEnableClientState DQ 01H DUP (?)
GLAD_GL_VERSION_1_4 DD 01H DUP (?)
	ALIGN	8

glad_glSampleCoveragex DQ 01H DUP (?)
GLAD_GL_VERSION_2_0 DD 01H DUP (?)
GLAD_GL_VERSION_1_0 DD 01H DUP (?)
glad_glGetLightfv DQ 01H DUP (?)
glad_glFrustumf DQ 01H DUP (?)
COMM	?_OptionsStorage@?1??__local_stdio_printf_options@@9@9:QWORD							; `__local_stdio_printf_options'::`2'::_OptionsStorage
GLAD_GL_VERSION_4_5 DD 01H DUP (?)
	ALIGN	8

glad_glPointParameterxv DQ 01H DUP (?)
glad_glAlphaFunc DQ 01H DUP (?)
glad_glOrthof DQ 01H DUP (?)
glad_glTexEnvxv DQ 01H DUP (?)
glad_glLightModelf DQ 01H DUP (?)
GLAD_GL_VERSION_1_3 DD 01H DUP (?)
	ALIGN	8

glad_glColor4x DQ 01H DUP (?)
glad_glLightModelxv DQ 01H DUP (?)
glad_glPointParameterx DQ 01H DUP (?)
glad_glDisableClientState DQ 01H DUP (?)
glad_glGetClipPlanef DQ 01H DUP (?)
glad_glTranslatex DQ 01H DUP (?)
GLAD_GL_VERSION_4_2 DD 01H DUP (?)
	ALIGN	8

glad_glTexEnvi DQ 01H DUP (?)
glad_glTexEnviv DQ 01H DUP (?)
GLVersion DQ	01H DUP (?)
GLAD_GL_VERSION_4_1 DD 01H DUP (?)
	ALIGN	8

glad_glMaterialx DQ 01H DUP (?)
glad_glMultiTexCoord4x DQ 01H DUP (?)
glad_glGetStringi DQ 01H DUP (?)
glad_glGetTexParameterxv DQ 01H DUP (?)
glad_glLoadMatrixx DQ 01H DUP (?)
glad_glGetTexEnvfv DQ 01H DUP (?)
glad_glGetMaterialfv DQ 01H DUP (?)
GLAD_GL_VERSION_1_2 DD 01H DUP (?)
GLAD_GL_VERSION_ES_CM_1_0 DD 01H DUP (?)
glad_glMaterialf DQ 01H DUP (?)
glad_glClientActiveTexture DQ 01H DUP (?)
glad_glGetTexEnviv DQ 01H DUP (?)
glad_glBlendBarrier DQ 01H DUP (?)
glad_glGetString DQ 01H DUP (?)
glad_glNormalPointer DQ 01H DUP (?)
glad_glGetTexEnvxv DQ 01H DUP (?)
glad_glFogxv DQ	01H DUP (?)
GLAD_GL_VERSION_3_0 DD 01H DUP (?)
	ALIGN	8

glad_glTexEnvf DQ 01H DUP (?)
glad_glTexEnvx DQ 01H DUP (?)
glad_glFogf DQ	01H DUP (?)
glad_glLightModelfv DQ 01H DUP (?)
glad_glMultiTexCoord4f DQ 01H DUP (?)
glad_glLineWidthx DQ 01H DUP (?)
glad_glLoadIdentity DQ 01H DUP (?)
_BSS	ENDS
;	COMDAT ??_C@_0BH@DBMDBNBL@glPrimitiveBoundingBox@
CONST	SEGMENT
??_C@_0BH@DBMDBNBL@glPrimitiveBoundingBox@ DB 'glPrimitiveBoundingBox', 00H ; `string'
CONST	ENDS
;	COMDAT ??_C@_0P@NOCKEEAP@glBlendBarrier@
CONST	SEGMENT
??_C@_0P@NOCKEEAP@glBlendBarrier@ DB 'glBlendBarrier', 00H ; `string'
CONST	ENDS
;	COMDAT ??_C@_0BA@HAHECJNK@glVertexPointer@
CONST	SEGMENT
??_C@_0BA@HAHECJNK@glVertexPointer@ DB 'glVertexPointer', 00H ; `string'
CONST	ENDS
;	COMDAT ??_C@_0N@FBLCAOAL@glTranslatex@
CONST	SEGMENT
??_C@_0N@FBLCAOAL@glTranslatex@ DB 'glTranslatex', 00H	; `string'
CONST	ENDS
;	COMDAT ??_C@_0BB@LCFNIJEP@glTexParameterxv@
CONST	SEGMENT
??_C@_0BB@LCFNIJEP@glTexParameterxv@ DB 'glTexParameterxv', 00H ; `string'
CONST	ENDS
;	COMDAT ??_C@_0BA@FJOELDLA@glTexParameterx@
CONST	SEGMENT
??_C@_0BA@FJOELDLA@glTexParameterx@ DB 'glTexParameterx', 00H ; `string'
CONST	ENDS
;	COMDAT ??_C@_0L@FKDKEDJE@glTexEnvxv@
CONST	SEGMENT
??_C@_0L@FKDKEDJE@glTexEnvxv@ DB 'glTexEnvxv', 00H	; `string'
CONST	ENDS
;	COMDAT ??_C@_0L@EHNOIKND@glTexEnviv@
CONST	SEGMENT
??_C@_0L@EHNOIKND@glTexEnviv@ DB 'glTexEnviv', 00H	; `string'
CONST	ENDS
;	COMDAT ??_C@_09IGPKFLPH@glTexEnvx@
CONST	SEGMENT
??_C@_09IGPKFLPH@glTexEnvx@ DB 'glTexEnvx', 00H		; `string'
CONST	ENDS
;	COMDAT ??_C@_09NFCDHIOH@glTexEnvi@
CONST	SEGMENT
??_C@_09NFCDHIOH@glTexEnvi@ DB 'glTexEnvi', 00H		; `string'
CONST	ENDS
;	COMDAT ??_C@_0BC@DAOMILMO@glTexCoordPointer@
CONST	SEGMENT
??_C@_0BC@DAOMILMO@glTexCoordPointer@ DB 'glTexCoordPointer', 00H ; `string'
CONST	ENDS
;	COMDAT ??_C@_0N@NALMFHKN@glShadeModel@
CONST	SEGMENT
??_C@_0N@NALMFHKN@glShadeModel@ DB 'glShadeModel', 00H	; `string'
CONST	ENDS
;	COMDAT ??_C@_08EGLFNAGF@glScalex@
CONST	SEGMENT
??_C@_08EGLFNAGF@glScalex@ DB 'glScalex', 00H		; `string'
CONST	ENDS
;	COMDAT ??_C@_0BC@EHPFHJHK@glSampleCoveragex@
CONST	SEGMENT
??_C@_0BC@EHPFHJHK@glSampleCoveragex@ DB 'glSampleCoveragex', 00H ; `string'
CONST	ENDS
;	COMDAT ??_C@_09IGKCOOFD@glRotatex@
CONST	SEGMENT
??_C@_09IGKCOOFD@glRotatex@ DB 'glRotatex', 00H		; `string'
CONST	ENDS
;	COMDAT ??_C@_0N@IHFNHGBL@glPushMatrix@
CONST	SEGMENT
??_C@_0N@IHFNHGBL@glPushMatrix@ DB 'glPushMatrix', 00H	; `string'
CONST	ENDS
;	COMDAT ??_C@_0M@JPEAAEEK@glPopMatrix@
CONST	SEGMENT
??_C@_0M@JPEAAEEK@glPopMatrix@ DB 'glPopMatrix', 00H	; `string'
CONST	ENDS
;	COMDAT ??_C@_0BB@IPDOBBJA@glPolygonOffsetx@
CONST	SEGMENT
??_C@_0BB@IPDOBBJA@glPolygonOffsetx@ DB 'glPolygonOffsetx', 00H ; `string'
CONST	ENDS
;	COMDAT ??_C@_0N@GIMHGCMN@glPointSizex@
CONST	SEGMENT
??_C@_0N@GIMHGCMN@glPointSizex@ DB 'glPointSizex', 00H	; `string'
CONST	ENDS
;	COMDAT ??_C@_0BD@KOLJCDEF@glPointParameterxv@
CONST	SEGMENT
??_C@_0BD@KOLJCDEF@glPointParameterxv@ DB 'glPointParameterxv', 00H ; `string'
CONST	ENDS
;	COMDAT ??_C@_0BC@NBCPNLOB@glPointParameterx@
CONST	SEGMENT
??_C@_0BC@NBCPNLOB@glPointParameterx@ DB 'glPointParameterx', 00H ; `string'
CONST	ENDS
;	COMDAT ??_C@_08ELEPNJC@glOrthox@
CONST	SEGMENT
??_C@_08ELEPNJC@glOrthox@ DB 'glOrthox', 00H		; `string'
CONST	ENDS
;	COMDAT ??_C@_0BA@DCLMCEOP@glNormalPointer@
CONST	SEGMENT
??_C@_0BA@DCLMCEOP@glNormalPointer@ DB 'glNormalPointer', 00H ; `string'
CONST	ENDS
;	COMDAT ??_C@_0L@OCCDCACD@glNormal3x@
CONST	SEGMENT
??_C@_0L@OCCDCACD@glNormal3x@ DB 'glNormal3x', 00H	; `string'
CONST	ENDS
;	COMDAT ??_C@_0BC@GHMDGKEJ@glMultiTexCoord4x@
CONST	SEGMENT
??_C@_0BC@GHMDGKEJ@glMultiTexCoord4x@ DB 'glMultiTexCoord4x', 00H ; `string'
CONST	ENDS
;	COMDAT ??_C@_0O@GDOCOAHG@glMultMatrixx@
CONST	SEGMENT
??_C@_0O@GDOCOAHG@glMultMatrixx@ DB 'glMultMatrixx', 00H ; `string'
CONST	ENDS
;	COMDAT ??_C@_0N@KDLNHKEJ@glMatrixMode@
CONST	SEGMENT
??_C@_0N@KDLNHKEJ@glMatrixMode@ DB 'glMatrixMode', 00H	; `string'
CONST	ENDS
;	COMDAT ??_C@_0N@BKMHCNBM@glMaterialxv@
CONST	SEGMENT
??_C@_0N@BKMHCNBM@glMaterialxv@ DB 'glMaterialxv', 00H	; `string'
CONST	ENDS
;	COMDAT ??_C@_0M@KEJPLFBN@glMaterialx@
CONST	SEGMENT
??_C@_0M@KEJPLFBN@glMaterialx@ DB 'glMaterialx', 00H	; `string'
CONST	ENDS
;	COMDAT ??_C@_0O@ONCAPJJH@glLoadMatrixx@
CONST	SEGMENT
??_C@_0O@ONCAPJJH@glLoadMatrixx@ DB 'glLoadMatrixx', 00H ; `string'
CONST	ENDS
;	COMDAT ??_C@_0P@EJAFHEPO@glLoadIdentity@
CONST	SEGMENT
??_C@_0P@EJAFHEPO@glLoadIdentity@ DB 'glLoadIdentity', 00H ; `string'
CONST	ENDS
;	COMDAT ??_C@_0N@LDBNBCAC@glLineWidthx@
CONST	SEGMENT
??_C@_0N@LDBNBCAC@glLineWidthx@ DB 'glLineWidthx', 00H	; `string'
CONST	ENDS
;	COMDAT ??_C@_09IOGMPHJJ@glLightxv@
CONST	SEGMENT
??_C@_09IOGMPHJJ@glLightxv@ DB 'glLightxv', 00H		; `string'
CONST	ENDS
;	COMDAT ??_C@_08GLHOLEJE@glLightx@
CONST	SEGMENT
??_C@_08GLHOLEJE@glLightx@ DB 'glLightx', 00H		; `string'
CONST	ENDS
;	COMDAT ??_C@_0P@IMMBHCKI@glLightModelxv@
CONST	SEGMENT
??_C@_0P@IMMBHCKI@glLightModelxv@ DB 'glLightModelxv', 00H ; `string'
CONST	ENDS
;	COMDAT ??_C@_0O@KLGIIPFH@glLightModelx@
CONST	SEGMENT
??_C@_0O@KLGIIPFH@glLightModelx@ DB 'glLightModelx', 00H ; `string'
CONST	ENDS
;	COMDAT ??_C@_0BE@CLMJHELI@glGetTexParameterxv@
CONST	SEGMENT
??_C@_0BE@CLMJHELI@glGetTexParameterxv@ DB 'glGetTexParameterxv', 00H ; `string'
CONST	ENDS
;	COMDAT ??_C@_0O@LFLBOLFB@glGetTexEnvxv@
CONST	SEGMENT
??_C@_0O@LFLBOLFB@glGetTexEnvxv@ DB 'glGetTexEnvxv', 00H ; `string'
CONST	ENDS
;	COMDAT ??_C@_0O@KIFFCCBG@glGetTexEnviv@
CONST	SEGMENT
??_C@_0O@KIFFCCBG@glGetTexEnviv@ DB 'glGetTexEnviv', 00H ; `string'
CONST	ENDS
;	COMDAT ??_C@_0BA@HEEHMKEG@glGetMaterialxv@
CONST	SEGMENT
??_C@_0BA@HEEHMKEG@glGetMaterialxv@ DB 'glGetMaterialxv', 00H ; `string'
CONST	ENDS
;	COMDAT ??_C@_0N@NANEBINK@glGetLightxv@
CONST	SEGMENT
??_C@_0N@NANEBINK@glGetLightxv@ DB 'glGetLightxv', 00H	; `string'
CONST	ENDS
;	COMDAT ??_C@_0M@DLGHPANC@glGetFixedv@
CONST	SEGMENT
??_C@_0M@DLGHPANC@glGetFixedv@ DB 'glGetFixedv', 00H	; `string'
CONST	ENDS
;	COMDAT ??_C@_0BA@JCIAJMLJ@glGetClipPlanex@
CONST	SEGMENT
??_C@_0BA@JCIAJMLJ@glGetClipPlanex@ DB 'glGetClipPlanex', 00H ; `string'
CONST	ENDS
;	COMDAT ??_C@_0L@KBANPIPJ@glFrustumx@
CONST	SEGMENT
??_C@_0L@KBANPIPJ@glFrustumx@ DB 'glFrustumx', 00H	; `string'
CONST	ENDS
;	COMDAT ??_C@_07ELPAIOGK@glFogxv@
CONST	SEGMENT
??_C@_07ELPAIOGK@glFogxv@ DB 'glFogxv', 00H		; `string'
CONST	ENDS
;	COMDAT ??_C@_06ENDMPJCM@glFogx@
CONST	SEGMENT
??_C@_06ENDMPJCM@glFogx@ DB 'glFogx', 00H		; `string'
CONST	ENDS
;	COMDAT ??_C@_0BE@KECPKGNE@glEnableClientState@
CONST	SEGMENT
??_C@_0BE@KECPKGNE@glEnableClientState@ DB 'glEnableClientState', 00H ; `string'
CONST	ENDS
;	COMDAT ??_C@_0BF@LJDHBNBP@glDisableClientState@
CONST	SEGMENT
??_C@_0BF@LJDHBNBP@glDisableClientState@ DB 'glDisableClientState', 00H ; `string'
CONST	ENDS
;	COMDAT ??_C@_0O@EHBIACAM@glDepthRangex@
CONST	SEGMENT
??_C@_0O@EHBIACAM@glDepthRangex@ DB 'glDepthRangex', 00H ; `string'
CONST	ENDS
;	COMDAT ??_C@_0P@DPKEGLKI@glColorPointer@
CONST	SEGMENT
??_C@_0P@DPKEGLKI@glColorPointer@ DB 'glColorPointer', 00H ; `string'
CONST	ENDS
;	COMDAT ??_C@_09COBDPKCK@glColor4x@
CONST	SEGMENT
??_C@_09COBDPKCK@glColor4x@ DB 'glColor4x', 00H		; `string'
CONST	ENDS
;	COMDAT ??_C@_0L@IEIGEAFK@glColor4ub@
CONST	SEGMENT
??_C@_0L@IEIGEAFK@glColor4ub@ DB 'glColor4ub', 00H	; `string'
CONST	ENDS
;	COMDAT ??_C@_0N@PMAAHLOD@glClipPlanex@
CONST	SEGMENT
??_C@_0N@PMAAHLOD@glClipPlanex@ DB 'glClipPlanex', 00H	; `string'
CONST	ENDS
;	COMDAT ??_C@_0BG@EGKOMLFO@glClientActiveTexture@
CONST	SEGMENT
??_C@_0BG@EGKOMLFO@glClientActiveTexture@ DB 'glClientActiveTexture', 00H ; `string'
CONST	ENDS
;	COMDAT ??_C@_0O@IIFNBMFE@glClearDepthx@
CONST	SEGMENT
??_C@_0O@IIFNBMFE@glClearDepthx@ DB 'glClearDepthx', 00H ; `string'
CONST	ENDS
;	COMDAT ??_C@_0O@NPNIINAH@glClearColorx@
CONST	SEGMENT
??_C@_0O@NPNIINAH@glClearColorx@ DB 'glClearColorx', 00H ; `string'
CONST	ENDS
;	COMDAT ??_C@_0N@DCJPNJNA@glAlphaFuncx@
CONST	SEGMENT
??_C@_0N@DCJPNJNA@glAlphaFuncx@ DB 'glAlphaFuncx', 00H	; `string'
CONST	ENDS
;	COMDAT ??_C@_0N@IFPDDBNE@glTranslatef@
CONST	SEGMENT
??_C@_0N@IFPDDBNE@glTranslatef@ DB 'glTranslatef', 00H	; `string'
CONST	ENDS
;	COMDAT ??_C@_0L@EMICMNOO@glTexEnvfv@
CONST	SEGMENT
??_C@_0L@EMICMNOO@glTexEnvfv@ DB 'glTexEnvfv', 00H	; `string'
CONST	ENDS
;	COMDAT ??_C@_09FCLLGECI@glTexEnvf@
CONST	SEGMENT
??_C@_09FCLLGECI@glTexEnvf@ DB 'glTexEnvf', 00H		; `string'
CONST	ENDS
;	COMDAT ??_C@_08JCPEOPLK@glScalef@
CONST	SEGMENT
??_C@_08JCPEOPLK@glScalef@ DB 'glScalef', 00H		; `string'
CONST	ENDS
;	COMDAT ??_C@_09FCODNBIM@glRotatef@
CONST	SEGMENT
??_C@_09FCODNBIM@glRotatef@ DB 'glRotatef', 00H		; `string'
CONST	ENDS
;	COMDAT ??_C@_08NAPFMCEN@glOrthof@
CONST	SEGMENT
??_C@_08NAPFMCEN@glOrthof@ DB 'glOrthof', 00H		; `string'
CONST	ENDS
;	COMDAT ??_C@_0L@DGGCBPPM@glNormal3f@
CONST	SEGMENT
??_C@_0L@DGGCBPPM@glNormal3f@ DB 'glNormal3f', 00H	; `string'
CONST	ENDS
;	COMDAT ??_C@_0BC@LDICFFJG@glMultiTexCoord4f@
CONST	SEGMENT
??_C@_0BC@LDICFFJG@glMultiTexCoord4f@ DB 'glMultiTexCoord4f', 00H ; `string'
CONST	ENDS
;	COMDAT ??_C@_0O@LHKDNPKJ@glMultMatrixf@
CONST	SEGMENT
??_C@_0O@LHKDNPKJ@glMultMatrixf@ DB 'glMultMatrixf', 00H ; `string'
CONST	ENDS
;	COMDAT ??_C@_0N@MHPKDGG@glMaterialfv@
CONST	SEGMENT
??_C@_0N@MHPKDGG@glMaterialfv@ DB 'glMaterialfv', 00H	; `string'
CONST	ENDS
;	COMDAT ??_C@_0M@HANOIKMC@glMaterialf@
CONST	SEGMENT
??_C@_0M@HANOIKMC@glMaterialf@ DB 'glMaterialf', 00H	; `string'
CONST	ENDS
;	COMDAT ??_C@_0O@DJGBMGEI@glLoadMatrixf@
CONST	SEGMENT
??_C@_0O@DJGBMGEI@glLoadMatrixf@ DB 'glLoadMatrixf', 00H ; `string'
CONST	ENDS
;	COMDAT ??_C@_09JINEHJOD@glLightfv@
CONST	SEGMENT
??_C@_09JINEHJOD@glLightfv@ DB 'glLightfv', 00H		; `string'
CONST	ENDS
;	COMDAT ??_C@_08LPDPILEL@glLightf@
CONST	SEGMENT
??_C@_08LPDPILEL@glLightf@ DB 'glLightf', 00H		; `string'
CONST	ENDS
;	COMDAT ??_C@_0P@JKHJPMNC@glLightModelfv@
CONST	SEGMENT
??_C@_0P@JKHJPMNC@glLightModelfv@ DB 'glLightModelfv', 00H ; `string'
CONST	ENDS
;	COMDAT ??_C@_0O@HPCJLAII@glLightModelf@
CONST	SEGMENT
??_C@_0O@HPCJLAII@glLightModelf@ DB 'glLightModelf', 00H ; `string'
CONST	ENDS
;	COMDAT ??_C@_0O@KDAJGFCL@glGetTexEnvfv@
CONST	SEGMENT
??_C@_0O@KDAJGFCL@glGetTexEnvfv@ DB 'glGetTexEnvfv', 00H ; `string'
CONST	ENDS
;	COMDAT ??_C@_0BA@GCPPEEDM@glGetMaterialfv@
CONST	SEGMENT
??_C@_0BA@GCPPEEDM@glGetMaterialfv@ DB 'glGetMaterialfv', 00H ; `string'
CONST	ENDS
;	COMDAT ??_C@_0N@MGGMJGKA@glGetLightfv@
CONST	SEGMENT
??_C@_0N@MGGMJGKA@glGetLightfv@ DB 'glGetLightfv', 00H	; `string'
CONST	ENDS
;	COMDAT ??_C@_0BA@EGMBKDGG@glGetClipPlanef@
CONST	SEGMENT
??_C@_0BA@EGMBKDGG@glGetClipPlanef@ DB 'glGetClipPlanef', 00H ; `string'
CONST	ENDS
;	COMDAT ??_C@_0L@HFEMMHCG@glFrustumf@
CONST	SEGMENT
??_C@_0L@HFEMMHCG@glFrustumf@ DB 'glFrustumf', 00H	; `string'
CONST	ENDS
;	COMDAT ??_C@_07FNEIAABA@glFogfv@
CONST	SEGMENT
??_C@_07FNEIAABA@glFogfv@ DB 'glFogfv', 00H		; `string'
CONST	ENDS
;	COMDAT ??_C@_06JJHNMGPD@glFogf@
CONST	SEGMENT
??_C@_06JJHNMGPD@glFogf@ DB 'glFogf', 00H		; `string'
CONST	ENDS
;	COMDAT ??_C@_09PKFCMFPF@glColor4f@
CONST	SEGMENT
??_C@_09PKFCMFPF@glColor4f@ DB 'glColor4f', 00H		; `string'
CONST	ENDS
;	COMDAT ??_C@_0N@CIEBEEDM@glClipPlanef@
CONST	SEGMENT
??_C@_0N@CIEBEEDM@glClipPlanef@ DB 'glClipPlanef', 00H	; `string'
CONST	ENDS
;	COMDAT ??_C@_0M@BJGLMKCC@glAlphaFunc@
CONST	SEGMENT
??_C@_0M@BJGLMKCC@glAlphaFunc@ DB 'glAlphaFunc', 00H	; `string'
CONST	ENDS
;	COMDAT ??_C@_05KBEOJPB@?$CFd?4?$CFd@
CONST	SEGMENT
??_C@_05KBEOJPB@?$CFd?4?$CFd@ DB '%d.%d', 00H		; `string'
CONST	ENDS
;	COMDAT ??_C@_0L@JLFHOCGA@OpenGL?5ES?5@
CONST	SEGMENT
??_C@_0L@JLFHOCGA@OpenGL?5ES?5@ DB 'OpenGL ES ', 00H	; `string'
CONST	ENDS
;	COMDAT ??_C@_0O@EMKFPNOG@OpenGL?5ES?9CL?5@
CONST	SEGMENT
??_C@_0O@EMKFPNOG@OpenGL?5ES?9CL?5@ DB 'OpenGL ES-CL ', 00H ; `string'
CONST	ENDS
;	COMDAT ??_C@_0O@ENGHJHNB@OpenGL?5ES?9CM?5@
CONST	SEGMENT
??_C@_0O@ENGHJHNB@OpenGL?5ES?9CM?5@ DB 'OpenGL ES-CM ', 00H ; `string'
CONST	ENDS
;	COMDAT ??_C@_0BF@ECLDHBOO@glPolygonOffsetClamp@
CONST	SEGMENT
??_C@_0BF@ECLDHBOO@glPolygonOffsetClamp@ DB 'glPolygonOffsetClamp', 00H ; `string'
CONST	ENDS
;	COMDAT ??_C@_0CB@BPEMAMPH@glMultiDrawElementsIndirectCoun@
CONST	SEGMENT
??_C@_0CB@BPEMAMPH@glMultiDrawElementsIndirectCoun@ DB 'glMultiDrawElemen'
	DB	'tsIndirectCount', 00H			; `string'
CONST	ENDS
;	COMDAT ??_C@_0BP@GGIOCPJI@glMultiDrawArraysIndirectCount@
CONST	SEGMENT
??_C@_0BP@GGIOCPJI@glMultiDrawArraysIndirectCount@ DB 'glMultiDrawArraysI'
	DB	'ndirectCount', 00H				; `string'
CONST	ENDS
;	COMDAT ??_C@_0BD@LNCLLNDI@glSpecializeShader@
CONST	SEGMENT
??_C@_0BD@LNCLLNDI@glSpecializeShader@ DB 'glSpecializeShader', 00H ; `string'
CONST	ENDS
;	COMDAT ??_C@_0BB@MNKDFGFC@glTextureBarrier@
CONST	SEGMENT
??_C@_0BB@MNKDFGFC@glTextureBarrier@ DB 'glTextureBarrier', 00H ; `string'
CONST	ENDS
;	COMDAT ??_C@_0N@EFFKFJMK@glGetnMinmax@
CONST	SEGMENT
??_C@_0N@EFFKFJMK@glGetnMinmax@ DB 'glGetnMinmax', 00H	; `string'
CONST	ENDS
;	COMDAT ??_C@_0BA@POEMGEO@glGetnHistogram@
CONST	SEGMENT
??_C@_0BA@POEMGEO@glGetnHistogram@ DB 'glGetnHistogram', 00H ; `string'
CONST	ENDS
;	COMDAT ??_C@_0BG@LBKKJBFC@glGetnSeparableFilter@
CONST	SEGMENT
??_C@_0BG@LBKKJBFC@glGetnSeparableFilter@ DB 'glGetnSeparableFilter', 00H ; `string'
CONST	ENDS
;	COMDAT ??_C@_0BI@GBFNHONB@glGetnConvolutionFilter@
CONST	SEGMENT
??_C@_0BI@GBFNHONB@glGetnConvolutionFilter@ DB 'glGetnConvolutionFilter', 00H ; `string'
CONST	ENDS
;	COMDAT ??_C@_0BB@EFKGOAOL@glGetnColorTable@
CONST	SEGMENT
??_C@_0BB@EFKGOAOL@glGetnColorTable@ DB 'glGetnColorTable', 00H ; `string'
CONST	ENDS
;	COMDAT ??_C@_0BF@NBHIHHJA@glGetnPolygonStipple@
CONST	SEGMENT
??_C@_0BF@NBHIHHJA@glGetnPolygonStipple@ DB 'glGetnPolygonStipple', 00H ; `string'
CONST	ENDS
;	COMDAT ??_C@_0BC@NCENOEBC@glGetnPixelMapusv@
CONST	SEGMENT
??_C@_0BC@NCENOEBC@glGetnPixelMapusv@ DB 'glGetnPixelMapusv', 00H ; `string'
CONST	ENDS
;	COMDAT ??_C@_0BC@MDPMMCLE@glGetnPixelMapuiv@
CONST	SEGMENT
??_C@_0BC@MDPMMCLE@glGetnPixelMapuiv@ DB 'glGetnPixelMapuiv', 00H ; `string'
CONST	ENDS
;	COMDAT ??_C@_0BB@JKBANCED@glGetnPixelMapfv@
CONST	SEGMENT
??_C@_0BB@JKBANCED@glGetnPixelMapfv@ DB 'glGetnPixelMapfv', 00H ; `string'
CONST	ENDS
;	COMDAT ??_C@_0M@FJOHABAE@glGetnMapiv@
CONST	SEGMENT
??_C@_0M@FJOHABAE@glGetnMapiv@ DB 'glGetnMapiv', 00H	; `string'
CONST	ENDS
;	COMDAT ??_C@_0M@FCLLEGDJ@glGetnMapfv@
CONST	SEGMENT
??_C@_0M@FCLLEGDJ@glGetnMapfv@ DB 'glGetnMapfv', 00H	; `string'
CONST	ENDS
;	COMDAT ??_C@_0M@FBDPJCFH@glGetnMapdv@
CONST	SEGMENT
??_C@_0M@FBDPJCFH@glGetnMapdv@ DB 'glGetnMapdv', 00H	; `string'
CONST	ENDS
;	COMDAT ??_C@_0O@NELODAJJ@glReadnPixels@
CONST	SEGMENT
??_C@_0O@NELODAJJ@glReadnPixels@ DB 'glReadnPixels', 00H ; `string'
CONST	ENDS
;	COMDAT ??_C@_0BB@BBJMBEC@glGetnUniformuiv@
CONST	SEGMENT
??_C@_0BB@BBJMBEC@glGetnUniformuiv@ DB 'glGetnUniformuiv', 00H ; `string'
CONST	ENDS
;	COMDAT ??_C@_0BA@KDLAMEMC@glGetnUniformiv@
CONST	SEGMENT
??_C@_0BA@KDLAMEMC@glGetnUniformiv@ DB 'glGetnUniformiv', 00H ; `string'
CONST	ENDS
;	COMDAT ??_C@_0BA@KIOMIDPP@glGetnUniformfv@
CONST	SEGMENT
??_C@_0BA@KIOMIDPP@glGetnUniformfv@ DB 'glGetnUniformfv', 00H ; `string'
CONST	ENDS
;	COMDAT ??_C@_0BA@KLGIFHJB@glGetnUniformdv@
CONST	SEGMENT
??_C@_0BA@KLGIFHJB@glGetnUniformdv@ DB 'glGetnUniformdv', 00H ; `string'
CONST	ENDS
;	COMDAT ??_C@_0P@FBKOCLCM@glGetnTexImage@
CONST	SEGMENT
??_C@_0P@FBKOCLCM@glGetnTexImage@ DB 'glGetnTexImage', 00H ; `string'
CONST	ENDS
;	COMDAT ??_C@_0BJ@HLNIHAOG@glGetnCompressedTexImage@
CONST	SEGMENT
??_C@_0BJ@HLNIHAOG@glGetnCompressedTexImage@ DB 'glGetnCompressedTexImage'
	DB	00H						; `string'
CONST	ENDS
;	COMDAT ??_C@_0BJ@ILPAOCDN@glGetGraphicsResetStatus@
CONST	SEGMENT
??_C@_0BJ@ILPAOCDN@glGetGraphicsResetStatus@ DB 'glGetGraphicsResetStatus'
	DB	00H						; `string'
CONST	ENDS
;	COMDAT ??_C@_0BP@BIDENANP@glGetCompressedTextureSubImage@
CONST	SEGMENT
??_C@_0BP@BIDENANP@glGetCompressedTextureSubImage@ DB 'glGetCompressedTex'
	DB	'tureSubImage', 00H				; `string'
CONST	ENDS
;	COMDAT ??_C@_0BF@JEEEKNGB@glGetTextureSubImage@
CONST	SEGMENT
??_C@_0BF@JEEEKNGB@glGetTextureSubImage@ DB 'glGetTextureSubImage', 00H ; `string'
CONST	ENDS
;	COMDAT ??_C@_0BI@IDCHHHAI@glMemoryBarrierByRegion@
CONST	SEGMENT
??_C@_0BI@IDCHHHAI@glMemoryBarrierByRegion@ DB 'glMemoryBarrierByRegion', 00H ; `string'
CONST	ENDS
;	COMDAT ??_C@_0BK@EOIEAGAD@glGetQueryBufferObjectuiv@
CONST	SEGMENT
??_C@_0BK@EOIEAGAD@glGetQueryBufferObjectuiv@ DB 'glGetQueryBufferObjectu'
	DB	'iv', 00H					; `string'
CONST	ENDS
;	COMDAT ??_C@_0BM@DFNHDHD@glGetQueryBufferObjectui64v@
CONST	SEGMENT
??_C@_0BM@DFNHDHD@glGetQueryBufferObjectui64v@ DB 'glGetQueryBufferObject'
	DB	'ui64v', 00H					; `string'
CONST	ENDS
;	COMDAT ??_C@_0BJ@OBIFNHGB@glGetQueryBufferObjectiv@
CONST	SEGMENT
??_C@_0BJ@OBIFNHGB@glGetQueryBufferObjectiv@ DB 'glGetQueryBufferObjectiv'
	DB	00H						; `string'
CONST	ENDS
;	COMDAT ??_C@_0BL@KFECDHBF@glGetQueryBufferObjecti64v@
CONST	SEGMENT
??_C@_0BL@KFECDHBF@glGetQueryBufferObjecti64v@ DB 'glGetQueryBufferObject'
	DB	'i64v', 00H					; `string'
CONST	ENDS
;	COMDAT ??_C@_0BA@PGNDPLG@glCreateQueries@
CONST	SEGMENT
??_C@_0BA@PGNDPLG@glCreateQueries@ DB 'glCreateQueries', 00H ; `string'
CONST	ENDS
;	COMDAT ??_C@_0BJ@GJEEIMGK@glCreateProgramPipelines@
CONST	SEGMENT
??_C@_0BJ@GJEEIMGK@glCreateProgramPipelines@ DB 'glCreateProgramPipelines'
	DB	00H						; `string'
CONST	ENDS
;	COMDAT ??_C@_0BB@EHBNEMMP@glCreateSamplers@
CONST	SEGMENT
??_C@_0BB@EHBNEMMP@glCreateSamplers@ DB 'glCreateSamplers', 00H ; `string'
CONST	ENDS
;	COMDAT ??_C@_0BM@HHNNHCN@glGetVertexArrayIndexed64iv@
CONST	SEGMENT
??_C@_0BM@HHNNHCN@glGetVertexArrayIndexed64iv@ DB 'glGetVertexArrayIndexe'
	DB	'd64iv', 00H					; `string'
CONST	ENDS
;	COMDAT ??_C@_0BK@FIIPMDBK@glGetVertexArrayIndexediv@
CONST	SEGMENT
??_C@_0BK@FIIPMDBK@glGetVertexArrayIndexediv@ DB 'glGetVertexArrayIndexed'
	DB	'iv', 00H					; `string'
CONST	ENDS
;	COMDAT ??_C@_0BD@CPJNCJFG@glGetVertexArrayiv@
CONST	SEGMENT
??_C@_0BD@CPJNCJFG@glGetVertexArrayiv@ DB 'glGetVertexArrayiv', 00H ; `string'
CONST	ENDS
;	COMDAT ??_C@_0BM@BNDNIOBB@glVertexArrayBindingDivisor@
CONST	SEGMENT
??_C@_0BM@BNDNIOBB@glVertexArrayBindingDivisor@ DB 'glVertexArrayBindingD'
	DB	'ivisor', 00H				; `string'
CONST	ENDS
;	COMDAT ??_C@_0BL@NECLHPFJ@glVertexArrayAttribLFormat@
CONST	SEGMENT
??_C@_0BL@NECLHPFJ@glVertexArrayAttribLFormat@ DB 'glVertexArrayAttribLFo'
	DB	'rmat', 00H					; `string'
CONST	ENDS
;	COMDAT ??_C@_0BL@JMMLHBDN@glVertexArrayAttribIFormat@
CONST	SEGMENT
??_C@_0BL@JMMLHBDN@glVertexArrayAttribIFormat@ DB 'glVertexArrayAttribIFo'
	DB	'rmat', 00H					; `string'
CONST	ENDS
;	COMDAT ??_C@_0BK@ONFBAOHM@glVertexArrayAttribFormat@
CONST	SEGMENT
??_C@_0BK@ONFBAOHM@glVertexArrayAttribFormat@ DB 'glVertexArrayAttribForm'
	DB	'at', 00H					; `string'
CONST	ENDS
;	COMDAT ??_C@_0BL@DJHJAEGB@glVertexArrayAttribBinding@
CONST	SEGMENT
??_C@_0BL@DJHJAEGB@glVertexArrayAttribBinding@ DB 'glVertexArrayAttribBin'
	DB	'ding', 00H					; `string'
CONST	ENDS
;	COMDAT ??_C@_0BL@DAGELPBO@glVertexArrayVertexBuffers@
CONST	SEGMENT
??_C@_0BL@DAGELPBO@glVertexArrayVertexBuffers@ DB 'glVertexArrayVertexBuf'
	DB	'fers', 00H					; `string'
CONST	ENDS
;	COMDAT ??_C@_0BK@BIEMNHGJ@glVertexArrayVertexBuffer@
CONST	SEGMENT
??_C@_0BK@BIEMNHGJ@glVertexArrayVertexBuffer@ DB 'glVertexArrayVertexBuff'
	DB	'er', 00H					; `string'
CONST	ENDS
;	COMDAT ??_C@_0BL@GGCAPDMO@glVertexArrayElementBuffer@
CONST	SEGMENT
??_C@_0BL@GGCAPDMO@glVertexArrayElementBuffer@ DB 'glVertexArrayElementBu'
	DB	'ffer', 00H					; `string'
CONST	ENDS
;	COMDAT ??_C@_0BK@MJMKFCHC@glEnableVertexArrayAttrib@
CONST	SEGMENT
??_C@_0BK@MJMKFCHC@glEnableVertexArrayAttrib@ DB 'glEnableVertexArrayAttr'
	DB	'ib', 00H					; `string'
CONST	ENDS
;	COMDAT ??_C@_0BL@FEKBMKFD@glDisableVertexArrayAttrib@
CONST	SEGMENT
??_C@_0BL@FEKBMKFD@glDisableVertexArrayAttrib@ DB 'glDisableVertexArrayAt'
	DB	'trib', 00H					; `string'
CONST	ENDS
;	COMDAT ??_C@_0BF@CMMGIOCI@glCreateVertexArrays@
CONST	SEGMENT
??_C@_0BF@CMMGIOCI@glCreateVertexArrays@ DB 'glCreateVertexArrays', 00H ; `string'
CONST	ENDS
;	COMDAT ??_C@_0BI@NKGDDAKK@glGetTextureParameteriv@
CONST	SEGMENT
??_C@_0BI@NKGDDAKK@glGetTextureParameteriv@ DB 'glGetTextureParameteriv', 00H ; `string'
CONST	ENDS
;	COMDAT ??_C@_0BK@JPCGBAJJ@glGetTextureParameterIuiv@
CONST	SEGMENT
??_C@_0BK@JPCGBAJJ@glGetTextureParameterIuiv@ DB 'glGetTextureParameterIu'
	DB	'iv', 00H					; `string'
CONST	ENDS
;	COMDAT ??_C@_0BJ@PIPELMMF@glGetTextureParameterIiv@
CONST	SEGMENT
??_C@_0BJ@PIPELMMF@glGetTextureParameterIiv@ DB 'glGetTextureParameterIiv'
	DB	00H						; `string'
CONST	ENDS
;	COMDAT ??_C@_0BI@NBDPHHJH@glGetTextureParameterfv@
CONST	SEGMENT
??_C@_0BI@NBDPHHJH@glGetTextureParameterfv@ DB 'glGetTextureParameterfv', 00H ; `string'
CONST	ENDS
;	COMDAT ??_C@_0BN@MJIBNBP@glGetTextureLevelParameteriv@
CONST	SEGMENT
??_C@_0BN@MJIBNBP@glGetTextureLevelParameteriv@ DB 'glGetTextureLevelPara'
	DB	'meteriv', 00H				; `string'
CONST	ENDS
;	COMDAT ??_C@_0BN@HMEFKCC@glGetTextureLevelParameterfv@
CONST	SEGMENT
??_C@_0BN@HMEFKCC@glGetTextureLevelParameterfv@ DB 'glGetTextureLevelPara'
	DB	'meterfv', 00H				; `string'
CONST	ENDS
;	COMDAT ??_C@_0BM@JOKODHH@glGetCompressedTextureImage@
CONST	SEGMENT
??_C@_0BM@JOKODHH@glGetCompressedTextureImage@ DB 'glGetCompressedTexture'
	DB	'Image', 00H					; `string'
CONST	ENDS
;	COMDAT ??_C@_0BC@PJDCJNIH@glGetTextureImage@
CONST	SEGMENT
??_C@_0BC@PJDCJNIH@glGetTextureImage@ DB 'glGetTextureImage', 00H ; `string'
CONST	ENDS
;	COMDAT ??_C@_0BC@NKGMGGNI@glBindTextureUnit@
CONST	SEGMENT
??_C@_0BC@NKGMGGNI@glBindTextureUnit@ DB 'glBindTextureUnit', 00H ; `string'
CONST	ENDS
;	COMDAT ??_C@_0BI@JJPLGFEG@glGenerateTextureMipmap@
CONST	SEGMENT
??_C@_0BI@JJPLGFEG@glGenerateTextureMipmap@ DB 'glGenerateTextureMipmap', 00H ; `string'
CONST	ENDS
;	COMDAT ??_C@_0BF@OADAJKMJ@glTextureParameteriv@
CONST	SEGMENT
??_C@_0BF@OADAJKMJ@glTextureParameteriv@ DB 'glTextureParameteriv', 00H ; `string'
CONST	ENDS
;	COMDAT ??_C@_0BH@OHPFFIFI@glTextureParameterIuiv@
CONST	SEGMENT
??_C@_0BH@OHPFFIFI@glTextureParameterIuiv@ DB 'glTextureParameterIuiv', 00H ; `string'
CONST	ENDS
;	COMDAT ??_C@_0BG@CMHFNPIN@glTextureParameterIiv@
CONST	SEGMENT
??_C@_0BG@CMHFNPIN@glTextureParameterIiv@ DB 'glTextureParameterIiv', 00H ; `string'
CONST	ENDS
;	COMDAT ??_C@_0BE@FMBFADAD@glTextureParameteri@
CONST	SEGMENT
??_C@_0BE@FMBFADAD@glTextureParameteri@ DB 'glTextureParameteri', 00H ; `string'
CONST	ENDS
;	COMDAT ??_C@_0BF@OLGMNNPE@glTextureParameterfv@
CONST	SEGMENT
??_C@_0BF@OLGMNNPE@glTextureParameterfv@ DB 'glTextureParameterfv', 00H ; `string'
CONST	ENDS
;	COMDAT ??_C@_0BE@NLINBPMM@glTextureParameterf@
CONST	SEGMENT
??_C@_0BE@NLINBPMM@glTextureParameterf@ DB 'glTextureParameterf', 00H ; `string'
CONST	ENDS
;	COMDAT ??_C@_0BI@DCMOCKNA@glCopyTextureSubImage3D@
CONST	SEGMENT
??_C@_0BI@DCMOCKNA@glCopyTextureSubImage3D@ DB 'glCopyTextureSubImage3D', 00H ; `string'
CONST	ENDS
;	COMDAT ??_C@_0BI@DDAMEAOH@glCopyTextureSubImage2D@
CONST	SEGMENT
??_C@_0BI@DDAMEAOH@glCopyTextureSubImage2D@ DB 'glCopyTextureSubImage2D', 00H ; `string'
CONST	ENDS
;	COMDAT ??_C@_0BI@DBEKPOLO@glCopyTextureSubImage1D@
CONST	SEGMENT
??_C@_0BI@DBEKPOLO@glCopyTextureSubImage1D@ DB 'glCopyTextureSubImage1D', 00H ; `string'
CONST	ENDS
;	COMDAT ??_C@_0BO@NLPEFDDM@glCompressedTextureSubImage3D@
CONST	SEGMENT
??_C@_0BO@NLPEFDDM@glCompressedTextureSubImage3D@ DB 'glCompressedTexture'
	DB	'SubImage3D', 00H				; `string'
CONST	ENDS
;	COMDAT ??_C@_0BO@NKDGDJAL@glCompressedTextureSubImage2D@
CONST	SEGMENT
??_C@_0BO@NKDGDJAL@glCompressedTextureSubImage2D@ DB 'glCompressedTexture'
	DB	'SubImage2D', 00H				; `string'
CONST	ENDS
;	COMDAT ??_C@_0BO@NIHAIHFC@glCompressedTextureSubImage1D@
CONST	SEGMENT
??_C@_0BO@NIHAIHFC@glCompressedTextureSubImage1D@ DB 'glCompressedTexture'
	DB	'SubImage1D', 00H				; `string'
CONST	ENDS
;	COMDAT ??_C@_0BE@IAECGNFO@glTextureSubImage3D@
CONST	SEGMENT
??_C@_0BE@IAECGNFO@glTextureSubImage3D@ DB 'glTextureSubImage3D', 00H ; `string'
CONST	ENDS
;	COMDAT ??_C@_0BE@IBIAAHGJ@glTextureSubImage2D@
CONST	SEGMENT
??_C@_0BE@IBIAAHGJ@glTextureSubImage2D@ DB 'glTextureSubImage2D', 00H ; `string'
CONST	ENDS
;	COMDAT ??_C@_0BE@IDMGLJDA@glTextureSubImage1D@
CONST	SEGMENT
??_C@_0BE@IDMGLJDA@glTextureSubImage1D@ DB 'glTextureSubImage1D', 00H ; `string'
CONST	ENDS
;	COMDAT ??_C@_0BO@LFHOCIJO@glTextureStorage3DMultisample@
CONST	SEGMENT
??_C@_0BO@LFHOCIJO@glTextureStorage3DMultisample@ DB 'glTextureStorage3DM'
	DB	'ultisample', 00H				; `string'
CONST	ENDS
;	COMDAT ??_C@_0BO@CIHBMJOI@glTextureStorage2DMultisample@
CONST	SEGMENT
??_C@_0BO@CIHBMJOI@glTextureStorage2DMultisample@ DB 'glTextureStorage2DM'
	DB	'ultisample', 00H				; `string'
CONST	ENDS
;	COMDAT ??_C@_0BD@CKGFKAEF@glTextureStorage3D@
CONST	SEGMENT
??_C@_0BD@CKGFKAEF@glTextureStorage3D@ DB 'glTextureStorage3D', 00H ; `string'
CONST	ENDS
;	COMDAT ??_C@_0BD@CLKHMKHC@glTextureStorage2D@
CONST	SEGMENT
??_C@_0BD@CLKHMKHC@glTextureStorage2D@ DB 'glTextureStorage2D', 00H ; `string'
CONST	ENDS
;	COMDAT ??_C@_0BD@CJOBHECL@glTextureStorage1D@
CONST	SEGMENT
??_C@_0BD@CJOBHECL@glTextureStorage1D@ DB 'glTextureStorage1D', 00H ; `string'
CONST	ENDS
;	COMDAT ??_C@_0BF@HAEPGPBJ@glTextureBufferRange@
CONST	SEGMENT
??_C@_0BF@HAEPGPBJ@glTextureBufferRange@ DB 'glTextureBufferRange', 00H ; `string'
CONST	ENDS
;	COMDAT ??_C@_0BA@BEJOBNBA@glTextureBuffer@
CONST	SEGMENT
??_C@_0BA@BEJOBNBA@glTextureBuffer@ DB 'glTextureBuffer', 00H ; `string'
CONST	ENDS
;	COMDAT ??_C@_0BB@LABGPBKD@glCreateTextures@
CONST	SEGMENT
??_C@_0BB@LABGPBKD@glCreateTextures@ DB 'glCreateTextures', 00H ; `string'
CONST	ENDS
;	COMDAT ??_C@_0CC@FCEAEAHI@glGetNamedRenderbufferParameter@
CONST	SEGMENT
??_C@_0CC@FCEAEAHI@glGetNamedRenderbufferParameter@ DB 'glGetNamedRenderb'
	DB	'ufferParameteriv', 00H			; `string'
CONST	ENDS
;	COMDAT ??_C@_0CG@IDKJGKBA@glNamedRenderbufferStorageMulti@
CONST	SEGMENT
??_C@_0CG@IDKJGKBA@glNamedRenderbufferStorageMulti@ DB 'glNamedRenderbuff'
	DB	'erStorageMultisample', 00H			; `string'
CONST	ENDS
;	COMDAT ??_C@_0BL@DGDPFKGM@glNamedRenderbufferStorage@
CONST	SEGMENT
??_C@_0BL@DGDPFKGM@glNamedRenderbufferStorage@ DB 'glNamedRenderbufferSto'
	DB	'rage', 00H					; `string'
CONST	ENDS
;	COMDAT ??_C@_0BG@JJNJGAME@glCreateRenderbuffers@
CONST	SEGMENT
??_C@_0BG@JJNJGAME@glCreateRenderbuffers@ DB 'glCreateRenderbuffers', 00H ; `string'
CONST	ENDS
;	COMDAT ??_C@_0CL@BGDPEPCC@glGetNamedFramebufferAttachment@
CONST	SEGMENT
??_C@_0CL@BGDPEPCC@glGetNamedFramebufferAttachment@ DB 'glGetNamedFramebu'
	DB	'fferAttachmentParameteriv', 00H		; `string'
CONST	ENDS
;	COMDAT ??_C@_0CB@COGAJBEM@glGetNamedFramebufferParameteri@
CONST	SEGMENT
??_C@_0CB@COGAJBEM@glGetNamedFramebufferParameteri@ DB 'glGetNamedFramebu'
	DB	'fferParameteriv', 00H			; `string'
CONST	ENDS
;	COMDAT ??_C@_0BO@LMABFPGK@glCheckNamedFramebufferStatus@
CONST	SEGMENT
??_C@_0BO@LMABFPGK@glCheckNamedFramebufferStatus@ DB 'glCheckNamedFramebu'
	DB	'fferStatus', 00H				; `string'
CONST	ENDS
;	COMDAT ??_C@_0BH@FNFDNHAI@glBlitNamedFramebuffer@
CONST	SEGMENT
??_C@_0BH@FNFDNHAI@glBlitNamedFramebuffer@ DB 'glBlitNamedFramebuffer', 00H ; `string'
CONST	ENDS
;	COMDAT ??_C@_0BK@BJONNAKJ@glClearNamedFramebufferfi@
CONST	SEGMENT
??_C@_0BK@BJONNAKJ@glClearNamedFramebufferfi@ DB 'glClearNamedFramebuffer'
	DB	'fi', 00H					; `string'
CONST	ENDS
;	COMDAT ??_C@_0BK@NELHNODH@glClearNamedFramebufferfv@
CONST	SEGMENT
??_C@_0BK@NELHNODH@glClearNamedFramebufferfv@ DB 'glClearNamedFramebuffer'
	DB	'fv', 00H					; `string'
CONST	ENDS
;	COMDAT ??_C@_0BL@JENKNAJN@glClearNamedFramebufferuiv@
CONST	SEGMENT
??_C@_0BL@JENKNAJN@glClearNamedFramebufferuiv@ DB 'glClearNamedFramebuffe'
	DB	'ruiv', 00H					; `string'
CONST	ENDS
;	COMDAT ??_C@_0BK@NPOLJJAK@glClearNamedFramebufferiv@
CONST	SEGMENT
??_C@_0BK@NPOLJJAK@glClearNamedFramebufferiv@ DB 'glClearNamedFramebuffer'
	DB	'iv', 00H					; `string'
CONST	ENDS
;	COMDAT ??_C@_0CE@DEGDCFND@glInvalidateNamedFramebufferSub@
CONST	SEGMENT
??_C@_0CE@DEGDCFND@glInvalidateNamedFramebufferSub@ DB 'glInvalidateNamed'
	DB	'FramebufferSubData', 00H			; `string'
CONST	ENDS
;	COMDAT ??_C@_0CB@OGGNKJIL@glInvalidateNamedFramebufferDat@
CONST	SEGMENT
??_C@_0CB@OGGNKJIL@glInvalidateNamedFramebufferDat@ DB 'glInvalidateNamed'
	DB	'FramebufferData', 00H			; `string'
CONST	ENDS
;	COMDAT ??_C@_0BN@LPANNPJE@glNamedFramebufferReadBuffer@
CONST	SEGMENT
??_C@_0BN@LPANNPJE@glNamedFramebufferReadBuffer@ DB 'glNamedFramebufferRe'
	DB	'adBuffer', 00H				; `string'
CONST	ENDS
;	COMDAT ??_C@_0BO@CGKJHFH@glNamedFramebufferDrawBuffers@
CONST	SEGMENT
??_C@_0BO@CGKJHFH@glNamedFramebufferDrawBuffers@ DB 'glNamedFramebufferDr'
	DB	'awBuffers', 00H				; `string'
CONST	ENDS
;	COMDAT ??_C@_0BN@MOAIHNEF@glNamedFramebufferDrawBuffer@
CONST	SEGMENT
??_C@_0BN@MOAIHNEF@glNamedFramebufferDrawBuffer@ DB 'glNamedFramebufferDr'
	DB	'awBuffer', 00H				; `string'
CONST	ENDS
;	COMDAT ??_C@_0BP@PHGPDAJM@glNamedFramebufferTextureLayer@
CONST	SEGMENT
??_C@_0BP@PHGPDAJM@glNamedFramebufferTextureLayer@ DB 'glNamedFramebuffer'
	DB	'TextureLayer', 00H				; `string'
CONST	ENDS
;	COMDAT ??_C@_0BK@PNJJLPPI@glNamedFramebufferTexture@
CONST	SEGMENT
??_C@_0BK@PNJJLPPI@glNamedFramebufferTexture@ DB 'glNamedFramebufferTextu'
	DB	're', 00H					; `string'
CONST	ENDS
;	COMDAT ??_C@_0BN@LBMOOIHC@glNamedFramebufferParameteri@
CONST	SEGMENT
??_C@_0BN@LBMOOIHC@glNamedFramebufferParameteri@ DB 'glNamedFramebufferPa'
	DB	'rameteri', 00H				; `string'
CONST	ENDS
;	COMDAT ??_C@_0BP@MGCPNBGC@glNamedFramebufferRenderbuffer@
CONST	SEGMENT
??_C@_0BP@MGCPNBGC@glNamedFramebufferRenderbuffer@ DB 'glNamedFramebuffer'
	DB	'Renderbuffer', 00H				; `string'
CONST	ENDS
;	COMDAT ??_C@_0BF@DDKJIBLC@glCreateFramebuffers@
CONST	SEGMENT
??_C@_0BF@DDKJIBLC@glCreateFramebuffers@ DB 'glCreateFramebuffers', 00H ; `string'
CONST	ENDS
;	COMDAT ??_C@_0BI@PJBCKPNA@glGetNamedBufferSubData@
CONST	SEGMENT
??_C@_0BI@PJBCKPNA@glGetNamedBufferSubData@ DB 'glGetNamedBufferSubData', 00H ; `string'
CONST	ENDS
;	COMDAT ??_C@_0BJ@NBEMEIKG@glGetNamedBufferPointerv@
CONST	SEGMENT
??_C@_0BJ@NBEMEIKG@glGetNamedBufferPointerv@ DB 'glGetNamedBufferPointerv'
	DB	00H						; `string'
CONST	ENDS
;	COMDAT ??_C@_0BO@ECJNIDNL@glGetNamedBufferParameteri64v@
CONST	SEGMENT
??_C@_0BO@ECJNIDNL@glGetNamedBufferParameteri64v@ DB 'glGetNamedBufferPar'
	DB	'ameteri64v', 00H				; `string'
CONST	ENDS
;	COMDAT ??_C@_0BM@KFAGBFPK@glGetNamedBufferParameteriv@
CONST	SEGMENT
??_C@_0BM@KFAGBFPK@glGetNamedBufferParameteriv@ DB 'glGetNamedBufferParam'
	DB	'eteriv', 00H				; `string'
CONST	ENDS
;	COMDAT ??_C@_0BO@DBGNKBKH@glFlushMappedNamedBufferRange@
CONST	SEGMENT
??_C@_0BO@DBGNKBKH@glFlushMappedNamedBufferRange@ DB 'glFlushMappedNamedB'
	DB	'ufferRange', 00H				; `string'
CONST	ENDS
;	COMDAT ??_C@_0BD@LAAONAHD@glUnmapNamedBuffer@
CONST	SEGMENT
??_C@_0BD@LAAONAHD@glUnmapNamedBuffer@ DB 'glUnmapNamedBuffer', 00H ; `string'
CONST	ENDS
;	COMDAT ??_C@_0BG@JLCGKFD@glMapNamedBufferRange@
CONST	SEGMENT
??_C@_0BG@JLCGKFD@glMapNamedBufferRange@ DB 'glMapNamedBufferRange', 00H ; `string'
CONST	ENDS
;	COMDAT ??_C@_0BB@JLMCGIDB@glMapNamedBuffer@
CONST	SEGMENT
??_C@_0BB@JLMCGIDB@glMapNamedBuffer@ DB 'glMapNamedBuffer', 00H ; `string'
CONST	ENDS
;	COMDAT ??_C@_0BK@BNIDNJBH@glClearNamedBufferSubData@
CONST	SEGMENT
??_C@_0BK@BNIDNJBH@glClearNamedBufferSubData@ DB 'glClearNamedBufferSubDa'
	DB	'ta', 00H					; `string'
CONST	ENDS
;	COMDAT ??_C@_0BH@KJMLMCB@glClearNamedBufferData@
CONST	SEGMENT
??_C@_0BH@KJMLMCB@glClearNamedBufferData@ DB 'glClearNamedBufferData', 00H ; `string'
CONST	ENDS
;	COMDAT ??_C@_0BJ@MJPDCHND@glCopyNamedBufferSubData@
CONST	SEGMENT
??_C@_0BJ@MJPDCHND@glCopyNamedBufferSubData@ DB 'glCopyNamedBufferSubData'
	DB	00H						; `string'
CONST	ENDS
;	COMDAT ??_C@_0BF@MDEBAFLD@glNamedBufferSubData@
CONST	SEGMENT
??_C@_0BF@MDEBAFLD@glNamedBufferSubData@ DB 'glNamedBufferSubData', 00H ; `string'
CONST	ENDS
;	COMDAT ??_C@_0BC@LHEABGCG@glNamedBufferData@
CONST	SEGMENT
??_C@_0BC@LHEABGCG@glNamedBufferData@ DB 'glNamedBufferData', 00H ; `string'
CONST	ENDS
;	COMDAT ??_C@_0BF@INMFIINC@glNamedBufferStorage@
CONST	SEGMENT
??_C@_0BF@INMFIINC@glNamedBufferStorage@ DB 'glNamedBufferStorage', 00H ; `string'
CONST	ENDS
;	COMDAT ??_C@_0BA@LNBCEANP@glCreateBuffers@
CONST	SEGMENT
??_C@_0BA@LNBCEANP@glCreateBuffers@ DB 'glCreateBuffers', 00H ; `string'
CONST	ENDS
;	COMDAT ??_C@_0BM@KDHFPNLE@glGetTransformFeedbacki64_v@
CONST	SEGMENT
??_C@_0BM@KDHFPNLE@glGetTransformFeedbacki64_v@ DB 'glGetTransformFeedbac'
	DB	'ki64_v', 00H				; `string'
CONST	ENDS
;	COMDAT ??_C@_0BK@IPHNHFEI@glGetTransformFeedbacki_v@
CONST	SEGMENT
??_C@_0BK@IPHNHFEI@glGetTransformFeedbacki_v@ DB 'glGetTransformFeedbacki'
	DB	'_v', 00H					; `string'
CONST	ENDS
;	COMDAT ??_C@_0BJ@OFMLPMDO@glGetTransformFeedbackiv@
CONST	SEGMENT
??_C@_0BJ@OFMLPMDO@glGetTransformFeedbackiv@ DB 'glGetTransformFeedbackiv'
	DB	00H						; `string'
CONST	ENDS
;	COMDAT ??_C@_0BP@NBIGCNHI@glTransformFeedbackBufferRange@
CONST	SEGMENT
??_C@_0BP@NBIGCNHI@glTransformFeedbackBufferRange@ DB 'glTransformFeedbac'
	DB	'kBufferRange', 00H				; `string'
CONST	ENDS
;	COMDAT ??_C@_0BO@EGLKNJFA@glTransformFeedbackBufferBase@
CONST	SEGMENT
??_C@_0BO@EGLKNJFA@glTransformFeedbackBufferBase@ DB 'glTransformFeedback'
	DB	'BufferBase', 00H				; `string'
CONST	ENDS
;	COMDAT ??_C@_0BL@HPCMJLAK@glCreateTransformFeedbacks@
CONST	SEGMENT
??_C@_0BL@HPCMJLAK@glCreateTransformFeedbacks@ DB 'glCreateTransformFeedb'
	DB	'acks', 00H					; `string'
CONST	ENDS
;	COMDAT ??_C@_0O@DMMKFMGC@glClipControl@
CONST	SEGMENT
??_C@_0O@DMMKFMGC@glClipControl@ DB 'glClipControl', 00H ; `string'
CONST	ENDS
;	COMDAT ??_C@_0BE@LNCGJHDC@glBindVertexBuffers@
CONST	SEGMENT
??_C@_0BE@LNCGJHDC@glBindVertexBuffers@ DB 'glBindVertexBuffers', 00H ; `string'
CONST	ENDS
;	COMDAT ??_C@_0BE@NAMJLOCK@glBindImageTextures@
CONST	SEGMENT
??_C@_0BE@NAMJLOCK@glBindImageTextures@ DB 'glBindImageTextures', 00H ; `string'
CONST	ENDS
;	COMDAT ??_C@_0P@FADPDFKM@glBindSamplers@
CONST	SEGMENT
??_C@_0P@FADPDFKM@glBindSamplers@ DB 'glBindSamplers', 00H ; `string'
CONST	ENDS
;	COMDAT ??_C@_0P@KHDEIIMA@glBindTextures@
CONST	SEGMENT
??_C@_0P@KHDEIIMA@glBindTextures@ DB 'glBindTextures', 00H ; `string'
CONST	ENDS
;	COMDAT ??_C@_0BD@ODFFOKPN@glBindBuffersRange@
CONST	SEGMENT
??_C@_0BD@ODFFOKPN@glBindBuffersRange@ DB 'glBindBuffersRange', 00H ; `string'
CONST	ENDS
;	COMDAT ??_C@_0BC@ENBBLPHM@glBindBuffersBase@
CONST	SEGMENT
??_C@_0BC@ENBBLPHM@glBindBuffersBase@ DB 'glBindBuffersBase', 00H ; `string'
CONST	ENDS
;	COMDAT ??_C@_0BD@CFALBON@glClearTexSubImage@
CONST	SEGMENT
??_C@_0BD@CFALBON@glClearTexSubImage@ DB 'glClearTexSubImage', 00H ; `string'
CONST	ENDS
;	COMDAT ??_C@_0BA@FNPOIBAF@glClearTexImage@
CONST	SEGMENT
??_C@_0BA@FNPOIBAF@glClearTexImage@ DB 'glClearTexImage', 00H ; `string'
CONST	ENDS
;	COMDAT ??_C@_0BA@COBILMHM@glBufferStorage@
CONST	SEGMENT
??_C@_0BA@COBILMHM@glBufferStorage@ DB 'glBufferStorage', 00H ; `string'
CONST	ENDS
;	COMDAT ??_C@_0O@LADEDGJO@glGetPointerv@
CONST	SEGMENT
??_C@_0O@LADEDGJO@glGetPointerv@ DB 'glGetPointerv', 00H ; `string'
CONST	ENDS
;	COMDAT ??_C@_0BE@MIJFJOHM@glGetObjectPtrLabel@
CONST	SEGMENT
??_C@_0BE@MIJFJOHM@glGetObjectPtrLabel@ DB 'glGetObjectPtrLabel', 00H ; `string'
CONST	ENDS
;	COMDAT ??_C@_0BB@FBABGDIL@glObjectPtrLabel@
CONST	SEGMENT
??_C@_0BB@FBABGDIL@glObjectPtrLabel@ DB 'glObjectPtrLabel', 00H ; `string'
CONST	ENDS
;	COMDAT ??_C@_0BB@MOEDHKDB@glGetObjectLabel@
CONST	SEGMENT
??_C@_0BB@MOEDHKDB@glGetObjectLabel@ DB 'glGetObjectLabel', 00H ; `string'
CONST	ENDS
;	COMDAT ??_C@_0O@EFJDECDM@glObjectLabel@
CONST	SEGMENT
??_C@_0O@EFJDECDM@glObjectLabel@ DB 'glObjectLabel', 00H ; `string'
CONST	ENDS
;	COMDAT ??_C@_0BA@PMJBDENK@glPopDebugGroup@
CONST	SEGMENT
??_C@_0BA@PMJBDENK@glPopDebugGroup@ DB 'glPopDebugGroup', 00H ; `string'
CONST	ENDS
;	COMDAT ??_C@_0BB@DEFFBEGJ@glPushDebugGroup@
CONST	SEGMENT
??_C@_0BB@DEFFBEGJ@glPushDebugGroup@ DB 'glPushDebugGroup', 00H ; `string'
CONST	ENDS
;	COMDAT ??_C@_0BF@FGBMJKND@glGetDebugMessageLog@
CONST	SEGMENT
??_C@_0BF@FGBMJKND@glGetDebugMessageLog@ DB 'glGetDebugMessageLog', 00H ; `string'
CONST	ENDS
;	COMDAT ??_C@_0BH@IGFENJCI@glDebugMessageCallback@
CONST	SEGMENT
??_C@_0BH@IGFENJCI@glDebugMessageCallback@ DB 'glDebugMessageCallback', 00H ; `string'
CONST	ENDS
;	COMDAT ??_C@_0BF@DGOJNFDO@glDebugMessageInsert@
CONST	SEGMENT
??_C@_0BF@DGOJNFDO@glDebugMessageInsert@ DB 'glDebugMessageInsert', 00H ; `string'
CONST	ENDS
;	COMDAT ??_C@_0BG@MNBDCEEP@glDebugMessageControl@
CONST	SEGMENT
??_C@_0BG@MNBDCEEP@glDebugMessageControl@ DB 'glDebugMessageControl', 00H ; `string'
CONST	ENDS
;	COMDAT ??_C@_0BH@GNGCLGOI@glVertexBindingDivisor@
CONST	SEGMENT
??_C@_0BH@GNGCLGOI@glVertexBindingDivisor@ DB 'glVertexBindingDivisor', 00H ; `string'
CONST	ENDS
;	COMDAT ??_C@_0BG@MLFHCGE@glVertexAttribBinding@
CONST	SEGMENT
??_C@_0BG@MLFHCGE@glVertexAttribBinding@ DB 'glVertexAttribBinding', 00H ; `string'
CONST	ENDS
;	COMDAT ??_C@_0BG@OBOHAJFM@glVertexAttribLFormat@
CONST	SEGMENT
??_C@_0BG@OBOHAJFM@glVertexAttribLFormat@ DB 'glVertexAttribLFormat', 00H ; `string'
CONST	ENDS
;	COMDAT ??_C@_0BG@KJAHAHDI@glVertexAttribIFormat@
CONST	SEGMENT
??_C@_0BG@KJAHAHDI@glVertexAttribIFormat@ DB 'glVertexAttribIFormat', 00H ; `string'
CONST	ENDS
;	COMDAT ??_C@_0BF@JEIPPBFE@glVertexAttribFormat@
CONST	SEGMENT
??_C@_0BF@JEIPPBFE@glVertexAttribFormat@ DB 'glVertexAttribFormat', 00H ; `string'
CONST	ENDS
;	COMDAT ??_C@_0BD@FCGJAOHG@glBindVertexBuffer@
CONST	SEGMENT
??_C@_0BD@FCGJAOHG@glBindVertexBuffer@ DB 'glBindVertexBuffer', 00H ; `string'
CONST	ENDS
;	COMDAT ??_C@_0O@BNFDGIMP@glTextureView@
CONST	SEGMENT
??_C@_0O@BNFDGIMP@glTextureView@ DB 'glTextureView', 00H ; `string'
CONST	ENDS
;	COMDAT ??_C@_0BK@GOJPECNJ@glTexStorage3DMultisample@
CONST	SEGMENT
??_C@_0BK@GOJPECNJ@glTexStorage3DMultisample@ DB 'glTexStorage3DMultisamp'
	DB	'le', 00H					; `string'
CONST	ENDS
;	COMDAT ??_C@_0BK@PDJAKDKP@glTexStorage2DMultisample@
CONST	SEGMENT
??_C@_0BK@PDJAKDKP@glTexStorage2DMultisample@ DB 'glTexStorage2DMultisamp'
	DB	'le', 00H					; `string'
CONST	ENDS
;	COMDAT ??_C@_0BB@DPMGLFNI@glTexBufferRange@
CONST	SEGMENT
??_C@_0BB@DPMGLFNI@glTexBufferRange@ DB 'glTexBufferRange', 00H ; `string'
CONST	ENDS
;	COMDAT ??_C@_0BM@GDDCNIBO@glShaderStorageBlockBinding@
CONST	SEGMENT
??_C@_0BM@GDDCNIBO@glShaderStorageBlockBinding@ DB 'glShaderStorageBlockB'
	DB	'inding', 00H				; `string'
CONST	ENDS
;	COMDAT ??_C@_0CC@GHECGAIH@glGetProgramResourceLocationInd@
CONST	SEGMENT
??_C@_0CC@GHECGAIH@glGetProgramResourceLocationInd@ DB 'glGetProgramResou'
	DB	'rceLocationIndex', 00H			; `string'
CONST	ENDS
;	COMDAT ??_C@_0BN@BIJNENLC@glGetProgramResourceLocation@
CONST	SEGMENT
??_C@_0BN@BIJNENLC@glGetProgramResourceLocation@ DB 'glGetProgramResource'
	DB	'Location', 00H				; `string'
CONST	ENDS
;	COMDAT ??_C@_0BH@LEDFEPHI@glGetProgramResourceiv@
CONST	SEGMENT
??_C@_0BH@LEDFEPHI@glGetProgramResourceiv@ DB 'glGetProgramResourceiv', 00H ; `string'
CONST	ENDS
;	COMDAT ??_C@_0BJ@OHCPEAGJ@glGetProgramResourceName@
CONST	SEGMENT
??_C@_0BJ@OHCPEAGJ@glGetProgramResourceName@ DB 'glGetProgramResourceName'
	DB	00H						; `string'
CONST	ENDS
;	COMDAT ??_C@_0BK@DBDCONKB@glGetProgramResourceIndex@
CONST	SEGMENT
??_C@_0BK@DBDCONKB@glGetProgramResourceIndex@ DB 'glGetProgramResourceInd'
	DB	'ex', 00H					; `string'
CONST	ENDS
;	COMDAT ??_C@_0BI@ICGPDPK@glGetProgramInterfaceiv@
CONST	SEGMENT
??_C@_0BI@ICGPDPK@glGetProgramInterfaceiv@ DB 'glGetProgramInterfaceiv', 00H ; `string'
CONST	ENDS
;	COMDAT ??_C@_0BM@KHEEFMKO@glMultiDrawElementsIndirect@
CONST	SEGMENT
??_C@_0BM@KHEEFMKO@glMultiDrawElementsIndirect@ DB 'glMultiDrawElementsIn'
	DB	'direct', 00H				; `string'
CONST	ENDS
;	COMDAT ??_C@_0BK@IKGAIKOP@glMultiDrawArraysIndirect@
CONST	SEGMENT
??_C@_0BK@IKGAIKOP@glMultiDrawArraysIndirect@ DB 'glMultiDrawArraysIndire'
	DB	'ct', 00H					; `string'
CONST	ENDS
;	COMDAT ??_C@_0BL@IHGLAPPE@glInvalidateSubFramebuffer@
CONST	SEGMENT
??_C@_0BL@IHGLAPPE@glInvalidateSubFramebuffer@ DB 'glInvalidateSubFramebu'
	DB	'ffer', 00H					; `string'
CONST	ENDS
;	COMDAT ??_C@_0BI@OAJPOHIP@glInvalidateFramebuffer@
CONST	SEGMENT
??_C@_0BI@OAJPOHIP@glInvalidateFramebuffer@ DB 'glInvalidateFramebuffer', 00H ; `string'
CONST	ENDS
;	COMDAT ??_C@_0BH@OGIFIBHA@glInvalidateBufferData@
CONST	SEGMENT
??_C@_0BH@OGIFIBHA@glInvalidateBufferData@ DB 'glInvalidateBufferData', 00H ; `string'
CONST	ENDS
;	COMDAT ??_C@_0BK@HOHOHNAC@glInvalidateBufferSubData@
CONST	SEGMENT
??_C@_0BK@HOHOHNAC@glInvalidateBufferSubData@ DB 'glInvalidateBufferSubDa'
	DB	'ta', 00H					; `string'
CONST	ENDS
;	COMDAT ??_C@_0BF@KHIECPKG@glInvalidateTexImage@
CONST	SEGMENT
??_C@_0BF@KHIECPKG@glInvalidateTexImage@ DB 'glInvalidateTexImage', 00H ; `string'
CONST	ENDS
;	COMDAT ??_C@_0BI@FJDKFLGL@glInvalidateTexSubImage@
CONST	SEGMENT
??_C@_0BI@FJDKFLGL@glInvalidateTexSubImage@ DB 'glInvalidateTexSubImage', 00H ; `string'
CONST	ENDS
;	COMDAT ??_C@_0BI@PHNNEGBD@glGetInternalformati64v@
CONST	SEGMENT
??_C@_0BI@PHNNEGBD@glGetInternalformati64v@ DB 'glGetInternalformati64v', 00H ; `string'
CONST	ENDS
;	COMDAT ??_C@_0BM@BFEEFCMK@glGetFramebufferParameteriv@
CONST	SEGMENT
??_C@_0BM@BFEEFCMK@glGetFramebufferParameteriv@ DB 'glGetFramebufferParam'
	DB	'eteriv', 00H				; `string'
CONST	ENDS
;	COMDAT ??_C@_0BI@MLACHGDK@glFramebufferParameteri@
CONST	SEGMENT
??_C@_0BI@MLACHGDK@glFramebufferParameteri@ DB 'glFramebufferParameteri', 00H ; `string'
CONST	ENDS
;	COMDAT ??_C@_0BD@BNCHOBBL@glCopyImageSubData@
CONST	SEGMENT
??_C@_0BD@BNCHOBBL@glCopyImageSubData@ DB 'glCopyImageSubData', 00H ; `string'
CONST	ENDS
;	COMDAT ??_C@_0BK@EJMOGMMI@glDispatchComputeIndirect@
CONST	SEGMENT
??_C@_0BK@EJMOGMMI@glDispatchComputeIndirect@ DB 'glDispatchComputeIndire'
	DB	'ct', 00H					; `string'
CONST	ENDS
;	COMDAT ??_C@_0BC@DKKFFIGC@glDispatchCompute@
CONST	SEGMENT
??_C@_0BC@DKKFFIGC@glDispatchCompute@ DB 'glDispatchCompute', 00H ; `string'
CONST	ENDS
;	COMDAT ??_C@_0BF@FDHIBCMD@glClearBufferSubData@
CONST	SEGMENT
??_C@_0BF@FDHIBCMD@glClearBufferSubData@ DB 'glClearBufferSubData', 00H ; `string'
CONST	ENDS
;	COMDAT ??_C@_0BC@FCMBBKMP@glClearBufferData@
CONST	SEGMENT
??_C@_0BC@FCMBBKMP@glClearBufferData@ DB 'glClearBufferData', 00H ; `string'
CONST	ENDS
;	COMDAT ??_C@_0CH@OMPFKBLK@glDrawTransformFeedbackStreamIn@
CONST	SEGMENT
??_C@_0CH@OMPFKBLK@glDrawTransformFeedbackStreamIn@ DB 'glDrawTransformFe'
	DB	'edbackStreamInstanced', 00H			; `string'
CONST	ENDS
;	COMDAT ??_C@_0CB@NDMLCEF@glDrawTransformFeedbackInstance@
CONST	SEGMENT
??_C@_0CB@NDMLCEF@glDrawTransformFeedbackInstance@ DB 'glDrawTransformFee'
	DB	'dbackInstanced', 00H			; `string'
CONST	ENDS
;	COMDAT ??_C@_0P@LBDCCAHA@glTexStorage3D@
CONST	SEGMENT
??_C@_0P@LBDCCAHA@glTexStorage3D@ DB 'glTexStorage3D', 00H ; `string'
CONST	ENDS
;	COMDAT ??_C@_0P@LAPAEKEH@glTexStorage2D@
CONST	SEGMENT
??_C@_0P@LAPAEKEH@glTexStorage2D@ DB 'glTexStorage2D', 00H ; `string'
CONST	ENDS
;	COMDAT ??_C@_0P@LCLGPEBO@glTexStorage1D@
CONST	SEGMENT
??_C@_0P@LCLGPEBO@glTexStorage1D@ DB 'glTexStorage1D', 00H ; `string'
CONST	ENDS
;	COMDAT ??_C@_0BA@HIHPNLBJ@glMemoryBarrier@
CONST	SEGMENT
??_C@_0BA@HIHPNLBJ@glMemoryBarrier@ DB 'glMemoryBarrier', 00H ; `string'
CONST	ENDS
;	COMDAT ??_C@_0BD@GAKEPNGD@glBindImageTexture@
CONST	SEGMENT
??_C@_0BD@GAKEPNGD@glBindImageTexture@ DB 'glBindImageTexture', 00H ; `string'
CONST	ENDS
;	COMDAT ??_C@_0CB@CEHFMJFN@glGetActiveAtomicCounterBufferi@
CONST	SEGMENT
??_C@_0CB@CEHFMJFN@glGetActiveAtomicCounterBufferi@ DB 'glGetActiveAtomic'
	DB	'CounterBufferiv', 00H			; `string'
CONST	ENDS
;	COMDAT ??_C@_0BG@BAOCDJPF@glGetInternalformativ@
CONST	SEGMENT
??_C@_0BG@BAOCDJPF@glGetInternalformativ@ DB 'glGetInternalformativ', 00H ; `string'
CONST	ENDS
;	COMDAT ??_C@_0CO@GCMNEAOA@glDrawElementsInstancedBaseVert@
CONST	SEGMENT
??_C@_0CO@GCMNEAOA@glDrawElementsInstancedBaseVert@ DB 'glDrawElementsIns'
	DB	'tancedBaseVertexBaseInstance', 00H		; `string'
CONST	ENDS
;	COMDAT ??_C@_0CE@NGNINKJD@glDrawElementsInstancedBaseInst@
CONST	SEGMENT
??_C@_0CE@NGNINKJD@glDrawElementsInstancedBaseInst@ DB 'glDrawElementsIns'
	DB	'tancedBaseInstance', 00H			; `string'
CONST	ENDS
;	COMDAT ??_C@_0CC@FBJBJHCN@glDrawArraysInstancedBaseInstan@
CONST	SEGMENT
??_C@_0CC@FBJBJHCN@glDrawArraysInstancedBaseInstan@ DB 'glDrawArraysInsta'
	DB	'ncedBaseInstance', 00H			; `string'
CONST	ENDS
;	COMDAT ??_C@_0P@PDJCBGIA@glGetDoublei_v@
CONST	SEGMENT
??_C@_0P@PDJCBGIA@glGetDoublei_v@ DB 'glGetDoublei_v', 00H ; `string'
CONST	ENDS
;	COMDAT ??_C@_0O@JKEOHGC@glGetFloati_v@
CONST	SEGMENT
??_C@_0O@JKEOHGC@glGetFloati_v@ DB 'glGetFloati_v', 00H	; `string'
CONST	ENDS
;	COMDAT ??_C@_0BE@FMCFIJBP@glDepthRangeIndexed@
CONST	SEGMENT
??_C@_0BE@FMCFIJBP@glDepthRangeIndexed@ DB 'glDepthRangeIndexed', 00H ; `string'
CONST	ENDS
;	COMDAT ??_C@_0BD@JLCIOMKN@glDepthRangeArrayv@
CONST	SEGMENT
??_C@_0BD@JLCIOMKN@glDepthRangeArrayv@ DB 'glDepthRangeArrayv', 00H ; `string'
CONST	ENDS
;	COMDAT ??_C@_0BC@OOKOHKNA@glScissorIndexedv@
CONST	SEGMENT
??_C@_0BC@OOKOHKNA@glScissorIndexedv@ DB 'glScissorIndexedv', 00H ; `string'
CONST	ENDS
;	COMDAT ??_C@_0BB@BJHNCIAL@glScissorIndexed@
CONST	SEGMENT
??_C@_0BB@BJHNCIAL@glScissorIndexed@ DB 'glScissorIndexed', 00H ; `string'
CONST	ENDS
;	COMDAT ??_C@_0BA@BMNFINIA@glScissorArrayv@
CONST	SEGMENT
??_C@_0BA@BMNFINIA@glScissorArrayv@ DB 'glScissorArrayv', 00H ; `string'
CONST	ENDS
;	COMDAT ??_C@_0BE@OKPEDJOC@glViewportIndexedfv@
CONST	SEGMENT
??_C@_0BE@OKPEDJOC@glViewportIndexedfv@ DB 'glViewportIndexedfv', 00H ; `string'
CONST	ENDS
;	COMDAT ??_C@_0BD@JIBIAPIN@glViewportIndexedf@
CONST	SEGMENT
??_C@_0BD@JIBIAPIN@glViewportIndexedf@ DB 'glViewportIndexedf', 00H ; `string'
CONST	ENDS
;	COMDAT ??_C@_0BB@JIDIDPIB@glViewportArrayv@
CONST	SEGMENT
??_C@_0BB@JIDIDPIB@glViewportArrayv@ DB 'glViewportArrayv', 00H ; `string'
CONST	ENDS
;	COMDAT ??_C@_0BF@JADLCNLO@glGetVertexAttribLdv@
CONST	SEGMENT
??_C@_0BF@JADLCNLO@glGetVertexAttribLdv@ DB 'glGetVertexAttribLdv', 00H ; `string'
CONST	ENDS
;	COMDAT ??_C@_0BH@JBHDDPGM@glVertexAttribLPointer@
CONST	SEGMENT
??_C@_0BH@JBHDDPGM@glVertexAttribLPointer@ DB 'glVertexAttribLPointer', 00H ; `string'
CONST	ENDS
;	COMDAT ??_C@_0BD@BJHCGDCF@glVertexAttribL4dv@
CONST	SEGMENT
??_C@_0BD@BJHCGDCF@glVertexAttribL4dv@ DB 'glVertexAttribL4dv', 00H ; `string'
CONST	ENDS
;	COMDAT ??_C@_0BD@IEKFFLJM@glVertexAttribL3dv@
CONST	SEGMENT
??_C@_0BD@IEKFFLJM@glVertexAttribL3dv@ DB 'glVertexAttribL3dv', 00H ; `string'
CONST	ENDS
;	COMDAT ??_C@_0BD@DMBJDMPJ@glVertexAttribL2dv@
CONST	SEGMENT
??_C@_0BD@DMBJDMPJ@glVertexAttribL2dv@ DB 'glVertexAttribL2dv', 00H ; `string'
CONST	ENDS
;	COMDAT ??_C@_0BD@COKMJDBH@glVertexAttribL1dv@
CONST	SEGMENT
??_C@_0BD@COKMJDBH@glVertexAttribL1dv@ DB 'glVertexAttribL1dv', 00H ; `string'
CONST	ENDS
;	COMDAT ??_C@_0BC@KHDDIAJP@glVertexAttribL4d@
CONST	SEGMENT
??_C@_0BC@KHDDIAJP@glVertexAttribL4d@ DB 'glVertexAttribL4d', 00H ; `string'
CONST	ENDS
;	COMDAT ??_C@_0BC@KCHMJGBK@glVertexAttribL3d@
CONST	SEGMENT
??_C@_0BC@KCHMJGBK@glVertexAttribL3d@ DB 'glVertexAttribL3d', 00H ; `string'
CONST	ENDS
;	COMDAT ??_C@_0BC@KDLOPMCN@glVertexAttribL2d@
CONST	SEGMENT
??_C@_0BC@KDLOPMCN@glVertexAttribL2d@ DB 'glVertexAttribL2d', 00H ; `string'
CONST	ENDS
;	COMDAT ??_C@_0BC@KBPIECHE@glVertexAttribL1d@
CONST	SEGMENT
??_C@_0BC@KBPIECHE@glVertexAttribL1d@ DB 'glVertexAttribL1d', 00H ; `string'
CONST	ENDS
;	COMDAT ??_C@_0BM@BFFCFFFG@glGetProgramPipelineInfoLog@
CONST	SEGMENT
??_C@_0BM@BFFCFFFG@glGetProgramPipelineInfoLog@ DB 'glGetProgramPipelineI'
	DB	'nfoLog', 00H				; `string'
CONST	ENDS
;	COMDAT ??_C@_0BK@HHHCKEGH@glValidateProgramPipeline@
CONST	SEGMENT
??_C@_0BK@HHHCKEGH@glValidateProgramPipeline@ DB 'glValidateProgramPipeli'
	DB	'ne', 00H					; `string'
CONST	ENDS
;	COMDAT ??_C@_0BM@OEIPHGOA@glProgramUniformMatrix4x3dv@
CONST	SEGMENT
??_C@_0BM@OEIPHGOA@glProgramUniformMatrix4x3dv@ DB 'glProgramUniformMatri'
	DB	'x4x3dv', 00H				; `string'
CONST	ENDS
;	COMDAT ??_C@_0BM@GEFNHOOB@glProgramUniformMatrix3x4dv@
CONST	SEGMENT
??_C@_0BM@GEFNHOOB@glProgramUniformMatrix3x4dv@ DB 'glProgramUniformMatri'
	DB	'x3x4dv', 00H				; `string'
CONST	ENDS
;	COMDAT ??_C@_0BM@FMDDBBIF@glProgramUniformMatrix4x2dv@
CONST	SEGMENT
??_C@_0BM@FMDDBBIF@glProgramUniformMatrix4x2dv@ DB 'glProgramUniformMatri'
	DB	'x4x2dv', 00H				; `string'
CONST	ENDS
;	COMDAT ??_C@_0BM@KPABKNEE@glProgramUniformMatrix2x4dv@
CONST	SEGMENT
??_C@_0BM@KPABKNEE@glProgramUniformMatrix2x4dv@ DB 'glProgramUniformMatri'
	DB	'x2x4dv', 00H				; `string'
CONST	ENDS
;	COMDAT ??_C@_0BM@EBDGCBDN@glProgramUniformMatrix3x2dv@
CONST	SEGMENT
??_C@_0BM@EBDGCBDN@glProgramUniformMatrix3x2dv@ DB 'glProgramUniformMatri'
	DB	'x3x2dv', 00H				; `string'
CONST	ENDS
;	COMDAT ??_C@_0BM@DCNGJFPN@glProgramUniformMatrix2x3dv@
CONST	SEGMENT
??_C@_0BM@DCNGJFPN@glProgramUniformMatrix2x3dv@ DB 'glProgramUniformMatri'
	DB	'x2x3dv', 00H				; `string'
CONST	ENDS
;	COMDAT ??_C@_0BM@OHALKCIO@glProgramUniformMatrix4x3fv@
CONST	SEGMENT
??_C@_0BM@OHALKCIO@glProgramUniformMatrix4x3fv@ DB 'glProgramUniformMatri'
	DB	'x4x3fv', 00H				; `string'
CONST	ENDS
;	COMDAT ??_C@_0BM@GHNJKKIP@glProgramUniformMatrix3x4fv@
CONST	SEGMENT
??_C@_0BM@GHNJKKIP@glProgramUniformMatrix3x4fv@ DB 'glProgramUniformMatri'
	DB	'x3x4fv', 00H				; `string'
CONST	ENDS
;	COMDAT ??_C@_0BM@FPLHMFOL@glProgramUniformMatrix4x2fv@
CONST	SEGMENT
??_C@_0BM@FPLHMFOL@glProgramUniformMatrix4x2fv@ DB 'glProgramUniformMatri'
	DB	'x4x2fv', 00H				; `string'
CONST	ENDS
;	COMDAT ??_C@_0BM@KMIFHJCK@glProgramUniformMatrix2x4fv@
CONST	SEGMENT
??_C@_0BM@KMIFHJCK@glProgramUniformMatrix2x4fv@ DB 'glProgramUniformMatri'
	DB	'x2x4fv', 00H				; `string'
CONST	ENDS
;	COMDAT ??_C@_0BM@ECLCPFFD@glProgramUniformMatrix3x2fv@
CONST	SEGMENT
??_C@_0BM@ECLCPFFD@glProgramUniformMatrix3x2fv@ DB 'glProgramUniformMatri'
	DB	'x3x2fv', 00H				; `string'
CONST	ENDS
;	COMDAT ??_C@_0BM@DBFCEBJD@glProgramUniformMatrix2x3fv@
CONST	SEGMENT
??_C@_0BM@DBFCEBJD@glProgramUniformMatrix2x3fv@ DB 'glProgramUniformMatri'
	DB	'x2x3fv', 00H				; `string'
CONST	ENDS
;	COMDAT ??_C@_0BK@NFBAAFLH@glProgramUniformMatrix4dv@
CONST	SEGMENT
??_C@_0BK@NFBAAFLH@glProgramUniformMatrix4dv@ DB 'glProgramUniformMatrix4'
	DB	'dv', 00H					; `string'
CONST	ENDS
;	COMDAT ??_C@_0BK@EIMHDNAO@glProgramUniformMatrix3dv@
CONST	SEGMENT
??_C@_0BK@EIMHDNAO@glProgramUniformMatrix3dv@ DB 'glProgramUniformMatrix3'
	DB	'dv', 00H					; `string'
CONST	ENDS
;	COMDAT ??_C@_0BK@PAHLFKGL@glProgramUniformMatrix2dv@
CONST	SEGMENT
??_C@_0BK@PAHLFKGL@glProgramUniformMatrix2dv@ DB 'glProgramUniformMatrix2'
	DB	'dv', 00H					; `string'
CONST	ENDS
;	COMDAT ??_C@_0BK@NGJENBNJ@glProgramUniformMatrix4fv@
CONST	SEGMENT
??_C@_0BK@NGJENBNJ@glProgramUniformMatrix4fv@ DB 'glProgramUniformMatrix4'
	DB	'fv', 00H					; `string'
CONST	ENDS
;	COMDAT ??_C@_0BK@ELEDOJGA@glProgramUniformMatrix3fv@
CONST	SEGMENT
??_C@_0BK@ELEDOJGA@glProgramUniformMatrix3fv@ DB 'glProgramUniformMatrix3'
	DB	'fv', 00H					; `string'
CONST	ENDS
;	COMDAT ??_C@_0BK@PDPPIOAF@glProgramUniformMatrix2fv@
CONST	SEGMENT
??_C@_0BK@PDPPIOAF@glProgramUniformMatrix2fv@ DB 'glProgramUniformMatrix2'
	DB	'fv', 00H					; `string'
CONST	ENDS
;	COMDAT ??_C@_0BF@JHNNHGB@glProgramUniform4uiv@
CONST	SEGMENT
??_C@_0BF@JHNNHGB@glProgramUniform4uiv@ DB 'glProgramUniform4uiv', 00H ; `string'
CONST	ENDS
;	COMDAT ??_C@_0BE@HCPNJOAF@glProgramUniform4ui@
CONST	SEGMENT
??_C@_0BE@HCPNJOAF@glProgramUniform4ui@ DB 'glProgramUniform4ui', 00H ; `string'
CONST	ENDS
;	COMDAT ??_C@_0BE@KCEDFJNM@glProgramUniform4dv@
CONST	SEGMENT
??_C@_0BE@KCEDFJNM@glProgramUniform4dv@ DB 'glProgramUniform4dv', 00H ; `string'
CONST	ENDS
;	COMDAT ??_C@_0BD@JNEOHKCK@glProgramUniform4d@
CONST	SEGMENT
??_C@_0BD@JNEOHKCK@glProgramUniform4d@ DB 'glProgramUniform4d', 00H ; `string'
CONST	ENDS
;	COMDAT ??_C@_0BE@KBMHINLC@glProgramUniform4fv@
CONST	SEGMENT
??_C@_0BE@KBMHINLC@glProgramUniform4fv@ DB 'glProgramUniform4fv', 00H ; `string'
CONST	ENDS
;	COMDAT ??_C@_0BD@KPHIBIKI@glProgramUniform4f@
CONST	SEGMENT
??_C@_0BD@KPHIBIKI@glProgramUniform4f@ DB 'glProgramUniform4f', 00H ; `string'
CONST	ENDS
;	COMDAT ??_C@_0BE@KKJLMKIP@glProgramUniform4iv@
CONST	SEGMENT
??_C@_0BE@KKJLMKIP@glProgramUniform4iv@ DB 'glProgramUniform4iv', 00H ; `string'
CONST	ENDS
;	COMDAT ??_C@_0BD@CIOAAEGH@glProgramUniform4i@
CONST	SEGMENT
??_C@_0BD@CIOAAEGH@glProgramUniform4i@ DB 'glProgramUniform4i', 00H ; `string'
CONST	ENDS
;	COMDAT ??_C@_0BF@LLFNALHB@glProgramUniform3uiv@
CONST	SEGMENT
??_C@_0BF@LLFNALHB@glProgramUniform3uiv@ DB 'glProgramUniform3uiv', 00H ; `string'
CONST	ENDS
;	COMDAT ??_C@_0BE@OPCKKGLM@glProgramUniform3ui@
CONST	SEGMENT
??_C@_0BE@OPCKKGLM@glProgramUniform3ui@ DB 'glProgramUniform3ui', 00H ; `string'
CONST	ENDS
;	COMDAT ??_C@_0BE@DPJEGBGF@glProgramUniform3dv@
CONST	SEGMENT
??_C@_0BE@DPJEGBGF@glProgramUniform3dv@ DB 'glProgramUniform3dv', 00H ; `string'
CONST	ENDS
;	COMDAT ??_C@_0BD@JIABGMKP@glProgramUniform3d@
CONST	SEGMENT
??_C@_0BD@JIABGMKP@glProgramUniform3d@ DB 'glProgramUniform3d', 00H ; `string'
CONST	ENDS
;	COMDAT ??_C@_0BE@DMBALFAL@glProgramUniform3fv@
CONST	SEGMENT
??_C@_0BE@DMBALFAL@glProgramUniform3fv@ DB 'glProgramUniform3fv', 00H ; `string'
CONST	ENDS
;	COMDAT ??_C@_0BD@KKDHAOCN@glProgramUniform3f@
CONST	SEGMENT
??_C@_0BD@KKDHAOCN@glProgramUniform3f@ DB 'glProgramUniform3f', 00H ; `string'
CONST	ENDS
;	COMDAT ??_C@_0BE@DHEMPCDG@glProgramUniform3iv@
CONST	SEGMENT
??_C@_0BE@DHEMPCDG@glProgramUniform3iv@ DB 'glProgramUniform3iv', 00H ; `string'
CONST	ENDS
;	COMDAT ??_C@_0BD@CNKPBCOC@glProgramUniform3i@
CONST	SEGMENT
??_C@_0BD@CNKPBCOC@glProgramUniform3i@ DB 'glProgramUniform3i', 00H ; `string'
CONST	ENDS
;	COMDAT ??_C@_0BF@IGDNCCMB@glProgramUniform2uiv@
CONST	SEGMENT
??_C@_0BF@IGDNCCMB@glProgramUniform2uiv@ DB 'glProgramUniform2uiv', 00H ; `string'
CONST	ENDS
;	COMDAT ??_C@_0BE@FHJGMBNJ@glProgramUniform2ui@
CONST	SEGMENT
??_C@_0BE@FHJGMBNJ@glProgramUniform2ui@ DB 'glProgramUniform2ui', 00H ; `string'
CONST	ENDS
;	COMDAT ??_C@_0BE@IHCIAGAA@glProgramUniform2dv@
CONST	SEGMENT
??_C@_0BE@IHCIAGAA@glProgramUniform2dv@ DB 'glProgramUniform2dv', 00H ; `string'
CONST	ENDS
;	COMDAT ??_C@_0BD@JJMDAGJI@glProgramUniform2d@
CONST	SEGMENT
??_C@_0BD@JJMDAGJI@glProgramUniform2d@ DB 'glProgramUniform2d', 00H ; `string'
CONST	ENDS
;	COMDAT ??_C@_0BE@IEKMNCGO@glProgramUniform2fv@
CONST	SEGMENT
??_C@_0BE@IEKMNCGO@glProgramUniform2fv@ DB 'glProgramUniform2fv', 00H ; `string'
CONST	ENDS
;	COMDAT ??_C@_0BD@KLPFGEBK@glProgramUniform2f@
CONST	SEGMENT
??_C@_0BD@KLPFGEBK@glProgramUniform2f@ DB 'glProgramUniform2f', 00H ; `string'
CONST	ENDS
;	COMDAT ??_C@_0BE@IPPAJFFD@glProgramUniform2iv@
CONST	SEGMENT
??_C@_0BE@IPPAJFFD@glProgramUniform2iv@ DB 'glProgramUniform2iv', 00H ; `string'
CONST	ENDS
;	COMDAT ??_C@_0BD@CMGNHINF@glProgramUniform2i@
CONST	SEGMENT
??_C@_0BD@CMGNHINF@glProgramUniform2i@ DB 'glProgramUniform2i', 00H ; `string'
CONST	ENDS
;	COMDAT ??_C@_0BF@MBJNFIBB@glProgramUniform1uiv@
CONST	SEGMENT
??_C@_0BF@MBJNFIBB@glProgramUniform1uiv@ DB 'glProgramUniform1uiv', 00H ; `string'
CONST	ENDS
;	COMDAT ??_C@_0BE@EFCDGODH@glProgramUniform1ui@
CONST	SEGMENT
??_C@_0BE@EFCDGODH@glProgramUniform1ui@ DB 'glProgramUniform1ui', 00H ; `string'
CONST	ENDS
;	COMDAT ??_C@_0BE@JFJNKJOO@glProgramUniform1dv@
CONST	SEGMENT
??_C@_0BE@JFJNKJOO@glProgramUniform1dv@ DB 'glProgramUniform1dv', 00H ; `string'
CONST	ENDS
;	COMDAT ??_C@_0BD@JLIFLIMB@glProgramUniform1d@
CONST	SEGMENT
??_C@_0BD@JLIFLIMB@glProgramUniform1d@ DB 'glProgramUniform1d', 00H ; `string'
CONST	ENDS
;	COMDAT ??_C@_0BE@JGBJHNIA@glProgramUniform1fv@
CONST	SEGMENT
??_C@_0BE@JGBJHNIA@glProgramUniform1fv@ DB 'glProgramUniform1fv', 00H ; `string'
CONST	ENDS
;	COMDAT ??_C@_0BD@KJLDNKED@glProgramUniform1f@
CONST	SEGMENT
??_C@_0BD@KJLDNKED@glProgramUniform1f@ DB 'glProgramUniform1f', 00H ; `string'
CONST	ENDS
;	COMDAT ??_C@_0BE@JNEFDKLN@glProgramUniform1iv@
CONST	SEGMENT
??_C@_0BE@JNEFDKLN@glProgramUniform1iv@ DB 'glProgramUniform1iv', 00H ; `string'
CONST	ENDS
;	COMDAT ??_C@_0BD@COCLMGIM@glProgramUniform1i@
CONST	SEGMENT
??_C@_0BD@COCLMGIM@glProgramUniform1i@ DB 'glProgramUniform1i', 00H ; `string'
CONST	ENDS
;	COMDAT ??_C@_0BH@DNOPNJMO@glGetProgramPipelineiv@
CONST	SEGMENT
??_C@_0BH@DNOPNJMO@glGetProgramPipelineiv@ DB 'glGetProgramPipelineiv', 00H ; `string'
CONST	ENDS
;	COMDAT ??_C@_0BE@DLHPDHCH@glIsProgramPipeline@
CONST	SEGMENT
??_C@_0BE@DLHPDHCH@glIsProgramPipeline@ DB 'glIsProgramPipeline', 00H ; `string'
CONST	ENDS
;	COMDAT ??_C@_0BG@CCBKOCA@glGenProgramPipelines@
CONST	SEGMENT
??_C@_0BG@CCBKOCA@glGenProgramPipelines@ DB 'glGenProgramPipelines', 00H ; `string'
CONST	ENDS
;	COMDAT ??_C@_0BJ@CHBGABHE@glDeleteProgramPipelines@
CONST	SEGMENT
??_C@_0BJ@CHBGABHE@glDeleteProgramPipelines@ DB 'glDeleteProgramPipelines'
	DB	00H						; `string'
CONST	ENDS
;	COMDAT ??_C@_0BG@GLPOKNCG@glBindProgramPipeline@
CONST	SEGMENT
??_C@_0BG@GLPOKNCG@glBindProgramPipeline@ DB 'glBindProgramPipeline', 00H ; `string'
CONST	ENDS
;	COMDAT ??_C@_0BH@BOJGDFJN@glCreateShaderProgramv@
CONST	SEGMENT
??_C@_0BH@BOJGDFJN@glCreateShaderProgramv@ DB 'glCreateShaderProgramv', 00H ; `string'
CONST	ENDS
;	COMDAT ??_C@_0BG@IAIOGMEB@glActiveShaderProgram@
CONST	SEGMENT
??_C@_0BG@IAIOGMEB@glActiveShaderProgram@ DB 'glActiveShaderProgram', 00H ; `string'
CONST	ENDS
;	COMDAT ??_C@_0BD@CADKHDMH@glUseProgramStages@
CONST	SEGMENT
??_C@_0BD@CADKHDMH@glUseProgramStages@ DB 'glUseProgramStages', 00H ; `string'
CONST	ENDS
;	COMDAT ??_C@_0BE@EELDBEME@glProgramParameteri@
CONST	SEGMENT
??_C@_0BE@EELDBEME@glProgramParameteri@ DB 'glProgramParameteri', 00H ; `string'
CONST	ENDS
;	COMDAT ??_C@_0BA@MIIDHOO@glProgramBinary@
CONST	SEGMENT
??_C@_0BA@MIIDHOO@glProgramBinary@ DB 'glProgramBinary', 00H ; `string'
CONST	ENDS
;	COMDAT ??_C@_0BD@JBCEHKON@glGetProgramBinary@
CONST	SEGMENT
??_C@_0BD@JBCEHKON@glGetProgramBinary@ DB 'glGetProgramBinary', 00H ; `string'
CONST	ENDS
;	COMDAT ??_C@_0O@FMBMCDIL@glClearDepthf@
CONST	SEGMENT
??_C@_0O@FMBMCDIL@glClearDepthf@ DB 'glClearDepthf', 00H ; `string'
CONST	ENDS
;	COMDAT ??_C@_0O@JDFJDNND@glDepthRangef@
CONST	SEGMENT
??_C@_0O@JDFJDNND@glDepthRangef@ DB 'glDepthRangef', 00H ; `string'
CONST	ENDS
;	COMDAT ??_C@_0BL@MLAOOHPD@glGetShaderPrecisionFormat@
CONST	SEGMENT
??_C@_0BL@MLAOOHPD@glGetShaderPrecisionFormat@ DB 'glGetShaderPrecisionFo'
	DB	'rmat', 00H					; `string'
CONST	ENDS
;	COMDAT ??_C@_0P@IMINELFB@glShaderBinary@
CONST	SEGMENT
??_C@_0P@IMINELFB@glShaderBinary@ DB 'glShaderBinary', 00H ; `string'
CONST	ENDS
;	COMDAT ??_C@_0BI@HGKABJPJ@glReleaseShaderCompiler@
CONST	SEGMENT
??_C@_0BI@HGKABJPJ@glReleaseShaderCompiler@ DB 'glReleaseShaderCompiler', 00H ; `string'
CONST	ENDS
;	COMDAT ??_C@_0BE@CCFJPMFI@glGetQueryIndexediv@
CONST	SEGMENT
??_C@_0BE@CCFJPMFI@glGetQueryIndexediv@ DB 'glGetQueryIndexediv', 00H ; `string'
CONST	ENDS
;	COMDAT ??_C@_0BC@DPMHMNME@glEndQueryIndexed@
CONST	SEGMENT
??_C@_0BC@DPMHMNME@glEndQueryIndexed@ DB 'glEndQueryIndexed', 00H ; `string'
CONST	ENDS
;	COMDAT ??_C@_0BE@BDKPJDEE@glBeginQueryIndexed@
CONST	SEGMENT
??_C@_0BE@BDKPJDEE@glBeginQueryIndexed@ DB 'glBeginQueryIndexed', 00H ; `string'
CONST	ENDS
;	COMDAT ??_C@_0BO@IGLFNCDG@glDrawTransformFeedbackStream@
CONST	SEGMENT
??_C@_0BO@IGLFNCDG@glDrawTransformFeedbackStream@ DB 'glDrawTransformFeed'
	DB	'backStream', 00H				; `string'
CONST	ENDS
;	COMDAT ??_C@_0BI@LEOILCPN@glDrawTransformFeedback@
CONST	SEGMENT
??_C@_0BI@LEOILCPN@glDrawTransformFeedback@ DB 'glDrawTransformFeedback', 00H ; `string'
CONST	ENDS
;	COMDAT ??_C@_0BK@JMHONFHF@glResumeTransformFeedback@
CONST	SEGMENT
??_C@_0BK@JMHONFHF@glResumeTransformFeedback@ DB 'glResumeTransformFeedba'
	DB	'ck', 00H					; `string'
CONST	ENDS
;	COMDAT ??_C@_0BJ@FFNLKBCB@glPauseTransformFeedback@
CONST	SEGMENT
??_C@_0BJ@FFNLKBCB@glPauseTransformFeedback@ DB 'glPauseTransformFeedback'
	DB	00H						; `string'
CONST	ENDS
;	COMDAT ??_C@_0BG@BGFLKHBM@glIsTransformFeedback@
CONST	SEGMENT
??_C@_0BG@BGFLKHBM@glIsTransformFeedback@ DB 'glIsTransformFeedback', 00H ; `string'
CONST	ENDS
;	COMDAT ??_C@_0BI@KANKBGAE@glGenTransformFeedbacks@
CONST	SEGMENT
??_C@_0BI@KANKBGAE@glGenTransformFeedbacks@ DB 'glGenTransformFeedbacks', 00H ; `string'
CONST	ENDS
;	COMDAT ??_C@_0BL@DIGEBFBK@glDeleteTransformFeedbacks@
CONST	SEGMENT
??_C@_0BL@DIGEBFBK@glDeleteTransformFeedbacks@ DB 'glDeleteTransformFeedb'
	DB	'acks', 00H					; `string'
CONST	ENDS
;	COMDAT ??_C@_0BI@BPJKLMIG@glBindTransformFeedback@
CONST	SEGMENT
??_C@_0BI@BPJKLMIG@glBindTransformFeedback@ DB 'glBindTransformFeedback', 00H ; `string'
CONST	ENDS
;	COMDAT ??_C@_0BD@LJKINJKN@glPatchParameterfv@
CONST	SEGMENT
??_C@_0BD@LJKINJKN@glPatchParameterfv@ DB 'glPatchParameterfv', 00H ; `string'
CONST	ENDS
;	COMDAT ??_C@_0BC@PAPDGMLA@glPatchParameteri@
CONST	SEGMENT
??_C@_0BC@PAPDGMLA@glPatchParameteri@ DB 'glPatchParameteri', 00H ; `string'
CONST	ENDS
;	COMDAT ??_C@_0BE@LOKJCDFH@glGetProgramStageiv@
CONST	SEGMENT
??_C@_0BE@LOKJCDFH@glGetProgramStageiv@ DB 'glGetProgramStageiv', 00H ; `string'
CONST	ENDS
;	COMDAT ??_C@_0BK@BLMOFAGJ@glGetUniformSubroutineuiv@
CONST	SEGMENT
??_C@_0BK@BLMOFAGJ@glGetUniformSubroutineuiv@ DB 'glGetUniformSubroutineu'
	DB	'iv', 00H					; `string'
CONST	ENDS
;	COMDAT ??_C@_0BI@CDPOBBHI@glUniformSubroutinesuiv@
CONST	SEGMENT
??_C@_0BI@CDPOBBHI@glUniformSubroutinesuiv@ DB 'glUniformSubroutinesuiv', 00H ; `string'
CONST	ENDS
;	COMDAT ??_C@_0BK@JPHEACLL@glGetActiveSubroutineName@
CONST	SEGMENT
??_C@_0BK@JPHEACLL@glGetActiveSubroutineName@ DB 'glGetActiveSubroutineNa'
	DB	'me', 00H					; `string'
CONST	ENDS
;	COMDAT ??_C@_0CB@KCFFPCGJ@glGetActiveSubroutineUniformNam@
CONST	SEGMENT
??_C@_0CB@KCFFPCGJ@glGetActiveSubroutineUniformNam@ DB 'glGetActiveSubrou'
	DB	'tineUniformName', 00H			; `string'
CONST	ENDS
;	COMDAT ??_C@_0BP@FAPFAJFP@glGetActiveSubroutineUniformiv@
CONST	SEGMENT
??_C@_0BP@FAPFAJFP@glGetActiveSubroutineUniformiv@ DB 'glGetActiveSubrout'
	DB	'ineUniformiv', 00H				; `string'
CONST	ENDS
;	COMDAT ??_C@_0BF@ONDIGCJG@glGetSubroutineIndex@
CONST	SEGMENT
??_C@_0BF@ONDIGCJG@glGetSubroutineIndex@ DB 'glGetSubroutineIndex', 00H ; `string'
CONST	ENDS
;	COMDAT ??_C@_0BP@IBIPLDOA@glGetSubroutineUniformLocation@
CONST	SEGMENT
??_C@_0BP@IBIPLDOA@glGetSubroutineUniformLocation@ DB 'glGetSubroutineUni'
	DB	'formLocation', 00H				; `string'
CONST	ENDS
;	COMDAT ??_C@_0P@NGEMHI@glGetUniformdv@
CONST	SEGMENT
??_C@_0P@NGEMHI@glGetUniformdv@ DB 'glGetUniformdv', 00H ; `string'
CONST	ENDS
;	COMDAT ??_C@_0BF@HGOEPFEJ@glUniformMatrix4x3dv@
CONST	SEGMENT
??_C@_0BF@HGOEPFEJ@glUniformMatrix4x3dv@ DB 'glUniformMatrix4x3dv', 00H ; `string'
CONST	ENDS
;	COMDAT ??_C@_0BF@MOFIJCCM@glUniformMatrix4x2dv@
CONST	SEGMENT
??_C@_0BF@MOFIJCCM@glUniformMatrix4x2dv@ DB 'glUniformMatrix4x2dv', 00H ; `string'
CONST	ENDS
;	COMDAT ??_C@_0BF@PGDGPNEI@glUniformMatrix3x4dv@
CONST	SEGMENT
??_C@_0BF@PGDGPNEI@glUniformMatrix3x4dv@ DB 'glUniformMatrix3x4dv', 00H ; `string'
CONST	ENDS
;	COMDAT ??_C@_0BF@NDFNKCJE@glUniformMatrix3x2dv@
CONST	SEGMENT
??_C@_0BF@NDFNKCJE@glUniformMatrix3x2dv@ DB 'glUniformMatrix3x2dv', 00H ; `string'
CONST	ENDS
;	COMDAT ??_C@_0BF@DNGKCOON@glUniformMatrix2x4dv@
CONST	SEGMENT
??_C@_0BF@DNGKCOON@glUniformMatrix2x4dv@ DB 'glUniformMatrix2x4dv', 00H ; `string'
CONST	ENDS
;	COMDAT ??_C@_0BF@KALNBGFE@glUniformMatrix2x3dv@
CONST	SEGMENT
??_C@_0BF@KALNBGFE@glUniformMatrix2x3dv@ DB 'glUniformMatrix2x3dv', 00H ; `string'
CONST	ENDS
;	COMDAT ??_C@_0BD@LOPGMAMB@glUniformMatrix4dv@
CONST	SEGMENT
??_C@_0BD@LOPGMAMB@glUniformMatrix4dv@ DB 'glUniformMatrix4dv', 00H ; `string'
CONST	ENDS
;	COMDAT ??_C@_0BD@CDCBPIHI@glUniformMatrix3dv@
CONST	SEGMENT
??_C@_0BD@CDCBPIHI@glUniformMatrix3dv@ DB 'glUniformMatrix3dv', 00H ; `string'
CONST	ENDS
;	COMDAT ??_C@_0BD@JLJNJPBN@glUniformMatrix2dv@
CONST	SEGMENT
??_C@_0BD@JLJNJPBN@glUniformMatrix2dv@ DB 'glUniformMatrix2dv', 00H ; `string'
CONST	ENDS
;	COMDAT ??_C@_0N@JNJEGONE@glUniform4dv@
CONST	SEGMENT
??_C@_0N@JNJEGONE@glUniform4dv@ DB 'glUniform4dv', 00H	; `string'
CONST	ENDS
;	COMDAT ??_C@_0N@EDFGGN@glUniform3dv@
CONST	SEGMENT
??_C@_0N@EDFGGN@glUniform3dv@ DB 'glUniform3dv', 00H	; `string'
CONST	ENDS
;	COMDAT ??_C@_0N@LIPPDBAI@glUniform2dv@
CONST	SEGMENT
??_C@_0N@LIPPDBAI@glUniform2dv@ DB 'glUniform2dv', 00H	; `string'
CONST	ENDS
;	COMDAT ??_C@_0N@KKEKJOOG@glUniform1dv@
CONST	SEGMENT
??_C@_0N@KKEKJOOG@glUniform1dv@ DB 'glUniform1dv', 00H	; `string'
CONST	ENDS
;	COMDAT ??_C@_0M@PPHPKPIM@glUniform4d@
CONST	SEGMENT
??_C@_0M@PPHPKPIM@glUniform4d@ DB 'glUniform4d', 00H	; `string'
CONST	ENDS
;	COMDAT ??_C@_0M@PKDALJAJ@glUniform3d@
CONST	SEGMENT
??_C@_0M@PKDALJAJ@glUniform3d@ DB 'glUniform3d', 00H	; `string'
CONST	ENDS
;	COMDAT ??_C@_0M@PLPCNDDO@glUniform2d@
CONST	SEGMENT
??_C@_0M@PLPCNDDO@glUniform2d@ DB 'glUniform2d', 00H	; `string'
CONST	ENDS
;	COMDAT ??_C@_0M@PJLEGNGH@glUniform1d@
CONST	SEGMENT
??_C@_0M@PJLEGNGH@glUniform1d@ DB 'glUniform1d', 00H	; `string'
CONST	ENDS
;	COMDAT ??_C@_0BH@LJJDOEDH@glDrawElementsIndirect@
CONST	SEGMENT
??_C@_0BH@LJJDOEDH@glDrawElementsIndirect@ DB 'glDrawElementsIndirect', 00H ; `string'
CONST	ENDS
;	COMDAT ??_C@_0BF@BGDCPAEP@glDrawArraysIndirect@
CONST	SEGMENT
??_C@_0BF@BGDCPAEP@glDrawArraysIndirect@ DB 'glDrawArraysIndirect', 00H ; `string'
CONST	ENDS
;	COMDAT ??_C@_0BF@PDDGKNBJ@glBlendFuncSeparatei@
CONST	SEGMENT
??_C@_0BF@PDDGKNBJ@glBlendFuncSeparatei@ DB 'glBlendFuncSeparatei', 00H ; `string'
CONST	ENDS
;	COMDAT ??_C@_0N@IKKELNNP@glBlendFunci@
CONST	SEGMENT
??_C@_0N@IKKELNNP@glBlendFunci@ DB 'glBlendFunci', 00H	; `string'
CONST	ENDS
;	COMDAT ??_C@_0BJ@FNMBAGAC@glBlendEquationSeparatei@
CONST	SEGMENT
??_C@_0BJ@FNMBAGAC@glBlendEquationSeparatei@ DB 'glBlendEquationSeparatei'
	DB	00H						; `string'
CONST	ENDS
;	COMDAT ??_C@_0BB@MKHLNEOM@glBlendEquationi@
CONST	SEGMENT
??_C@_0BB@MKHLNEOM@glBlendEquationi@ DB 'glBlendEquationi', 00H ; `string'
CONST	ENDS
;	COMDAT ??_C@_0BD@EDGCEBP@glMinSampleShading@
CONST	SEGMENT
??_C@_0BD@EDGCEBP@glMinSampleShading@ DB 'glMinSampleShading', 00H ; `string'
CONST	ENDS
;	COMDAT ??_C@_0BG@DPPPFGBG@glSecondaryColorP3uiv@
CONST	SEGMENT
??_C@_0BG@DPPPFGBG@glSecondaryColorP3uiv@ DB 'glSecondaryColorP3uiv', 00H ; `string'
CONST	ENDS
;	COMDAT ??_C@_0BF@PDDGBPKP@glSecondaryColorP3ui@
CONST	SEGMENT
??_C@_0BF@PDDGBPKP@glSecondaryColorP3ui@ DB 'glSecondaryColorP3ui', 00H ; `string'
CONST	ENDS
;	COMDAT ??_C@_0N@DDNDANIE@glColorP4uiv@
CONST	SEGMENT
??_C@_0N@DDNDANIE@glColorP4uiv@ DB 'glColorP4uiv', 00H	; `string'
CONST	ENDS
;	COMDAT ??_C@_0M@GJHGLFGE@glColorP4ui@
CONST	SEGMENT
??_C@_0M@GJHGLFGE@glColorP4ui@ DB 'glColorP4ui', 00H	; `string'
CONST	ENDS
;	COMDAT ??_C@_0N@IBPDNBJE@glColorP3uiv@
CONST	SEGMENT
??_C@_0N@IBPDNBJE@glColorP3uiv@ DB 'glColorP3uiv', 00H	; `string'
CONST	ENDS
;	COMDAT ??_C@_0M@PEKBINNN@glColorP3ui@
CONST	SEGMENT
??_C@_0M@PEKBINNN@glColorP3ui@ DB 'glColorP3ui', 00H	; `string'
CONST	ENDS
;	COMDAT ??_C@_0O@MOCJMHFG@glNormalP3uiv@
CONST	SEGMENT
??_C@_0O@MOCJMHFG@glNormalP3uiv@ DB 'glNormalP3uiv', 00H ; `string'
CONST	ENDS
;	COMDAT ??_C@_0N@PBEFBNHO@glNormalP3ui@
CONST	SEGMENT
??_C@_0N@PBEFBNHO@glNormalP3ui@ DB 'glNormalP3ui', 00H	; `string'
CONST	ENDS
;	COMDAT ??_C@_0BF@IONACAHK@glMultiTexCoordP4uiv@
CONST	SEGMENT
??_C@_0BF@IONACAHK@glMultiTexCoordP4uiv@ DB 'glMultiTexCoordP4uiv', 00H ; `string'
CONST	ENDS
;	COMDAT ??_C@_0BE@NHKJFHJE@glMultiTexCoordP4ui@
CONST	SEGMENT
??_C@_0BE@NHKJFHJE@glMultiTexCoordP4ui@ DB 'glMultiTexCoordP4ui', 00H ; `string'
CONST	ENDS
;	COMDAT ??_C@_0BF@DMPAPMGK@glMultiTexCoordP3uiv@
CONST	SEGMENT
??_C@_0BF@DMPAPMGK@glMultiTexCoordP3uiv@ DB 'glMultiTexCoordP3uiv', 00H ; `string'
CONST	ENDS
;	COMDAT ??_C@_0BE@EKHOGPCN@glMultiTexCoordP3ui@
CONST	SEGMENT
??_C@_0BE@EKHOGPCN@glMultiTexCoordP3ui@ DB 'glMultiTexCoordP3ui', 00H ; `string'
CONST	ENDS
;	COMDAT ??_C@_0BF@BJANFNK@glMultiTexCoordP2uiv@
CONST	SEGMENT
??_C@_0BF@BJANFNK@glMultiTexCoordP2uiv@ DB 'glMultiTexCoordP2uiv', 00H ; `string'
CONST	ENDS
;	COMDAT ??_C@_0BE@PCMCAIEI@glMultiTexCoordP2ui@
CONST	SEGMENT
??_C@_0BE@PCMCAIEI@glMultiTexCoordP2ui@ DB 'glMultiTexCoordP2ui', 00H ; `string'
CONST	ENDS
;	COMDAT ??_C@_0BF@EGDAKPAK@glMultiTexCoordP1uiv@
CONST	SEGMENT
??_C@_0BF@EGDAKPAK@glMultiTexCoordP1uiv@ DB 'glMultiTexCoordP1uiv', 00H ; `string'
CONST	ENDS
;	COMDAT ??_C@_0BE@OAHHKHKG@glMultiTexCoordP1ui@
CONST	SEGMENT
??_C@_0BE@OAHHKHKG@glMultiTexCoordP1ui@ DB 'glMultiTexCoordP1ui', 00H ; `string'
CONST	ENDS
;	COMDAT ??_C@_0BA@JILHAPCD@glTexCoordP4uiv@
CONST	SEGMENT
??_C@_0BA@JILHAPCD@glTexCoordP4uiv@ DB 'glTexCoordP4uiv', 00H ; `string'
CONST	ENDS
;	COMDAT ??_C@_0P@NMEJELEL@glTexCoordP4ui@
CONST	SEGMENT
??_C@_0P@NMEJELEL@glTexCoordP4ui@ DB 'glTexCoordP4ui', 00H ; `string'
CONST	ENDS
;	COMDAT ??_C@_0BA@CKJHNDDD@glTexCoordP3uiv@
CONST	SEGMENT
??_C@_0BA@CKJHNDDD@glTexCoordP3uiv@ DB 'glTexCoordP3uiv', 00H ; `string'
CONST	ENDS
;	COMDAT ??_C@_0P@EBJOHDPC@glTexCoordP3ui@
CONST	SEGMENT
??_C@_0P@EBJOHDPC@glTexCoordP3ui@ DB 'glTexCoordP3ui', 00H ; `string'
CONST	ENDS
;	COMDAT ??_C@_0BA@BHPHPKID@glTexCoordP2uiv@
CONST	SEGMENT
??_C@_0BA@BHPHPKID@glTexCoordP2uiv@ DB 'glTexCoordP2uiv', 00H ; `string'
CONST	ENDS
;	COMDAT ??_C@_0P@PJCCBEJH@glTexCoordP2ui@
CONST	SEGMENT
??_C@_0P@PJCCBEJH@glTexCoordP2ui@ DB 'glTexCoordP2ui', 00H ; `string'
CONST	ENDS
;	COMDAT ??_C@_0BA@FAFHIAFD@glTexCoordP1uiv@
CONST	SEGMENT
??_C@_0BA@FAFHIAFD@glTexCoordP1uiv@ DB 'glTexCoordP1uiv', 00H ; `string'
CONST	ENDS
;	COMDAT ??_C@_0P@OLJHLLHJ@glTexCoordP1ui@
CONST	SEGMENT
??_C@_0P@OLJHLLHJ@glTexCoordP1ui@ DB 'glTexCoordP1ui', 00H ; `string'
CONST	ENDS
;	COMDAT ??_C@_0O@IDAKJKMN@glVertexP4uiv@
CONST	SEGMENT
??_C@_0O@IDAKJKMN@glVertexP4uiv@ DB 'glVertexP4uiv', 00H ; `string'
CONST	ENDS
;	COMDAT ??_C@_0N@GAHJNOBO@glVertexP4ui@
CONST	SEGMENT
??_C@_0N@GAHJNOBO@glVertexP4ui@ DB 'glVertexP4ui', 00H	; `string'
CONST	ENDS
;	COMDAT ??_C@_0O@DBCKEGNN@glVertexP3uiv@
CONST	SEGMENT
??_C@_0O@DBCKEGNN@glVertexP3uiv@ DB 'glVertexP3uiv', 00H ; `string'
CONST	ENDS
;	COMDAT ??_C@_0N@PNKOOGKH@glVertexP3ui@
CONST	SEGMENT
??_C@_0N@PNKOOGKH@glVertexP3ui@ DB 'glVertexP3ui', 00H	; `string'
CONST	ENDS
;	COMDAT ??_C@_0O@MEKGPGN@glVertexP2uiv@
CONST	SEGMENT
??_C@_0O@MEKGPGN@glVertexP2uiv@ DB 'glVertexP2uiv', 00H	; `string'
CONST	ENDS
;	COMDAT ??_C@_0N@EFBCIBMC@glVertexP2ui@
CONST	SEGMENT
??_C@_0N@EFBCIBMC@glVertexP2ui@ DB 'glVertexP2ui', 00H	; `string'
CONST	ENDS
;	COMDAT ??_C@_0BE@LJLDGOAD@glVertexAttribP4uiv@
CONST	SEGMENT
??_C@_0BE@LJLDGOAD@glVertexAttribP4uiv@ DB 'glVertexAttribP4uiv', 00H ; `string'
CONST	ENDS
;	COMDAT ??_C@_0BD@GMNMNOHP@glVertexAttribP4ui@
CONST	SEGMENT
??_C@_0BD@GMNMNOHP@glVertexAttribP4ui@ DB 'glVertexAttribP4ui', 00H ; `string'
CONST	ENDS
;	COMDAT ??_C@_0BE@LJDLCBD@glVertexAttribP3uiv@
CONST	SEGMENT
??_C@_0BE@LJDLCBD@glVertexAttribP3uiv@ DB 'glVertexAttribP3uiv', 00H ; `string'
CONST	ENDS
;	COMDAT ??_C@_0BD@PBALOGMG@glVertexAttribP3ui@
CONST	SEGMENT
??_C@_0BD@PBALOGMG@glVertexAttribP3ui@ DB 'glVertexAttribP3ui', 00H ; `string'
CONST	ENDS
;	COMDAT ??_C@_0BE@DGPDJLKD@glVertexAttribP2uiv@
CONST	SEGMENT
??_C@_0BE@DGPDJLKD@glVertexAttribP2uiv@ DB 'glVertexAttribP2uiv', 00H ; `string'
CONST	ENDS
;	COMDAT ??_C@_0BD@EJLHIBKD@glVertexAttribP2ui@
CONST	SEGMENT
??_C@_0BD@EJLHIBKD@glVertexAttribP2ui@ DB 'glVertexAttribP2ui', 00H ; `string'
CONST	ENDS
;	COMDAT ??_C@_0BE@HBFDOBHD@glVertexAttribP1uiv@
CONST	SEGMENT
??_C@_0BE@HBFDOBHD@glVertexAttribP1uiv@ DB 'glVertexAttribP1uiv', 00H ; `string'
CONST	ENDS
;	COMDAT ??_C@_0BD@FLACCOEN@glVertexAttribP1ui@
CONST	SEGMENT
??_C@_0BD@FLACCOEN@glVertexAttribP1ui@ DB 'glVertexAttribP1ui', 00H ; `string'
CONST	ENDS
;	COMDAT ??_C@_0BG@NEBMAEHM@glVertexAttribDivisor@
CONST	SEGMENT
??_C@_0BG@NEBMAEHM@glVertexAttribDivisor@ DB 'glVertexAttribDivisor', 00H ; `string'
CONST	ENDS
;	COMDAT ??_C@_0BG@NEGGOMJO@glGetQueryObjectui64v@
CONST	SEGMENT
??_C@_0BG@NEGGOMJO@glGetQueryObjectui64v@ DB 'glGetQueryObjectui64v', 00H ; `string'
CONST	ENDS
;	COMDAT ??_C@_0BF@JDAPDEPE@glGetQueryObjecti64v@
CONST	SEGMENT
??_C@_0BF@JDAPDEPE@glGetQueryObjecti64v@ DB 'glGetQueryObjecti64v', 00H ; `string'
CONST	ENDS
;	COMDAT ??_C@_0P@KALICDIM@glQueryCounter@
CONST	SEGMENT
??_C@_0P@KALICDIM@glQueryCounter@ DB 'glQueryCounter', 00H ; `string'
CONST	ENDS
;	COMDAT ??_C@_0BK@CMBGFHDA@glGetSamplerParameterIuiv@
CONST	SEGMENT
??_C@_0BK@CMBGFHDA@glGetSamplerParameterIuiv@ DB 'glGetSamplerParameterIu'
	DB	'iv', 00H					; `string'
CONST	ENDS
;	COMDAT ??_C@_0BI@FPHMKMKC@glGetSamplerParameterfv@
CONST	SEGMENT
??_C@_0BI@FPHMKMKC@glGetSamplerParameterfv@ DB 'glGetSamplerParameterfv', 00H ; `string'
CONST	ENDS
;	COMDAT ??_C@_0BJ@KOMJDLDN@glGetSamplerParameterIiv@
CONST	SEGMENT
??_C@_0BJ@KOMJDLDN@glGetSamplerParameterIiv@ DB 'glGetSamplerParameterIiv'
	DB	00H						; `string'
CONST	ENDS
;	COMDAT ??_C@_0BI@FECAOLJP@glGetSamplerParameteriv@
CONST	SEGMENT
??_C@_0BI@FECAOLJP@glGetSamplerParameteriv@ DB 'glGetSamplerParameteriv', 00H ; `string'
CONST	ENDS
;	COMDAT ??_C@_0BH@FEMFBPPB@glSamplerParameterIuiv@
CONST	SEGMENT
??_C@_0BH@FEMFBPPB@glSamplerParameterIuiv@ DB 'glSamplerParameterIuiv', 00H ; `string'
CONST	ENDS
;	COMDAT ??_C@_0BG@HKEIFIHF@glSamplerParameterIiv@
CONST	SEGMENT
??_C@_0BG@HKEIFIHF@glSamplerParameterIiv@ DB 'glSamplerParameterIiv', 00H ; `string'
CONST	ENDS
;	COMDAT ??_C@_0BF@GFCPAGMB@glSamplerParameterfv@
CONST	SEGMENT
??_C@_0BF@GFCPAGMB@glSamplerParameterfv@ DB 'glSamplerParameterfv', 00H ; `string'
CONST	ENDS
;	COMDAT ??_C@_0BE@CGLJNDFB@glSamplerParameterf@
CONST	SEGMENT
??_C@_0BE@CGLJNDFB@glSamplerParameterf@ DB 'glSamplerParameterf', 00H ; `string'
CONST	ENDS
;	COMDAT ??_C@_0BF@GOHDEBPM@glSamplerParameteriv@
CONST	SEGMENT
??_C@_0BF@GOHDEBPM@glSamplerParameteriv@ DB 'glSamplerParameteriv', 00H ; `string'
CONST	ENDS
;	COMDAT ??_C@_0BE@KBCBMPJO@glSamplerParameteri@
CONST	SEGMENT
??_C@_0BE@KBCBMPJO@glSamplerParameteri@ DB 'glSamplerParameteri', 00H ; `string'
CONST	ENDS
;	COMDAT ??_C@_0O@PDEILAPG@glBindSampler@
CONST	SEGMENT
??_C@_0O@PDEILAPG@glBindSampler@ DB 'glBindSampler', 00H ; `string'
CONST	ENDS
;	COMDAT ??_C@_0M@LAJKHOKJ@glIsSampler@
CONST	SEGMENT
??_C@_0M@LAJKHOKJ@glIsSampler@ DB 'glIsSampler', 00H	; `string'
CONST	ENDS
;	COMDAT ??_C@_0BB@FLPAOEOO@glDeleteSamplers@
CONST	SEGMENT
??_C@_0BB@FLPAOEOO@glDeleteSamplers@ DB 'glDeleteSamplers', 00H ; `string'
CONST	ENDS
;	COMDAT ??_C@_0O@EMMLGGLG@glGenSamplers@
CONST	SEGMENT
??_C@_0O@EMMLGGLG@glGenSamplers@ DB 'glGenSamplers', 00H ; `string'
CONST	ENDS
;	COMDAT ??_C@_0BD@COCJFEOH@glGetFragDataIndex@
CONST	SEGMENT
??_C@_0BD@COCJFEOH@glGetFragDataIndex@ DB 'glGetFragDataIndex', 00H ; `string'
CONST	ENDS
;	COMDAT ??_C@_0BO@POJBGCGG@glBindFragDataLocationIndexed@
CONST	SEGMENT
??_C@_0BO@POJBGCGG@glBindFragDataLocationIndexed@ DB 'glBindFragDataLocat'
	DB	'ionIndexed', 00H				; `string'
CONST	ENDS
;	COMDAT ??_C@_0O@JNHBCHMB@glSampleMaski@
CONST	SEGMENT
??_C@_0O@JNHBCHMB@glSampleMaski@ DB 'glSampleMaski', 00H ; `string'
CONST	ENDS
;	COMDAT ??_C@_0BD@DHLIMGN@glGetMultisamplefv@
CONST	SEGMENT
??_C@_0BD@DHLIMGN@glGetMultisamplefv@ DB 'glGetMultisamplefv', 00H ; `string'
CONST	ENDS
;	COMDAT ??_C@_0BI@JIHMLKCG@glTexImage3DMultisample@
CONST	SEGMENT
??_C@_0BI@JIHMLKCG@glTexImage3DMultisample@ DB 'glTexImage3DMultisample', 00H ; `string'
CONST	ENDS
;	COMDAT ??_C@_0BI@FHDFLFA@glTexImage2DMultisample@
CONST	SEGMENT
??_C@_0BI@FHDFLFA@glTexImage2DMultisample@ DB 'glTexImage2DMultisample', 00H ; `string'
CONST	ENDS
;	COMDAT ??_C@_0BF@ENLMLILA@glFramebufferTexture@
CONST	SEGMENT
??_C@_0BF@ENLMLILA@glFramebufferTexture@ DB 'glFramebufferTexture', 00H ; `string'
CONST	ENDS
;	COMDAT ??_C@_0BJ@KKBIDGPP@glGetBufferParameteri64v@
CONST	SEGMENT
??_C@_0BJ@KKBIDGPP@glGetBufferParameteri64v@ DB 'glGetBufferParameteri64v'
	DB	00H						; `string'
CONST	ENDS
;	COMDAT ??_C@_0BC@KOJILIEC@glGetInteger64i_v@
CONST	SEGMENT
??_C@_0BC@KOJILIEC@glGetInteger64i_v@ DB 'glGetInteger64i_v', 00H ; `string'
CONST	ENDS
;	COMDAT ??_C@_0M@MPEEOPIN@glGetSynciv@
CONST	SEGMENT
??_C@_0M@MPEEOPIN@glGetSynciv@ DB 'glGetSynciv', 00H	; `string'
CONST	ENDS
;	COMDAT ??_C@_0BA@INMBOHGL@glGetInteger64v@
CONST	SEGMENT
??_C@_0BA@INMBOHGL@glGetInteger64v@ DB 'glGetInteger64v', 00H ; `string'
CONST	ENDS
;	COMDAT ??_C@_0L@MHLOGHGO@glWaitSync@
CONST	SEGMENT
??_C@_0L@MHLOGHGO@glWaitSync@ DB 'glWaitSync', 00H	; `string'
CONST	ENDS
;	COMDAT ??_C@_0BB@KDMPGJAC@glClientWaitSync@
CONST	SEGMENT
??_C@_0BB@KDMPGJAC@glClientWaitSync@ DB 'glClientWaitSync', 00H ; `string'
CONST	ENDS
;	COMDAT ??_C@_0N@PIFDNDFG@glDeleteSync@
CONST	SEGMENT
??_C@_0N@PIFDNDFG@glDeleteSync@ DB 'glDeleteSync', 00H	; `string'
CONST	ENDS
;	COMDAT ??_C@_08JPIIHJEO@glIsSync@
CONST	SEGMENT
??_C@_08JPIIHJEO@glIsSync@ DB 'glIsSync', 00H		; `string'
CONST	ENDS
;	COMDAT ??_C@_0M@EFGFPFLP@glFenceSync@
CONST	SEGMENT
??_C@_0M@EFGFPFLP@glFenceSync@ DB 'glFenceSync', 00H	; `string'
CONST	ENDS
;	COMDAT ??_C@_0BC@ECOAPEBI@glProvokingVertex@
CONST	SEGMENT
??_C@_0BC@ECOAPEBI@glProvokingVertex@ DB 'glProvokingVertex', 00H ; `string'
CONST	ENDS
;	COMDAT ??_C@_0BO@NAPFJEEK@glMultiDrawElementsBaseVertex@
CONST	SEGMENT
??_C@_0BO@NAPFJEEK@glMultiDrawElementsBaseVertex@ DB 'glMultiDrawElements'
	DB	'BaseVertex', 00H				; `string'
CONST	ENDS
;	COMDAT ??_C@_0CC@KLOIIKNA@glDrawElementsInstancedBaseVert@
CONST	SEGMENT
??_C@_0CC@KLOIIKNA@glDrawElementsInstancedBaseVert@ DB 'glDrawElementsIns'
	DB	'tancedBaseVertex', 00H			; `string'
CONST	ENDS
;	COMDAT ??_C@_0BO@KBDDBILP@glDrawRangeElementsBaseVertex@
CONST	SEGMENT
??_C@_0BO@KBDDBILP@glDrawRangeElementsBaseVertex@ DB 'glDrawRangeElements'
	DB	'BaseVertex', 00H				; `string'
CONST	ENDS
;	COMDAT ??_C@_0BJ@LFMMIAHA@glDrawElementsBaseVertex@
CONST	SEGMENT
??_C@_0BJ@LFMMIAHA@glDrawElementsBaseVertex@ DB 'glDrawElementsBaseVertex'
	DB	00H						; `string'
CONST	ENDS
;	COMDAT ??_C@_0BG@BOLEKKCP@glUniformBlockBinding@
CONST	SEGMENT
??_C@_0BG@BOLEKKCP@glUniformBlockBinding@ DB 'glUniformBlockBinding', 00H ; `string'
CONST	ENDS
;	COMDAT ??_C@_0BM@KEMCJPAJ@glGetActiveUniformBlockName@
CONST	SEGMENT
??_C@_0BM@KEMCJPAJ@glGetActiveUniformBlockName@ DB 'glGetActiveUniformBlo'
	DB	'ckName', 00H				; `string'
CONST	ENDS
;	COMDAT ??_C@_0BK@DMHOPJGL@glGetActiveUniformBlockiv@
CONST	SEGMENT
??_C@_0BK@DMHOPJGL@glGetActiveUniformBlockiv@ DB 'glGetActiveUniformBlock'
	DB	'iv', 00H					; `string'
CONST	ENDS
;	COMDAT ??_C@_0BH@CBDIMHHE@glGetUniformBlockIndex@
CONST	SEGMENT
??_C@_0BH@CBDIMHHE@glGetUniformBlockIndex@ DB 'glGetUniformBlockIndex', 00H ; `string'
CONST	ENDS
;	COMDAT ??_C@_0BH@EGGFHKJJ@glGetActiveUniformName@
CONST	SEGMENT
??_C@_0BH@EGGFHKJJ@glGetActiveUniformName@ DB 'glGetActiveUniformName', 00H ; `string'
CONST	ENDS
;	COMDAT ??_C@_0BG@JEHIMPCG@glGetActiveUniformsiv@
CONST	SEGMENT
??_C@_0BG@JEHIMPCG@glGetActiveUniformsiv@ DB 'glGetActiveUniformsiv', 00H ; `string'
CONST	ENDS
;	COMDAT ??_C@_0BE@MDPMIDEE@glGetUniformIndices@
CONST	SEGMENT
??_C@_0BE@MDPMIDEE@glGetUniformIndices@ DB 'glGetUniformIndices', 00H ; `string'
CONST	ENDS
;	COMDAT ??_C@_0BE@EPKABDOG@glCopyBufferSubData@
CONST	SEGMENT
??_C@_0BE@EPKABDOG@glCopyBufferSubData@ DB 'glCopyBufferSubData', 00H ; `string'
CONST	ENDS
;	COMDAT ??_C@_0BI@LJDLNGAF@glPrimitiveRestartIndex@
CONST	SEGMENT
??_C@_0BI@LJDLNGAF@glPrimitiveRestartIndex@ DB 'glPrimitiveRestartIndex', 00H ; `string'
CONST	ENDS
;	COMDAT ??_C@_0M@IIMBBALL@glTexBuffer@
CONST	SEGMENT
??_C@_0M@IIMBBALL@glTexBuffer@ DB 'glTexBuffer', 00H	; `string'
CONST	ENDS
;	COMDAT ??_C@_0BI@CGJENFBH@glDrawElementsInstanced@
CONST	SEGMENT
??_C@_0BI@CGJENFBH@glDrawElementsInstanced@ DB 'glDrawElementsInstanced', 00H ; `string'
CONST	ENDS
;	COMDAT ??_C@_0BG@HIOFINAN@glDrawArraysInstanced@
CONST	SEGMENT
??_C@_0BG@HIOFINAN@glDrawArraysInstanced@ DB 'glDrawArraysInstanced', 00H ; `string'
CONST	ENDS
;	COMDAT ??_C@_0BA@ODJEGGAE@glIsVertexArray@
CONST	SEGMENT
??_C@_0BA@ODJEGGAE@glIsVertexArray@ DB 'glIsVertexArray', 00H ; `string'
CONST	ENDS
;	COMDAT ??_C@_0BC@EPJLBJBJ@glGenVertexArrays@
CONST	SEGMENT
??_C@_0BC@EPJLBJBJ@glGenVertexArrays@ DB 'glGenVertexArrays', 00H ; `string'
CONST	ENDS
;	COMDAT ??_C@_0BF@BMPCJLEF@glDeleteVertexArrays@
CONST	SEGMENT
??_C@_0BF@BMPCJLEF@glDeleteVertexArrays@ DB 'glDeleteVertexArrays', 00H ; `string'
CONST	ENDS
;	COMDAT ??_C@_0BC@LHBAHFAN@glBindVertexArray@
CONST	SEGMENT
??_C@_0BC@LHBAHFAN@glBindVertexArray@ DB 'glBindVertexArray', 00H ; `string'
CONST	ENDS
;	COMDAT ??_C@_0BJ@NCDMGHKF@glFlushMappedBufferRange@
CONST	SEGMENT
??_C@_0BJ@NCDMGHKF@glFlushMappedBufferRange@ DB 'glFlushMappedBufferRange'
	DB	00H						; `string'
CONST	ENDS
;	COMDAT ??_C@_0BB@EOHJGBIO@glMapBufferRange@
CONST	SEGMENT
??_C@_0BB@EOHJGBIO@glMapBufferRange@ DB 'glMapBufferRange', 00H ; `string'
CONST	ENDS
;	COMDAT ??_C@_0BK@NIHIDBBO@glFramebufferTextureLayer@
CONST	SEGMENT
??_C@_0BK@NIHIDBBO@glFramebufferTextureLayer@ DB 'glFramebufferTextureLay'
	DB	'er', 00H					; `string'
CONST	ENDS
;	COMDAT ??_C@_0CB@HNONLGJE@glRenderbufferStorageMultisampl@
CONST	SEGMENT
??_C@_0CB@HNONLGJE@glRenderbufferStorageMultisampl@ DB 'glRenderbufferSto'
	DB	'rageMultisample', 00H			; `string'
CONST	ENDS
;	COMDAT ??_C@_0BC@OANBDDEP@glBlitFramebuffer@
CONST	SEGMENT
??_C@_0BC@OANBDDEP@glBlitFramebuffer@ DB 'glBlitFramebuffer', 00H ; `string'
CONST	ENDS
;	COMDAT ??_C@_0BB@BHNIMGDM@glGenerateMipmap@
CONST	SEGMENT
??_C@_0BB@BHNIMGDM@glGenerateMipmap@ DB 'glGenerateMipmap', 00H ; `string'
CONST	ENDS
;	COMDAT ??_C@_0CG@KLDGJEON@glGetFramebufferAttachmentParam@
CONST	SEGMENT
??_C@_0CG@KLDGJEON@glGetFramebufferAttachmentParam@ DB 'glGetFramebufferA'
	DB	'ttachmentParameteriv', 00H			; `string'
CONST	ENDS
;	COMDAT ??_C@_0BK@OJDINAOA@glFramebufferRenderbuffer@
CONST	SEGMENT
??_C@_0BK@OJDINAOA@glFramebufferRenderbuffer@ DB 'glFramebufferRenderbuff'
	DB	'er', 00H					; `string'
CONST	ENDS
;	COMDAT ??_C@_0BH@JDEHAJHC@glFramebufferTexture3D@
CONST	SEGMENT
??_C@_0BH@JDEHAJHC@glFramebufferTexture3D@ DB 'glFramebufferTexture3D', 00H ; `string'
CONST	ENDS
;	COMDAT ??_C@_0BH@JCIFGDEF@glFramebufferTexture2D@
CONST	SEGMENT
??_C@_0BH@JCIFGDEF@glFramebufferTexture2D@ DB 'glFramebufferTexture2D', 00H ; `string'
CONST	ENDS
;	COMDAT ??_C@_0BH@JAMDNNBM@glFramebufferTexture1D@
CONST	SEGMENT
??_C@_0BH@JAMDNNBM@glFramebufferTexture1D@ DB 'glFramebufferTexture1D', 00H ; `string'
CONST	ENDS
;	COMDAT ??_C@_0BJ@GIOLHEAD@glCheckFramebufferStatus@
CONST	SEGMENT
??_C@_0BJ@GIOLHEAD@glCheckFramebufferStatus@ DB 'glCheckFramebufferStatus'
	DB	00H						; `string'
CONST	ENDS
;	COMDAT ??_C@_0BC@FAPEBGID@glGenFramebuffers@
CONST	SEGMENT
??_C@_0BC@FAPEBGID@glGenFramebuffers@ DB 'glGenFramebuffers', 00H ; `string'
CONST	ENDS
;	COMDAT ??_C@_0BF@DJNJENP@glDeleteFramebuffers@
CONST	SEGMENT
??_C@_0BF@DJNJENP@glDeleteFramebuffers@ DB 'glDeleteFramebuffers', 00H ; `string'
CONST	ENDS
;	COMDAT ??_C@_0BC@CJMIBNO@glBindFramebuffer@
CONST	SEGMENT
??_C@_0BC@CJMIBNO@glBindFramebuffer@ DB 'glBindFramebuffer', 00H ; `string'
CONST	ENDS
;	COMDAT ??_C@_0BA@FGBIJCNH@glIsFramebuffer@
CONST	SEGMENT
??_C@_0BA@FGBIJCNH@glIsFramebuffer@ DB 'glIsFramebuffer', 00H ; `string'
CONST	ENDS
;	COMDAT ??_C@_0BN@FGKAECKO@glGetRenderbufferParameteriv@
CONST	SEGMENT
??_C@_0BN@FGKAECKO@glGetRenderbufferParameteriv@ DB 'glGetRenderbufferPar'
	DB	'ameteriv', 00H				; `string'
CONST	ENDS
;	COMDAT ??_C@_0BG@EOIILGMJ@glRenderbufferStorage@
CONST	SEGMENT
??_C@_0BG@EOIILGMJ@glRenderbufferStorage@ DB 'glRenderbufferStorage', 00H ; `string'
CONST	ENDS
;	COMDAT ??_C@_0BD@MIGEDNGJ@glGenRenderbuffers@
CONST	SEGMENT
??_C@_0BD@MIGEDNGJ@glGenRenderbuffers@ DB 'glGenRenderbuffers', 00H ; `string'
CONST	ENDS
;	COMDAT ??_C@_0BG@KKOKEJDE@glDeleteRenderbuffers@
CONST	SEGMENT
??_C@_0BG@KKOKEJDE@glDeleteRenderbuffers@ DB 'glDeleteRenderbuffers', 00H ; `string'
CONST	ENDS
;	COMDAT ??_C@_0BD@EPOPJGFA@glBindRenderbuffer@
CONST	SEGMENT
??_C@_0BD@EPOPJGFA@glBindRenderbuffer@ DB 'glBindRenderbuffer', 00H ; `string'
CONST	ENDS
;	COMDAT ??_C@_0BB@DGGHKKOH@glIsRenderbuffer@
CONST	SEGMENT
??_C@_0BB@DGGHKKOH@glIsRenderbuffer@ DB 'glIsRenderbuffer', 00H ; `string'
CONST	ENDS
;	COMDAT ??_C@_0N@PILJCBOD@glGetStringi@
CONST	SEGMENT
??_C@_0N@PILJCBOD@glGetStringi@ DB 'glGetStringi', 00H	; `string'
CONST	ENDS
;	COMDAT ??_C@_0BA@OACPENCO@glClearBufferfi@
CONST	SEGMENT
??_C@_0BA@OACPENCO@glClearBufferfi@ DB 'glClearBufferfi', 00H ; `string'
CONST	ENDS
;	COMDAT ??_C@_0BA@CNHFEDLA@glClearBufferfv@
CONST	SEGMENT
??_C@_0BA@CNHFEDLA@glClearBufferfv@ DB 'glClearBufferfv', 00H ; `string'
CONST	ENDS
;	COMDAT ??_C@_0BB@OHPPAEID@glClearBufferuiv@
CONST	SEGMENT
??_C@_0BB@OHPPAEID@glClearBufferuiv@ DB 'glClearBufferuiv', 00H ; `string'
CONST	ENDS
;	COMDAT ??_C@_0BA@CGCJAEIN@glClearBufferiv@
CONST	SEGMENT
??_C@_0BA@CGCJAEIN@glClearBufferiv@ DB 'glClearBufferiv', 00H ; `string'
CONST	ENDS
;	COMDAT ??_C@_0BG@MLODKKFL@glGetTexParameterIuiv@
CONST	SEGMENT
??_C@_0BG@MLODKKFL@glGetTexParameterIuiv@ DB 'glGetTexParameterIuiv', 00H ; `string'
CONST	ENDS
;	COMDAT ??_C@_0BF@ODBJFHDD@glGetTexParameterIiv@
CONST	SEGMENT
??_C@_0BF@ODBJFHDD@glGetTexParameterIiv@ DB 'glGetTexParameterIiv', 00H ; `string'
CONST	ENDS
;	COMDAT ??_C@_0BD@FDBCMKBE@glTexParameterIuiv@
CONST	SEGMENT
??_C@_0BD@FDBCMKBE@glTexParameterIuiv@ DB 'glTexParameterIuiv', 00H ; `string'
CONST	ENDS
;	COMDAT ??_C@_0BC@MAFJKEHB@glTexParameterIiv@
CONST	SEGMENT
??_C@_0BC@MAFJKEHB@glTexParameterIiv@ DB 'glTexParameterIiv', 00H ; `string'
CONST	ENDS
;	COMDAT ??_C@_0O@HJJIIGE@glUniform4uiv@
CONST	SEGMENT
??_C@_0O@HJJIIGE@glUniform4uiv@ DB 'glUniform4uiv', 00H	; `string'
CONST	ENDS
;	COMDAT ??_C@_0O@LFLJFEHE@glUniform3uiv@
CONST	SEGMENT
??_C@_0O@LFLJFEHE@glUniform3uiv@ DB 'glUniform3uiv', 00H ; `string'
CONST	ENDS
;	COMDAT ??_C@_0O@IINJHNME@glUniform2uiv@
CONST	SEGMENT
??_C@_0O@IINJHNME@glUniform2uiv@ DB 'glUniform2uiv', 00H ; `string'
CONST	ENDS
;	COMDAT ??_C@_0O@MPHJAHBE@glUniform1uiv@
CONST	SEGMENT
??_C@_0O@MPHJAHBE@glUniform1uiv@ DB 'glUniform1uiv', 00H ; `string'
CONST	ENDS
;	COMDAT ??_C@_0N@ENCKKJAN@glUniform4ui@
CONST	SEGMENT
??_C@_0N@ENCKKJAN@glUniform4ui@ DB 'glUniform4ui', 00H	; `string'
CONST	ENDS
;	COMDAT ??_C@_0N@NAPNJBLE@glUniform3ui@
CONST	SEGMENT
??_C@_0N@NAPNJBLE@glUniform3ui@ DB 'glUniform3ui', 00H	; `string'
CONST	ENDS
;	COMDAT ??_C@_0N@GIEBPGNB@glUniform2ui@
CONST	SEGMENT
??_C@_0N@GIEBPGNB@glUniform2ui@ DB 'glUniform2ui', 00H	; `string'
CONST	ENDS
;	COMDAT ??_C@_0N@HKPEFJDP@glUniform1ui@
CONST	SEGMENT
??_C@_0N@HKPEFJDP@glUniform1ui@ DB 'glUniform1ui', 00H	; `string'
CONST	ENDS
;	COMDAT ??_C@_0BG@NDOIGAMC@glGetFragDataLocation@
CONST	SEGMENT
??_C@_0BG@NDOIGAMC@glGetFragDataLocation@ DB 'glGetFragDataLocation', 00H ; `string'
CONST	ENDS
;	COMDAT ??_C@_0BH@DLJLAGBA@glBindFragDataLocation@
CONST	SEGMENT
??_C@_0BH@DLJLAGBA@glBindFragDataLocation@ DB 'glBindFragDataLocation', 00H ; `string'
CONST	ENDS
;	COMDAT ??_C@_0BA@NIGECFIF@glGetUniformuiv@
CONST	SEGMENT
??_C@_0BA@NIGECFIF@glGetUniformuiv@ DB 'glGetUniformuiv', 00H ; `string'
CONST	ENDS
;	COMDAT ??_C@_0BE@IMNLBLPG@glVertexAttribI4usv@
CONST	SEGMENT
??_C@_0BE@IMNLBLPG@glVertexAttribI4usv@ DB 'glVertexAttribI4usv', 00H ; `string'
CONST	ENDS
;	COMDAT ??_C@_0BE@JBDPNCLB@glVertexAttribI4ubv@
CONST	SEGMENT
??_C@_0BE@JBDPNCLB@glVertexAttribI4ubv@ DB 'glVertexAttribI4ubv', 00H ; `string'
CONST	ENDS
;	COMDAT ??_C@_0BD@MIPLFJKA@glVertexAttribI4sv@
CONST	SEGMENT
??_C@_0BD@MIPLFJKA@glVertexAttribI4sv@ DB 'glVertexAttribI4sv', 00H ; `string'
CONST	ENDS
;	COMDAT ??_C@_0BD@NFBPJAOH@glVertexAttribI4bv@
CONST	SEGMENT
??_C@_0BD@NFBPJAOH@glVertexAttribI4bv@ DB 'glVertexAttribI4bv', 00H ; `string'
CONST	ENDS
;	COMDAT ??_C@_0BE@JNGKDNFA@glVertexAttribI4uiv@
CONST	SEGMENT
??_C@_0BE@JNGKDNFA@glVertexAttribI4uiv@ DB 'glVertexAttribI4uiv', 00H ; `string'
CONST	ENDS
;	COMDAT ??_C@_0BE@CPEKOBEA@glVertexAttribI3uiv@
CONST	SEGMENT
??_C@_0BE@CPEKOBEA@glVertexAttribI3uiv@ DB 'glVertexAttribI3uiv', 00H ; `string'
CONST	ENDS
;	COMDAT ??_C@_0BE@BCCKMIPA@glVertexAttribI2uiv@
CONST	SEGMENT
??_C@_0BE@BCCKMIPA@glVertexAttribI2uiv@ DB 'glVertexAttribI2uiv', 00H ; `string'
CONST	ENDS
;	COMDAT ??_C@_0BE@FFIKLCCA@glVertexAttribI1uiv@
CONST	SEGMENT
??_C@_0BE@FFIKLCCA@glVertexAttribI1uiv@ DB 'glVertexAttribI1uiv', 00H ; `string'
CONST	ENDS
;	COMDAT ??_C@_0BD@NJEKHPAG@glVertexAttribI4iv@
CONST	SEGMENT
??_C@_0BD@NJEKHPAG@glVertexAttribI4iv@ DB 'glVertexAttribI4iv', 00H ; `string'
CONST	ENDS
;	COMDAT ??_C@_0BD@EEJNEHLP@glVertexAttribI3iv@
CONST	SEGMENT
??_C@_0BD@EEJNEHLP@glVertexAttribI3iv@ DB 'glVertexAttribI3iv', 00H ; `string'
CONST	ENDS
;	COMDAT ??_C@_0BD@PMCBCANK@glVertexAttribI2iv@
CONST	SEGMENT
??_C@_0BD@PMCBCANK@glVertexAttribI2iv@ DB 'glVertexAttribI2iv', 00H ; `string'
CONST	ENDS
;	COMDAT ??_C@_0BD@OOJEIPDE@glVertexAttribI1iv@
CONST	SEGMENT
??_C@_0BD@OOJEIPDE@glVertexAttribI1iv@ DB 'glVertexAttribI1iv', 00H ; `string'
CONST	ENDS
;	COMDAT ??_C@_0BD@BCMCLIM@glVertexAttribI4ui@
CONST	SEGMENT
??_C@_0BD@BCMCLIM@glVertexAttribI4ui@ DB 'glVertexAttribI4ui', 00H ; `string'
CONST	ENDS
;	COMDAT ??_C@_0BD@JMPLBDDF@glVertexAttribI3ui@
CONST	SEGMENT
??_C@_0BD@JMPLBDDF@glVertexAttribI3ui@ DB 'glVertexAttribI3ui', 00H ; `string'
CONST	ENDS
;	COMDAT ??_C@_0BD@CEEHHEFA@glVertexAttribI2ui@
CONST	SEGMENT
??_C@_0BD@CEEHHEFA@glVertexAttribI2ui@ DB 'glVertexAttribI2ui', 00H ; `string'
CONST	ENDS
;	COMDAT ??_C@_0BD@DGPCNLLO@glVertexAttribI1ui@
CONST	SEGMENT
??_C@_0BD@DGPCNLLO@glVertexAttribI1ui@ DB 'glVertexAttribI1ui', 00H ; `string'
CONST	ENDS
;	COMDAT ??_C@_0BC@CFEDAOOA@glVertexAttribI4i@
CONST	SEGMENT
??_C@_0BC@CFEDAOOA@glVertexAttribI4i@ DB 'glVertexAttribI4i', 00H ; `string'
CONST	ENDS
;	COMDAT ??_C@_0BC@CAAMBIGF@glVertexAttribI3i@
CONST	SEGMENT
??_C@_0BC@CAAMBIGF@glVertexAttribI3i@ DB 'glVertexAttribI3i', 00H ; `string'
CONST	ENDS
;	COMDAT ??_C@_0BC@CBMOHCFC@glVertexAttribI2i@
CONST	SEGMENT
??_C@_0BC@CBMOHCFC@glVertexAttribI2i@ DB 'glVertexAttribI2i', 00H ; `string'
CONST	ENDS
;	COMDAT ??_C@_0BC@CDIIMMAL@glVertexAttribI1i@
CONST	SEGMENT
??_C@_0BC@CDIIMMAL@glVertexAttribI1i@ DB 'glVertexAttribI1i', 00H ; `string'
CONST	ENDS
;	COMDAT ??_C@_0BG@GCBDCABB@glGetVertexAttribIuiv@
CONST	SEGMENT
??_C@_0BG@GCBDCABB@glGetVertexAttribIuiv@ DB 'glGetVertexAttribIuiv', 00H ; `string'
CONST	ENDS
;	COMDAT ??_C@_0BF@KPDNEONP@glGetVertexAttribIiv@
CONST	SEGMENT
??_C@_0BF@KPDNEONP@glGetVertexAttribIiv@ DB 'glGetVertexAttribIiv', 00H ; `string'
CONST	ENDS
;	COMDAT ??_C@_0BH@NLOEHKCD@glVertexAttribIPointer@
CONST	SEGMENT
??_C@_0BH@NLOEHKCD@glVertexAttribIPointer@ DB 'glVertexAttribIPointer', 00H ; `string'
CONST	ENDS
;	COMDAT ??_C@_0BH@KCIOLNMA@glEndConditionalRender@
CONST	SEGMENT
??_C@_0BH@KCIOLNMA@glEndConditionalRender@ DB 'glEndConditionalRender', 00H ; `string'
CONST	ENDS
;	COMDAT ??_C@_0BJ@EHEPIEPF@glBeginConditionalRender@
CONST	SEGMENT
??_C@_0BJ@EHEPIEPF@glBeginConditionalRender@ DB 'glBeginConditionalRender'
	DB	00H						; `string'
CONST	ENDS
;	COMDAT ??_C@_0N@HLGAGIMI@glClampColor@
CONST	SEGMENT
??_C@_0N@HLGAGIMI@glClampColor@ DB 'glClampColor', 00H	; `string'
CONST	ENDS
;	COMDAT ??_C@_0BO@ODFLPNG@glGetTransformFeedbackVarying@
CONST	SEGMENT
??_C@_0BO@ODFLPNG@glGetTransformFeedbackVarying@ DB 'glGetTransformFeedba'
	DB	'ckVarying', 00H				; `string'
CONST	ENDS
;	COMDAT ??_C@_0BM@IJFAKBEF@glTransformFeedbackVaryings@
CONST	SEGMENT
??_C@_0BM@IJFAKBEF@glTransformFeedbackVaryings@ DB 'glTransformFeedbackVa'
	DB	'ryings', 00H				; `string'
CONST	ENDS
;	COMDAT ??_C@_0BB@LDPKOCJI@glBindBufferBase@
CONST	SEGMENT
??_C@_0BB@LDPKOCJI@glBindBufferBase@ DB 'glBindBufferBase', 00H ; `string'
CONST	ENDS
;	COMDAT ??_C@_0BC@EEMMCHMB@glBindBufferRange@
CONST	SEGMENT
??_C@_0BC@EEMMCHMB@glBindBufferRange@ DB 'glBindBufferRange', 00H ; `string'
CONST	ENDS
;	COMDAT ??_C@_0BH@LCFLNNBH@glEndTransformFeedback@
CONST	SEGMENT
??_C@_0BH@LCFLNNBH@glEndTransformFeedback@ DB 'glEndTransformFeedback', 00H ; `string'
CONST	ENDS
;	COMDAT ??_C@_0BJ@FHJKOECC@glBeginTransformFeedback@
CONST	SEGMENT
??_C@_0BJ@FHJKOECC@glBeginTransformFeedback@ DB 'glBeginTransformFeedback'
	DB	00H						; `string'
CONST	ENDS
;	COMDAT ??_C@_0N@IMGKGOKN@glIsEnabledi@
CONST	SEGMENT
??_C@_0N@IMGKGOKN@glIsEnabledi@ DB 'glIsEnabledi', 00H	; `string'
CONST	ENDS
;	COMDAT ??_C@_0L@BMJPGDDH@glDisablei@
CONST	SEGMENT
??_C@_0L@BMJPGDDH@glDisablei@ DB 'glDisablei', 00H	; `string'
CONST	ENDS
;	COMDAT ??_C@_09IEGEGIEN@glEnablei@
CONST	SEGMENT
??_C@_09IEGEGIEN@glEnablei@ DB 'glEnablei', 00H		; `string'
CONST	ENDS
;	COMDAT ??_C@_0BA@FKCNNMFO@glGetIntegeri_v@
CONST	SEGMENT
??_C@_0BA@FKCNNMFO@glGetIntegeri_v@ DB 'glGetIntegeri_v', 00H ; `string'
CONST	ENDS
;	COMDAT ??_C@_0BA@OAKNOBP@glGetBooleani_v@
CONST	SEGMENT
??_C@_0BA@OAKNOBP@glGetBooleani_v@ DB 'glGetBooleani_v', 00H ; `string'
CONST	ENDS
;	COMDAT ??_C@_0N@JHNNNJFG@glColorMaski@
CONST	SEGMENT
??_C@_0N@JHNNNJFG@glColorMaski@ DB 'glColorMaski', 00H	; `string'
CONST	ENDS
;	COMDAT ??_C@_0BF@HFGACBCH@glUniformMatrix4x3fv@
CONST	SEGMENT
??_C@_0BF@HFGACBCH@glUniformMatrix4x3fv@ DB 'glUniformMatrix4x3fv', 00H ; `string'
CONST	ENDS
;	COMDAT ??_C@_0BF@PFLCCJCG@glUniformMatrix3x4fv@
CONST	SEGMENT
??_C@_0BF@PFLCCJCG@glUniformMatrix3x4fv@ DB 'glUniformMatrix3x4fv', 00H ; `string'
CONST	ENDS
;	COMDAT ??_C@_0BF@MNNMEGEC@glUniformMatrix4x2fv@
CONST	SEGMENT
??_C@_0BF@MNNMEGEC@glUniformMatrix4x2fv@ DB 'glUniformMatrix4x2fv', 00H ; `string'
CONST	ENDS
;	COMDAT ??_C@_0BF@DOOOPKID@glUniformMatrix2x4fv@
CONST	SEGMENT
??_C@_0BF@DOOOPKID@glUniformMatrix2x4fv@ DB 'glUniformMatrix2x4fv', 00H ; `string'
CONST	ENDS
;	COMDAT ??_C@_0BF@NANJHGPK@glUniformMatrix3x2fv@
CONST	SEGMENT
??_C@_0BF@NANJHGPK@glUniformMatrix3x2fv@ DB 'glUniformMatrix3x2fv', 00H ; `string'
CONST	ENDS
;	COMDAT ??_C@_0BF@KDDJMCDK@glUniformMatrix2x3fv@
CONST	SEGMENT
??_C@_0BF@KDDJMCDK@glUniformMatrix2x3fv@ DB 'glUniformMatrix2x3fv', 00H ; `string'
CONST	ENDS
;	COMDAT ??_C@_0BG@JPNNNPKG@glVertexAttribPointer@
CONST	SEGMENT
??_C@_0BG@JPNNNPKG@glVertexAttribPointer@ DB 'glVertexAttribPointer', 00H ; `string'
CONST	ENDS
;	COMDAT ??_C@_0BD@OKBBECIG@glVertexAttrib4usv@
CONST	SEGMENT
??_C@_0BD@OKBBECIG@glVertexAttrib4usv@ DB 'glVertexAttrib4usv', 00H ; `string'
CONST	ENDS
;	COMDAT ??_C@_0BD@PLKAGECA@glVertexAttrib4uiv@
CONST	SEGMENT
??_C@_0BD@PLKAGECA@glVertexAttrib4uiv@ DB 'glVertexAttrib4uiv', 00H ; `string'
CONST	ENDS
;	COMDAT ??_C@_0BD@PHPFILMB@glVertexAttrib4ubv@
CONST	SEGMENT
??_C@_0BD@PHPFILMB@glVertexAttrib4ubv@ DB 'glVertexAttrib4ubv', 00H ; `string'
CONST	ENDS
;	COMDAT ??_C@_0BC@EJJODHK@glVertexAttrib4sv@
CONST	SEGMENT
??_C@_0BC@EJJODHK@glVertexAttrib4sv@ DB 'glVertexAttrib4sv', 00H ; `string'
CONST	ENDS
;	COMDAT ??_C@_0BB@PLKDLLIP@glVertexAttrib4s@
CONST	SEGMENT
??_C@_0BB@PLKDLLIP@glVertexAttrib4s@ DB 'glVertexAttrib4s', 00H ; `string'
CONST	ENDS
;	COMDAT ??_C@_0BC@BFCIMFNM@glVertexAttrib4iv@
CONST	SEGMENT
??_C@_0BC@BFCIMFNM@glVertexAttrib4iv@ DB 'glVertexAttrib4iv', 00H ; `string'
CONST	ENDS
;	COMDAT ??_C@_0BC@BOHEICOB@glVertexAttrib4fv@
CONST	SEGMENT
??_C@_0BC@BOHEICOB@glVertexAttrib4fv@ DB 'glVertexAttrib4fv', 00H ; `string'
CONST	ENDS
;	COMDAT ??_C@_0BB@MMBGFNJL@glVertexAttrib4f@
CONST	SEGMENT
??_C@_0BB@MMBGFNJL@glVertexAttrib4f@ DB 'glVertexAttrib4f', 00H ; `string'
CONST	ENDS
;	COMDAT ??_C@_0BC@BNPAFGIP@glVertexAttrib4dv@
CONST	SEGMENT
??_C@_0BC@BNPAFGIP@glVertexAttrib4dv@ DB 'glVertexAttrib4dv', 00H ; `string'
CONST	ENDS
;	COMDAT ??_C@_0BB@POCADPBJ@glVertexAttrib4d@
CONST	SEGMENT
??_C@_0BB@POCADPBJ@glVertexAttrib4d@ DB 'glVertexAttrib4d', 00H ; `string'
CONST	ENDS
;	COMDAT ??_C@_0BC@BJHNCKDN@glVertexAttrib4bv@
CONST	SEGMENT
??_C@_0BC@BJHNCKDN@glVertexAttrib4bv@ DB 'glVertexAttrib4bv', 00H ; `string'
CONST	ENDS
;	COMDAT ??_C@_0BE@IIAFPNIH@glVertexAttrib4Nusv@
CONST	SEGMENT
??_C@_0BE@IIAFPNIH@glVertexAttrib4Nusv@ DB 'glVertexAttrib4Nusv', 00H ; `string'
CONST	ENDS
;	COMDAT ??_C@_0BE@JJLENLCB@glVertexAttrib4Nuiv@
CONST	SEGMENT
??_C@_0BE@JJLENLCB@glVertexAttrib4Nuiv@ DB 'glVertexAttrib4Nuiv', 00H ; `string'
CONST	ENDS
;	COMDAT ??_C@_0BE@JFOBDEMA@glVertexAttrib4Nubv@
CONST	SEGMENT
??_C@_0BE@JFOBDEMA@glVertexAttrib4Nubv@ DB 'glVertexAttrib4Nubv', 00H ; `string'
CONST	ENDS
;	COMDAT ??_C@_0BD@OHBIJGMB@glVertexAttrib4Nub@
CONST	SEGMENT
??_C@_0BD@OHBIJGMB@glVertexAttrib4Nub@ DB 'glVertexAttrib4Nub', 00H ; `string'
CONST	ENDS
;	COMDAT ??_C@_0BD@MNDLDNCG@glVertexAttrib4Nsv@
CONST	SEGMENT
??_C@_0BD@MNDLDNCG@glVertexAttrib4Nsv@ DB 'glVertexAttrib4Nsv', 00H ; `string'
CONST	ENDS
;	COMDAT ??_C@_0BD@NMIKBLIA@glVertexAttrib4Niv@
CONST	SEGMENT
??_C@_0BD@NMIKBLIA@glVertexAttrib4Niv@ DB 'glVertexAttrib4Niv', 00H ; `string'
CONST	ENDS
;	COMDAT ??_C@_0BD@NANPPEGB@glVertexAttrib4Nbv@
CONST	SEGMENT
??_C@_0BD@NANPPEGB@glVertexAttrib4Nbv@ DB 'glVertexAttrib4Nbv', 00H ; `string'
CONST	ENDS
;	COMDAT ??_C@_0BC@JJEONLMD@glVertexAttrib3sv@
CONST	SEGMENT
??_C@_0BC@JJEONLMD@glVertexAttrib3sv@ DB 'glVertexAttrib3sv', 00H ; `string'
CONST	ENDS
;	COMDAT ??_C@_0BB@POOMKNAK@glVertexAttrib3s@
CONST	SEGMENT
??_C@_0BB@POOMKNAK@glVertexAttrib3s@ DB 'glVertexAttrib3s', 00H ; `string'
CONST	ENDS
;	COMDAT ??_C@_0BC@IDKDLKFI@glVertexAttrib3fv@
CONST	SEGMENT
??_C@_0BC@IDKDLKFI@glVertexAttrib3fv@ DB 'glVertexAttrib3fv', 00H ; `string'
CONST	ENDS
;	COMDAT ??_C@_0BB@MJFJELBO@glVertexAttrib3f@
CONST	SEGMENT
??_C@_0BB@MJFJELBO@glVertexAttrib3f@ DB 'glVertexAttrib3f', 00H ; `string'
CONST	ENDS
;	COMDAT ??_C@_0BC@IACHGODG@glVertexAttrib3dv@
CONST	SEGMENT
??_C@_0BC@IACHGODG@glVertexAttrib3dv@ DB 'glVertexAttrib3dv', 00H ; `string'
CONST	ENDS
;	COMDAT ??_C@_0BB@PLGPCJJM@glVertexAttrib3d@
CONST	SEGMENT
??_C@_0BB@PLGPCJJM@glVertexAttrib3d@ DB 'glVertexAttrib3d', 00H ; `string'
CONST	ENDS
;	COMDAT ??_C@_0BC@CBPCLMKG@glVertexAttrib2sv@
CONST	SEGMENT
??_C@_0BC@CBPCLMKG@glVertexAttrib2sv@ DB 'glVertexAttrib2sv', 00H ; `string'
CONST	ENDS
;	COMDAT ??_C@_0BB@PPCOMHDN@glVertexAttrib2s@
CONST	SEGMENT
??_C@_0BB@PPCOMHDN@glVertexAttrib2s@ DB 'glVertexAttrib2s', 00H ; `string'
CONST	ENDS
;	COMDAT ??_C@_0BC@DLBPNNDN@glVertexAttrib2fv@
CONST	SEGMENT
??_C@_0BC@DLBPNNDN@glVertexAttrib2fv@ DB 'glVertexAttrib2fv', 00H ; `string'
CONST	ENDS
;	COMDAT ??_C@_0BB@MIJLCBCJ@glVertexAttrib2f@
CONST	SEGMENT
??_C@_0BB@MIJLCBCJ@glVertexAttrib2f@ DB 'glVertexAttrib2f', 00H ; `string'
CONST	ENDS
;	COMDAT ??_C@_0BC@DIJLAJFD@glVertexAttrib2dv@
CONST	SEGMENT
??_C@_0BC@DIJLAJFD@glVertexAttrib2dv@ DB 'glVertexAttrib2dv', 00H ; `string'
CONST	ENDS
;	COMDAT ??_C@_0BB@PKKNEDKL@glVertexAttrib2d@
CONST	SEGMENT
??_C@_0BB@PKKNEDKL@glVertexAttrib2d@ DB 'glVertexAttrib2d', 00H ; `string'
CONST	ENDS
;	COMDAT ??_C@_0BC@DDEHBDEI@glVertexAttrib1sv@
CONST	SEGMENT
??_C@_0BC@DDEHBDEI@glVertexAttrib1sv@ DB 'glVertexAttrib1sv', 00H ; `string'
CONST	ENDS
;	COMDAT ??_C@_0BB@PNGIHJGE@glVertexAttrib1s@
CONST	SEGMENT
??_C@_0BB@PNGIHJGE@glVertexAttrib1s@ DB 'glVertexAttrib1s', 00H ; `string'
CONST	ENDS
;	COMDAT ??_C@_0BC@CJKKHCND@glVertexAttrib1fv@
CONST	SEGMENT
??_C@_0BC@CJKKHCND@glVertexAttrib1fv@ DB 'glVertexAttrib1fv', 00H ; `string'
CONST	ENDS
;	COMDAT ??_C@_0BB@MKNNJPHA@glVertexAttrib1f@
CONST	SEGMENT
??_C@_0BB@MKNNJPHA@glVertexAttrib1f@ DB 'glVertexAttrib1f', 00H ; `string'
CONST	ENDS
;	COMDAT ??_C@_0BC@CKCOKGLN@glVertexAttrib1dv@
CONST	SEGMENT
??_C@_0BC@CKCOKGLN@glVertexAttrib1dv@ DB 'glVertexAttrib1dv', 00H ; `string'
CONST	ENDS
;	COMDAT ??_C@_0BB@PIOLPNPC@glVertexAttrib1d@
CONST	SEGMENT
??_C@_0BB@PIOLPNPC@glVertexAttrib1d@ DB 'glVertexAttrib1d', 00H ; `string'
CONST	ENDS
;	COMDAT ??_C@_0BC@MAPGDLJK@glValidateProgram@
CONST	SEGMENT
??_C@_0BC@MAPGDLJK@glValidateProgram@ DB 'glValidateProgram', 00H ; `string'
CONST	ENDS
;	COMDAT ??_C@_0BD@LNHCBEKP@glUniformMatrix4fv@
CONST	SEGMENT
??_C@_0BD@LNHCBEKP@glUniformMatrix4fv@ DB 'glUniformMatrix4fv', 00H ; `string'
CONST	ENDS
;	COMDAT ??_C@_0BD@CAKFCMBG@glUniformMatrix3fv@
CONST	SEGMENT
??_C@_0BD@CAKFCMBG@glUniformMatrix3fv@ DB 'glUniformMatrix3fv', 00H ; `string'
CONST	ENDS
;	COMDAT ??_C@_0BD@JIBJELHD@glUniformMatrix2fv@
CONST	SEGMENT
??_C@_0BD@JIBJELHD@glUniformMatrix2fv@ DB 'glUniformMatrix2fv', 00H ; `string'
CONST	ENDS
;	COMDAT ??_C@_0N@JFEMPNIH@glUniform4iv@
CONST	SEGMENT
??_C@_0N@JFEMPNIH@glUniform4iv@ DB 'glUniform4iv', 00H	; `string'
CONST	ENDS
;	COMDAT ??_C@_0N@IJLMFDO@glUniform3iv@
CONST	SEGMENT
??_C@_0N@IJLMFDO@glUniform3iv@ DB 'glUniform3iv', 00H	; `string'
CONST	ENDS
;	COMDAT ??_C@_0N@LACHKCFL@glUniform2iv@
CONST	SEGMENT
??_C@_0N@LACHKCFL@glUniform2iv@ DB 'glUniform2iv', 00H	; `string'
CONST	ENDS
;	COMDAT ??_C@_0N@KCJCANLF@glUniform1iv@
CONST	SEGMENT
??_C@_0N@KCJCANLF@glUniform1iv@ DB 'glUniform1iv', 00H	; `string'
CONST	ENDS
;	COMDAT ??_C@_0N@JOBALKLK@glUniform4fv@
CONST	SEGMENT
??_C@_0N@JOBALKLK@glUniform4fv@ DB 'glUniform4fv', 00H	; `string'
CONST	ENDS
;	COMDAT ??_C@_0N@DMHICAD@glUniform3fv@
CONST	SEGMENT
??_C@_0N@DMHICAD@glUniform3fv@ DB 'glUniform3fv', 00H	; `string'
CONST	ENDS
;	COMDAT ??_C@_0N@LLHLOFGG@glUniform2fv@
CONST	SEGMENT
??_C@_0N@LLHLOFGG@glUniform2fv@ DB 'glUniform2fv', 00H	; `string'
CONST	ENDS
;	COMDAT ??_C@_0N@KJMOEKII@glUniform1fv@
CONST	SEGMENT
??_C@_0N@KJMOEKII@glUniform1fv@ DB 'glUniform1fv', 00H	; `string'
CONST	ENDS
;	COMDAT ??_C@_0M@EKNBNBMB@glUniform4i@
CONST	SEGMENT
??_C@_0M@EKNBNBMB@glUniform4i@ DB 'glUniform4i', 00H	; `string'
CONST	ENDS
;	COMDAT ??_C@_0M@EPJOMHEE@glUniform3i@
CONST	SEGMENT
??_C@_0M@EPJOMHEE@glUniform3i@ DB 'glUniform3i', 00H	; `string'
CONST	ENDS
;	COMDAT ??_C@_0M@EOFMKNHD@glUniform2i@
CONST	SEGMENT
??_C@_0M@EOFMKNHD@glUniform2i@ DB 'glUniform2i', 00H	; `string'
CONST	ENDS
;	COMDAT ??_C@_0M@EMBKBDCK@glUniform1i@
CONST	SEGMENT
??_C@_0M@EMBKBDCK@glUniform1i@ DB 'glUniform1i', 00H	; `string'
CONST	ENDS
;	COMDAT ??_C@_0M@MNEJMNAO@glUniform4f@
CONST	SEGMENT
??_C@_0M@MNEJMNAO@glUniform4f@ DB 'glUniform4f', 00H	; `string'
CONST	ENDS
;	COMDAT ??_C@_0M@MIAGNLIL@glUniform3f@
CONST	SEGMENT
??_C@_0M@MIAGNLIL@glUniform3f@ DB 'glUniform3f', 00H	; `string'
CONST	ENDS
;	COMDAT ??_C@_0M@MJMELBLM@glUniform2f@
CONST	SEGMENT
??_C@_0M@MJMELBLM@glUniform2f@ DB 'glUniform2f', 00H	; `string'
CONST	ENDS
;	COMDAT ??_C@_0M@MLICAPOF@glUniform1f@
CONST	SEGMENT
??_C@_0M@MLICAPOF@glUniform1f@ DB 'glUniform1f', 00H	; `string'
CONST	ENDS
;	COMDAT ??_C@_0N@ICBDHBI@glUseProgram@
CONST	SEGMENT
??_C@_0N@ICBDHBI@glUseProgram@ DB 'glUseProgram', 00H	; `string'
CONST	ENDS
;	COMDAT ??_C@_0P@DFHCPFMO@glShaderSource@
CONST	SEGMENT
??_C@_0P@DFHCPFMO@glShaderSource@ DB 'glShaderSource', 00H ; `string'
CONST	ENDS
;	COMDAT ??_C@_0O@PIOEEBPO@glLinkProgram@
CONST	SEGMENT
??_C@_0O@PIOEEBPO@glLinkProgram@ DB 'glLinkProgram', 00H ; `string'
CONST	ENDS
;	COMDAT ??_C@_0L@MDDLFIHC@glIsShader@
CONST	SEGMENT
??_C@_0L@MDDLFIHC@glIsShader@ DB 'glIsShader', 00H	; `string'
CONST	ENDS
;	COMDAT ??_C@_0M@INLOJDGO@glIsProgram@
CONST	SEGMENT
??_C@_0M@INLOJDGO@glIsProgram@ DB 'glIsProgram', 00H	; `string'
CONST	ENDS
;	COMDAT ??_C@_0BK@DOJMENLD@glGetVertexAttribPointerv@
CONST	SEGMENT
??_C@_0BK@DOJMENLD@glGetVertexAttribPointerv@ DB 'glGetVertexAttribPointe'
	DB	'rv', 00H					; `string'
CONST	ENDS
;	COMDAT ??_C@_0BE@HLCEAPNO@glGetVertexAttribiv@
CONST	SEGMENT
??_C@_0BE@HLCEAPNO@glGetVertexAttribiv@ DB 'glGetVertexAttribiv', 00H ; `string'
CONST	ENDS
;	COMDAT ??_C@_0BE@HAHIEIOD@glGetVertexAttribfv@
CONST	SEGMENT
??_C@_0BE@HAHIEIOD@glGetVertexAttribfv@ DB 'glGetVertexAttribfv', 00H ; `string'
CONST	ENDS
;	COMDAT ??_C@_0BE@HDPMJMIN@glGetVertexAttribdv@
CONST	SEGMENT
??_C@_0BE@HDPMJMIN@glGetVertexAttribdv@ DB 'glGetVertexAttribdv', 00H ; `string'
CONST	ENDS
;	COMDAT ??_C@_0P@IAONPCL@glGetUniformiv@
CONST	SEGMENT
??_C@_0P@IAONPCL@glGetUniformiv@ DB 'glGetUniformiv', 00H ; `string'
CONST	ENDS
;	COMDAT ??_C@_0P@DFCJIBG@glGetUniformfv@
CONST	SEGMENT
??_C@_0P@DFCJIBG@glGetUniformfv@ DB 'glGetUniformfv', 00H ; `string'
CONST	ENDS
;	COMDAT ??_C@_0BF@KIOPGICP@glGetUniformLocation@
CONST	SEGMENT
??_C@_0BF@KIOPGICP@glGetUniformLocation@ DB 'glGetUniformLocation', 00H ; `string'
CONST	ENDS
;	COMDAT ??_C@_0BC@ELEIFJEL@glGetShaderSource@
CONST	SEGMENT
??_C@_0BC@ELEIFJEL@glGetShaderSource@ DB 'glGetShaderSource', 00H ; `string'
CONST	ENDS
;	COMDAT ??_C@_0BD@GIABBCMO@glGetShaderInfoLog@
CONST	SEGMENT
??_C@_0BD@GIABBCMO@glGetShaderInfoLog@ DB 'glGetShaderInfoLog', 00H ; `string'
CONST	ENDS
;	COMDAT ??_C@_0O@JBDFPDMG@glGetShaderiv@
CONST	SEGMENT
??_C@_0O@JBDFPDMG@glGetShaderiv@ DB 'glGetShaderiv', 00H ; `string'
CONST	ENDS
;	COMDAT ??_C@_0BE@DHGHAJFL@glGetProgramInfoLog@
CONST	SEGMENT
??_C@_0BE@DHGHAJFL@glGetProgramInfoLog@ DB 'glGetProgramInfoLog', 00H ; `string'
CONST	ENDS
;	COMDAT ??_C@_0P@FMMDFLCO@glGetProgramiv@
CONST	SEGMENT
??_C@_0P@FMMDFLCO@glGetProgramiv@ DB 'glGetProgramiv', 00H ; `string'
CONST	ENDS
;	COMDAT ??_C@_0BE@BEPGJDMM@glGetAttribLocation@
CONST	SEGMENT
??_C@_0BE@BEPGJDMM@glGetAttribLocation@ DB 'glGetAttribLocation', 00H ; `string'
CONST	ENDS
;	COMDAT ??_C@_0BF@GHMDGFEM@glGetAttachedShaders@
CONST	SEGMENT
??_C@_0BF@GHMDGFEM@glGetAttachedShaders@ DB 'glGetAttachedShaders', 00H ; `string'
CONST	ENDS
;	COMDAT ??_C@_0BD@NIMHLLKN@glGetActiveUniform@
CONST	SEGMENT
??_C@_0BD@NIMHLLKN@glGetActiveUniform@ DB 'glGetActiveUniform', 00H ; `string'
CONST	ENDS
;	COMDAT ??_C@_0BC@MBALAOHF@glGetActiveAttrib@
CONST	SEGMENT
??_C@_0BC@MBALAOHF@glGetActiveAttrib@ DB 'glGetActiveAttrib', 00H ; `string'
CONST	ENDS
;	COMDAT ??_C@_0BK@EHBAHNHE@glEnableVertexAttribArray@
CONST	SEGMENT
??_C@_0BK@EHBAHNHE@glEnableVertexAttribArray@ DB 'glEnableVertexAttribArr'
	DB	'ay', 00H					; `string'
CONST	ENDS
;	COMDAT ??_C@_0BL@NKHLOFFF@glDisableVertexAttribArray@
CONST	SEGMENT
??_C@_0BL@NKHLOFFF@glDisableVertexAttribArray@ DB 'glDisableVertexAttribA'
	DB	'rray', 00H					; `string'
CONST	ENDS
;	COMDAT ??_C@_0P@DJFJFCJL@glDetachShader@
CONST	SEGMENT
??_C@_0P@DJFJFCJL@glDetachShader@ DB 'glDetachShader', 00H ; `string'
CONST	ENDS
;	COMDAT ??_C@_0P@HHCDONAG@glDeleteShader@
CONST	SEGMENT
??_C@_0P@HHCDONAG@glDeleteShader@ DB 'glDeleteShader', 00H ; `string'
CONST	ENDS
;	COMDAT ??_C@_0BA@NKGCDOPO@glDeleteProgram@
CONST	SEGMENT
??_C@_0BA@NKGCDOPO@glDeleteProgram@ DB 'glDeleteProgram', 00H ; `string'
CONST	ENDS
;	COMDAT ??_C@_0P@HGHBNC@glCreateShader@
CONST	SEGMENT
??_C@_0P@HGHBNC@glCreateShader@ DB 'glCreateShader', 00H ; `string'
CONST	ENDS
;	COMDAT ??_C@_0BA@FLKLHNKP@glCreateProgram@
CONST	SEGMENT
??_C@_0BA@FLKLHNKP@glCreateProgram@ DB 'glCreateProgram', 00H ; `string'
CONST	ENDS
;	COMDAT ??_C@_0BA@DGIEGONF@glCompileShader@
CONST	SEGMENT
??_C@_0BA@DGIEGONF@glCompileShader@ DB 'glCompileShader', 00H ; `string'
CONST	ENDS
;	COMDAT ??_C@_0BF@MHKEFIHM@glBindAttribLocation@
CONST	SEGMENT
??_C@_0BF@MHKEFIHM@glBindAttribLocation@ DB 'glBindAttribLocation', 00H ; `string'
CONST	ENDS
;	COMDAT ??_C@_0P@LDMLEABL@glAttachShader@
CONST	SEGMENT
??_C@_0P@LDMLEABL@glAttachShader@ DB 'glAttachShader', 00H ; `string'
CONST	ENDS
;	COMDAT ??_C@_0BG@MMKPIEJI@glStencilMaskSeparate@
CONST	SEGMENT
??_C@_0BG@MMKPIEJI@glStencilMaskSeparate@ DB 'glStencilMaskSeparate', 00H ; `string'
CONST	ENDS
;	COMDAT ??_C@_0BG@FCMNCEIA@glStencilFuncSeparate@
CONST	SEGMENT
??_C@_0BG@FCMNCEIA@glStencilFuncSeparate@ DB 'glStencilFuncSeparate', 00H ; `string'
CONST	ENDS
;	COMDAT ??_C@_0BE@GAPLDNGF@glStencilOpSeparate@
CONST	SEGMENT
??_C@_0BE@GAPLDNGF@glStencilOpSeparate@ DB 'glStencilOpSeparate', 00H ; `string'
CONST	ENDS
;	COMDAT ??_C@_0O@COHJKDBH@glDrawBuffers@
CONST	SEGMENT
??_C@_0O@COHJKDBH@glDrawBuffers@ DB 'glDrawBuffers', 00H ; `string'
CONST	ENDS
;	COMDAT ??_C@_0BI@JNHDNJAG@glBlendEquationSeparate@
CONST	SEGMENT
??_C@_0BI@JNHDNJAG@glBlendEquationSeparate@ DB 'glBlendEquationSeparate', 00H ; `string'
CONST	ENDS
;	COMDAT ??_C@_0BE@KNJEIFMC@glGetBufferPointerv@
CONST	SEGMENT
??_C@_0BE@KNJEIFMC@glGetBufferPointerv@ DB 'glGetBufferPointerv', 00H ; `string'
CONST	ENDS
;	COMDAT ??_C@_0BH@BMIEIFJP@glGetBufferParameteriv@
CONST	SEGMENT
??_C@_0BH@BMIEIFJP@glGetBufferParameteriv@ DB 'glGetBufferParameteriv', 00H ; `string'
CONST	ENDS
;	COMDAT ??_C@_0O@OFGHBLEO@glUnmapBuffer@
CONST	SEGMENT
??_C@_0O@OFGHBLEO@glUnmapBuffer@ DB 'glUnmapBuffer', 00H ; `string'
CONST	ENDS
;	COMDAT ??_C@_0M@NNHDPACA@glMapBuffer@
CONST	SEGMENT
??_C@_0M@NNHDPACA@glMapBuffer@ DB 'glMapBuffer', 00H	; `string'
CONST	ENDS
;	COMDAT ??_C@_0BD@PNDAHMBO@glGetBufferSubData@
CONST	SEGMENT
??_C@_0BD@PNDAHMBO@glGetBufferSubData@ DB 'glGetBufferSubData', 00H ; `string'
CONST	ENDS
;	COMDAT ??_C@_0BA@GAJMDBBN@glBufferSubData@
CONST	SEGMENT
??_C@_0BA@GAJMDBBN@glBufferSubData@ DB 'glBufferSubData', 00H ; `string'
CONST	ENDS
;	COMDAT ??_C@_0N@JHHJMABP@glBufferData@
CONST	SEGMENT
??_C@_0N@JHHJMABP@glBufferData@ DB 'glBufferData', 00H	; `string'
CONST	ENDS
;	COMDAT ??_C@_0L@KFPDMKNG@glIsBuffer@
CONST	SEGMENT
??_C@_0L@KFPDMKNG@glIsBuffer@ DB 'glIsBuffer', 00H	; `string'
CONST	ENDS
;	COMDAT ??_C@_0N@LAOHBIBA@glGenBuffers@
CONST	SEGMENT
??_C@_0N@LAOHBIBA@glGenBuffers@ DB 'glGenBuffers', 00H	; `string'
CONST	ENDS
;	COMDAT ??_C@_0BA@DMNLADIO@glDeleteBuffers@
CONST	SEGMENT
??_C@_0BA@DMNLADIO@glDeleteBuffers@ DB 'glDeleteBuffers', 00H ; `string'
CONST	ENDS
;	COMDAT ??_C@_0N@BONEPPLO@glBindBuffer@
CONST	SEGMENT
??_C@_0N@BONEPPLO@glBindBuffer@ DB 'glBindBuffer', 00H	; `string'
CONST	ENDS
;	COMDAT ??_C@_0BE@MNBBKJ@glGetQueryObjectuiv@
CONST	SEGMENT
??_C@_0BE@MNBBKJ@glGetQueryObjectuiv@ DB 'glGetQueryObjectuiv', 00H ; `string'
CONST	ENDS
;	COMDAT ??_C@_0BD@KMBBCJID@glGetQueryObjectiv@
CONST	SEGMENT
??_C@_0BD@KMBBCJID@glGetQueryObjectiv@ DB 'glGetQueryObjectiv', 00H ; `string'
CONST	ENDS
;	COMDAT ??_C@_0N@BPACPFCI@glGetQueryiv@
CONST	SEGMENT
??_C@_0N@BPACPFCI@glGetQueryiv@ DB 'glGetQueryiv', 00H	; `string'
CONST	ENDS
;	COMDAT ??_C@_0L@FLEBHIDM@glEndQuery@
CONST	SEGMENT
??_C@_0L@FLEBHIDM@glEndQuery@ DB 'glEndQuery', 00H	; `string'
CONST	ENDS
;	COMDAT ??_C@_0N@GIAGIGPA@glBeginQuery@
CONST	SEGMENT
??_C@_0N@GIAGIGPA@glBeginQuery@ DB 'glBeginQuery', 00H	; `string'
CONST	ENDS
;	COMDAT ??_C@_09CNNLCEBN@glIsQuery@
CONST	SEGMENT
??_C@_09CNNLCEBN@glIsQuery@ DB 'glIsQuery', 00H		; `string'
CONST	ENDS
;	COMDAT ??_C@_0BA@IOKEHMOH@glDeleteQueries@
CONST	SEGMENT
??_C@_0BA@IOKEHMOH@glDeleteQueries@ DB 'glDeleteQueries', 00H ; `string'
CONST	ENDS
;	COMDAT ??_C@_0N@CJIGHHJ@glGenQueries@
CONST	SEGMENT
??_C@_0N@CJIGHHJ@glGenQueries@ DB 'glGenQueries', 00H	; `string'
CONST	ENDS
;	COMDAT ??_C@_0BA@PFHILPAN@glBlendEquation@
CONST	SEGMENT
??_C@_0BA@PFHILPAN@glBlendEquation@ DB 'glBlendEquation', 00H ; `string'
CONST	ENDS
;	COMDAT ??_C@_0N@PKBMFJDK@glBlendColor@
CONST	SEGMENT
??_C@_0N@PKBMFJDK@glBlendColor@ DB 'glBlendColor', 00H	; `string'
CONST	ENDS
;	COMDAT ??_C@_0BD@LDFNOKAC@glPointParameteriv@
CONST	SEGMENT
??_C@_0BD@LDFNOKAC@glPointParameteriv@ DB 'glPointParameteriv', 00H ; `string'
CONST	ENDS
;	COMDAT ??_C@_0BC@ICPGPIPB@glPointParameteri@
CONST	SEGMENT
??_C@_0BC@ICPGPIPB@glPointParameteri@ DB 'glPointParameteri', 00H ; `string'
CONST	ENDS
;	COMDAT ??_C@_0BD@LIABKNDP@glPointParameterfv@
CONST	SEGMENT
??_C@_0BD@LIABKNDP@glPointParameterfv@ DB 'glPointParameterfv', 00H ; `string'
CONST	ENDS
;	COMDAT ??_C@_0BC@FGOOEDO@glPointParameterf@
CONST	SEGMENT
??_C@_0BC@FGOOEDO@glPointParameterf@ DB 'glPointParameterf', 00H ; `string'
CONST	ENDS
;	COMDAT ??_C@_0BE@MPDFJJLL@glMultiDrawElements@
CONST	SEGMENT
??_C@_0BE@MPDFJJLL@glMultiDrawElements@ DB 'glMultiDrawElements', 00H ; `string'
CONST	ENDS
;	COMDAT ??_C@_0BC@IBABPJFA@glMultiDrawArrays@
CONST	SEGMENT
??_C@_0BC@IBABPJFA@glMultiDrawArrays@ DB 'glMultiDrawArrays', 00H ; `string'
CONST	ENDS
;	COMDAT ??_C@_0BE@LLLCIIOO@glBlendFuncSeparate@
CONST	SEGMENT
??_C@_0BE@LLLCIIOO@glBlendFuncSeparate@ DB 'glBlendFuncSeparate', 00H ; `string'
CONST	ENDS
;	COMDAT ??_C@_0BI@MPANLPPL@glGetCompressedTexImage@
CONST	SEGMENT
??_C@_0BI@MPANLPPL@glGetCompressedTexImage@ DB 'glGetCompressedTexImage', 00H ; `string'
CONST	ENDS
;	COMDAT ??_C@_0BK@ECBIPHJO@glCompressedTexSubImage1D@
CONST	SEGMENT
??_C@_0BK@ECBIPHJO@glCompressedTexSubImage1D@ DB 'glCompressedTexSubImage'
	DB	'1D', 00H					; `string'
CONST	ENDS
;	COMDAT ??_C@_0BK@EAFOEJMH@glCompressedTexSubImage2D@
CONST	SEGMENT
??_C@_0BK@EAFOEJMH@glCompressedTexSubImage2D@ DB 'glCompressedTexSubImage'
	DB	'2D', 00H					; `string'
CONST	ENDS
;	COMDAT ??_C@_0BK@EBJMCDPA@glCompressedTexSubImage3D@
CONST	SEGMENT
??_C@_0BK@EBJMCDPA@glCompressedTexSubImage3D@ DB 'glCompressedTexSubImage'
	DB	'3D', 00H					; `string'
CONST	ENDS
;	COMDAT ??_C@_0BH@GFPJBEAB@glCompressedTexImage1D@
CONST	SEGMENT
??_C@_0BH@GFPJBEAB@glCompressedTexImage1D@ DB 'glCompressedTexImage1D', 00H ; `string'
CONST	ENDS
;	COMDAT ??_C@_0BH@GHLPKKFI@glCompressedTexImage2D@
CONST	SEGMENT
??_C@_0BH@GHLPKKFI@glCompressedTexImage2D@ DB 'glCompressedTexImage2D', 00H ; `string'
CONST	ENDS
;	COMDAT ??_C@_0BH@GGHNMAGP@glCompressedTexImage3D@
CONST	SEGMENT
??_C@_0BH@GGHNMAGP@glCompressedTexImage3D@ DB 'glCompressedTexImage3D', 00H ; `string'
CONST	ENDS
;	COMDAT ??_C@_0BB@BJGIPMOA@glSampleCoverage@
CONST	SEGMENT
??_C@_0BB@BJGIPMOA@glSampleCoverage@ DB 'glSampleCoverage', 00H ; `string'
CONST	ENDS
;	COMDAT ??_C@_0BA@KOBBIKOF@glActiveTexture@
CONST	SEGMENT
??_C@_0BA@KOBBIKOF@glActiveTexture@ DB 'glActiveTexture', 00H ; `string'
CONST	ENDS
;	COMDAT ??_C@_0BE@PJFGNMAG@glCopyTexSubImage3D@
CONST	SEGMENT
??_C@_0BE@PJFGNMAG@glCopyTexSubImage3D@ DB 'glCopyTexSubImage3D', 00H ; `string'
CONST	ENDS
;	COMDAT ??_C@_0BA@NGGKPOPN@glTexSubImage3D@
CONST	SEGMENT
??_C@_0BA@NGGKPOPN@glTexSubImage3D@ DB 'glTexSubImage3D', 00H ; `string'
CONST	ENDS
;	COMDAT ??_C@_0N@JAEIBBBF@glTexImage3D@
CONST	SEGMENT
??_C@_0N@JAEIBBBF@glTexImage3D@ DB 'glTexImage3D', 00H	; `string'
CONST	ENDS
;	COMDAT ??_C@_0BE@IHNAGJGJ@glDrawRangeElements@
CONST	SEGMENT
??_C@_0BE@IHNAGJGJ@glDrawRangeElements@ DB 'glDrawRangeElements', 00H ; `string'
CONST	ENDS
;	COMDAT ??_C@_0M@NJHAEPDN@glIsTexture@
CONST	SEGMENT
??_C@_0M@NJHAEPDN@glIsTexture@ DB 'glIsTexture', 00H	; `string'
CONST	ENDS
;	COMDAT ??_C@_0O@LLMANLNK@glGenTextures@
CONST	SEGMENT
??_C@_0O@LLMANLNK@glGenTextures@ DB 'glGenTextures', 00H ; `string'
CONST	ENDS
;	COMDAT ??_C@_0BB@KMPLFJIC@glDeleteTextures@
CONST	SEGMENT
??_C@_0BB@KMPLFJIC@glDeleteTextures@ DB 'glDeleteTextures', 00H ; `string'
CONST	ENDS
;	COMDAT ??_C@_0O@JKKCIBGC@glBindTexture@
CONST	SEGMENT
??_C@_0O@JKKCIBGC@glBindTexture@ DB 'glBindTexture', 00H ; `string'
CONST	ENDS
;	COMDAT ??_C@_0BA@NHKIJEMK@glTexSubImage2D@
CONST	SEGMENT
??_C@_0BA@NHKIJEMK@glTexSubImage2D@ DB 'glTexSubImage2D', 00H ; `string'
CONST	ENDS
;	COMDAT ??_C@_0BA@NFOOCKJD@glTexSubImage1D@
CONST	SEGMENT
??_C@_0BA@NFOOCKJD@glTexSubImage1D@ DB 'glTexSubImage1D', 00H ; `string'
CONST	ENDS
;	COMDAT ??_C@_0BE@PIJELGDB@glCopyTexSubImage2D@
CONST	SEGMENT
??_C@_0BE@PIJELGDB@glCopyTexSubImage2D@ DB 'glCopyTexSubImage2D', 00H ; `string'
CONST	ENDS
;	COMDAT ??_C@_0BE@PKNCAIGI@glCopyTexSubImage1D@
CONST	SEGMENT
??_C@_0BE@PKNCAIGI@glCopyTexSubImage1D@ DB 'glCopyTexSubImage1D', 00H ; `string'
CONST	ENDS
;	COMDAT ??_C@_0BB@MGAFKJKC@glCopyTexImage2D@
CONST	SEGMENT
??_C@_0BB@MGAFKJKC@glCopyTexImage2D@ DB 'glCopyTexImage2D', 00H ; `string'
CONST	ENDS
;	COMDAT ??_C@_0BB@MEEDBHPL@glCopyTexImage1D@
CONST	SEGMENT
??_C@_0BB@MEEDBHPL@glCopyTexImage1D@ DB 'glCopyTexImage1D', 00H ; `string'
CONST	ENDS
;	COMDAT ??_C@_0BA@FFBJGNC@glPolygonOffset@
CONST	SEGMENT
??_C@_0BA@FFBJGNC@glPolygonOffset@ DB 'glPolygonOffset', 00H ; `string'
CONST	ENDS
;	COMDAT ??_C@_0P@MENFIFGE@glDrawElements@
CONST	SEGMENT
??_C@_0P@MENFIFGE@glDrawElements@ DB 'glDrawElements', 00H ; `string'
CONST	ENDS
;	COMDAT ??_C@_0N@CMNPPOHA@glDrawArrays@
CONST	SEGMENT
??_C@_0N@CMNPPOHA@glDrawArrays@ DB 'glDrawArrays', 00H	; `string'
CONST	ENDS
;	COMDAT ??_C@_0L@KBLIPDFH@glViewport@
CONST	SEGMENT
??_C@_0L@KBLIPDFH@glViewport@ DB 'glViewport', 00H	; `string'
CONST	ENDS
;	COMDAT ??_C@_0N@PEBDIKOA@glDepthRange@
CONST	SEGMENT
??_C@_0N@PEBDIKOA@glDepthRange@ DB 'glDepthRange', 00H	; `string'
CONST	ENDS
;	COMDAT ??_C@_0M@INHMIHKC@glIsEnabled@
CONST	SEGMENT
??_C@_0M@INHMIHKC@glIsEnabled@ DB 'glIsEnabled', 00H	; `string'
CONST	ENDS
;	COMDAT ??_C@_0BJ@GLJHCPGI@glGetTexLevelParameteriv@
CONST	SEGMENT
??_C@_0BJ@GLJHCPGI@glGetTexLevelParameteriv@ DB 'glGetTexLevelParameteriv'
	DB	00H						; `string'
CONST	ENDS
;	COMDAT ??_C@_0BJ@GAMLGIFF@glGetTexLevelParameterfv@
CONST	SEGMENT
??_C@_0BJ@GAMLGIFF@glGetTexLevelParameterfv@ DB 'glGetTexLevelParameterfv'
	DB	00H						; `string'
CONST	ENDS
;	COMDAT ??_C@_0BE@DGCNLNPP@glGetTexParameteriv@
CONST	SEGMENT
??_C@_0BE@DGCNLNPP@glGetTexParameteriv@ DB 'glGetTexParameteriv', 00H ; `string'
CONST	ENDS
;	COMDAT ??_C@_0BE@DNHBPKMC@glGetTexParameterfv@
CONST	SEGMENT
??_C@_0BE@DNHBPKMC@glGetTexParameterfv@ DB 'glGetTexParameterfv', 00H ; `string'
CONST	ENDS
;	COMDAT ??_C@_0O@DOIIJLAD@glGetTexImage@
CONST	SEGMENT
??_C@_0O@DOIIJLAD@glGetTexImage@ DB 'glGetTexImage', 00H ; `string'
CONST	ENDS
;	COMDAT ??_C@_0M@OPOBFDCB@glGetString@
CONST	SEGMENT
??_C@_0M@OPOBFDCB@glGetString@ DB 'glGetString', 00H	; `string'
CONST	ENDS
;	COMDAT ??_C@_0O@DHHDCCLF@glGetIntegerv@
CONST	SEGMENT
??_C@_0O@DHHDCCLF@glGetIntegerv@ DB 'glGetIntegerv', 00H ; `string'
CONST	ENDS
;	COMDAT ??_C@_0M@CKCOBONE@glGetFloatv@
CONST	SEGMENT
??_C@_0M@CKCOBONE@glGetFloatv@ DB 'glGetFloatv', 00H	; `string'
CONST	ENDS
;	COMDAT ??_C@_0L@FPKAMKHB@glGetError@
CONST	SEGMENT
??_C@_0L@FPKAMKHB@glGetError@ DB 'glGetError', 00H	; `string'
CONST	ENDS
;	COMDAT ??_C@_0N@OFBMMCDH@glGetDoublev@
CONST	SEGMENT
??_C@_0N@OFBMMCDH@glGetDoublev@ DB 'glGetDoublev', 00H	; `string'
CONST	ENDS
;	COMDAT ??_C@_0O@NLMELLCJ@glGetBooleanv@
CONST	SEGMENT
??_C@_0O@NLMELLCJ@glGetBooleanv@ DB 'glGetBooleanv', 00H ; `string'
CONST	ENDS
;	COMDAT ??_C@_0N@CKFNNHOO@glReadPixels@
CONST	SEGMENT
??_C@_0N@CKFNNHOO@glReadPixels@ DB 'glReadPixels', 00H	; `string'
CONST	ENDS
;	COMDAT ??_C@_0N@HFKHBECK@glReadBuffer@
CONST	SEGMENT
??_C@_0N@HFKHBECK@glReadBuffer@ DB 'glReadBuffer', 00H	; `string'
CONST	ENDS
;	COMDAT ??_C@_0O@JCCIGLOF@glPixelStorei@
CONST	SEGMENT
??_C@_0O@JCCIGLOF@glPixelStorei@ DB 'glPixelStorei', 00H ; `string'
CONST	ENDS
;	COMDAT ??_C@_0O@BFLAHHCK@glPixelStoref@
CONST	SEGMENT
??_C@_0O@BFLAHHCK@glPixelStoref@ DB 'glPixelStoref', 00H ; `string'
CONST	ENDS
;	COMDAT ??_C@_0M@NEJABAEP@glDepthFunc@
CONST	SEGMENT
??_C@_0M@NEJABAEP@glDepthFunc@ DB 'glDepthFunc', 00H	; `string'
CONST	ENDS
;	COMDAT ??_C@_0M@BILBNGF@glStencilOp@
CONST	SEGMENT
??_C@_0M@BILBNGF@glStencilOp@ DB 'glStencilOp', 00H	; `string'
CONST	ENDS
;	COMDAT ??_C@_0O@ENNLLOLN@glStencilFunc@
CONST	SEGMENT
??_C@_0O@ENNLLOLN@glStencilFunc@ DB 'glStencilFunc', 00H ; `string'
CONST	ENDS
;	COMDAT ??_C@_09GKGMNAKG@glLogicOp@
CONST	SEGMENT
??_C@_09GKGMNAKG@glLogicOp@ DB 'glLogicOp', 00H		; `string'
CONST	ENDS
;	COMDAT ??_C@_0M@PFBKOKOH@glBlendFunc@
CONST	SEGMENT
??_C@_0M@PFBKOKOH@glBlendFunc@ DB 'glBlendFunc', 00H	; `string'
CONST	ENDS
;	COMDAT ??_C@_07COFELLJA@glFlush@
CONST	SEGMENT
??_C@_07COFELLJA@glFlush@ DB 'glFlush', 00H		; `string'
CONST	ENDS
;	COMDAT ??_C@_08DFCPOKBK@glFinish@
CONST	SEGMENT
??_C@_08DFCPOKBK@glFinish@ DB 'glFinish', 00H		; `string'
CONST	ENDS
;	COMDAT ??_C@_08OOEHEKOP@glEnable@
CONST	SEGMENT
??_C@_08OOEHEKOP@glEnable@ DB 'glEnable', 00H		; `string'
CONST	ENDS
;	COMDAT ??_C@_09MHGMIMKN@glDisable@
CONST	SEGMENT
??_C@_09MHGMIMKN@glDisable@ DB 'glDisable', 00H		; `string'
CONST	ENDS
;	COMDAT ??_C@_0M@KABMFLLN@glDepthMask@
CONST	SEGMENT
??_C@_0M@KABMFLLN@glDepthMask@ DB 'glDepthMask', 00H	; `string'
CONST	ENDS
;	COMDAT ??_C@_0M@DLGOAHPH@glColorMask@
CONST	SEGMENT
??_C@_0M@DLGOAHPH@glColorMask@ DB 'glColorMask', 00H	; `string'
CONST	ENDS
;	COMDAT ??_C@_0O@DJFHPFEP@glStencilMask@
CONST	SEGMENT
??_C@_0O@DJFHPFEP@glStencilMask@ DB 'glStencilMask', 00H ; `string'
CONST	ENDS
;	COMDAT ??_C@_0N@LJIELNG@glClearDepth@
CONST	SEGMENT
??_C@_0N@LJIELNG@glClearDepth@ DB 'glClearDepth', 00H	; `string'
CONST	ENDS
;	COMDAT ??_C@_0P@KBLPBBFP@glClearStencil@
CONST	SEGMENT
??_C@_0P@KBLPBBFP@glClearStencil@ DB 'glClearStencil', 00H ; `string'
CONST	ENDS
;	COMDAT ??_C@_0N@OGLMDNKC@glClearColor@
CONST	SEGMENT
??_C@_0N@OGLMDNKC@glClearColor@ DB 'glClearColor', 00H	; `string'
CONST	ENDS
;	COMDAT ??_C@_07IBAPPAHJ@glClear@
CONST	SEGMENT
??_C@_07IBAPPAHJ@glClear@ DB 'glClear', 00H		; `string'
CONST	ENDS
;	COMDAT ??_C@_0N@EKCLGPL@glDrawBuffer@
CONST	SEGMENT
??_C@_0N@EKCLGPL@glDrawBuffer@ DB 'glDrawBuffer', 00H	; `string'
CONST	ENDS
;	COMDAT ??_C@_0N@JBIKHLCC@glTexImage2D@
CONST	SEGMENT
??_C@_0N@JBIKHLCC@glTexImage2D@ DB 'glTexImage2D', 00H	; `string'
CONST	ENDS
;	COMDAT ??_C@_0N@JDMMMFHL@glTexImage1D@
CONST	SEGMENT
??_C@_0N@JDMMMFHL@glTexImage1D@ DB 'glTexImage1D', 00H	; `string'
CONST	ENDS
;	COMDAT ??_C@_0BB@KPLJEAAI@glTexParameteriv@
CONST	SEGMENT
??_C@_0BB@KPLJEAAI@glTexParameteriv@ DB 'glTexParameteriv', 00H ; `string'
CONST	ENDS
;	COMDAT ??_C@_0BA@KDNJAKA@glTexParameteri@
CONST	SEGMENT
??_C@_0BA@KDNJAKA@glTexParameteri@ DB 'glTexParameteri', 00H ; `string'
CONST	ENDS
;	COMDAT ??_C@_0BB@KEOFAHDF@glTexParameterfv@
CONST	SEGMENT
??_C@_0BB@KEOFAHDF@glTexParameterfv@ DB 'glTexParameterfv', 00H ; `string'
CONST	ENDS
;	COMDAT ??_C@_0BA@INKFIMGP@glTexParameterf@
CONST	SEGMENT
??_C@_0BA@INKFIMGP@glTexParameterf@ DB 'glTexParameterf', 00H ; `string'
CONST	ENDS
;	COMDAT ??_C@_09ECGPAEPL@glScissor@
CONST	SEGMENT
??_C@_09ECGPAEPL@glScissor@ DB 'glScissor', 00H		; `string'
CONST	ENDS
;	COMDAT ??_C@_0O@DKMNBFMB@glPolygonMode@
CONST	SEGMENT
??_C@_0O@DKMNBFMB@glPolygonMode@ DB 'glPolygonMode', 00H ; `string'
CONST	ENDS
;	COMDAT ??_C@_0M@EEAPMMNM@glPointSize@
CONST	SEGMENT
??_C@_0M@EEAPMMNM@glPointSize@ DB 'glPointSize', 00H	; `string'
CONST	ENDS
;	COMDAT ??_C@_0M@CFLGNFPG@glLineWidth@
CONST	SEGMENT
??_C@_0M@CFLGNFPG@glLineWidth@ DB 'glLineWidth', 00H	; `string'
CONST	ENDS
;	COMDAT ??_C@_06HEADGMBC@glHint@
CONST	SEGMENT
??_C@_06HEADGMBC@glHint@ DB 'glHint', 00H		; `string'
CONST	ENDS
;	COMDAT ??_C@_0M@ILBMDJDA@glFrontFace@
CONST	SEGMENT
??_C@_0M@ILBMDJDA@glFrontFace@ DB 'glFrontFace', 00H	; `string'
CONST	ENDS
;	COMDAT ??_C@_0L@BAPBLHME@glCullFace@
CONST	SEGMENT
??_C@_0L@BAPBLHME@glCullFace@ DB 'glCullFace', 00H	; `string'
CONST	ENDS
;	COMDAT ??_C@_0BC@FFKMKEGM@wglGetProcAddress@
CONST	SEGMENT
??_C@_0BC@FFKMKEGM@wglGetProcAddress@ DB 'wglGetProcAddress', 00H ; `string'
CONST	ENDS
;	COMDAT ??_C@_1BK@LCODAJLO@?$AAo?$AAp?$AAe?$AAn?$AAg?$AAl?$AA3?$AA2?$AA?4?$AAd?$AAl?$AAl@
CONST	SEGMENT
??_C@_1BK@LCODAJLO@?$AAo?$AAp?$AAe?$AAn?$AAg?$AAl?$AA3?$AA2?$AA?4?$AAd?$AAl?$AAl@ DB 'o'
	DB	00H, 'p', 00H, 'e', 00H, 'n', 00H, 'g', 00H, 'l', 00H, '3', 00H
	DB	'2', 00H, '.', 00H, 'd', 00H, 'l', 00H, 'l', 00H, 00H, 00H ; `string'
CONST	ENDS
PUBLIC	gladLoadGLLoader
PUBLIC	sscanf_s
PUBLIC	vsscanf_s
PUBLIC	_vsscanf_s_l
PUBLIC	__local_stdio_scanf_options
PUBLIC	__xmm@80000000800000008000000080000000
EXTRN	__GSHandlerCheck:PROC
EXTRN	memcpy:PROC
EXTRN	__security_cookie:QWORD
EXTRN	_fltused:DWORD
max_loaded_major DD 01H DUP (?)
	ALIGN	8

gladGetProcAddressPtr DQ 01H DUP (?)
exts	DQ	01H DUP (?)
libGL	DQ	01H DUP (?)
num_exts_i DD	01H DUP (?)
	ALIGN	8

exts_i	DQ	01H DUP (?)
_BSS	ENDS
;	COMDAT pdata
pdata	SEGMENT
$pdata$gladLoadGLLoader DD imagerel $LN92
	DD	imagerel $LN92+3358
	DD	imagerel $unwind$gladLoadGLLoader
pdata	ENDS
;	COMDAT pdata
pdata	SEGMENT
$pdata$0$gladLoadGLLoader DD imagerel $LN92+3358
	DD	imagerel $LN92+3367
	DD	imagerel $chain$0$gladLoadGLLoader
pdata	ENDS
;	COMDAT pdata
pdata	SEGMENT
$pdata$1$gladLoadGLLoader DD imagerel $LN92+3367
	DD	imagerel $LN92+3412
	DD	imagerel $chain$1$gladLoadGLLoader
pdata	ENDS
;	COMDAT pdata
pdata	SEGMENT
$pdata$2$gladLoadGLLoader DD imagerel $LN92+3412
	DD	imagerel $LN92+3430
	DD	imagerel $chain$2$gladLoadGLLoader
pdata	ENDS
;	COMDAT pdata
pdata	SEGMENT
$pdata$3$gladLoadGLLoader DD imagerel $LN92+3430
	DD	imagerel $LN92+3467
	DD	imagerel $chain$3$gladLoadGLLoader
pdata	ENDS
;	COMDAT pdata
pdata	SEGMENT
$pdata$find_coreGL DD imagerel find_coreGL
	DD	imagerel find_coreGL+97
	DD	imagerel $unwind$find_coreGL
pdata	ENDS
;	COMDAT pdata
pdata	SEGMENT
$pdata$1$find_coreGL DD imagerel find_coreGL+97
	DD	imagerel find_coreGL+235
	DD	imagerel $chain$1$find_coreGL
pdata	ENDS
;	COMDAT pdata
pdata	SEGMENT
$pdata$2$find_coreGL DD imagerel find_coreGL+235
	DD	imagerel find_coreGL+1063
	DD	imagerel $chain$2$find_coreGL
pdata	ENDS
;	COMDAT pdata
pdata	SEGMENT
$pdata$find_extensionsGL DD imagerel find_extensionsGL
	DD	imagerel find_extensionsGL+30
	DD	imagerel $unwind$find_extensionsGL
pdata	ENDS
;	COMDAT pdata
pdata	SEGMENT
$pdata$0$find_extensionsGL DD imagerel find_extensionsGL+30
	DD	imagerel find_extensionsGL+45
	DD	imagerel $chain$0$find_extensionsGL
pdata	ENDS
;	COMDAT pdata
pdata	SEGMENT
$pdata$1$find_extensionsGL DD imagerel find_extensionsGL+45
	DD	imagerel find_extensionsGL+88
	DD	imagerel $chain$1$find_extensionsGL
pdata	ENDS
;	COMDAT pdata
pdata	SEGMENT
$pdata$2$find_extensionsGL DD imagerel find_extensionsGL+88
	DD	imagerel find_extensionsGL+110
	DD	imagerel $chain$2$find_extensionsGL
pdata	ENDS
;	COMDAT pdata
pdata	SEGMENT
$pdata$3$find_extensionsGL DD imagerel find_extensionsGL+110
	DD	imagerel find_extensionsGL+120
	DD	imagerel $chain$3$find_extensionsGL
pdata	ENDS
;	COMDAT pdata
pdata	SEGMENT
$pdata$load_GL_VERSION_4_6 DD imagerel load_GL_VERSION_4_6
	DD	imagerel load_GL_VERSION_4_6+70
	DD	imagerel $unwind$load_GL_VERSION_4_6
pdata	ENDS
;	COMDAT pdata
pdata	SEGMENT
$pdata$load_GL_VERSION_4_5 DD imagerel load_GL_VERSION_4_5
	DD	imagerel load_GL_VERSION_4_5+1490
	DD	imagerel $unwind$load_GL_VERSION_4_5
pdata	ENDS
;	COMDAT pdata
pdata	SEGMENT
$pdata$load_GL_VERSION_4_4 DD imagerel load_GL_VERSION_4_4
	DD	imagerel load_GL_VERSION_4_4+130
	DD	imagerel $unwind$load_GL_VERSION_4_4
pdata	ENDS
;	COMDAT pdata
pdata	SEGMENT
$pdata$load_GL_VERSION_4_3 DD imagerel load_GL_VERSION_4_3
	DD	imagerel load_GL_VERSION_4_3+554
	DD	imagerel $unwind$load_GL_VERSION_4_3
pdata	ENDS
;	COMDAT pdata
pdata	SEGMENT
$pdata$load_GL_VERSION_4_2 DD imagerel load_GL_VERSION_4_2
	DD	imagerel load_GL_VERSION_4_2+170
	DD	imagerel $unwind$load_GL_VERSION_4_2
pdata	ENDS
;	COMDAT pdata
pdata	SEGMENT
$pdata$load_GL_VERSION_4_1 DD imagerel load_GL_VERSION_4_1
	DD	imagerel load_GL_VERSION_4_1+1094
	DD	imagerel $unwind$load_GL_VERSION_4_1
pdata	ENDS
;	COMDAT pdata
pdata	SEGMENT
$pdata$load_GL_VERSION_4_0 DD imagerel load_GL_VERSION_4_0
	DD	imagerel load_GL_VERSION_4_0+578
	DD	imagerel $unwind$load_GL_VERSION_4_0
pdata	ENDS
;	COMDAT pdata
pdata	SEGMENT
$pdata$load_GL_VERSION_3_3 DD imagerel load_GL_VERSION_3_3
	DD	imagerel load_GL_VERSION_3_3+722
	DD	imagerel $unwind$load_GL_VERSION_3_3
pdata	ENDS
;	COMDAT pdata
pdata	SEGMENT
$pdata$load_GL_VERSION_3_2 DD imagerel load_GL_VERSION_3_2
	DD	imagerel load_GL_VERSION_3_2+254
	DD	imagerel $unwind$load_GL_VERSION_3_2
pdata	ENDS
;	COMDAT pdata
pdata	SEGMENT
$pdata$load_GL_VERSION_3_1 DD imagerel load_GL_VERSION_3_1
	DD	imagerel load_GL_VERSION_3_1+206
	DD	imagerel $unwind$load_GL_VERSION_3_1
pdata	ENDS
;	COMDAT pdata
pdata	SEGMENT
$pdata$load_GL_VERSION_3_0 DD imagerel load_GL_VERSION_3_0
	DD	imagerel load_GL_VERSION_3_0+1041
	DD	imagerel $unwind$load_GL_VERSION_3_0
pdata	ENDS
;	COMDAT pdata
pdata	SEGMENT
$pdata$load_GL_VERSION_2_1 DD imagerel load_GL_VERSION_2_1
	DD	imagerel load_GL_VERSION_2_1+94
	DD	imagerel $unwind$load_GL_VERSION_2_1
pdata	ENDS
;	COMDAT pdata
pdata	SEGMENT
$pdata$load_GL_VERSION_2_0 DD imagerel load_GL_VERSION_2_0
	DD	imagerel load_GL_VERSION_2_0+1142
	DD	imagerel $unwind$load_GL_VERSION_2_0
pdata	ENDS
;	COMDAT pdata
pdata	SEGMENT
$pdata$load_GL_VERSION_1_5 DD imagerel load_GL_VERSION_1_5
	DD	imagerel load_GL_VERSION_1_5+254
	DD	imagerel $unwind$load_GL_VERSION_1_5
pdata	ENDS
;	COMDAT pdata
pdata	SEGMENT
$pdata$load_GL_VERSION_1_4 DD imagerel load_GL_VERSION_1_4
	DD	imagerel load_GL_VERSION_1_4+130
	DD	imagerel $unwind$load_GL_VERSION_1_4
pdata	ENDS
;	COMDAT pdata
pdata	SEGMENT
$pdata$load_GL_VERSION_1_3 DD imagerel load_GL_VERSION_1_3
	DD	imagerel load_GL_VERSION_1_3+130
	DD	imagerel $unwind$load_GL_VERSION_1_3
pdata	ENDS
;	COMDAT pdata
pdata	SEGMENT
$pdata$load_GL_VERSION_1_2 DD imagerel load_GL_VERSION_1_2
	DD	imagerel load_GL_VERSION_1_2+70
	DD	imagerel $unwind$load_GL_VERSION_1_2
pdata	ENDS
;	COMDAT pdata
pdata	SEGMENT
$pdata$load_GL_VERSION_1_1 DD imagerel load_GL_VERSION_1_1
	DD	imagerel load_GL_VERSION_1_1+182
	DD	imagerel $unwind$load_GL_VERSION_1_1
pdata	ENDS
;	COMDAT pdata
pdata	SEGMENT
$pdata$load_GL_VERSION_1_0 DD imagerel load_GL_VERSION_1_0
	DD	imagerel load_GL_VERSION_1_0+616
	DD	imagerel $unwind$load_GL_VERSION_1_0
pdata	ENDS
;	COMDAT pdata
pdata	SEGMENT
$pdata$has_ext DD imagerel has_ext
	DD	imagerel has_ext+240
	DD	imagerel $unwind$has_ext
pdata	ENDS
;	COMDAT pdata
pdata	SEGMENT
$pdata$free_exts DD imagerel free_exts
	DD	imagerel free_exts+16
	DD	imagerel $unwind$free_exts
pdata	ENDS
;	COMDAT pdata
pdata	SEGMENT
$pdata$0$free_exts DD imagerel free_exts+16
	DD	imagerel free_exts+31
	DD	imagerel $chain$0$free_exts
pdata	ENDS
;	COMDAT pdata
pdata	SEGMENT
$pdata$1$free_exts DD imagerel free_exts+31
	DD	imagerel free_exts+74
	DD	imagerel $chain$1$free_exts
pdata	ENDS
;	COMDAT pdata
pdata	SEGMENT
$pdata$2$free_exts DD imagerel free_exts+74
	DD	imagerel free_exts+96
	DD	imagerel $chain$2$free_exts
pdata	ENDS
;	COMDAT pdata
pdata	SEGMENT
$pdata$3$free_exts DD imagerel free_exts+96
	DD	imagerel free_exts+101
	DD	imagerel $chain$3$free_exts
pdata	ENDS
;	COMDAT pdata
pdata	SEGMENT
$pdata$get_exts DD imagerel get_exts
	DD	imagerel get_exts+168
	DD	imagerel $unwind$get_exts
pdata	ENDS
;	COMDAT pdata
pdata	SEGMENT
$pdata$2$get_exts DD imagerel get_exts+168
	DD	imagerel get_exts+293
	DD	imagerel $chain$2$get_exts
pdata	ENDS
;	COMDAT pdata
pdata	SEGMENT
$pdata$3$get_exts DD imagerel get_exts+293
	DD	imagerel get_exts+310
	DD	imagerel $chain$3$get_exts
pdata	ENDS
;	COMDAT pdata
pdata	SEGMENT
$pdata$get_proc DD imagerel get_proc
	DD	imagerel get_proc+79
	DD	imagerel $unwind$get_proc
pdata	ENDS
;	COMDAT pdata
pdata	SEGMENT
$pdata$sscanf_s DD imagerel $LN8@sscanf_s
	DD	imagerel $LN8@sscanf_s+86
	DD	imagerel $unwind$sscanf_s
pdata	ENDS
;	COMDAT pdata
pdata	SEGMENT
$pdata$vsscanf_s DD imagerel $LN6@vsscanf_s
	DD	imagerel $LN6@vsscanf_s+85
	DD	imagerel $unwind$vsscanf_s
pdata	ENDS
;	COMDAT pdata
pdata	SEGMENT
$pdata$_vsscanf_s_l DD imagerel $LN4@vsscanf_s_
	DD	imagerel $LN4@vsscanf_s_+85
	DD	imagerel $unwind$_vsscanf_s_l
;	COMDAT __xmm@80000000800000008000000080000000
CONST	SEGMENT
__xmm@80000000800000008000000080000000 DB 00H, 00H, 00H, 080H, 00H, 00H, 00H
	DB	080H, 00H, 00H, 00H, 080H, 00H, 00H, 00H, 080H
CONST	ENDS
;	COMDAT xdata
xdata	SEGMENT
$unwind$_vsscanf_s_l DQ 00009640f00060f01r	; 1.30596e-308
	DQ	0700b520f0008340fr		; 5.30195e+231
xdata	ENDS
;	COMDAT xdata
xdata	SEGMENT
$unwind$vsscanf_s DQ 00009640f00060f01r		; 1.30596e-308
	DQ	0700b520f0008340fr		; 5.30195e+231
xdata	ENDS
;	COMDAT xdata
xdata	SEGMENT
$unwind$sscanf_s DQ 07012521600041601r		; 7.11078e+231
	DD	030106011H
xdata	ENDS
;	COMDAT xdata
xdata	SEGMENT
$unwind$get_proc DQ 03002320600020601r		; 1.96423e-77
xdata	ENDS
;	COMDAT xdata
xdata	SEGMENT
$chain$3$get_exts DD 021H
	DD	imagerel get_exts
	DD	imagerel get_exts+168
	DD	imagerel $unwind$get_exts
xdata	ENDS
;	COMDAT xdata
xdata	SEGMENT
$chain$2$get_exts DQ 00008740f00060f21r		; 1.17558e-308
	DQ	0000654050007640ar		; 8.80045e-309
	DD	imagerel get_exts
	DD	imagerel get_exts+168
	DD	imagerel $unwind$get_exts
xdata	ENDS
;	COMDAT xdata
xdata	SEGMENT
$unwind$get_exts DQ 00009340b00040b01r		; 1.27988e-308
	DD	0e007320bH
xdata	ENDS
;	COMDAT xdata
xdata	SEGMENT
$chain$3$free_exts DD 021H
	DD	imagerel free_exts
	DD	imagerel free_exts+16
	DD	imagerel $unwind$free_exts
xdata	ENDS
;	COMDAT xdata
xdata	SEGMENT
$chain$2$free_exts DD 021H
	DD	imagerel free_exts+16
	DD	imagerel free_exts+31
	DD	imagerel $chain$0$free_exts
xdata	ENDS
;	COMDAT xdata
xdata	SEGMENT
$chain$1$free_exts DQ 00004740500020521r	; 6.19294e-309
	DD	imagerel free_exts+16
	DD	imagerel free_exts+31
	DD	imagerel $chain$0$free_exts
xdata	ENDS
;	COMDAT xdata
xdata	SEGMENT
$chain$0$free_exts DQ 00006340500020521r	; 8.62661e-309
	DD	imagerel free_exts
	DD	imagerel free_exts+16
	DD	imagerel $unwind$free_exts
xdata	ENDS
;	COMDAT xdata
xdata	SEGMENT
$unwind$free_exts DQ 00000420400010401r		; 3.58617e-310
xdata	ENDS
;	COMDAT xdata
xdata	SEGMENT
$unwind$has_ext DQ 00006340a00040a01r		; 8.62672e-309
	DD	07006320aH
xdata	ENDS
;	COMDAT xdata
xdata	SEGMENT
$unwind$load_GL_VERSION_1_0 DQ 00000420400010401r ; 3.58617e-310
xdata	ENDS
;	COMDAT xdata
xdata	SEGMENT
$unwind$load_GL_VERSION_1_1 DQ 00000420400010401r ; 3.58617e-310
xdata	ENDS
;	COMDAT xdata
xdata	SEGMENT
$unwind$load_GL_VERSION_1_2 DQ 00000420400010401r ; 3.58617e-310
xdata	ENDS
;	COMDAT xdata
xdata	SEGMENT
$unwind$load_GL_VERSION_1_3 DQ 00000420400010401r ; 3.58617e-310
xdata	ENDS
;	COMDAT xdata
xdata	SEGMENT
$unwind$load_GL_VERSION_1_4 DQ 00000420400010401r ; 3.58617e-310
xdata	ENDS
;	COMDAT xdata
xdata	SEGMENT
$unwind$load_GL_VERSION_1_5 DQ 00000420400010401r ; 3.58617e-310
xdata	ENDS
;	COMDAT xdata
xdata	SEGMENT
$unwind$load_GL_VERSION_2_0 DQ 00000420400010401r ; 3.58617e-310
xdata	ENDS
;	COMDAT xdata
xdata	SEGMENT
$unwind$load_GL_VERSION_2_1 DQ 00000420400010401r ; 3.58617e-310
xdata	ENDS
;	COMDAT xdata
xdata	SEGMENT
$unwind$load_GL_VERSION_3_0 DQ 00000420400010401r ; 3.58617e-310
xdata	ENDS
;	COMDAT xdata
xdata	SEGMENT
$unwind$load_GL_VERSION_3_1 DQ 00000420400010401r ; 3.58617e-310
xdata	ENDS
;	COMDAT xdata
xdata	SEGMENT
$unwind$load_GL_VERSION_3_2 DQ 00000420400010401r ; 3.58617e-310
xdata	ENDS
;	COMDAT xdata
xdata	SEGMENT
$unwind$load_GL_VERSION_3_3 DQ 00000420400010401r ; 3.58617e-310
xdata	ENDS
;	COMDAT xdata
xdata	SEGMENT
$unwind$load_GL_VERSION_4_0 DQ 00000420400010401r ; 3.58617e-310
xdata	ENDS
;	COMDAT xdata
xdata	SEGMENT
$unwind$load_GL_VERSION_4_1 DQ 00000420400010401r ; 3.58617e-310
xdata	ENDS
;	COMDAT xdata
xdata	SEGMENT
$unwind$load_GL_VERSION_4_2 DQ 00000420400010401r ; 3.58617e-310
xdata	ENDS
;	COMDAT xdata
xdata	SEGMENT
$unwind$load_GL_VERSION_4_3 DQ 00000420400010401r ; 3.58617e-310
xdata	ENDS
;	COMDAT xdata
xdata	SEGMENT
$unwind$load_GL_VERSION_4_4 DQ 00000420400010401r ; 3.58617e-310
xdata	ENDS
;	COMDAT xdata
xdata	SEGMENT
$unwind$load_GL_VERSION_4_5 DD 010401H
	DD	04204H
xdata	ENDS
;	COMDAT xdata
xdata	SEGMENT
$unwind$load_GL_VERSION_4_6 DD 010401H
	DD	04204H
xdata	ENDS
;	COMDAT xdata
xdata	SEGMENT
$chain$3$find_extensionsGL DD 021H
	DD	imagerel find_extensionsGL
	DD	imagerel find_extensionsGL+30
	DD	imagerel $unwind$find_extensionsGL
xdata	ENDS
;	COMDAT xdata
xdata	SEGMENT
$chain$2$find_extensionsGL DD 021H
	DD	imagerel find_extensionsGL+30
	DD	imagerel find_extensionsGL+45
	DD	imagerel $chain$0$find_extensionsGL
xdata	ENDS
;	COMDAT xdata
xdata	SEGMENT
$chain$1$find_extensionsGL DQ 00004740500020521r ; 6.19294e-309
	DD	imagerel find_extensionsGL+30
	DD	imagerel find_extensionsGL+45
	DD	imagerel $chain$0$find_extensionsGL
xdata	ENDS
;	COMDAT xdata
xdata	SEGMENT
$chain$0$find_extensionsGL DQ 00006340500020521r ; 8.62661e-309
	DD	imagerel find_extensionsGL
	DD	imagerel find_extensionsGL+30
	DD	imagerel $unwind$find_extensionsGL
xdata	ENDS
;	COMDAT xdata
xdata	SEGMENT
$unwind$find_extensionsGL DQ 00000420400010401r	; 3.58617e-310
xdata	ENDS
;	COMDAT xdata
xdata	SEGMENT
$chain$2$find_coreGL DD 021H
	DD	imagerel find_coreGL
	DD	imagerel find_coreGL+97
	DD	imagerel $unwind$find_coreGL
xdata	ENDS
;	COMDAT xdata
xdata	SEGMENT
$chain$1$find_coreGL DQ 0000d540a00040a21r	; 1.85353e-308
	DD	0c3405H
	DD	imagerel find_coreGL
	DD	imagerel find_coreGL+97
	DD	imagerel $unwind$find_coreGL
xdata	ENDS
;	COMDAT xdata
xdata	SEGMENT
$unwind$find_coreGL DQ 0000f741000061f19r	; 2.14906e-308
	DQ	0e00c9210000e6410r		; -4.78836e+154
	DD	imagerel __GSHandlerCheck
	DD	048H
xdata	ENDS
;	COMDAT xdata
xdata	SEGMENT
$chain$3$gladLoadGLLoader DD 021H
	DD	imagerel $LN92
	DD	imagerel $LN92+3358
	DD	imagerel $unwind$gladLoadGLLoader
xdata	ENDS
;	COMDAT xdata
xdata	SEGMENT
$chain$2$gladLoadGLLoader DD 021H
	DD	imagerel $LN92+3358
	DD	imagerel $LN92+3367
	DD	imagerel $chain$0$gladLoadGLLoader
xdata	ENDS
;	COMDAT xdata
xdata	SEGMENT
$chain$1$gladLoadGLLoader DD 020521H
	DD	077405H
	DD	imagerel $LN92+3358
	DD	imagerel $LN92+3367
	DD	imagerel $chain$0$gladLoadGLLoader
xdata	ENDS
;	COMDAT xdata
xdata	SEGMENT
$chain$0$gladLoadGLLoader DD 020521H
	DD	063405H
	DD	imagerel $LN92
	DD	imagerel $LN92+3358
	DD	imagerel $unwind$gladLoadGLLoader
xdata	ENDS
;	COMDAT xdata
xdata	SEGMENT
$unwind$gladLoadGLLoader DD 020601H
	DD	060023206H
xdata	ENDS
; Function compile flags: /Ogtpy
; File D:\Programmer\GLenv\glad.c
;	COMDAT load_GL_VERSION_4_5
_TEXT	SEGMENT
load$dead$ = 48
load_GL_VERSION_4_5 PROC				; COMDAT

; 1696 : static void load_GL_VERSION_4_5(GLADloadproc load) {

  00000	48 83 ec 28	 sub	 rsp, 40			; 00000028H

; 1697 :     if (!GLAD_GL_VERSION_4_5) return;

  00004	83 3d 00 00 00
	00 00		 cmp	 DWORD PTR GLAD_GL_VERSION_4_5, 0
  0000b	0f 84 bc 05 00
	00		 je	 $LN1@load_GL_VE

; 1698 :     glad_glClipControl = (PFNGLCLIPCONTROLPROC)load("glClipControl");

  00011	48 8d 0d 00 00
	00 00		 lea	 rcx, OFFSET FLAT:??_C@_0O@DMMKFMGC@glClipControl@
  00018	e8 00 00 00 00	 call	 glfwGetProcAddress

; 1699 :     glad_glCreateTransformFeedbacks = (PFNGLCREATETRANSFORMFEEDBACKSPROC)load("glCreateTransformFeedbacks");

  0001d	48 8d 0d 00 00
	00 00		 lea	 rcx, OFFSET FLAT:??_C@_0BL@HPCMJLAK@glCreateTransformFeedbacks@
  00024	e8 00 00 00 00	 call	 glfwGetProcAddress

; 1700 :     glad_glTransformFeedbackBufferBase = (PFNGLTRANSFORMFEEDBACKBUFFERBASEPROC)load("glTransformFeedbackBufferBase");

  00029	48 8d 0d 00 00
	00 00		 lea	 rcx, OFFSET FLAT:??_C@_0BO@EGLKNJFA@glTransformFeedbackBufferBase@
  00030	e8 00 00 00 00	 call	 glfwGetProcAddress

; 1701 :     glad_glTransformFeedbackBufferRange = (PFNGLTRANSFORMFEEDBACKBUFFERRANGEPROC)load("glTransformFeedbackBufferRange");

  00035	48 8d 0d 00 00
	00 00		 lea	 rcx, OFFSET FLAT:??_C@_0BP@NBIGCNHI@glTransformFeedbackBufferRange@
  0003c	e8 00 00 00 00	 call	 glfwGetProcAddress

; 1702 :     glad_glGetTransformFeedbackiv = (PFNGLGETTRANSFORMFEEDBACKIVPROC)load("glGetTransformFeedbackiv");

  00041	48 8d 0d 00 00
	00 00		 lea	 rcx, OFFSET FLAT:??_C@_0BJ@OFMLPMDO@glGetTransformFeedbackiv@
  00048	e8 00 00 00 00	 call	 glfwGetProcAddress

; 1703 :     glad_glGetTransformFeedbacki_v = (PFNGLGETTRANSFORMFEEDBACKI_VPROC)load("glGetTransformFeedbacki_v");

  0004d	48 8d 0d 00 00
	00 00		 lea	 rcx, OFFSET FLAT:??_C@_0BK@IPHNHFEI@glGetTransformFeedbacki_v@
  00054	e8 00 00 00 00	 call	 glfwGetProcAddress

; 1704 :     glad_glGetTransformFeedbacki64_v = (PFNGLGETTRANSFORMFEEDBACKI64_VPROC)load("glGetTransformFeedbacki64_v");

  00059	48 8d 0d 00 00
	00 00		 lea	 rcx, OFFSET FLAT:??_C@_0BM@KDHFPNLE@glGetTransformFeedbacki64_v@
  00060	e8 00 00 00 00	 call	 glfwGetProcAddress

; 1705 :     glad_glCreateBuffers = (PFNGLCREATEBUFFERSPROC)load("glCreateBuffers");

  00065	48 8d 0d 00 00
	00 00		 lea	 rcx, OFFSET FLAT:??_C@_0BA@LNBCEANP@glCreateBuffers@
  0006c	e8 00 00 00 00	 call	 glfwGetProcAddress

; 1706 :     glad_glNamedBufferStorage = (PFNGLNAMEDBUFFERSTORAGEPROC)load("glNamedBufferStorage");

  00071	48 8d 0d 00 00
	00 00		 lea	 rcx, OFFSET FLAT:??_C@_0BF@INMFIINC@glNamedBufferStorage@
  00078	e8 00 00 00 00	 call	 glfwGetProcAddress

; 1707 :     glad_glNamedBufferData = (PFNGLNAMEDBUFFERDATAPROC)load("glNamedBufferData");

  0007d	48 8d 0d 00 00
	00 00		 lea	 rcx, OFFSET FLAT:??_C@_0BC@LHEABGCG@glNamedBufferData@
  00084	e8 00 00 00 00	 call	 glfwGetProcAddress

; 1708 :     glad_glNamedBufferSubData = (PFNGLNAMEDBUFFERSUBDATAPROC)load("glNamedBufferSubData");

  00089	48 8d 0d 00 00
	00 00		 lea	 rcx, OFFSET FLAT:??_C@_0BF@MDEBAFLD@glNamedBufferSubData@
  00090	e8 00 00 00 00	 call	 glfwGetProcAddress

; 1709 :     glad_glCopyNamedBufferSubData = (PFNGLCOPYNAMEDBUFFERSUBDATAPROC)load("glCopyNamedBufferSubData");

  00095	48 8d 0d 00 00
	00 00		 lea	 rcx, OFFSET FLAT:??_C@_0BJ@MJPDCHND@glCopyNamedBufferSubData@
  0009c	e8 00 00 00 00	 call	 glfwGetProcAddress

; 1710 :     glad_glClearNamedBufferData = (PFNGLCLEARNAMEDBUFFERDATAPROC)load("glClearNamedBufferData");

  000a1	48 8d 0d 00 00
	00 00		 lea	 rcx, OFFSET FLAT:??_C@_0BH@KJMLMCB@glClearNamedBufferData@
  000a8	e8 00 00 00 00	 call	 glfwGetProcAddress

; 1711 :     glad_glClearNamedBufferSubData = (PFNGLCLEARNAMEDBUFFERSUBDATAPROC)load("glClearNamedBufferSubData");

  000ad	48 8d 0d 00 00
	00 00		 lea	 rcx, OFFSET FLAT:??_C@_0BK@BNIDNJBH@glClearNamedBufferSubData@
  000b4	e8 00 00 00 00	 call	 glfwGetProcAddress

; 1712 :     glad_glMapNamedBuffer = (PFNGLMAPNAMEDBUFFERPROC)load("glMapNamedBuffer");

  000b9	48 8d 0d 00 00
	00 00		 lea	 rcx, OFFSET FLAT:??_C@_0BB@JLMCGIDB@glMapNamedBuffer@
  000c0	e8 00 00 00 00	 call	 glfwGetProcAddress

; 1713 :     glad_glMapNamedBufferRange = (PFNGLMAPNAMEDBUFFERRANGEPROC)load("glMapNamedBufferRange");

  000c5	48 8d 0d 00 00
	00 00		 lea	 rcx, OFFSET FLAT:??_C@_0BG@JLCGKFD@glMapNamedBufferRange@
  000cc	e8 00 00 00 00	 call	 glfwGetProcAddress

; 1714 :     glad_glUnmapNamedBuffer = (PFNGLUNMAPNAMEDBUFFERPROC)load("glUnmapNamedBuffer");

  000d1	48 8d 0d 00 00
	00 00		 lea	 rcx, OFFSET FLAT:??_C@_0BD@LAAONAHD@glUnmapNamedBuffer@
  000d8	e8 00 00 00 00	 call	 glfwGetProcAddress

; 1715 :     glad_glFlushMappedNamedBufferRange = (PFNGLFLUSHMAPPEDNAMEDBUFFERRANGEPROC)load("glFlushMappedNamedBufferRange");

  000dd	48 8d 0d 00 00
	00 00		 lea	 rcx, OFFSET FLAT:??_C@_0BO@DBGNKBKH@glFlushMappedNamedBufferRange@
  000e4	e8 00 00 00 00	 call	 glfwGetProcAddress

; 1716 :     glad_glGetNamedBufferParameteriv = (PFNGLGETNAMEDBUFFERPARAMETERIVPROC)load("glGetNamedBufferParameteriv");

  000e9	48 8d 0d 00 00
	00 00		 lea	 rcx, OFFSET FLAT:??_C@_0BM@KFAGBFPK@glGetNamedBufferParameteriv@
  000f0	e8 00 00 00 00	 call	 glfwGetProcAddress

; 1717 :     glad_glGetNamedBufferParameteri64v = (PFNGLGETNAMEDBUFFERPARAMETERI64VPROC)load("glGetNamedBufferParameteri64v");

  000f5	48 8d 0d 00 00
	00 00		 lea	 rcx, OFFSET FLAT:??_C@_0BO@ECJNIDNL@glGetNamedBufferParameteri64v@
  000fc	e8 00 00 00 00	 call	 glfwGetProcAddress

; 1718 :     glad_glGetNamedBufferPointerv = (PFNGLGETNAMEDBUFFERPOINTERVPROC)load("glGetNamedBufferPointerv");

  00101	48 8d 0d 00 00
	00 00		 lea	 rcx, OFFSET FLAT:??_C@_0BJ@NBEMEIKG@glGetNamedBufferPointerv@
  00108	e8 00 00 00 00	 call	 glfwGetProcAddress

; 1719 :     glad_glGetNamedBufferSubData = (PFNGLGETNAMEDBUFFERSUBDATAPROC)load("glGetNamedBufferSubData");

  0010d	48 8d 0d 00 00
	00 00		 lea	 rcx, OFFSET FLAT:??_C@_0BI@PJBCKPNA@glGetNamedBufferSubData@
  00114	e8 00 00 00 00	 call	 glfwGetProcAddress

; 1720 :     glad_glCreateFramebuffers = (PFNGLCREATEFRAMEBUFFERSPROC)load("glCreateFramebuffers");

  00119	48 8d 0d 00 00
	00 00		 lea	 rcx, OFFSET FLAT:??_C@_0BF@DDKJIBLC@glCreateFramebuffers@
  00120	e8 00 00 00 00	 call	 glfwGetProcAddress

; 1721 :     glad_glNamedFramebufferRenderbuffer = (PFNGLNAMEDFRAMEBUFFERRENDERBUFFERPROC)load("glNamedFramebufferRenderbuffer");

  00125	48 8d 0d 00 00
	00 00		 lea	 rcx, OFFSET FLAT:??_C@_0BP@MGCPNBGC@glNamedFramebufferRenderbuffer@
  0012c	e8 00 00 00 00	 call	 glfwGetProcAddress

; 1722 :     glad_glNamedFramebufferParameteri = (PFNGLNAMEDFRAMEBUFFERPARAMETERIPROC)load("glNamedFramebufferParameteri");

  00131	48 8d 0d 00 00
	00 00		 lea	 rcx, OFFSET FLAT:??_C@_0BN@LBMOOIHC@glNamedFramebufferParameteri@
  00138	e8 00 00 00 00	 call	 glfwGetProcAddress

; 1723 :     glad_glNamedFramebufferTexture = (PFNGLNAMEDFRAMEBUFFERTEXTUREPROC)load("glNamedFramebufferTexture");

  0013d	48 8d 0d 00 00
	00 00		 lea	 rcx, OFFSET FLAT:??_C@_0BK@PNJJLPPI@glNamedFramebufferTexture@
  00144	e8 00 00 00 00	 call	 glfwGetProcAddress

; 1724 :     glad_glNamedFramebufferTextureLayer = (PFNGLNAMEDFRAMEBUFFERTEXTURELAYERPROC)load("glNamedFramebufferTextureLayer");

  00149	48 8d 0d 00 00
	00 00		 lea	 rcx, OFFSET FLAT:??_C@_0BP@PHGPDAJM@glNamedFramebufferTextureLayer@
  00150	e8 00 00 00 00	 call	 glfwGetProcAddress

; 1725 :     glad_glNamedFramebufferDrawBuffer = (PFNGLNAMEDFRAMEBUFFERDRAWBUFFERPROC)load("glNamedFramebufferDrawBuffer");

  00155	48 8d 0d 00 00
	00 00		 lea	 rcx, OFFSET FLAT:??_C@_0BN@MOAIHNEF@glNamedFramebufferDrawBuffer@
  0015c	e8 00 00 00 00	 call	 glfwGetProcAddress

; 1726 :     glad_glNamedFramebufferDrawBuffers = (PFNGLNAMEDFRAMEBUFFERDRAWBUFFERSPROC)load("glNamedFramebufferDrawBuffers");

  00161	48 8d 0d 00 00
	00 00		 lea	 rcx, OFFSET FLAT:??_C@_0BO@CGKJHFH@glNamedFramebufferDrawBuffers@
  00168	e8 00 00 00 00	 call	 glfwGetProcAddress

; 1727 :     glad_glNamedFramebufferReadBuffer = (PFNGLNAMEDFRAMEBUFFERREADBUFFERPROC)load("glNamedFramebufferReadBuffer");

  0016d	48 8d 0d 00 00
	00 00		 lea	 rcx, OFFSET FLAT:??_C@_0BN@LPANNPJE@glNamedFramebufferReadBuffer@
  00174	e8 00 00 00 00	 call	 glfwGetProcAddress

; 1728 :     glad_glInvalidateNamedFramebufferData = (PFNGLINVALIDATENAMEDFRAMEBUFFERDATAPROC)load("glInvalidateNamedFramebufferData");

  00179	48 8d 0d 00 00
	00 00		 lea	 rcx, OFFSET FLAT:??_C@_0CB@OGGNKJIL@glInvalidateNamedFramebufferDat@
  00180	e8 00 00 00 00	 call	 glfwGetProcAddress

; 1729 :     glad_glInvalidateNamedFramebufferSubData = (PFNGLINVALIDATENAMEDFRAMEBUFFERSUBDATAPROC)load("glInvalidateNamedFramebufferSubData");

  00185	48 8d 0d 00 00
	00 00		 lea	 rcx, OFFSET FLAT:??_C@_0CE@DEGDCFND@glInvalidateNamedFramebufferSub@
  0018c	e8 00 00 00 00	 call	 glfwGetProcAddress

; 1730 :     glad_glClearNamedFramebufferiv = (PFNGLCLEARNAMEDFRAMEBUFFERIVPROC)load("glClearNamedFramebufferiv");

  00191	48 8d 0d 00 00
	00 00		 lea	 rcx, OFFSET FLAT:??_C@_0BK@NPOLJJAK@glClearNamedFramebufferiv@
  00198	e8 00 00 00 00	 call	 glfwGetProcAddress

; 1731 :     glad_glClearNamedFramebufferuiv = (PFNGLCLEARNAMEDFRAMEBUFFERUIVPROC)load("glClearNamedFramebufferuiv");

  0019d	48 8d 0d 00 00
	00 00		 lea	 rcx, OFFSET FLAT:??_C@_0BL@JENKNAJN@glClearNamedFramebufferuiv@
  001a4	e8 00 00 00 00	 call	 glfwGetProcAddress

; 1732 :     glad_glClearNamedFramebufferfv = (PFNGLCLEARNAMEDFRAMEBUFFERFVPROC)load("glClearNamedFramebufferfv");

  001a9	48 8d 0d 00 00
	00 00		 lea	 rcx, OFFSET FLAT:??_C@_0BK@NELHNODH@glClearNamedFramebufferfv@
  001b0	e8 00 00 00 00	 call	 glfwGetProcAddress

; 1733 :     glad_glClearNamedFramebufferfi = (PFNGLCLEARNAMEDFRAMEBUFFERFIPROC)load("glClearNamedFramebufferfi");

  001b5	48 8d 0d 00 00
	00 00		 lea	 rcx, OFFSET FLAT:??_C@_0BK@BJONNAKJ@glClearNamedFramebufferfi@
  001bc	e8 00 00 00 00	 call	 glfwGetProcAddress

; 1734 :     glad_glBlitNamedFramebuffer = (PFNGLBLITNAMEDFRAMEBUFFERPROC)load("glBlitNamedFramebuffer");

  001c1	48 8d 0d 00 00
	00 00		 lea	 rcx, OFFSET FLAT:??_C@_0BH@FNFDNHAI@glBlitNamedFramebuffer@
  001c8	e8 00 00 00 00	 call	 glfwGetProcAddress

; 1735 :     glad_glCheckNamedFramebufferStatus = (PFNGLCHECKNAMEDFRAMEBUFFERSTATUSPROC)load("glCheckNamedFramebufferStatus");

  001cd	48 8d 0d 00 00
	00 00		 lea	 rcx, OFFSET FLAT:??_C@_0BO@LMABFPGK@glCheckNamedFramebufferStatus@
  001d4	e8 00 00 00 00	 call	 glfwGetProcAddress

; 1736 :     glad_glGetNamedFramebufferParameteriv = (PFNGLGETNAMEDFRAMEBUFFERPARAMETERIVPROC)load("glGetNamedFramebufferParameteriv");

  001d9	48 8d 0d 00 00
	00 00		 lea	 rcx, OFFSET FLAT:??_C@_0CB@COGAJBEM@glGetNamedFramebufferParameteri@
  001e0	e8 00 00 00 00	 call	 glfwGetProcAddress

; 1737 :     glad_glGetNamedFramebufferAttachmentParameteriv = (PFNGLGETNAMEDFRAMEBUFFERATTACHMENTPARAMETERIVPROC)load("glGetNamedFramebufferAttachmentParameteriv");

  001e5	48 8d 0d 00 00
	00 00		 lea	 rcx, OFFSET FLAT:??_C@_0CL@BGDPEPCC@glGetNamedFramebufferAttachment@
  001ec	e8 00 00 00 00	 call	 glfwGetProcAddress

; 1738 :     glad_glCreateRenderbuffers = (PFNGLCREATERENDERBUFFERSPROC)load("glCreateRenderbuffers");

  001f1	48 8d 0d 00 00
	00 00		 lea	 rcx, OFFSET FLAT:??_C@_0BG@JJNJGAME@glCreateRenderbuffers@
  001f8	e8 00 00 00 00	 call	 glfwGetProcAddress

; 1739 :     glad_glNamedRenderbufferStorage = (PFNGLNAMEDRENDERBUFFERSTORAGEPROC)load("glNamedRenderbufferStorage");

  001fd	48 8d 0d 00 00
	00 00		 lea	 rcx, OFFSET FLAT:??_C@_0BL@DGDPFKGM@glNamedRenderbufferStorage@
  00204	e8 00 00 00 00	 call	 glfwGetProcAddress

; 1740 :     glad_glNamedRenderbufferStorageMultisample = (PFNGLNAMEDRENDERBUFFERSTORAGEMULTISAMPLEPROC)load("glNamedRenderbufferStorageMultisample");

  00209	48 8d 0d 00 00
	00 00		 lea	 rcx, OFFSET FLAT:??_C@_0CG@IDKJGKBA@glNamedRenderbufferStorageMulti@
  00210	e8 00 00 00 00	 call	 glfwGetProcAddress

; 1741 :     glad_glGetNamedRenderbufferParameteriv = (PFNGLGETNAMEDRENDERBUFFERPARAMETERIVPROC)load("glGetNamedRenderbufferParameteriv");

  00215	48 8d 0d 00 00
	00 00		 lea	 rcx, OFFSET FLAT:??_C@_0CC@FCEAEAHI@glGetNamedRenderbufferParameter@
  0021c	e8 00 00 00 00	 call	 glfwGetProcAddress

; 1742 :     glad_glCreateTextures = (PFNGLCREATETEXTURESPROC)load("glCreateTextures");

  00221	48 8d 0d 00 00
	00 00		 lea	 rcx, OFFSET FLAT:??_C@_0BB@LABGPBKD@glCreateTextures@
  00228	e8 00 00 00 00	 call	 glfwGetProcAddress

; 1743 :     glad_glTextureBuffer = (PFNGLTEXTUREBUFFERPROC)load("glTextureBuffer");

  0022d	48 8d 0d 00 00
	00 00		 lea	 rcx, OFFSET FLAT:??_C@_0BA@BEJOBNBA@glTextureBuffer@
  00234	e8 00 00 00 00	 call	 glfwGetProcAddress

; 1744 :     glad_glTextureBufferRange = (PFNGLTEXTUREBUFFERRANGEPROC)load("glTextureBufferRange");

  00239	48 8d 0d 00 00
	00 00		 lea	 rcx, OFFSET FLAT:??_C@_0BF@HAEPGPBJ@glTextureBufferRange@
  00240	e8 00 00 00 00	 call	 glfwGetProcAddress

; 1745 :     glad_glTextureStorage1D = (PFNGLTEXTURESTORAGE1DPROC)load("glTextureStorage1D");

  00245	48 8d 0d 00 00
	00 00		 lea	 rcx, OFFSET FLAT:??_C@_0BD@CJOBHECL@glTextureStorage1D@
  0024c	e8 00 00 00 00	 call	 glfwGetProcAddress

; 1746 :     glad_glTextureStorage2D = (PFNGLTEXTURESTORAGE2DPROC)load("glTextureStorage2D");

  00251	48 8d 0d 00 00
	00 00		 lea	 rcx, OFFSET FLAT:??_C@_0BD@CLKHMKHC@glTextureStorage2D@
  00258	e8 00 00 00 00	 call	 glfwGetProcAddress

; 1747 :     glad_glTextureStorage3D = (PFNGLTEXTURESTORAGE3DPROC)load("glTextureStorage3D");

  0025d	48 8d 0d 00 00
	00 00		 lea	 rcx, OFFSET FLAT:??_C@_0BD@CKGFKAEF@glTextureStorage3D@
  00264	e8 00 00 00 00	 call	 glfwGetProcAddress

; 1748 :     glad_glTextureStorage2DMultisample = (PFNGLTEXTURESTORAGE2DMULTISAMPLEPROC)load("glTextureStorage2DMultisample");

  00269	48 8d 0d 00 00
	00 00		 lea	 rcx, OFFSET FLAT:??_C@_0BO@CIHBMJOI@glTextureStorage2DMultisample@
  00270	e8 00 00 00 00	 call	 glfwGetProcAddress

; 1749 :     glad_glTextureStorage3DMultisample = (PFNGLTEXTURESTORAGE3DMULTISAMPLEPROC)load("glTextureStorage3DMultisample");

  00275	48 8d 0d 00 00
	00 00		 lea	 rcx, OFFSET FLAT:??_C@_0BO@LFHOCIJO@glTextureStorage3DMultisample@
  0027c	e8 00 00 00 00	 call	 glfwGetProcAddress

; 1750 :     glad_glTextureSubImage1D = (PFNGLTEXTURESUBIMAGE1DPROC)load("glTextureSubImage1D");

  00281	48 8d 0d 00 00
	00 00		 lea	 rcx, OFFSET FLAT:??_C@_0BE@IDMGLJDA@glTextureSubImage1D@
  00288	e8 00 00 00 00	 call	 glfwGetProcAddress

; 1751 :     glad_glTextureSubImage2D = (PFNGLTEXTURESUBIMAGE2DPROC)load("glTextureSubImage2D");

  0028d	48 8d 0d 00 00
	00 00		 lea	 rcx, OFFSET FLAT:??_C@_0BE@IBIAAHGJ@glTextureSubImage2D@
  00294	e8 00 00 00 00	 call	 glfwGetProcAddress

; 1752 :     glad_glTextureSubImage3D = (PFNGLTEXTURESUBIMAGE3DPROC)load("glTextureSubImage3D");

  00299	48 8d 0d 00 00
	00 00		 lea	 rcx, OFFSET FLAT:??_C@_0BE@IAECGNFO@glTextureSubImage3D@
  002a0	e8 00 00 00 00	 call	 glfwGetProcAddress

; 1753 :     glad_glCompressedTextureSubImage1D = (PFNGLCOMPRESSEDTEXTURESUBIMAGE1DPROC)load("glCompressedTextureSubImage1D");

  002a5	48 8d 0d 00 00
	00 00		 lea	 rcx, OFFSET FLAT:??_C@_0BO@NIHAIHFC@glCompressedTextureSubImage1D@
  002ac	e8 00 00 00 00	 call	 glfwGetProcAddress

; 1754 :     glad_glCompressedTextureSubImage2D = (PFNGLCOMPRESSEDTEXTURESUBIMAGE2DPROC)load("glCompressedTextureSubImage2D");

  002b1	48 8d 0d 00 00
	00 00		 lea	 rcx, OFFSET FLAT:??_C@_0BO@NKDGDJAL@glCompressedTextureSubImage2D@
  002b8	e8 00 00 00 00	 call	 glfwGetProcAddress

; 1755 :     glad_glCompressedTextureSubImage3D = (PFNGLCOMPRESSEDTEXTURESUBIMAGE3DPROC)load("glCompressedTextureSubImage3D");

  002bd	48 8d 0d 00 00
	00 00		 lea	 rcx, OFFSET FLAT:??_C@_0BO@NLPEFDDM@glCompressedTextureSubImage3D@
  002c4	e8 00 00 00 00	 call	 glfwGetProcAddress

; 1756 :     glad_glCopyTextureSubImage1D = (PFNGLCOPYTEXTURESUBIMAGE1DPROC)load("glCopyTextureSubImage1D");

  002c9	48 8d 0d 00 00
	00 00		 lea	 rcx, OFFSET FLAT:??_C@_0BI@DBEKPOLO@glCopyTextureSubImage1D@
  002d0	e8 00 00 00 00	 call	 glfwGetProcAddress

; 1757 :     glad_glCopyTextureSubImage2D = (PFNGLCOPYTEXTURESUBIMAGE2DPROC)load("glCopyTextureSubImage2D");

  002d5	48 8d 0d 00 00
	00 00		 lea	 rcx, OFFSET FLAT:??_C@_0BI@DDAMEAOH@glCopyTextureSubImage2D@
  002dc	e8 00 00 00 00	 call	 glfwGetProcAddress

; 1758 :     glad_glCopyTextureSubImage3D = (PFNGLCOPYTEXTURESUBIMAGE3DPROC)load("glCopyTextureSubImage3D");

  002e1	48 8d 0d 00 00
	00 00		 lea	 rcx, OFFSET FLAT:??_C@_0BI@DCMOCKNA@glCopyTextureSubImage3D@
  002e8	e8 00 00 00 00	 call	 glfwGetProcAddress

; 1759 :     glad_glTextureParameterf = (PFNGLTEXTUREPARAMETERFPROC)load("glTextureParameterf");

  002ed	48 8d 0d 00 00
	00 00		 lea	 rcx, OFFSET FLAT:??_C@_0BE@NLINBPMM@glTextureParameterf@
  002f4	e8 00 00 00 00	 call	 glfwGetProcAddress

; 1760 :     glad_glTextureParameterfv = (PFNGLTEXTUREPARAMETERFVPROC)load("glTextureParameterfv");

  002f9	48 8d 0d 00 00
	00 00		 lea	 rcx, OFFSET FLAT:??_C@_0BF@OLGMNNPE@glTextureParameterfv@
  00300	e8 00 00 00 00	 call	 glfwGetProcAddress

; 1761 :     glad_glTextureParameteri = (PFNGLTEXTUREPARAMETERIPROC)load("glTextureParameteri");

  00305	48 8d 0d 00 00
	00 00		 lea	 rcx, OFFSET FLAT:??_C@_0BE@FMBFADAD@glTextureParameteri@
  0030c	e8 00 00 00 00	 call	 glfwGetProcAddress

; 1762 :     glad_glTextureParameterIiv = (PFNGLTEXTUREPARAMETERIIVPROC)load("glTextureParameterIiv");

  00311	48 8d 0d 00 00
	00 00		 lea	 rcx, OFFSET FLAT:??_C@_0BG@CMHFNPIN@glTextureParameterIiv@
  00318	e8 00 00 00 00	 call	 glfwGetProcAddress

; 1763 :     glad_glTextureParameterIuiv = (PFNGLTEXTUREPARAMETERIUIVPROC)load("glTextureParameterIuiv");

  0031d	48 8d 0d 00 00
	00 00		 lea	 rcx, OFFSET FLAT:??_C@_0BH@OHPFFIFI@glTextureParameterIuiv@
  00324	e8 00 00 00 00	 call	 glfwGetProcAddress

; 1764 :     glad_glTextureParameteriv = (PFNGLTEXTUREPARAMETERIVPROC)load("glTextureParameteriv");

  00329	48 8d 0d 00 00
	00 00		 lea	 rcx, OFFSET FLAT:??_C@_0BF@OADAJKMJ@glTextureParameteriv@
  00330	e8 00 00 00 00	 call	 glfwGetProcAddress

; 1765 :     glad_glGenerateTextureMipmap = (PFNGLGENERATETEXTUREMIPMAPPROC)load("glGenerateTextureMipmap");

  00335	48 8d 0d 00 00
	00 00		 lea	 rcx, OFFSET FLAT:??_C@_0BI@JJPLGFEG@glGenerateTextureMipmap@
  0033c	e8 00 00 00 00	 call	 glfwGetProcAddress

; 1766 :     glad_glBindTextureUnit = (PFNGLBINDTEXTUREUNITPROC)load("glBindTextureUnit");

  00341	48 8d 0d 00 00
	00 00		 lea	 rcx, OFFSET FLAT:??_C@_0BC@NKGMGGNI@glBindTextureUnit@
  00348	e8 00 00 00 00	 call	 glfwGetProcAddress

; 1767 :     glad_glGetTextureImage = (PFNGLGETTEXTUREIMAGEPROC)load("glGetTextureImage");

  0034d	48 8d 0d 00 00
	00 00		 lea	 rcx, OFFSET FLAT:??_C@_0BC@PJDCJNIH@glGetTextureImage@
  00354	e8 00 00 00 00	 call	 glfwGetProcAddress

; 1768 :     glad_glGetCompressedTextureImage = (PFNGLGETCOMPRESSEDTEXTUREIMAGEPROC)load("glGetCompressedTextureImage");

  00359	48 8d 0d 00 00
	00 00		 lea	 rcx, OFFSET FLAT:??_C@_0BM@JOKODHH@glGetCompressedTextureImage@
  00360	e8 00 00 00 00	 call	 glfwGetProcAddress

; 1769 :     glad_glGetTextureLevelParameterfv = (PFNGLGETTEXTURELEVELPARAMETERFVPROC)load("glGetTextureLevelParameterfv");

  00365	48 8d 0d 00 00
	00 00		 lea	 rcx, OFFSET FLAT:??_C@_0BN@HMEFKCC@glGetTextureLevelParameterfv@
  0036c	e8 00 00 00 00	 call	 glfwGetProcAddress

; 1770 :     glad_glGetTextureLevelParameteriv = (PFNGLGETTEXTURELEVELPARAMETERIVPROC)load("glGetTextureLevelParameteriv");

  00371	48 8d 0d 00 00
	00 00		 lea	 rcx, OFFSET FLAT:??_C@_0BN@MJIBNBP@glGetTextureLevelParameteriv@
  00378	e8 00 00 00 00	 call	 glfwGetProcAddress

; 1771 :     glad_glGetTextureParameterfv = (PFNGLGETTEXTUREPARAMETERFVPROC)load("glGetTextureParameterfv");

  0037d	48 8d 0d 00 00
	00 00		 lea	 rcx, OFFSET FLAT:??_C@_0BI@NBDPHHJH@glGetTextureParameterfv@
  00384	e8 00 00 00 00	 call	 glfwGetProcAddress

; 1772 :     glad_glGetTextureParameterIiv = (PFNGLGETTEXTUREPARAMETERIIVPROC)load("glGetTextureParameterIiv");

  00389	48 8d 0d 00 00
	00 00		 lea	 rcx, OFFSET FLAT:??_C@_0BJ@PIPELMMF@glGetTextureParameterIiv@
  00390	e8 00 00 00 00	 call	 glfwGetProcAddress

; 1773 :     glad_glGetTextureParameterIuiv = (PFNGLGETTEXTUREPARAMETERIUIVPROC)load("glGetTextureParameterIuiv");

  00395	48 8d 0d 00 00
	00 00		 lea	 rcx, OFFSET FLAT:??_C@_0BK@JPCGBAJJ@glGetTextureParameterIuiv@
  0039c	e8 00 00 00 00	 call	 glfwGetProcAddress

; 1774 :     glad_glGetTextureParameteriv = (PFNGLGETTEXTUREPARAMETERIVPROC)load("glGetTextureParameteriv");

  003a1	48 8d 0d 00 00
	00 00		 lea	 rcx, OFFSET FLAT:??_C@_0BI@NKGDDAKK@glGetTextureParameteriv@
  003a8	e8 00 00 00 00	 call	 glfwGetProcAddress

; 1775 :     glad_glCreateVertexArrays = (PFNGLCREATEVERTEXARRAYSPROC)load("glCreateVertexArrays");

  003ad	48 8d 0d 00 00
	00 00		 lea	 rcx, OFFSET FLAT:??_C@_0BF@CMMGIOCI@glCreateVertexArrays@
  003b4	e8 00 00 00 00	 call	 glfwGetProcAddress

; 1776 :     glad_glDisableVertexArrayAttrib = (PFNGLDISABLEVERTEXARRAYATTRIBPROC)load("glDisableVertexArrayAttrib");

  003b9	48 8d 0d 00 00
	00 00		 lea	 rcx, OFFSET FLAT:??_C@_0BL@FEKBMKFD@glDisableVertexArrayAttrib@
  003c0	e8 00 00 00 00	 call	 glfwGetProcAddress

; 1777 :     glad_glEnableVertexArrayAttrib = (PFNGLENABLEVERTEXARRAYATTRIBPROC)load("glEnableVertexArrayAttrib");

  003c5	48 8d 0d 00 00
	00 00		 lea	 rcx, OFFSET FLAT:??_C@_0BK@MJMKFCHC@glEnableVertexArrayAttrib@
  003cc	e8 00 00 00 00	 call	 glfwGetProcAddress

; 1778 :     glad_glVertexArrayElementBuffer = (PFNGLVERTEXARRAYELEMENTBUFFERPROC)load("glVertexArrayElementBuffer");

  003d1	48 8d 0d 00 00
	00 00		 lea	 rcx, OFFSET FLAT:??_C@_0BL@GGCAPDMO@glVertexArrayElementBuffer@
  003d8	e8 00 00 00 00	 call	 glfwGetProcAddress

; 1779 :     glad_glVertexArrayVertexBuffer = (PFNGLVERTEXARRAYVERTEXBUFFERPROC)load("glVertexArrayVertexBuffer");

  003dd	48 8d 0d 00 00
	00 00		 lea	 rcx, OFFSET FLAT:??_C@_0BK@BIEMNHGJ@glVertexArrayVertexBuffer@
  003e4	e8 00 00 00 00	 call	 glfwGetProcAddress

; 1780 :     glad_glVertexArrayVertexBuffers = (PFNGLVERTEXARRAYVERTEXBUFFERSPROC)load("glVertexArrayVertexBuffers");

  003e9	48 8d 0d 00 00
	00 00		 lea	 rcx, OFFSET FLAT:??_C@_0BL@DAGELPBO@glVertexArrayVertexBuffers@
  003f0	e8 00 00 00 00	 call	 glfwGetProcAddress

; 1781 :     glad_glVertexArrayAttribBinding = (PFNGLVERTEXARRAYATTRIBBINDINGPROC)load("glVertexArrayAttribBinding");

  003f5	48 8d 0d 00 00
	00 00		 lea	 rcx, OFFSET FLAT:??_C@_0BL@DJHJAEGB@glVertexArrayAttribBinding@
  003fc	e8 00 00 00 00	 call	 glfwGetProcAddress

; 1782 :     glad_glVertexArrayAttribFormat = (PFNGLVERTEXARRAYATTRIBFORMATPROC)load("glVertexArrayAttribFormat");

  00401	48 8d 0d 00 00
	00 00		 lea	 rcx, OFFSET FLAT:??_C@_0BK@ONFBAOHM@glVertexArrayAttribFormat@
  00408	e8 00 00 00 00	 call	 glfwGetProcAddress

; 1783 :     glad_glVertexArrayAttribIFormat = (PFNGLVERTEXARRAYATTRIBIFORMATPROC)load("glVertexArrayAttribIFormat");

  0040d	48 8d 0d 00 00
	00 00		 lea	 rcx, OFFSET FLAT:??_C@_0BL@JMMLHBDN@glVertexArrayAttribIFormat@
  00414	e8 00 00 00 00	 call	 glfwGetProcAddress

; 1784 :     glad_glVertexArrayAttribLFormat = (PFNGLVERTEXARRAYATTRIBLFORMATPROC)load("glVertexArrayAttribLFormat");

  00419	48 8d 0d 00 00
	00 00		 lea	 rcx, OFFSET FLAT:??_C@_0BL@NECLHPFJ@glVertexArrayAttribLFormat@
  00420	e8 00 00 00 00	 call	 glfwGetProcAddress

; 1785 :     glad_glVertexArrayBindingDivisor = (PFNGLVERTEXARRAYBINDINGDIVISORPROC)load("glVertexArrayBindingDivisor");

  00425	48 8d 0d 00 00
	00 00		 lea	 rcx, OFFSET FLAT:??_C@_0BM@BNDNIOBB@glVertexArrayBindingDivisor@
  0042c	e8 00 00 00 00	 call	 glfwGetProcAddress

; 1786 :     glad_glGetVertexArrayiv = (PFNGLGETVERTEXARRAYIVPROC)load("glGetVertexArrayiv");

  00431	48 8d 0d 00 00
	00 00		 lea	 rcx, OFFSET FLAT:??_C@_0BD@CPJNCJFG@glGetVertexArrayiv@
  00438	e8 00 00 00 00	 call	 glfwGetProcAddress

; 1787 :     glad_glGetVertexArrayIndexediv = (PFNGLGETVERTEXARRAYINDEXEDIVPROC)load("glGetVertexArrayIndexediv");

  0043d	48 8d 0d 00 00
	00 00		 lea	 rcx, OFFSET FLAT:??_C@_0BK@FIIPMDBK@glGetVertexArrayIndexediv@
  00444	e8 00 00 00 00	 call	 glfwGetProcAddress

; 1788 :     glad_glGetVertexArrayIndexed64iv = (PFNGLGETVERTEXARRAYINDEXED64IVPROC)load("glGetVertexArrayIndexed64iv");

  00449	48 8d 0d 00 00
	00 00		 lea	 rcx, OFFSET FLAT:??_C@_0BM@HHNNHCN@glGetVertexArrayIndexed64iv@
  00450	e8 00 00 00 00	 call	 glfwGetProcAddress

; 1789 :     glad_glCreateSamplers = (PFNGLCREATESAMPLERSPROC)load("glCreateSamplers");

  00455	48 8d 0d 00 00
	00 00		 lea	 rcx, OFFSET FLAT:??_C@_0BB@EHBNEMMP@glCreateSamplers@
  0045c	e8 00 00 00 00	 call	 glfwGetProcAddress

; 1790 :     glad_glCreateProgramPipelines = (PFNGLCREATEPROGRAMPIPELINESPROC)load("glCreateProgramPipelines");

  00461	48 8d 0d 00 00
	00 00		 lea	 rcx, OFFSET FLAT:??_C@_0BJ@GJEEIMGK@glCreateProgramPipelines@
  00468	e8 00 00 00 00	 call	 glfwGetProcAddress

; 1791 :     glad_glCreateQueries = (PFNGLCREATEQUERIESPROC)load("glCreateQueries");

  0046d	48 8d 0d 00 00
	00 00		 lea	 rcx, OFFSET FLAT:??_C@_0BA@PGNDPLG@glCreateQueries@
  00474	e8 00 00 00 00	 call	 glfwGetProcAddress

; 1792 :     glad_glGetQueryBufferObjecti64v = (PFNGLGETQUERYBUFFEROBJECTI64VPROC)load("glGetQueryBufferObjecti64v");

  00479	48 8d 0d 00 00
	00 00		 lea	 rcx, OFFSET FLAT:??_C@_0BL@KFECDHBF@glGetQueryBufferObjecti64v@
  00480	e8 00 00 00 00	 call	 glfwGetProcAddress

; 1793 :     glad_glGetQueryBufferObjectiv = (PFNGLGETQUERYBUFFEROBJECTIVPROC)load("glGetQueryBufferObjectiv");

  00485	48 8d 0d 00 00
	00 00		 lea	 rcx, OFFSET FLAT:??_C@_0BJ@OBIFNHGB@glGetQueryBufferObjectiv@
  0048c	e8 00 00 00 00	 call	 glfwGetProcAddress

; 1794 :     glad_glGetQueryBufferObjectui64v = (PFNGLGETQUERYBUFFEROBJECTUI64VPROC)load("glGetQueryBufferObjectui64v");

  00491	48 8d 0d 00 00
	00 00		 lea	 rcx, OFFSET FLAT:??_C@_0BM@DFNHDHD@glGetQueryBufferObjectui64v@
  00498	e8 00 00 00 00	 call	 glfwGetProcAddress

; 1795 :     glad_glGetQueryBufferObjectuiv = (PFNGLGETQUERYBUFFEROBJECTUIVPROC)load("glGetQueryBufferObjectuiv");

  0049d	48 8d 0d 00 00
	00 00		 lea	 rcx, OFFSET FLAT:??_C@_0BK@EOIEAGAD@glGetQueryBufferObjectuiv@
  004a4	e8 00 00 00 00	 call	 glfwGetProcAddress

; 1796 :     glad_glMemoryBarrierByRegion = (PFNGLMEMORYBARRIERBYREGIONPROC)load("glMemoryBarrierByRegion");

  004a9	48 8d 0d 00 00
	00 00		 lea	 rcx, OFFSET FLAT:??_C@_0BI@IDCHHHAI@glMemoryBarrierByRegion@
  004b0	e8 00 00 00 00	 call	 glfwGetProcAddress

; 1797 :     glad_glGetTextureSubImage = (PFNGLGETTEXTURESUBIMAGEPROC)load("glGetTextureSubImage");

  004b5	48 8d 0d 00 00
	00 00		 lea	 rcx, OFFSET FLAT:??_C@_0BF@JEEEKNGB@glGetTextureSubImage@
  004bc	e8 00 00 00 00	 call	 glfwGetProcAddress

; 1798 :     glad_glGetCompressedTextureSubImage = (PFNGLGETCOMPRESSEDTEXTURESUBIMAGEPROC)load("glGetCompressedTextureSubImage");

  004c1	48 8d 0d 00 00
	00 00		 lea	 rcx, OFFSET FLAT:??_C@_0BP@BIDENANP@glGetCompressedTextureSubImage@
  004c8	e8 00 00 00 00	 call	 glfwGetProcAddress

; 1799 :     glad_glGetGraphicsResetStatus = (PFNGLGETGRAPHICSRESETSTATUSPROC)load("glGetGraphicsResetStatus");

  004cd	48 8d 0d 00 00
	00 00		 lea	 rcx, OFFSET FLAT:??_C@_0BJ@ILPAOCDN@glGetGraphicsResetStatus@
  004d4	e8 00 00 00 00	 call	 glfwGetProcAddress

; 1800 :     glad_glGetnCompressedTexImage = (PFNGLGETNCOMPRESSEDTEXIMAGEPROC)load("glGetnCompressedTexImage");

  004d9	48 8d 0d 00 00
	00 00		 lea	 rcx, OFFSET FLAT:??_C@_0BJ@HLNIHAOG@glGetnCompressedTexImage@
  004e0	e8 00 00 00 00	 call	 glfwGetProcAddress

; 1801 :     glad_glGetnTexImage = (PFNGLGETNTEXIMAGEPROC)load("glGetnTexImage");

  004e5	48 8d 0d 00 00
	00 00		 lea	 rcx, OFFSET FLAT:??_C@_0P@FBKOCLCM@glGetnTexImage@
  004ec	e8 00 00 00 00	 call	 glfwGetProcAddress

; 1802 :     glad_glGetnUniformdv = (PFNGLGETNUNIFORMDVPROC)load("glGetnUniformdv");

  004f1	48 8d 0d 00 00
	00 00		 lea	 rcx, OFFSET FLAT:??_C@_0BA@KLGIFHJB@glGetnUniformdv@
  004f8	e8 00 00 00 00	 call	 glfwGetProcAddress

; 1803 :     glad_glGetnUniformfv = (PFNGLGETNUNIFORMFVPROC)load("glGetnUniformfv");

  004fd	48 8d 0d 00 00
	00 00		 lea	 rcx, OFFSET FLAT:??_C@_0BA@KIOMIDPP@glGetnUniformfv@
  00504	e8 00 00 00 00	 call	 glfwGetProcAddress

; 1804 :     glad_glGetnUniformiv = (PFNGLGETNUNIFORMIVPROC)load("glGetnUniformiv");

  00509	48 8d 0d 00 00
	00 00		 lea	 rcx, OFFSET FLAT:??_C@_0BA@KDLAMEMC@glGetnUniformiv@
  00510	e8 00 00 00 00	 call	 glfwGetProcAddress

; 1805 :     glad_glGetnUniformuiv = (PFNGLGETNUNIFORMUIVPROC)load("glGetnUniformuiv");

  00515	48 8d 0d 00 00
	00 00		 lea	 rcx, OFFSET FLAT:??_C@_0BB@BBJMBEC@glGetnUniformuiv@
  0051c	e8 00 00 00 00	 call	 glfwGetProcAddress

; 1806 :     glad_glReadnPixels = (PFNGLREADNPIXELSPROC)load("glReadnPixels");

  00521	48 8d 0d 00 00
	00 00		 lea	 rcx, OFFSET FLAT:??_C@_0O@NELODAJJ@glReadnPixels@
  00528	e8 00 00 00 00	 call	 glfwGetProcAddress

; 1807 :     glad_glGetnMapdv = (PFNGLGETNMAPDVPROC)load("glGetnMapdv");

  0052d	48 8d 0d 00 00
	00 00		 lea	 rcx, OFFSET FLAT:??_C@_0M@FBDPJCFH@glGetnMapdv@
  00534	e8 00 00 00 00	 call	 glfwGetProcAddress

; 1808 :     glad_glGetnMapfv = (PFNGLGETNMAPFVPROC)load("glGetnMapfv");

  00539	48 8d 0d 00 00
	00 00		 lea	 rcx, OFFSET FLAT:??_C@_0M@FCLLEGDJ@glGetnMapfv@
  00540	e8 00 00 00 00	 call	 glfwGetProcAddress

; 1809 :     glad_glGetnMapiv = (PFNGLGETNMAPIVPROC)load("glGetnMapiv");

  00545	48 8d 0d 00 00
	00 00		 lea	 rcx, OFFSET FLAT:??_C@_0M@FJOHABAE@glGetnMapiv@
  0054c	e8 00 00 00 00	 call	 glfwGetProcAddress

; 1810 :     glad_glGetnPixelMapfv = (PFNGLGETNPIXELMAPFVPROC)load("glGetnPixelMapfv");

  00551	48 8d 0d 00 00
	00 00		 lea	 rcx, OFFSET FLAT:??_C@_0BB@JKBANCED@glGetnPixelMapfv@
  00558	e8 00 00 00 00	 call	 glfwGetProcAddress

; 1811 :     glad_glGetnPixelMapuiv = (PFNGLGETNPIXELMAPUIVPROC)load("glGetnPixelMapuiv");

  0055d	48 8d 0d 00 00
	00 00		 lea	 rcx, OFFSET FLAT:??_C@_0BC@MDPMMCLE@glGetnPixelMapuiv@
  00564	e8 00 00 00 00	 call	 glfwGetProcAddress

; 1812 :     glad_glGetnPixelMapusv = (PFNGLGETNPIXELMAPUSVPROC)load("glGetnPixelMapusv");

  00569	48 8d 0d 00 00
	00 00		 lea	 rcx, OFFSET FLAT:??_C@_0BC@NCENOEBC@glGetnPixelMapusv@
  00570	e8 00 00 00 00	 call	 glfwGetProcAddress

; 1813 :     glad_glGetnPolygonStipple = (PFNGLGETNPOLYGONSTIPPLEPROC)load("glGetnPolygonStipple");

  00575	48 8d 0d 00 00
	00 00		 lea	 rcx, OFFSET FLAT:??_C@_0BF@NBHIHHJA@glGetnPolygonStipple@
  0057c	e8 00 00 00 00	 call	 glfwGetProcAddress

; 1814 :     glad_glGetnColorTable = (PFNGLGETNCOLORTABLEPROC)load("glGetnColorTable");

  00581	48 8d 0d 00 00
	00 00		 lea	 rcx, OFFSET FLAT:??_C@_0BB@EFKGOAOL@glGetnColorTable@
  00588	e8 00 00 00 00	 call	 glfwGetProcAddress

; 1815 :     glad_glGetnConvolutionFilter = (PFNGLGETNCONVOLUTIONFILTERPROC)load("glGetnConvolutionFilter");

  0058d	48 8d 0d 00 00
	00 00		 lea	 rcx, OFFSET FLAT:??_C@_0BI@GBFNHONB@glGetnConvolutionFilter@
  00594	e8 00 00 00 00	 call	 glfwGetProcAddress

; 1816 :     glad_glGetnSeparableFilter = (PFNGLGETNSEPARABLEFILTERPROC)load("glGetnSeparableFilter");

  00599	48 8d 0d 00 00
	00 00		 lea	 rcx, OFFSET FLAT:??_C@_0BG@LBKKJBFC@glGetnSeparableFilter@
  005a0	e8 00 00 00 00	 call	 glfwGetProcAddress

; 1817 :     glad_glGetnHistogram = (PFNGLGETNHISTOGRAMPROC)load("glGetnHistogram");

  005a5	48 8d 0d 00 00
	00 00		 lea	 rcx, OFFSET FLAT:??_C@_0BA@POEMGEO@glGetnHistogram@
  005ac	e8 00 00 00 00	 call	 glfwGetProcAddress

; 1818 :     glad_glGetnMinmax = (PFNGLGETNMINMAXPROC)load("glGetnMinmax");

  005b1	48 8d 0d 00 00
	00 00		 lea	 rcx, OFFSET FLAT:??_C@_0N@EFFKFJMK@glGetnMinmax@
  005b8	e8 00 00 00 00	 call	 glfwGetProcAddress

; 1819 :     glad_glTextureBarrier = (PFNGLTEXTUREBARRIERPROC)load("glTextureBarrier");

  005bd	48 8d 0d 00 00
	00 00		 lea	 rcx, OFFSET FLAT:??_C@_0BB@MNKDFGFC@glTextureBarrier@

; 1820 : }

  005c4	48 83 c4 28	 add	 rsp, 40			; 00000028H

; 1819 :     glad_glTextureBarrier = (PFNGLTEXTUREBARRIERPROC)load("glTextureBarrier");

  005c8	e9 00 00 00 00	 jmp	 glfwGetProcAddress
$LN1@load_GL_VE:

; 1820 : }

  005cd	48 83 c4 28	 add	 rsp, 40			; 00000028H
  005d1	c3		 ret	 0
load_GL_VERSION_4_5 ENDP
_TEXT	ENDS
; Function compile flags: /Ogtpy
; File D:\Programmer\GLenv\glad.c
;	COMDAT load_GL_VERSION_4_6
_TEXT	SEGMENT
load$dead$ = 48
load_GL_VERSION_4_6 PROC				; COMDAT

; 1821 : static void load_GL_VERSION_4_6(GLADloadproc load) {

  00000	48 83 ec 28	 sub	 rsp, 40			; 00000028H

; 1822 :     if (!GLAD_GL_VERSION_4_6) return;

  00004	83 3d 00 00 00
	00 00		 cmp	 DWORD PTR GLAD_GL_VERSION_4_6, 0
  0000b	74 34		 je	 SHORT $LN1@load_GL_VE

; 1823 :     glad_glSpecializeShader = (PFNGLSPECIALIZESHADERPROC)load("glSpecializeShader");

  0000d	48 8d 0d 00 00
	00 00		 lea	 rcx, OFFSET FLAT:??_C@_0BD@LNCLLNDI@glSpecializeShader@
  00014	e8 00 00 00 00	 call	 glfwGetProcAddress

; 1824 :     glad_glMultiDrawArraysIndirectCount = (PFNGLMULTIDRAWARRAYSINDIRECTCOUNTPROC)load("glMultiDrawArraysIndirectCount");

  00019	48 8d 0d 00 00
	00 00		 lea	 rcx, OFFSET FLAT:??_C@_0BP@GGIOCPJI@glMultiDrawArraysIndirectCount@
  00020	e8 00 00 00 00	 call	 glfwGetProcAddress

; 1825 :     glad_glMultiDrawElementsIndirectCount = (PFNGLMULTIDRAWELEMENTSINDIRECTCOUNTPROC)load("glMultiDrawElementsIndirectCount");

  00025	48 8d 0d 00 00
	00 00		 lea	 rcx, OFFSET FLAT:??_C@_0CB@BPEMAMPH@glMultiDrawElementsIndirectCoun@
  0002c	e8 00 00 00 00	 call	 glfwGetProcAddress

; 1826 :     glad_glPolygonOffsetClamp = (PFNGLPOLYGONOFFSETCLAMPPROC)load("glPolygonOffsetClamp");

  00031	48 8d 0d 00 00
	00 00		 lea	 rcx, OFFSET FLAT:??_C@_0BF@ECLDHBOO@glPolygonOffsetClamp@

; 1827 : }

  00038	48 83 c4 28	 add	 rsp, 40			; 00000028H

; 1826 :     glad_glPolygonOffsetClamp = (PFNGLPOLYGONOFFSETCLAMPPROC)load("glPolygonOffsetClamp");

  0003c	e9 00 00 00 00	 jmp	 glfwGetProcAddress
$LN1@load_GL_VE:

; 1827 : }

  00041	48 83 c4 28	 add	 rsp, 40			; 00000028H
  00045	c3		 ret	 0
load_GL_VERSION_4_6 ENDP
_TEXT	ENDS
; Function compile flags: /Ogtpy
; File D:\Programmer\GLenv\glad.c
;	COMDAT gladLoadGLLoader
_TEXT	SEGMENT
load$dead$ = 48
gladLoadGLLoader PROC					; COMDAT

; 1896 : int gladLoadGLLoader(GLADloadproc load) {

$LN92:
  00000	40 56		 push	 rsi
  00002	48 83 ec 20	 sub	 rsp, 32			; 00000020H

; 1897 :     GLVersion.major = 0; GLVersion.minor = 0;

  00006	33 f6		 xor	 esi, esi

; 1898 :     glGetString = (PFNGLGETSTRINGPROC)load("glGetString");

  00008	48 8d 0d 00 00
	00 00		 lea	 rcx, OFFSET FLAT:??_C@_0M@OPOBFDCB@glGetString@
  0000f	48 89 35 00 00
	00 00		 mov	 QWORD PTR GLVersion, rsi
  00016	e8 00 00 00 00	 call	 glfwGetProcAddress
  0001b	48 89 05 00 00
	00 00		 mov	 QWORD PTR glad_glGetString, rax
  00022	48 85 c0	 test	 rax, rax

; 1899 :     if (glGetString == NULL) return 0;

  00025	0f 84 58 0d 00
	00		 je	 $LN63@gladLoadGL

; 1900 :     if (glGetString(GL_VERSION) == NULL) return 0;

  0002b	b9 02 1f 00 00	 mov	 ecx, 7938		; 00001f02H
  00030	ff d0		 call	 rax
  00032	48 85 c0	 test	 rax, rax
  00035	0f 84 48 0d 00
	00		 je	 $LN63@gladLoadGL

; 1901 :     find_coreGL();

  0003b	e8 00 00 00 00	 call	 find_coreGL

; 1069 :     if (!GLAD_GL_VERSION_1_0) return;

  00040	39 35 00 00 00
	00		 cmp	 DWORD PTR GLAD_GL_VERSION_1_0, esi
  00046	0f 84 4e 02 00
	00		 je	 $LN8@gladLoadGL

; 1070 :     glad_glCullFace = (PFNGLCULLFACEPROC)load("glCullFace");

  0004c	48 8d 0d 00 00
	00 00		 lea	 rcx, OFFSET FLAT:??_C@_0L@BAPBLHME@glCullFace@
  00053	e8 00 00 00 00	 call	 glfwGetProcAddress

; 1071 :     glad_glFrontFace = (PFNGLFRONTFACEPROC)load("glFrontFace");

  00058	48 8d 0d 00 00
	00 00		 lea	 rcx, OFFSET FLAT:??_C@_0M@ILBMDJDA@glFrontFace@
  0005f	e8 00 00 00 00	 call	 glfwGetProcAddress

; 1072 :     glad_glHint = (PFNGLHINTPROC)load("glHint");

  00064	48 8d 0d 00 00
	00 00		 lea	 rcx, OFFSET FLAT:??_C@_06HEADGMBC@glHint@
  0006b	e8 00 00 00 00	 call	 glfwGetProcAddress

; 1073 :     glad_glLineWidth = (PFNGLLINEWIDTHPROC)load("glLineWidth");

  00070	48 8d 0d 00 00
	00 00		 lea	 rcx, OFFSET FLAT:??_C@_0M@CFLGNFPG@glLineWidth@
  00077	e8 00 00 00 00	 call	 glfwGetProcAddress

; 1074 :     glad_glPointSize = (PFNGLPOINTSIZEPROC)load("glPointSize");

  0007c	48 8d 0d 00 00
	00 00		 lea	 rcx, OFFSET FLAT:??_C@_0M@EEAPMMNM@glPointSize@
  00083	e8 00 00 00 00	 call	 glfwGetProcAddress

; 1075 :     glad_glPolygonMode = (PFNGLPOLYGONMODEPROC)load("glPolygonMode");

  00088	48 8d 0d 00 00
	00 00		 lea	 rcx, OFFSET FLAT:??_C@_0O@DKMNBFMB@glPolygonMode@
  0008f	e8 00 00 00 00	 call	 glfwGetProcAddress

; 1076 :     glad_glScissor = (PFNGLSCISSORPROC)load("glScissor");

  00094	48 8d 0d 00 00
	00 00		 lea	 rcx, OFFSET FLAT:??_C@_09ECGPAEPL@glScissor@
  0009b	e8 00 00 00 00	 call	 glfwGetProcAddress

; 1077 :     glad_glTexParameterf = (PFNGLTEXPARAMETERFPROC)load("glTexParameterf");

  000a0	48 8d 0d 00 00
	00 00		 lea	 rcx, OFFSET FLAT:??_C@_0BA@INKFIMGP@glTexParameterf@
  000a7	e8 00 00 00 00	 call	 glfwGetProcAddress

; 1078 :     glad_glTexParameterfv = (PFNGLTEXPARAMETERFVPROC)load("glTexParameterfv");

  000ac	48 8d 0d 00 00
	00 00		 lea	 rcx, OFFSET FLAT:??_C@_0BB@KEOFAHDF@glTexParameterfv@
  000b3	e8 00 00 00 00	 call	 glfwGetProcAddress

; 1079 :     glad_glTexParameteri = (PFNGLTEXPARAMETERIPROC)load("glTexParameteri");

  000b8	48 8d 0d 00 00
	00 00		 lea	 rcx, OFFSET FLAT:??_C@_0BA@KDNJAKA@glTexParameteri@
  000bf	e8 00 00 00 00	 call	 glfwGetProcAddress

; 1080 :     glad_glTexParameteriv = (PFNGLTEXPARAMETERIVPROC)load("glTexParameteriv");

  000c4	48 8d 0d 00 00
	00 00		 lea	 rcx, OFFSET FLAT:??_C@_0BB@KPLJEAAI@glTexParameteriv@
  000cb	e8 00 00 00 00	 call	 glfwGetProcAddress

; 1081 :     glad_glTexImage1D = (PFNGLTEXIMAGE1DPROC)load("glTexImage1D");

  000d0	48 8d 0d 00 00
	00 00		 lea	 rcx, OFFSET FLAT:??_C@_0N@JDMMMFHL@glTexImage1D@
  000d7	e8 00 00 00 00	 call	 glfwGetProcAddress

; 1082 :     glad_glTexImage2D = (PFNGLTEXIMAGE2DPROC)load("glTexImage2D");

  000dc	48 8d 0d 00 00
	00 00		 lea	 rcx, OFFSET FLAT:??_C@_0N@JBIKHLCC@glTexImage2D@
  000e3	e8 00 00 00 00	 call	 glfwGetProcAddress

; 1083 :     glad_glDrawBuffer = (PFNGLDRAWBUFFERPROC)load("glDrawBuffer");

  000e8	48 8d 0d 00 00
	00 00		 lea	 rcx, OFFSET FLAT:??_C@_0N@EKCLGPL@glDrawBuffer@
  000ef	e8 00 00 00 00	 call	 glfwGetProcAddress

; 1084 :     glad_glClear = (PFNGLCLEARPROC)load("glClear");

  000f4	48 8d 0d 00 00
	00 00		 lea	 rcx, OFFSET FLAT:??_C@_07IBAPPAHJ@glClear@
  000fb	e8 00 00 00 00	 call	 glfwGetProcAddress

; 1085 :     glad_glClearColor = (PFNGLCLEARCOLORPROC)load("glClearColor");

  00100	48 8d 0d 00 00
	00 00		 lea	 rcx, OFFSET FLAT:??_C@_0N@OGLMDNKC@glClearColor@
  00107	e8 00 00 00 00	 call	 glfwGetProcAddress

; 1086 :     glad_glClearStencil = (PFNGLCLEARSTENCILPROC)load("glClearStencil");

  0010c	48 8d 0d 00 00
	00 00		 lea	 rcx, OFFSET FLAT:??_C@_0P@KBLPBBFP@glClearStencil@
  00113	e8 00 00 00 00	 call	 glfwGetProcAddress

; 1087 :     glad_glClearDepth = (PFNGLCLEARDEPTHPROC)load("glClearDepth");

  00118	48 8d 0d 00 00
	00 00		 lea	 rcx, OFFSET FLAT:??_C@_0N@LJIELNG@glClearDepth@
  0011f	e8 00 00 00 00	 call	 glfwGetProcAddress

; 1088 :     glad_glStencilMask = (PFNGLSTENCILMASKPROC)load("glStencilMask");

  00124	48 8d 0d 00 00
	00 00		 lea	 rcx, OFFSET FLAT:??_C@_0O@DJFHPFEP@glStencilMask@
  0012b	e8 00 00 00 00	 call	 glfwGetProcAddress

; 1089 :     glad_glColorMask = (PFNGLCOLORMASKPROC)load("glColorMask");

  00130	48 8d 0d 00 00
	00 00		 lea	 rcx, OFFSET FLAT:??_C@_0M@DLGOAHPH@glColorMask@
  00137	e8 00 00 00 00	 call	 glfwGetProcAddress

; 1090 :     glad_glDepthMask = (PFNGLDEPTHMASKPROC)load("glDepthMask");

  0013c	48 8d 0d 00 00
	00 00		 lea	 rcx, OFFSET FLAT:??_C@_0M@KABMFLLN@glDepthMask@
  00143	e8 00 00 00 00	 call	 glfwGetProcAddress

; 1091 :     glad_glDisable = (PFNGLDISABLEPROC)load("glDisable");

  00148	48 8d 0d 00 00
	00 00		 lea	 rcx, OFFSET FLAT:??_C@_09MHGMIMKN@glDisable@
  0014f	e8 00 00 00 00	 call	 glfwGetProcAddress

; 1092 :     glad_glEnable = (PFNGLENABLEPROC)load("glEnable");

  00154	48 8d 0d 00 00
	00 00		 lea	 rcx, OFFSET FLAT:??_C@_08OOEHEKOP@glEnable@
  0015b	e8 00 00 00 00	 call	 glfwGetProcAddress

; 1093 :     glad_glFinish = (PFNGLFINISHPROC)load("glFinish");

  00160	48 8d 0d 00 00
	00 00		 lea	 rcx, OFFSET FLAT:??_C@_08DFCPOKBK@glFinish@
  00167	e8 00 00 00 00	 call	 glfwGetProcAddress

; 1094 :     glad_glFlush = (PFNGLFLUSHPROC)load("glFlush");

  0016c	48 8d 0d 00 00
	00 00		 lea	 rcx, OFFSET FLAT:??_C@_07COFELLJA@glFlush@
  00173	e8 00 00 00 00	 call	 glfwGetProcAddress

; 1095 :     glad_glBlendFunc = (PFNGLBLENDFUNCPROC)load("glBlendFunc");

  00178	48 8d 0d 00 00
	00 00		 lea	 rcx, OFFSET FLAT:??_C@_0M@PFBKOKOH@glBlendFunc@
  0017f	e8 00 00 00 00	 call	 glfwGetProcAddress

; 1096 :     glad_glLogicOp = (PFNGLLOGICOPPROC)load("glLogicOp");

  00184	48 8d 0d 00 00
	00 00		 lea	 rcx, OFFSET FLAT:??_C@_09GKGMNAKG@glLogicOp@
  0018b	e8 00 00 00 00	 call	 glfwGetProcAddress

; 1097 :     glad_glStencilFunc = (PFNGLSTENCILFUNCPROC)load("glStencilFunc");

  00190	48 8d 0d 00 00
	00 00		 lea	 rcx, OFFSET FLAT:??_C@_0O@ENNLLOLN@glStencilFunc@
  00197	e8 00 00 00 00	 call	 glfwGetProcAddress

; 1098 :     glad_glStencilOp = (PFNGLSTENCILOPPROC)load("glStencilOp");

  0019c	48 8d 0d 00 00
	00 00		 lea	 rcx, OFFSET FLAT:??_C@_0M@BILBNGF@glStencilOp@
  001a3	e8 00 00 00 00	 call	 glfwGetProcAddress

; 1099 :     glad_glDepthFunc = (PFNGLDEPTHFUNCPROC)load("glDepthFunc");

  001a8	48 8d 0d 00 00
	00 00		 lea	 rcx, OFFSET FLAT:??_C@_0M@NEJABAEP@glDepthFunc@
  001af	e8 00 00 00 00	 call	 glfwGetProcAddress

; 1100 :     glad_glPixelStoref = (PFNGLPIXELSTOREFPROC)load("glPixelStoref");

  001b4	48 8d 0d 00 00
	00 00		 lea	 rcx, OFFSET FLAT:??_C@_0O@BFLAHHCK@glPixelStoref@
  001bb	e8 00 00 00 00	 call	 glfwGetProcAddress

; 1101 :     glad_glPixelStorei = (PFNGLPIXELSTOREIPROC)load("glPixelStorei");

  001c0	48 8d 0d 00 00
	00 00		 lea	 rcx, OFFSET FLAT:??_C@_0O@JCCIGLOF@glPixelStorei@
  001c7	e8 00 00 00 00	 call	 glfwGetProcAddress

; 1102 :     glad_glReadBuffer = (PFNGLREADBUFFERPROC)load("glReadBuffer");

  001cc	48 8d 0d 00 00
	00 00		 lea	 rcx, OFFSET FLAT:??_C@_0N@HFKHBECK@glReadBuffer@
  001d3	e8 00 00 00 00	 call	 glfwGetProcAddress

; 1103 :     glad_glReadPixels = (PFNGLREADPIXELSPROC)load("glReadPixels");

  001d8	48 8d 0d 00 00
	00 00		 lea	 rcx, OFFSET FLAT:??_C@_0N@CKFNNHOO@glReadPixels@
  001df	e8 00 00 00 00	 call	 glfwGetProcAddress

; 1104 :     glad_glGetBooleanv = (PFNGLGETBOOLEANVPROC)load("glGetBooleanv");

  001e4	48 8d 0d 00 00
	00 00		 lea	 rcx, OFFSET FLAT:??_C@_0O@NLMELLCJ@glGetBooleanv@
  001eb	e8 00 00 00 00	 call	 glfwGetProcAddress

; 1105 :     glad_glGetDoublev = (PFNGLGETDOUBLEVPROC)load("glGetDoublev");

  001f0	48 8d 0d 00 00
	00 00		 lea	 rcx, OFFSET FLAT:??_C@_0N@OFBMMCDH@glGetDoublev@
  001f7	e8 00 00 00 00	 call	 glfwGetProcAddress

; 1106 :     glad_glGetError = (PFNGLGETERRORPROC)load("glGetError");

  001fc	48 8d 0d 00 00
	00 00		 lea	 rcx, OFFSET FLAT:??_C@_0L@FPKAMKHB@glGetError@
  00203	e8 00 00 00 00	 call	 glfwGetProcAddress

; 1107 :     glad_glGetFloatv = (PFNGLGETFLOATVPROC)load("glGetFloatv");

  00208	48 8d 0d 00 00
	00 00		 lea	 rcx, OFFSET FLAT:??_C@_0M@CKCOBONE@glGetFloatv@
  0020f	e8 00 00 00 00	 call	 glfwGetProcAddress

; 1108 :     glad_glGetIntegerv = (PFNGLGETINTEGERVPROC)load("glGetIntegerv");

  00214	48 8d 0d 00 00
	00 00		 lea	 rcx, OFFSET FLAT:??_C@_0O@DHHDCCLF@glGetIntegerv@
  0021b	e8 00 00 00 00	 call	 glfwGetProcAddress

; 1109 :     glad_glGetString = (PFNGLGETSTRINGPROC)load("glGetString");

  00220	48 8d 0d 00 00
	00 00		 lea	 rcx, OFFSET FLAT:??_C@_0M@OPOBFDCB@glGetString@
  00227	48 89 05 00 00
	00 00		 mov	 QWORD PTR glad_glGetIntegerv, rax
  0022e	e8 00 00 00 00	 call	 glfwGetProcAddress

; 1110 :     glad_glGetTexImage = (PFNGLGETTEXIMAGEPROC)load("glGetTexImage");

  00233	48 8d 0d 00 00
	00 00		 lea	 rcx, OFFSET FLAT:??_C@_0O@DOIIJLAD@glGetTexImage@
  0023a	48 89 05 00 00
	00 00		 mov	 QWORD PTR glad_glGetString, rax
  00241	e8 00 00 00 00	 call	 glfwGetProcAddress

; 1111 :     glad_glGetTexParameterfv = (PFNGLGETTEXPARAMETERFVPROC)load("glGetTexParameterfv");

  00246	48 8d 0d 00 00
	00 00		 lea	 rcx, OFFSET FLAT:??_C@_0BE@DNHBPKMC@glGetTexParameterfv@
  0024d	e8 00 00 00 00	 call	 glfwGetProcAddress

; 1112 :     glad_glGetTexParameteriv = (PFNGLGETTEXPARAMETERIVPROC)load("glGetTexParameteriv");

  00252	48 8d 0d 00 00
	00 00		 lea	 rcx, OFFSET FLAT:??_C@_0BE@DGCNLNPP@glGetTexParameteriv@
  00259	e8 00 00 00 00	 call	 glfwGetProcAddress

; 1113 :     glad_glGetTexLevelParameterfv = (PFNGLGETTEXLEVELPARAMETERFVPROC)load("glGetTexLevelParameterfv");

  0025e	48 8d 0d 00 00
	00 00		 lea	 rcx, OFFSET FLAT:??_C@_0BJ@GAMLGIFF@glGetTexLevelParameterfv@
  00265	e8 00 00 00 00	 call	 glfwGetProcAddress

; 1114 :     glad_glGetTexLevelParameteriv = (PFNGLGETTEXLEVELPARAMETERIVPROC)load("glGetTexLevelParameteriv");

  0026a	48 8d 0d 00 00
	00 00		 lea	 rcx, OFFSET FLAT:??_C@_0BJ@GLJHCPGI@glGetTexLevelParameteriv@
  00271	e8 00 00 00 00	 call	 glfwGetProcAddress

; 1115 :     glad_glIsEnabled = (PFNGLISENABLEDPROC)load("glIsEnabled");

  00276	48 8d 0d 00 00
	00 00		 lea	 rcx, OFFSET FLAT:??_C@_0M@INHMIHKC@glIsEnabled@
  0027d	e8 00 00 00 00	 call	 glfwGetProcAddress

; 1116 :     glad_glDepthRange = (PFNGLDEPTHRANGEPROC)load("glDepthRange");

  00282	48 8d 0d 00 00
	00 00		 lea	 rcx, OFFSET FLAT:??_C@_0N@PEBDIKOA@glDepthRange@
  00289	e8 00 00 00 00	 call	 glfwGetProcAddress

; 1117 :     glad_glViewport = (PFNGLVIEWPORTPROC)load("glViewport");

  0028e	48 8d 0d 00 00
	00 00		 lea	 rcx, OFFSET FLAT:??_C@_0L@KBLIPDFH@glViewport@
  00295	e8 00 00 00 00	 call	 glfwGetProcAddress
$LN8@gladLoadGL:

; 1120 :     if (!GLAD_GL_VERSION_1_1) return;

  0029a	39 35 00 00 00
	00		 cmp	 DWORD PTR GLAD_GL_VERSION_1_1, esi
  002a0	0f 84 9c 00 00
	00		 je	 $LN11@gladLoadGL

; 1121 :     glad_glDrawArrays = (PFNGLDRAWARRAYSPROC)load("glDrawArrays");

  002a6	48 8d 0d 00 00
	00 00		 lea	 rcx, OFFSET FLAT:??_C@_0N@CMNPPOHA@glDrawArrays@
  002ad	e8 00 00 00 00	 call	 glfwGetProcAddress

; 1122 :     glad_glDrawElements = (PFNGLDRAWELEMENTSPROC)load("glDrawElements");

  002b2	48 8d 0d 00 00
	00 00		 lea	 rcx, OFFSET FLAT:??_C@_0P@MENFIFGE@glDrawElements@
  002b9	e8 00 00 00 00	 call	 glfwGetProcAddress

; 1123 :     glad_glPolygonOffset = (PFNGLPOLYGONOFFSETPROC)load("glPolygonOffset");

  002be	48 8d 0d 00 00
	00 00		 lea	 rcx, OFFSET FLAT:??_C@_0BA@FFBJGNC@glPolygonOffset@
  002c5	e8 00 00 00 00	 call	 glfwGetProcAddress

; 1124 :     glad_glCopyTexImage1D = (PFNGLCOPYTEXIMAGE1DPROC)load("glCopyTexImage1D");

  002ca	48 8d 0d 00 00
	00 00		 lea	 rcx, OFFSET FLAT:??_C@_0BB@MEEDBHPL@glCopyTexImage1D@
  002d1	e8 00 00 00 00	 call	 glfwGetProcAddress

; 1125 :     glad_glCopyTexImage2D = (PFNGLCOPYTEXIMAGE2DPROC)load("glCopyTexImage2D");

  002d6	48 8d 0d 00 00
	00 00		 lea	 rcx, OFFSET FLAT:??_C@_0BB@MGAFKJKC@glCopyTexImage2D@
  002dd	e8 00 00 00 00	 call	 glfwGetProcAddress

; 1126 :     glad_glCopyTexSubImage1D = (PFNGLCOPYTEXSUBIMAGE1DPROC)load("glCopyTexSubImage1D");

  002e2	48 8d 0d 00 00
	00 00		 lea	 rcx, OFFSET FLAT:??_C@_0BE@PKNCAIGI@glCopyTexSubImage1D@
  002e9	e8 00 00 00 00	 call	 glfwGetProcAddress

; 1127 :     glad_glCopyTexSubImage2D = (PFNGLCOPYTEXSUBIMAGE2DPROC)load("glCopyTexSubImage2D");

  002ee	48 8d 0d 00 00
	00 00		 lea	 rcx, OFFSET FLAT:??_C@_0BE@PIJELGDB@glCopyTexSubImage2D@
  002f5	e8 00 00 00 00	 call	 glfwGetProcAddress

; 1128 :     glad_glTexSubImage1D = (PFNGLTEXSUBIMAGE1DPROC)load("glTexSubImage1D");

  002fa	48 8d 0d 00 00
	00 00		 lea	 rcx, OFFSET FLAT:??_C@_0BA@NFOOCKJD@glTexSubImage1D@
  00301	e8 00 00 00 00	 call	 glfwGetProcAddress

; 1129 :     glad_glTexSubImage2D = (PFNGLTEXSUBIMAGE2DPROC)load("glTexSubImage2D");

  00306	48 8d 0d 00 00
	00 00		 lea	 rcx, OFFSET FLAT:??_C@_0BA@NHKIJEMK@glTexSubImage2D@
  0030d	e8 00 00 00 00	 call	 glfwGetProcAddress

; 1130 :     glad_glBindTexture = (PFNGLBINDTEXTUREPROC)load("glBindTexture");

  00312	48 8d 0d 00 00
	00 00		 lea	 rcx, OFFSET FLAT:??_C@_0O@JKKCIBGC@glBindTexture@
  00319	e8 00 00 00 00	 call	 glfwGetProcAddress

; 1131 :     glad_glDeleteTextures = (PFNGLDELETETEXTURESPROC)load("glDeleteTextures");

  0031e	48 8d 0d 00 00
	00 00		 lea	 rcx, OFFSET FLAT:??_C@_0BB@KMPLFJIC@glDeleteTextures@
  00325	e8 00 00 00 00	 call	 glfwGetProcAddress

; 1132 :     glad_glGenTextures = (PFNGLGENTEXTURESPROC)load("glGenTextures");

  0032a	48 8d 0d 00 00
	00 00		 lea	 rcx, OFFSET FLAT:??_C@_0O@LLMANLNK@glGenTextures@
  00331	e8 00 00 00 00	 call	 glfwGetProcAddress

; 1133 :     glad_glIsTexture = (PFNGLISTEXTUREPROC)load("glIsTexture");

  00336	48 8d 0d 00 00
	00 00		 lea	 rcx, OFFSET FLAT:??_C@_0M@NJHAEPDN@glIsTexture@
  0033d	e8 00 00 00 00	 call	 glfwGetProcAddress
$LN11@gladLoadGL:

; 1136 :     if (!GLAD_GL_VERSION_1_2) return;

  00342	39 35 00 00 00
	00		 cmp	 DWORD PTR GLAD_GL_VERSION_1_2, esi
  00348	74 30		 je	 SHORT $LN14@gladLoadGL

; 1137 :     glad_glDrawRangeElements = (PFNGLDRAWRANGEELEMENTSPROC)load("glDrawRangeElements");

  0034a	48 8d 0d 00 00
	00 00		 lea	 rcx, OFFSET FLAT:??_C@_0BE@IHNAGJGJ@glDrawRangeElements@
  00351	e8 00 00 00 00	 call	 glfwGetProcAddress

; 1138 :     glad_glTexImage3D = (PFNGLTEXIMAGE3DPROC)load("glTexImage3D");

  00356	48 8d 0d 00 00
	00 00		 lea	 rcx, OFFSET FLAT:??_C@_0N@JAEIBBBF@glTexImage3D@
  0035d	e8 00 00 00 00	 call	 glfwGetProcAddress

; 1139 :     glad_glTexSubImage3D = (PFNGLTEXSUBIMAGE3DPROC)load("glTexSubImage3D");

  00362	48 8d 0d 00 00
	00 00		 lea	 rcx, OFFSET FLAT:??_C@_0BA@NGGKPOPN@glTexSubImage3D@
  00369	e8 00 00 00 00	 call	 glfwGetProcAddress

; 1140 :     glad_glCopyTexSubImage3D = (PFNGLCOPYTEXSUBIMAGE3DPROC)load("glCopyTexSubImage3D");

  0036e	48 8d 0d 00 00
	00 00		 lea	 rcx, OFFSET FLAT:??_C@_0BE@PJFGNMAG@glCopyTexSubImage3D@
  00375	e8 00 00 00 00	 call	 glfwGetProcAddress
$LN14@gladLoadGL:

; 1143 :     if (!GLAD_GL_VERSION_1_3) return;

  0037a	39 35 00 00 00
	00		 cmp	 DWORD PTR GLAD_GL_VERSION_1_3, esi
  00380	74 6c		 je	 SHORT $LN17@gladLoadGL

; 1144 :     glad_glActiveTexture = (PFNGLACTIVETEXTUREPROC)load("glActiveTexture");

  00382	48 8d 0d 00 00
	00 00		 lea	 rcx, OFFSET FLAT:??_C@_0BA@KOBBIKOF@glActiveTexture@
  00389	e8 00 00 00 00	 call	 glfwGetProcAddress

; 1145 :     glad_glSampleCoverage = (PFNGLSAMPLECOVERAGEPROC)load("glSampleCoverage");

  0038e	48 8d 0d 00 00
	00 00		 lea	 rcx, OFFSET FLAT:??_C@_0BB@BJGIPMOA@glSampleCoverage@
  00395	e8 00 00 00 00	 call	 glfwGetProcAddress

; 1146 :     glad_glCompressedTexImage3D = (PFNGLCOMPRESSEDTEXIMAGE3DPROC)load("glCompressedTexImage3D");

  0039a	48 8d 0d 00 00
	00 00		 lea	 rcx, OFFSET FLAT:??_C@_0BH@GGHNMAGP@glCompressedTexImage3D@
  003a1	e8 00 00 00 00	 call	 glfwGetProcAddress

; 1147 :     glad_glCompressedTexImage2D = (PFNGLCOMPRESSEDTEXIMAGE2DPROC)load("glCompressedTexImage2D");

  003a6	48 8d 0d 00 00
	00 00		 lea	 rcx, OFFSET FLAT:??_C@_0BH@GHLPKKFI@glCompressedTexImage2D@
  003ad	e8 00 00 00 00	 call	 glfwGetProcAddress

; 1148 :     glad_glCompressedTexImage1D = (PFNGLCOMPRESSEDTEXIMAGE1DPROC)load("glCompressedTexImage1D");

  003b2	48 8d 0d 00 00
	00 00		 lea	 rcx, OFFSET FLAT:??_C@_0BH@GFPJBEAB@glCompressedTexImage1D@
  003b9	e8 00 00 00 00	 call	 glfwGetProcAddress

; 1149 :     glad_glCompressedTexSubImage3D = (PFNGLCOMPRESSEDTEXSUBIMAGE3DPROC)load("glCompressedTexSubImage3D");

  003be	48 8d 0d 00 00
	00 00		 lea	 rcx, OFFSET FLAT:??_C@_0BK@EBJMCDPA@glCompressedTexSubImage3D@
  003c5	e8 00 00 00 00	 call	 glfwGetProcAddress

; 1150 :     glad_glCompressedTexSubImage2D = (PFNGLCOMPRESSEDTEXSUBIMAGE2DPROC)load("glCompressedTexSubImage2D");

  003ca	48 8d 0d 00 00
	00 00		 lea	 rcx, OFFSET FLAT:??_C@_0BK@EAFOEJMH@glCompressedTexSubImage2D@
  003d1	e8 00 00 00 00	 call	 glfwGetProcAddress

; 1151 :     glad_glCompressedTexSubImage1D = (PFNGLCOMPRESSEDTEXSUBIMAGE1DPROC)load("glCompressedTexSubImage1D");

  003d6	48 8d 0d 00 00
	00 00		 lea	 rcx, OFFSET FLAT:??_C@_0BK@ECBIPHJO@glCompressedTexSubImage1D@
  003dd	e8 00 00 00 00	 call	 glfwGetProcAddress

; 1152 :     glad_glGetCompressedTexImage = (PFNGLGETCOMPRESSEDTEXIMAGEPROC)load("glGetCompressedTexImage");

  003e2	48 8d 0d 00 00
	00 00		 lea	 rcx, OFFSET FLAT:??_C@_0BI@MPANLPPL@glGetCompressedTexImage@
  003e9	e8 00 00 00 00	 call	 glfwGetProcAddress
$LN17@gladLoadGL:

; 1155 :     if (!GLAD_GL_VERSION_1_4) return;

  003ee	39 35 00 00 00
	00		 cmp	 DWORD PTR GLAD_GL_VERSION_1_4, esi
  003f4	74 6c		 je	 SHORT $LN20@gladLoadGL

; 1156 :     glad_glBlendFuncSeparate = (PFNGLBLENDFUNCSEPARATEPROC)load("glBlendFuncSeparate");

  003f6	48 8d 0d 00 00
	00 00		 lea	 rcx, OFFSET FLAT:??_C@_0BE@LLLCIIOO@glBlendFuncSeparate@
  003fd	e8 00 00 00 00	 call	 glfwGetProcAddress

; 1157 :     glad_glMultiDrawArrays = (PFNGLMULTIDRAWARRAYSPROC)load("glMultiDrawArrays");

  00402	48 8d 0d 00 00
	00 00		 lea	 rcx, OFFSET FLAT:??_C@_0BC@IBABPJFA@glMultiDrawArrays@
  00409	e8 00 00 00 00	 call	 glfwGetProcAddress

; 1158 :     glad_glMultiDrawElements = (PFNGLMULTIDRAWELEMENTSPROC)load("glMultiDrawElements");

  0040e	48 8d 0d 00 00
	00 00		 lea	 rcx, OFFSET FLAT:??_C@_0BE@MPDFJJLL@glMultiDrawElements@
  00415	e8 00 00 00 00	 call	 glfwGetProcAddress

; 1159 :     glad_glPointParameterf = (PFNGLPOINTPARAMETERFPROC)load("glPointParameterf");

  0041a	48 8d 0d 00 00
	00 00		 lea	 rcx, OFFSET FLAT:??_C@_0BC@FGOOEDO@glPointParameterf@
  00421	e8 00 00 00 00	 call	 glfwGetProcAddress

; 1160 :     glad_glPointParameterfv = (PFNGLPOINTPARAMETERFVPROC)load("glPointParameterfv");

  00426	48 8d 0d 00 00
	00 00		 lea	 rcx, OFFSET FLAT:??_C@_0BD@LIABKNDP@glPointParameterfv@
  0042d	e8 00 00 00 00	 call	 glfwGetProcAddress

; 1161 :     glad_glPointParameteri = (PFNGLPOINTPARAMETERIPROC)load("glPointParameteri");

  00432	48 8d 0d 00 00
	00 00		 lea	 rcx, OFFSET FLAT:??_C@_0BC@ICPGPIPB@glPointParameteri@
  00439	e8 00 00 00 00	 call	 glfwGetProcAddress

; 1162 :     glad_glPointParameteriv = (PFNGLPOINTPARAMETERIVPROC)load("glPointParameteriv");

  0043e	48 8d 0d 00 00
	00 00		 lea	 rcx, OFFSET FLAT:??_C@_0BD@LDFNOKAC@glPointParameteriv@
  00445	e8 00 00 00 00	 call	 glfwGetProcAddress

; 1163 :     glad_glBlendColor = (PFNGLBLENDCOLORPROC)load("glBlendColor");

  0044a	48 8d 0d 00 00
	00 00		 lea	 rcx, OFFSET FLAT:??_C@_0N@PKBMFJDK@glBlendColor@
  00451	e8 00 00 00 00	 call	 glfwGetProcAddress

; 1164 :     glad_glBlendEquation = (PFNGLBLENDEQUATIONPROC)load("glBlendEquation");

  00456	48 8d 0d 00 00
	00 00		 lea	 rcx, OFFSET FLAT:??_C@_0BA@PFHILPAN@glBlendEquation@
  0045d	e8 00 00 00 00	 call	 glfwGetProcAddress
$LN20@gladLoadGL:

; 1167 :     if (!GLAD_GL_VERSION_1_5) return;

  00462	39 35 00 00 00
	00		 cmp	 DWORD PTR GLAD_GL_VERSION_1_5, esi
  00468	0f 84 e4 00 00
	00		 je	 $LN23@gladLoadGL

; 1168 :     glad_glGenQueries = (PFNGLGENQUERIESPROC)load("glGenQueries");

  0046e	48 8d 0d 00 00
	00 00		 lea	 rcx, OFFSET FLAT:??_C@_0N@CJIGHHJ@glGenQueries@
  00475	e8 00 00 00 00	 call	 glfwGetProcAddress

; 1169 :     glad_glDeleteQueries = (PFNGLDELETEQUERIESPROC)load("glDeleteQueries");

  0047a	48 8d 0d 00 00
	00 00		 lea	 rcx, OFFSET FLAT:??_C@_0BA@IOKEHMOH@glDeleteQueries@
  00481	e8 00 00 00 00	 call	 glfwGetProcAddress

; 1170 :     glad_glIsQuery = (PFNGLISQUERYPROC)load("glIsQuery");

  00486	48 8d 0d 00 00
	00 00		 lea	 rcx, OFFSET FLAT:??_C@_09CNNLCEBN@glIsQuery@
  0048d	e8 00 00 00 00	 call	 glfwGetProcAddress

; 1171 :     glad_glBeginQuery = (PFNGLBEGINQUERYPROC)load("glBeginQuery");

  00492	48 8d 0d 00 00
	00 00		 lea	 rcx, OFFSET FLAT:??_C@_0N@GIAGIGPA@glBeginQuery@
  00499	e8 00 00 00 00	 call	 glfwGetProcAddress

; 1172 :     glad_glEndQuery = (PFNGLENDQUERYPROC)load("glEndQuery");

  0049e	48 8d 0d 00 00
	00 00		 lea	 rcx, OFFSET FLAT:??_C@_0L@FLEBHIDM@glEndQuery@
  004a5	e8 00 00 00 00	 call	 glfwGetProcAddress

; 1173 :     glad_glGetQueryiv = (PFNGLGETQUERYIVPROC)load("glGetQueryiv");

  004aa	48 8d 0d 00 00
	00 00		 lea	 rcx, OFFSET FLAT:??_C@_0N@BPACPFCI@glGetQueryiv@
  004b1	e8 00 00 00 00	 call	 glfwGetProcAddress

; 1174 :     glad_glGetQueryObjectiv = (PFNGLGETQUERYOBJECTIVPROC)load("glGetQueryObjectiv");

  004b6	48 8d 0d 00 00
	00 00		 lea	 rcx, OFFSET FLAT:??_C@_0BD@KMBBCJID@glGetQueryObjectiv@
  004bd	e8 00 00 00 00	 call	 glfwGetProcAddress

; 1175 :     glad_glGetQueryObjectuiv = (PFNGLGETQUERYOBJECTUIVPROC)load("glGetQueryObjectuiv");

  004c2	48 8d 0d 00 00
	00 00		 lea	 rcx, OFFSET FLAT:??_C@_0BE@MNBBKJ@glGetQueryObjectuiv@
  004c9	e8 00 00 00 00	 call	 glfwGetProcAddress

; 1176 :     glad_glBindBuffer = (PFNGLBINDBUFFERPROC)load("glBindBuffer");

  004ce	48 8d 0d 00 00
	00 00		 lea	 rcx, OFFSET FLAT:??_C@_0N@BONEPPLO@glBindBuffer@
  004d5	e8 00 00 00 00	 call	 glfwGetProcAddress

; 1177 :     glad_glDeleteBuffers = (PFNGLDELETEBUFFERSPROC)load("glDeleteBuffers");

  004da	48 8d 0d 00 00
	00 00		 lea	 rcx, OFFSET FLAT:??_C@_0BA@DMNLADIO@glDeleteBuffers@
  004e1	e8 00 00 00 00	 call	 glfwGetProcAddress

; 1178 :     glad_glGenBuffers = (PFNGLGENBUFFERSPROC)load("glGenBuffers");

  004e6	48 8d 0d 00 00
	00 00		 lea	 rcx, OFFSET FLAT:??_C@_0N@LAOHBIBA@glGenBuffers@
  004ed	e8 00 00 00 00	 call	 glfwGetProcAddress

; 1179 :     glad_glIsBuffer = (PFNGLISBUFFERPROC)load("glIsBuffer");

  004f2	48 8d 0d 00 00
	00 00		 lea	 rcx, OFFSET FLAT:??_C@_0L@KFPDMKNG@glIsBuffer@
  004f9	e8 00 00 00 00	 call	 glfwGetProcAddress

; 1180 :     glad_glBufferData = (PFNGLBUFFERDATAPROC)load("glBufferData");

  004fe	48 8d 0d 00 00
	00 00		 lea	 rcx, OFFSET FLAT:??_C@_0N@JHHJMABP@glBufferData@
  00505	e8 00 00 00 00	 call	 glfwGetProcAddress

; 1181 :     glad_glBufferSubData = (PFNGLBUFFERSUBDATAPROC)load("glBufferSubData");

  0050a	48 8d 0d 00 00
	00 00		 lea	 rcx, OFFSET FLAT:??_C@_0BA@GAJMDBBN@glBufferSubData@
  00511	e8 00 00 00 00	 call	 glfwGetProcAddress

; 1182 :     glad_glGetBufferSubData = (PFNGLGETBUFFERSUBDATAPROC)load("glGetBufferSubData");

  00516	48 8d 0d 00 00
	00 00		 lea	 rcx, OFFSET FLAT:??_C@_0BD@PNDAHMBO@glGetBufferSubData@
  0051d	e8 00 00 00 00	 call	 glfwGetProcAddress

; 1183 :     glad_glMapBuffer = (PFNGLMAPBUFFERPROC)load("glMapBuffer");

  00522	48 8d 0d 00 00
	00 00		 lea	 rcx, OFFSET FLAT:??_C@_0M@NNHDPACA@glMapBuffer@
  00529	e8 00 00 00 00	 call	 glfwGetProcAddress

; 1184 :     glad_glUnmapBuffer = (PFNGLUNMAPBUFFERPROC)load("glUnmapBuffer");

  0052e	48 8d 0d 00 00
	00 00		 lea	 rcx, OFFSET FLAT:??_C@_0O@OFGHBLEO@glUnmapBuffer@
  00535	e8 00 00 00 00	 call	 glfwGetProcAddress

; 1185 :     glad_glGetBufferParameteriv = (PFNGLGETBUFFERPARAMETERIVPROC)load("glGetBufferParameteriv");

  0053a	48 8d 0d 00 00
	00 00		 lea	 rcx, OFFSET FLAT:??_C@_0BH@BMIEIFJP@glGetBufferParameteriv@
  00541	e8 00 00 00 00	 call	 glfwGetProcAddress

; 1186 :     glad_glGetBufferPointerv = (PFNGLGETBUFFERPOINTERVPROC)load("glGetBufferPointerv");

  00546	48 8d 0d 00 00
	00 00		 lea	 rcx, OFFSET FLAT:??_C@_0BE@KNJEIFMC@glGetBufferPointerv@
  0054d	e8 00 00 00 00	 call	 glfwGetProcAddress
$LN23@gladLoadGL:

; 1902 :     load_GL_VERSION_1_0(load);
; 1903 :     load_GL_VERSION_1_1(load);
; 1904 :     load_GL_VERSION_1_2(load);
; 1905 :     load_GL_VERSION_1_3(load);
; 1906 :     load_GL_VERSION_1_4(load);
; 1907 :     load_GL_VERSION_1_5(load);
; 1908 :     load_GL_VERSION_2_0(load);

  00552	e8 00 00 00 00	 call	 load_GL_VERSION_2_0

; 1285 :     if (!GLAD_GL_VERSION_2_1) return;

  00557	39 35 00 00 00
	00		 cmp	 DWORD PTR GLAD_GL_VERSION_2_1, esi
  0055d	74 48		 je	 SHORT $LN26@gladLoadGL

; 1286 :     glad_glUniformMatrix2x3fv = (PFNGLUNIFORMMATRIX2X3FVPROC)load("glUniformMatrix2x3fv");

  0055f	48 8d 0d 00 00
	00 00		 lea	 rcx, OFFSET FLAT:??_C@_0BF@KDDJMCDK@glUniformMatrix2x3fv@
  00566	e8 00 00 00 00	 call	 glfwGetProcAddress

; 1287 :     glad_glUniformMatrix3x2fv = (PFNGLUNIFORMMATRIX3X2FVPROC)load("glUniformMatrix3x2fv");

  0056b	48 8d 0d 00 00
	00 00		 lea	 rcx, OFFSET FLAT:??_C@_0BF@NANJHGPK@glUniformMatrix3x2fv@
  00572	e8 00 00 00 00	 call	 glfwGetProcAddress

; 1288 :     glad_glUniformMatrix2x4fv = (PFNGLUNIFORMMATRIX2X4FVPROC)load("glUniformMatrix2x4fv");

  00577	48 8d 0d 00 00
	00 00		 lea	 rcx, OFFSET FLAT:??_C@_0BF@DOOOPKID@glUniformMatrix2x4fv@
  0057e	e8 00 00 00 00	 call	 glfwGetProcAddress

; 1289 :     glad_glUniformMatrix4x2fv = (PFNGLUNIFORMMATRIX4X2FVPROC)load("glUniformMatrix4x2fv");

  00583	48 8d 0d 00 00
	00 00		 lea	 rcx, OFFSET FLAT:??_C@_0BF@MNNMEGEC@glUniformMatrix4x2fv@
  0058a	e8 00 00 00 00	 call	 glfwGetProcAddress

; 1290 :     glad_glUniformMatrix3x4fv = (PFNGLUNIFORMMATRIX3X4FVPROC)load("glUniformMatrix3x4fv");

  0058f	48 8d 0d 00 00
	00 00		 lea	 rcx, OFFSET FLAT:??_C@_0BF@PFLCCJCG@glUniformMatrix3x4fv@
  00596	e8 00 00 00 00	 call	 glfwGetProcAddress

; 1291 :     glad_glUniformMatrix4x3fv = (PFNGLUNIFORMMATRIX4X3FVPROC)load("glUniformMatrix4x3fv");

  0059b	48 8d 0d 00 00
	00 00		 lea	 rcx, OFFSET FLAT:??_C@_0BF@HFGACBCH@glUniformMatrix4x3fv@
  005a2	e8 00 00 00 00	 call	 glfwGetProcAddress
$LN26@gladLoadGL:

; 1909 :     load_GL_VERSION_2_1(load);
; 1910 :     load_GL_VERSION_3_0(load);

  005a7	e8 00 00 00 00	 call	 load_GL_VERSION_3_0

; 1381 :     if (!GLAD_GL_VERSION_3_1) return;

  005ac	39 35 00 00 00
	00		 cmp	 DWORD PTR GLAD_GL_VERSION_3_1, esi
  005b2	0f 84 b4 00 00
	00		 je	 $LN29@gladLoadGL

; 1382 :     glad_glDrawArraysInstanced = (PFNGLDRAWARRAYSINSTANCEDPROC)load("glDrawArraysInstanced");

  005b8	48 8d 0d 00 00
	00 00		 lea	 rcx, OFFSET FLAT:??_C@_0BG@HIOFINAN@glDrawArraysInstanced@
  005bf	e8 00 00 00 00	 call	 glfwGetProcAddress

; 1383 :     glad_glDrawElementsInstanced = (PFNGLDRAWELEMENTSINSTANCEDPROC)load("glDrawElementsInstanced");

  005c4	48 8d 0d 00 00
	00 00		 lea	 rcx, OFFSET FLAT:??_C@_0BI@CGJENFBH@glDrawElementsInstanced@
  005cb	e8 00 00 00 00	 call	 glfwGetProcAddress

; 1384 :     glad_glTexBuffer = (PFNGLTEXBUFFERPROC)load("glTexBuffer");

  005d0	48 8d 0d 00 00
	00 00		 lea	 rcx, OFFSET FLAT:??_C@_0M@IIMBBALL@glTexBuffer@
  005d7	e8 00 00 00 00	 call	 glfwGetProcAddress

; 1385 :     glad_glPrimitiveRestartIndex = (PFNGLPRIMITIVERESTARTINDEXPROC)load("glPrimitiveRestartIndex");

  005dc	48 8d 0d 00 00
	00 00		 lea	 rcx, OFFSET FLAT:??_C@_0BI@LJDLNGAF@glPrimitiveRestartIndex@
  005e3	e8 00 00 00 00	 call	 glfwGetProcAddress

; 1386 :     glad_glCopyBufferSubData = (PFNGLCOPYBUFFERSUBDATAPROC)load("glCopyBufferSubData");

  005e8	48 8d 0d 00 00
