; Listing generated by Microsoft (R) Optimizing Compiler Version 19.37.32822.0 

include listing.inc

INCLUDELIB MSVCRT
INCLUDELIB OLDNAMES

PUBLIC	defaultVecPtr
_DATA	SEGMENT
COMM	report:QWORD
_DATA	ENDS
_BSS	SEGMENT
defaultVecPtr DQ 01H DUP (?)
_BSS	ENDS
msvcjmc	SEGMENT
__0ED14FEE_winpackagefamily@h DB 01H
__F92EF742_winapifamily@h DB 01H
__22E515EB_sdkddkver@h DB 01H
__9C03CD75_concurrencysal@h DB 01H
__CA64BAF1_sal@h DB 01H
__95655E73_vadefs@h DB 01H
__1D560A45_vcruntime@h DB 01H
__F214EFBF_excpt@h DB 01H
__D9B78EDA_stdarg@h DB 01H
__29F49F40_specstrings_undef@h DB 01H
__D0F42932_specstrings_strict@h DB 01H
__F00405FD_sdv_driverspecs@h DB 01H
__173E09CA_driverspecs@h DB 01H
__9A452361_specstrings@h DB 01H
__1B0272D9_corecrt@h DB 01H
__74484FB3_corecrt_wctype@h DB 01H
__1EC467ED_ctype@h DB 01H
__98517906_kernelspecs@h DB 01H
__D3497022_basetsd@h DB 01H
__61CC25A1_errno@h DB 01H
__7061C667_vcruntime_string@h DB 01H
__E4C945B4_corecrt_memcpy_s@h DB 01H
__8EAFF484_corecrt_memory@h DB 01H
__6490AEC5_corecrt_wstring@h DB 01H
__E8295E1E_string@h DB 01H
__7FCB5136_guiddef@h DB 01H
__FF8A9E11_pshpack4@h DB 01H
__D5438902_poppack@h DB 01H
__FB07E2A3_pshpack2@h DB 01H
__F6906775_pshpack8@h DB 01H
__F9415CFA_pshpack1@h DB 01H
__E58C6F1C_apiset@h DB 01H
__A5C52262_ktmtypes@h DB 01H
__FBBA8F9D_winnt@h DB 01H
__A32D3D2C_minwindef@h DB 01H
__7D798299_windef@h DB 01H
__9AE108E9_apisetcconv@h DB 01H
__9CE53D2C_minwinbase@h DB 01H
__5D0AA210_apiquery2@h DB 01H
__4DD4E726_processenv@h DB 01H
__3575CC96_fileapi@h DB 01H
__8EA220E6_fileapifromapp@h DB 01H
__BF9B31FE_debugapi@h DB 01H
__C3AFE134_utilapiset@h DB 01H
__76F69E51_handleapi@h DB 01H
__7E63D784_errhandlingapi@h DB 01H
__FFA7003C_fibersapi@h DB 01H
__8971CECF_namedpipeapi@h DB 01H
__46C9D8A6_profileapi@h DB 01H
__98D4F0A3_heapapi@h DB 01H
__50EF2A88_ioapiset@h DB 01H
__92EA1464_synchapi@h DB 01H
__A53D8AED_interlockedapi@h DB 01H
__B506CAAF_processthreadsapi@h DB 01H
__FF735694_sysinfoapi@h DB 01H
__29589789_memoryapi@h DB 01H
__E9C7A663_enclaveapi@h DB 01H
__D035F9F7_threadpoollegacyapiset@h DB 01H
__C899130C_threadpoolapiset@h DB 01H
__E0441EE7_jobapi@h DB 01H
__CEF86838_jobapi2@h DB 01H
__35AC6B9A_wow64apiset@h DB 01H
__C8AE41A5_libloaderapi@h DB 01H
__CC9E232D_securitybaseapi@h DB 01H
__C9D0C9B8_namespaceapi@h DB 01H
__30FF9CAD_systemtopologyapi@h DB 01H
__4D358795_processtopologyapi@h DB 01H
__40446D10_securityappcontainer@h DB 01H
__3A952EDF_realtimeapiset@h DB 01H
__F4865F4B_winerror@h DB 01H
__53C1BD93_timezoneapi@h DB 01H
__1FFBEDBF_winbase@h DB 01H
__43D3FA34_wingdi@h DB 01H
__D24A7391_tvout@h DB 01H
__7713A6C8_winuser@h DB 01H
__0B345F71_datetimeapi@h DB 01H
__9AC6960C_winnls@h DB 01H
__973A40A8_stringapiset@h DB 01H
__CC46FEE2_wincontypes@h DB 01H
__97D70BE1_consoleapi@h DB 01H
__27EC5E18_consoleapi2@h DB 01H
__262E342F_consoleapi3@h DB 01H
__641DCD70_wincon@h DB 01H
__5A96C7A7_verrsrc@h DB 01H
__B69C6FF2_winver@h DB 01H
__7AEB8C37_reason@h DB 01H
__59F1A8A9_winreg@h DB 01H
__EE0E2B7F_wnnc@h DB 01H
__DCDB7054_winnetwk@h DB 01H
__81DDEDE3_stralign@h DB 01H
__2134D1B4_winsvc@h DB 01H
__11C07376_mcx@h DB 01H
__577CE3E7_ime_cmodes@h DB 01H
__1E72C31E_imm@h DB 01H
__E15BF856_windows@h DB 01H
__BF933BA7_framework@h DB 01H
__ED683015_stdint@h DB 01H
__C8DE3B32_khrplatform@h DB 01H
__A8399BEE_glad@h DB 01H
__13F5961F_stddef@h DB 01H
__62B253DE_glfw3@h DB 01H
__11E77DD3_mmintrin@h DB 01H
__45DED006_corecrt_malloc@h DB 01H
__FA77ED4C_malloc@h DB 01H
__9D836611_xmmintrin@h DB 01H
__F8E1EFDD_emmintrin@h DB 01H
__27408754_pmmintrin@h DB 01H
__9799F4D6_tmmintrin@h DB 01H
__BEA2E155_smmintrin@h DB 01H
__DBC06899_nmmintrin@h DB 01H
__0E7B92D7_wmmintrin@h DB 01H
__C5EFDFD0_zmmintrin@h DB 01H
__F2FB7D1A_immintrin@h DB 01H
__BF9E0B0A_StgSharpGraphic@h DB 01H
__49192D28_dllmain@c DB 01H
msvcjmc	ENDS
PUBLIC	DllMain
PUBLIC	__JustMyCode_Default
EXTRN	__imp__aligned_malloc:PROC
EXTRN	__CheckForDebuggerJustMyCode:PROC
;	COMDAT pdata
pdata	SEGMENT
$pdata$DllMain DD imagerel $LN12
	DD	imagerel $LN12+94
	DD	imagerel $unwind$DllMain
pdata	ENDS
;	COMDAT xdata
xdata	SEGMENT
$unwind$DllMain DD 025031801H
	DD	0d2132318H
	DD	0500fH
xdata	ENDS
; Function compile flags: /Odt
;	COMDAT __JustMyCode_Default
_TEXT	SEGMENT
__JustMyCode_Default PROC				; COMDAT
  00000	c2 00 00	 ret	 0
__JustMyCode_Default ENDP
_TEXT	ENDS
; Function compile flags: /Odtp /ZI
; File D:\NitloadIndustry\研究项目\1-Flagship\TH2020\内核开源发布\StgShqrpGraphic\dllmain.c
;	COMDAT DllMain
_TEXT	SEGMENT
tv64 = 64
hModule$ = 96
ul_reason_for_call$ = 104
lpReserved$ = 112
DllMain	PROC						; COMDAT

; 17   : {

$LN12:
  00000	4c 89 44 24 18	 mov	 QWORD PTR [rsp+24], r8
  00005	89 54 24 10	 mov	 DWORD PTR [rsp+16], edx
  00009	48 89 4c 24 08	 mov	 QWORD PTR [rsp+8], rcx
  0000e	55		 push	 rbp
  0000f	48 83 ec 70	 sub	 rsp, 112		; 00000070H
  00013	48 8d 6c 24 20	 lea	 rbp, QWORD PTR [rsp+32]
  00018	48 8d 0d 00 00
	00 00		 lea	 rcx, OFFSET FLAT:__49192D28_dllmain@c
  0001f	e8 00 00 00 00	 call	 __CheckForDebuggerJustMyCode

; 18   :     switch (ul_reason_for_call)

  00024	8b 45 68	 mov	 eax, DWORD PTR ul_reason_for_call$[rbp]
  00027	89 45 40	 mov	 DWORD PTR tv64[rbp], eax
  0002a	83 7d 40 01	 cmp	 DWORD PTR tv64[rbp], 1
  0002e	74 02		 je	 SHORT $LN7@DllMain
  00030	eb 21		 jmp	 SHORT $LN2@DllMain
$LN7@DllMain:
$LN6@DllMain:

; 19   :     {
; 20   :     case DLL_PROCESS_ATTACH:
; 21   :         do
; 22   :         {
; 23   :             defaultVecPtr = _aligned_malloc(sizeof(__m128),16);

  00032	ba 10 00 00 00	 mov	 edx, 16
  00037	b9 10 00 00 00	 mov	 ecx, 16
  0003c	ff 15 00 00 00
	00		 call	 QWORD PTR __imp__aligned_malloc
  00042	48 89 05 00 00
	00 00		 mov	 QWORD PTR defaultVecPtr, rax

; 24   :         } while (defaultVecPtr == NULL);

  00049	48 83 3d 00 00
	00 00 00	 cmp	 QWORD PTR defaultVecPtr, 0
  00051	74 df		 je	 SHORT $LN6@DllMain
$LN2@DllMain:

; 25   : 
; 26   : 
; 27   :     case DLL_THREAD_ATTACH:
; 28   : 
; 29   : 
; 30   :     case DLL_THREAD_DETACH:
; 31   : 
; 32   : 
; 33   :     case DLL_PROCESS_DETACH:
; 34   : 
; 35   : 
; 36   : 
; 37   :         break;
; 38   :     }
; 39   :     return TRUE;

  00053	b8 01 00 00 00	 mov	 eax, 1

; 40   : }

  00058	48 8d 65 50	 lea	 rsp, QWORD PTR [rbp+80]
  0005c	5d		 pop	 rbp
  0005d	c3		 ret	 0
DllMain	ENDP
_TEXT	ENDS
END
