; Listing generated by Microsoft (R) Optimizing Compiler Version 19.37.32822.0 

include listing.inc

INCLUDELIB MSVCRT
INCLUDELIB OLDNAMES

PUBLIC	GLVersion
PUBLIC	GLAD_GL_VERSION_1_0
PUBLIC	glad_glCullFace
PUBLIC	glad_glFrontFace
PUBLIC	glad_glHint
PUBLIC	glad_glLineWidth
PUBLIC	glad_glPointSize
PUBLIC	glad_glPolygonMode
PUBLIC	glad_glScissor
PUBLIC	glad_glTexParameterf
PUBLIC	glad_glTexParameterfv
PUBLIC	glad_glTexParameteri
PUBLIC	glad_glTexParameteriv
PUBLIC	glad_glTexImage1D
PUBLIC	glad_glTexImage2D
PUBLIC	glad_glDrawBuffer
PUBLIC	glad_glClear
PUBLIC	glad_glClearColor
PUBLIC	glad_glClearStencil
PUBLIC	glad_glClearDepth
PUBLIC	glad_glStencilMask
PUBLIC	glad_glColorMask
PUBLIC	glad_glDepthMask
PUBLIC	glad_glDisable
PUBLIC	glad_glEnable
PUBLIC	glad_glFinish
PUBLIC	glad_glFlush
PUBLIC	glad_glBlendFunc
PUBLIC	glad_glLogicOp
PUBLIC	glad_glStencilFunc
PUBLIC	glad_glStencilOp
PUBLIC	glad_glDepthFunc
PUBLIC	glad_glPixelStoref
PUBLIC	glad_glPixelStorei
PUBLIC	glad_glReadBuffer
PUBLIC	glad_glReadPixels
PUBLIC	glad_glGetBooleanv
PUBLIC	glad_glGetDoublev
PUBLIC	glad_glGetError
PUBLIC	glad_glGetFloatv
PUBLIC	glad_glGetIntegerv
PUBLIC	glad_glGetString
PUBLIC	glad_glGetTexImage
PUBLIC	glad_glGetTexParameterfv
PUBLIC	glad_glGetTexParameteriv
PUBLIC	glad_glGetTexLevelParameterfv
PUBLIC	glad_glGetTexLevelParameteriv
PUBLIC	glad_glIsEnabled
PUBLIC	glad_glDepthRange
PUBLIC	glad_glViewport
PUBLIC	GLAD_GL_VERSION_1_1
PUBLIC	glad_glDrawArrays
PUBLIC	glad_glDrawElements
PUBLIC	glad_glPolygonOffset
PUBLIC	glad_glCopyTexImage1D
PUBLIC	glad_glCopyTexImage2D
PUBLIC	glad_glCopyTexSubImage1D
PUBLIC	glad_glCopyTexSubImage2D
PUBLIC	glad_glTexSubImage1D
PUBLIC	glad_glTexSubImage2D
PUBLIC	glad_glBindTexture
PUBLIC	glad_glDeleteTextures
PUBLIC	glad_glGenTextures
PUBLIC	glad_glIsTexture
PUBLIC	GLAD_GL_VERSION_1_2
PUBLIC	glad_glDrawRangeElements
PUBLIC	glad_glTexImage3D
PUBLIC	glad_glTexSubImage3D
PUBLIC	glad_glCopyTexSubImage3D
PUBLIC	GLAD_GL_VERSION_1_3
PUBLIC	glad_glActiveTexture
PUBLIC	glad_glSampleCoverage
PUBLIC	glad_glCompressedTexImage3D
PUBLIC	glad_glCompressedTexImage2D
PUBLIC	glad_glCompressedTexImage1D
PUBLIC	glad_glCompressedTexSubImage3D
PUBLIC	glad_glCompressedTexSubImage2D
PUBLIC	glad_glCompressedTexSubImage1D
PUBLIC	glad_glGetCompressedTexImage
PUBLIC	GLAD_GL_VERSION_1_4
PUBLIC	glad_glBlendFuncSeparate
PUBLIC	glad_glMultiDrawArrays
PUBLIC	glad_glMultiDrawElements
PUBLIC	glad_glPointParameterf
PUBLIC	glad_glPointParameterfv
PUBLIC	glad_glPointParameteri
PUBLIC	glad_glPointParameteriv
PUBLIC	glad_glBlendColor
PUBLIC	glad_glBlendEquation
PUBLIC	GLAD_GL_VERSION_1_5
PUBLIC	glad_glGenQueries
PUBLIC	glad_glDeleteQueries
PUBLIC	glad_glIsQuery
PUBLIC	glad_glBeginQuery
PUBLIC	glad_glEndQuery
PUBLIC	glad_glGetQueryiv
PUBLIC	glad_glGetQueryObjectiv
PUBLIC	glad_glGetQueryObjectuiv
PUBLIC	glad_glBindBuffer
PUBLIC	glad_glDeleteBuffers
PUBLIC	glad_glGenBuffers
PUBLIC	glad_glIsBuffer
PUBLIC	glad_glBufferData
PUBLIC	glad_glBufferSubData
PUBLIC	glad_glGetBufferSubData
PUBLIC	glad_glMapBuffer
PUBLIC	glad_glUnmapBuffer
PUBLIC	glad_glGetBufferParameteriv
PUBLIC	glad_glGetBufferPointerv
PUBLIC	GLAD_GL_VERSION_2_0
PUBLIC	glad_glBlendEquationSeparate
PUBLIC	glad_glDrawBuffers
PUBLIC	glad_glStencilOpSeparate
PUBLIC	glad_glStencilFuncSeparate
PUBLIC	glad_glStencilMaskSeparate
PUBLIC	glad_glAttachShader
PUBLIC	glad_glBindAttribLocation
PUBLIC	glad_glCompileShader
PUBLIC	glad_glCreateProgram
PUBLIC	glad_glCreateShader
PUBLIC	glad_glDeleteProgram
PUBLIC	glad_glDeleteShader
PUBLIC	glad_glDetachShader
PUBLIC	glad_glDisableVertexAttribArray
PUBLIC	glad_glEnableVertexAttribArray
PUBLIC	glad_glGetActiveAttrib
PUBLIC	glad_glGetActiveUniform
PUBLIC	glad_glGetAttachedShaders
PUBLIC	glad_glGetAttribLocation
PUBLIC	glad_glGetProgramiv
PUBLIC	glad_glGetProgramInfoLog
PUBLIC	glad_glGetShaderiv
PUBLIC	glad_glGetShaderInfoLog
PUBLIC	glad_glGetShaderSource
PUBLIC	glad_glGetUniformLocation
PUBLIC	glad_glGetUniformfv
PUBLIC	glad_glGetUniformiv
PUBLIC	glad_glGetVertexAttribdv
PUBLIC	glad_glGetVertexAttribfv
PUBLIC	glad_glGetVertexAttribiv
PUBLIC	glad_glGetVertexAttribPointerv
PUBLIC	glad_glIsProgram
PUBLIC	glad_glIsShader
PUBLIC	glad_glLinkProgram
PUBLIC	glad_glShaderSource
PUBLIC	glad_glUseProgram
PUBLIC	glad_glUniform1f
PUBLIC	glad_glUniform2f
PUBLIC	glad_glUniform3f
PUBLIC	glad_glUniform4f
PUBLIC	glad_glUniform1i
PUBLIC	glad_glUniform2i
PUBLIC	glad_glUniform3i
PUBLIC	glad_glUniform4i
PUBLIC	glad_glUniform1fv
PUBLIC	glad_glUniform2fv
PUBLIC	glad_glUniform3fv
PUBLIC	glad_glUniform4fv
PUBLIC	glad_glUniform1iv
PUBLIC	glad_glUniform2iv
PUBLIC	glad_glUniform3iv
PUBLIC	glad_glUniform4iv
PUBLIC	glad_glUniformMatrix2fv
PUBLIC	glad_glUniformMatrix3fv
PUBLIC	glad_glUniformMatrix4fv
PUBLIC	glad_glValidateProgram
PUBLIC	glad_glVertexAttrib1d
PUBLIC	glad_glVertexAttrib1dv
PUBLIC	glad_glVertexAttrib1f
PUBLIC	glad_glVertexAttrib1fv
PUBLIC	glad_glVertexAttrib1s
PUBLIC	glad_glVertexAttrib1sv
PUBLIC	glad_glVertexAttrib2d
PUBLIC	glad_glVertexAttrib2dv
PUBLIC	glad_glVertexAttrib2f
PUBLIC	glad_glVertexAttrib2fv
PUBLIC	glad_glVertexAttrib2s
PUBLIC	glad_glVertexAttrib2sv
PUBLIC	glad_glVertexAttrib3d
PUBLIC	glad_glVertexAttrib3dv
PUBLIC	glad_glVertexAttrib3f
PUBLIC	glad_glVertexAttrib3fv
PUBLIC	glad_glVertexAttrib3s
PUBLIC	glad_glVertexAttrib3sv
PUBLIC	glad_glVertexAttrib4Nbv
PUBLIC	glad_glVertexAttrib4Niv
PUBLIC	glad_glVertexAttrib4Nsv
PUBLIC	glad_glVertexAttrib4Nub
PUBLIC	glad_glVertexAttrib4Nubv
PUBLIC	glad_glVertexAttrib4Nuiv
PUBLIC	glad_glVertexAttrib4Nusv
PUBLIC	glad_glVertexAttrib4bv
PUBLIC	glad_glVertexAttrib4d
PUBLIC	glad_glVertexAttrib4dv
PUBLIC	glad_glVertexAttrib4f
PUBLIC	glad_glVertexAttrib4fv
PUBLIC	glad_glVertexAttrib4iv
PUBLIC	glad_glVertexAttrib4s
PUBLIC	glad_glVertexAttrib4sv
PUBLIC	glad_glVertexAttrib4ubv
PUBLIC	glad_glVertexAttrib4uiv
PUBLIC	glad_glVertexAttrib4usv
PUBLIC	glad_glVertexAttribPointer
PUBLIC	GLAD_GL_VERSION_2_1
PUBLIC	glad_glUniformMatrix2x3fv
PUBLIC	glad_glUniformMatrix3x2fv
PUBLIC	glad_glUniformMatrix2x4fv
PUBLIC	glad_glUniformMatrix4x2fv
PUBLIC	glad_glUniformMatrix3x4fv
PUBLIC	glad_glUniformMatrix4x3fv
PUBLIC	GLAD_GL_VERSION_3_0
PUBLIC	glad_glColorMaski
PUBLIC	glad_glGetBooleani_v
PUBLIC	glad_glGetIntegeri_v
PUBLIC	glad_glEnablei
PUBLIC	glad_glDisablei
PUBLIC	glad_glIsEnabledi
PUBLIC	glad_glBeginTransformFeedback
PUBLIC	glad_glEndTransformFeedback
PUBLIC	glad_glBindBufferRange
PUBLIC	glad_glBindBufferBase
PUBLIC	glad_glTransformFeedbackVaryings
PUBLIC	glad_glGetTransformFeedbackVarying
PUBLIC	glad_glClampColor
PUBLIC	glad_glBeginConditionalRender
PUBLIC	glad_glEndConditionalRender
PUBLIC	glad_glVertexAttribIPointer
PUBLIC	glad_glGetVertexAttribIiv
PUBLIC	glad_glGetVertexAttribIuiv
PUBLIC	glad_glVertexAttribI1i
PUBLIC	glad_glVertexAttribI2i
PUBLIC	glad_glVertexAttribI3i
PUBLIC	glad_glVertexAttribI4i
PUBLIC	glad_glVertexAttribI1ui
PUBLIC	glad_glVertexAttribI2ui
PUBLIC	glad_glVertexAttribI3ui
PUBLIC	glad_glVertexAttribI4ui
PUBLIC	glad_glVertexAttribI1iv
PUBLIC	glad_glVertexAttribI2iv
PUBLIC	glad_glVertexAttribI3iv
PUBLIC	glad_glVertexAttribI4iv
PUBLIC	glad_glVertexAttribI1uiv
PUBLIC	glad_glVertexAttribI2uiv
PUBLIC	glad_glVertexAttribI3uiv
PUBLIC	glad_glVertexAttribI4uiv
PUBLIC	glad_glVertexAttribI4bv
PUBLIC	glad_glVertexAttribI4sv
PUBLIC	glad_glVertexAttribI4ubv
PUBLIC	glad_glVertexAttribI4usv
PUBLIC	glad_glGetUniformuiv
PUBLIC	glad_glBindFragDataLocation
PUBLIC	glad_glGetFragDataLocation
PUBLIC	glad_glUniform1ui
PUBLIC	glad_glUniform2ui
PUBLIC	glad_glUniform3ui
PUBLIC	glad_glUniform4ui
PUBLIC	glad_glUniform1uiv
PUBLIC	glad_glUniform2uiv
PUBLIC	glad_glUniform3uiv
PUBLIC	glad_glUniform4uiv
PUBLIC	glad_glTexParameterIiv
PUBLIC	glad_glTexParameterIuiv
PUBLIC	glad_glGetTexParameterIiv
PUBLIC	glad_glGetTexParameterIuiv
PUBLIC	glad_glClearBufferiv
PUBLIC	glad_glClearBufferuiv
PUBLIC	glad_glClearBufferfv
PUBLIC	glad_glClearBufferfi
PUBLIC	glad_glGetStringi
PUBLIC	glad_glIsRenderbuffer
PUBLIC	glad_glBindRenderbuffer
PUBLIC	glad_glDeleteRenderbuffers
PUBLIC	glad_glGenRenderbuffers
PUBLIC	glad_glRenderbufferStorage
PUBLIC	glad_glGetRenderbufferParameteriv
PUBLIC	glad_glIsFramebuffer
PUBLIC	glad_glBindFramebuffer
PUBLIC	glad_glDeleteFramebuffers
PUBLIC	glad_glGenFramebuffers
PUBLIC	glad_glCheckFramebufferStatus
PUBLIC	glad_glFramebufferTexture1D
PUBLIC	glad_glFramebufferTexture2D
PUBLIC	glad_glFramebufferTexture3D
PUBLIC	glad_glFramebufferRenderbuffer
PUBLIC	glad_glGetFramebufferAttachmentParameteriv
PUBLIC	glad_glGenerateMipmap
PUBLIC	glad_glBlitFramebuffer
PUBLIC	glad_glRenderbufferStorageMultisample
PUBLIC	glad_glFramebufferTextureLayer
PUBLIC	glad_glMapBufferRange
PUBLIC	glad_glFlushMappedBufferRange
PUBLIC	glad_glBindVertexArray
PUBLIC	glad_glDeleteVertexArrays
PUBLIC	glad_glGenVertexArrays
PUBLIC	glad_glIsVertexArray
PUBLIC	GLAD_GL_VERSION_3_1
PUBLIC	glad_glDrawArraysInstanced
PUBLIC	glad_glDrawElementsInstanced
PUBLIC	glad_glTexBuffer
PUBLIC	glad_glPrimitiveRestartIndex
PUBLIC	glad_glCopyBufferSubData
PUBLIC	glad_glGetUniformIndices
PUBLIC	glad_glGetActiveUniformsiv
PUBLIC	glad_glGetActiveUniformName
PUBLIC	glad_glGetUniformBlockIndex
PUBLIC	glad_glGetActiveUniformBlockiv
PUBLIC	glad_glGetActiveUniformBlockName
PUBLIC	glad_glUniformBlockBinding
PUBLIC	GLAD_GL_VERSION_3_2
PUBLIC	glad_glDrawElementsBaseVertex
PUBLIC	glad_glDrawRangeElementsBaseVertex
PUBLIC	glad_glDrawElementsInstancedBaseVertex
PUBLIC	glad_glMultiDrawElementsBaseVertex
PUBLIC	glad_glProvokingVertex
PUBLIC	glad_glFenceSync
PUBLIC	glad_glIsSync
PUBLIC	glad_glDeleteSync
PUBLIC	glad_glClientWaitSync
PUBLIC	glad_glWaitSync
PUBLIC	glad_glGetInteger64v
PUBLIC	glad_glGetSynciv
PUBLIC	glad_glGetInteger64i_v
PUBLIC	glad_glGetBufferParameteri64v
PUBLIC	glad_glFramebufferTexture
PUBLIC	glad_glTexImage2DMultisample
PUBLIC	glad_glTexImage3DMultisample
PUBLIC	glad_glGetMultisamplefv
PUBLIC	glad_glSampleMaski
PUBLIC	GLAD_GL_VERSION_3_3
PUBLIC	glad_glBindFragDataLocationIndexed
PUBLIC	glad_glGetFragDataIndex
PUBLIC	glad_glGenSamplers
PUBLIC	glad_glDeleteSamplers
PUBLIC	glad_glIsSampler
PUBLIC	glad_glBindSampler
PUBLIC	glad_glSamplerParameteri
PUBLIC	glad_glSamplerParameteriv
PUBLIC	glad_glSamplerParameterf
PUBLIC	glad_glSamplerParameterfv
PUBLIC	glad_glSamplerParameterIiv
PUBLIC	glad_glSamplerParameterIuiv
PUBLIC	glad_glGetSamplerParameteriv
PUBLIC	glad_glGetSamplerParameterIiv
PUBLIC	glad_glGetSamplerParameterfv
PUBLIC	glad_glGetSamplerParameterIuiv
PUBLIC	glad_glQueryCounter
PUBLIC	glad_glGetQueryObjecti64v
PUBLIC	glad_glGetQueryObjectui64v
PUBLIC	glad_glVertexAttribDivisor
PUBLIC	glad_glVertexAttribP1ui
PUBLIC	glad_glVertexAttribP1uiv
PUBLIC	glad_glVertexAttribP2ui
PUBLIC	glad_glVertexAttribP2uiv
PUBLIC	glad_glVertexAttribP3ui
PUBLIC	glad_glVertexAttribP3uiv
PUBLIC	glad_glVertexAttribP4ui
PUBLIC	glad_glVertexAttribP4uiv
PUBLIC	glad_glVertexP2ui
PUBLIC	glad_glVertexP2uiv
PUBLIC	glad_glVertexP3ui
PUBLIC	glad_glVertexP3uiv
PUBLIC	glad_glVertexP4ui
PUBLIC	glad_glVertexP4uiv
PUBLIC	glad_glTexCoordP1ui
PUBLIC	glad_glTexCoordP1uiv
PUBLIC	glad_glTexCoordP2ui
PUBLIC	glad_glTexCoordP2uiv
PUBLIC	glad_glTexCoordP3ui
PUBLIC	glad_glTexCoordP3uiv
PUBLIC	glad_glTexCoordP4ui
PUBLIC	glad_glTexCoordP4uiv
PUBLIC	glad_glMultiTexCoordP1ui
PUBLIC	glad_glMultiTexCoordP1uiv
PUBLIC	glad_glMultiTexCoordP2ui
PUBLIC	glad_glMultiTexCoordP2uiv
PUBLIC	glad_glMultiTexCoordP3ui
PUBLIC	glad_glMultiTexCoordP3uiv
PUBLIC	glad_glMultiTexCoordP4ui
PUBLIC	glad_glMultiTexCoordP4uiv
PUBLIC	glad_glNormalP3ui
PUBLIC	glad_glNormalP3uiv
PUBLIC	glad_glColorP3ui
PUBLIC	glad_glColorP3uiv
PUBLIC	glad_glColorP4ui
PUBLIC	glad_glColorP4uiv
PUBLIC	glad_glSecondaryColorP3ui
PUBLIC	glad_glSecondaryColorP3uiv
PUBLIC	GLAD_GL_VERSION_4_0
PUBLIC	glad_glMinSampleShading
PUBLIC	glad_glBlendEquationi
PUBLIC	glad_glBlendEquationSeparatei
PUBLIC	glad_glBlendFunci
PUBLIC	glad_glBlendFuncSeparatei
PUBLIC	glad_glDrawArraysIndirect
PUBLIC	glad_glDrawElementsIndirect
PUBLIC	glad_glUniform1d
PUBLIC	glad_glUniform2d
PUBLIC	glad_glUniform3d
PUBLIC	glad_glUniform4d
PUBLIC	glad_glUniform1dv
PUBLIC	glad_glUniform2dv
PUBLIC	glad_glUniform3dv
PUBLIC	glad_glUniform4dv
PUBLIC	glad_glUniformMatrix2dv
PUBLIC	glad_glUniformMatrix3dv
PUBLIC	glad_glUniformMatrix4dv
PUBLIC	glad_glUniformMatrix2x3dv
PUBLIC	glad_glUniformMatrix2x4dv
PUBLIC	glad_glUniformMatrix3x2dv
PUBLIC	glad_glUniformMatrix3x4dv
PUBLIC	glad_glUniformMatrix4x2dv
PUBLIC	glad_glUniformMatrix4x3dv
PUBLIC	glad_glGetUniformdv
PUBLIC	glad_glGetSubroutineUniformLocation
PUBLIC	glad_glGetSubroutineIndex
PUBLIC	glad_glGetActiveSubroutineUniformiv
PUBLIC	glad_glGetActiveSubroutineUniformName
PUBLIC	glad_glGetActiveSubroutineName
PUBLIC	glad_glUniformSubroutinesuiv
PUBLIC	glad_glGetUniformSubroutineuiv
PUBLIC	glad_glGetProgramStageiv
PUBLIC	glad_glPatchParameteri
PUBLIC	glad_glPatchParameterfv
PUBLIC	glad_glBindTransformFeedback
PUBLIC	glad_glDeleteTransformFeedbacks
PUBLIC	glad_glGenTransformFeedbacks
PUBLIC	glad_glIsTransformFeedback
PUBLIC	glad_glPauseTransformFeedback
PUBLIC	glad_glResumeTransformFeedback
PUBLIC	glad_glDrawTransformFeedback
PUBLIC	glad_glDrawTransformFeedbackStream
PUBLIC	glad_glBeginQueryIndexed
PUBLIC	glad_glEndQueryIndexed
PUBLIC	glad_glGetQueryIndexediv
PUBLIC	GLAD_GL_VERSION_4_1
PUBLIC	glad_glReleaseShaderCompiler
PUBLIC	glad_glShaderBinary
PUBLIC	glad_glGetShaderPrecisionFormat
PUBLIC	glad_glDepthRangef
PUBLIC	glad_glClearDepthf
PUBLIC	glad_glGetProgramBinary
PUBLIC	glad_glProgramBinary
PUBLIC	glad_glProgramParameteri
PUBLIC	glad_glUseProgramStages
PUBLIC	glad_glActiveShaderProgram
PUBLIC	glad_glCreateShaderProgramv
PUBLIC	glad_glBindProgramPipeline
PUBLIC	glad_glDeleteProgramPipelines
PUBLIC	glad_glGenProgramPipelines
PUBLIC	glad_glIsProgramPipeline
PUBLIC	glad_glGetProgramPipelineiv
PUBLIC	glad_glProgramUniform1i
PUBLIC	glad_glProgramUniform1iv
PUBLIC	glad_glProgramUniform1f
PUBLIC	glad_glProgramUniform1fv
PUBLIC	glad_glProgramUniform1d
PUBLIC	glad_glProgramUniform1dv
PUBLIC	glad_glProgramUniform1ui
PUBLIC	glad_glProgramUniform1uiv
PUBLIC	glad_glProgramUniform2i
PUBLIC	glad_glProgramUniform2iv
PUBLIC	glad_glProgramUniform2f
PUBLIC	glad_glProgramUniform2fv
PUBLIC	glad_glProgramUniform2d
PUBLIC	glad_glProgramUniform2dv
PUBLIC	glad_glProgramUniform2ui
PUBLIC	glad_glProgramUniform2uiv
PUBLIC	glad_glProgramUniform3i
PUBLIC	glad_glProgramUniform3iv
PUBLIC	glad_glProgramUniform3f
PUBLIC	glad_glProgramUniform3fv
PUBLIC	glad_glProgramUniform3d
PUBLIC	glad_glProgramUniform3dv
PUBLIC	glad_glProgramUniform3ui
PUBLIC	glad_glProgramUniform3uiv
PUBLIC	glad_glProgramUniform4i
PUBLIC	glad_glProgramUniform4iv
PUBLIC	glad_glProgramUniform4f
PUBLIC	glad_glProgramUniform4fv
PUBLIC	glad_glProgramUniform4d
PUBLIC	glad_glProgramUniform4dv
PUBLIC	glad_glProgramUniform4ui
PUBLIC	glad_glProgramUniform4uiv
PUBLIC	glad_glProgramUniformMatrix2fv
PUBLIC	glad_glProgramUniformMatrix3fv
PUBLIC	glad_glProgramUniformMatrix4fv
PUBLIC	glad_glProgramUniformMatrix2dv
PUBLIC	glad_glProgramUniformMatrix3dv
PUBLIC	glad_glProgramUniformMatrix4dv
PUBLIC	glad_glProgramUniformMatrix2x3fv
PUBLIC	glad_glProgramUniformMatrix3x2fv
PUBLIC	glad_glProgramUniformMatrix2x4fv
PUBLIC	glad_glProgramUniformMatrix4x2fv
PUBLIC	glad_glProgramUniformMatrix3x4fv
PUBLIC	glad_glProgramUniformMatrix4x3fv
PUBLIC	glad_glProgramUniformMatrix2x3dv
PUBLIC	glad_glProgramUniformMatrix3x2dv
PUBLIC	glad_glProgramUniformMatrix2x4dv
PUBLIC	glad_glProgramUniformMatrix4x2dv
PUBLIC	glad_glProgramUniformMatrix3x4dv
PUBLIC	glad_glProgramUniformMatrix4x3dv
PUBLIC	glad_glValidateProgramPipeline
PUBLIC	glad_glGetProgramPipelineInfoLog
PUBLIC	glad_glVertexAttribL1d
PUBLIC	glad_glVertexAttribL2d
PUBLIC	glad_glVertexAttribL3d
PUBLIC	glad_glVertexAttribL4d
PUBLIC	glad_glVertexAttribL1dv
PUBLIC	glad_glVertexAttribL2dv
PUBLIC	glad_glVertexAttribL3dv
PUBLIC	glad_glVertexAttribL4dv
PUBLIC	glad_glVertexAttribLPointer
PUBLIC	glad_glGetVertexAttribLdv
PUBLIC	glad_glViewportArrayv
PUBLIC	glad_glViewportIndexedf
PUBLIC	glad_glViewportIndexedfv
PUBLIC	glad_glScissorArrayv
PUBLIC	glad_glScissorIndexed
PUBLIC	glad_glScissorIndexedv
PUBLIC	glad_glDepthRangeArrayv
PUBLIC	glad_glDepthRangeIndexed
PUBLIC	glad_glGetFloati_v
PUBLIC	glad_glGetDoublei_v
PUBLIC	GLAD_GL_VERSION_4_2
PUBLIC	glad_glDrawArraysInstancedBaseInstance
PUBLIC	glad_glDrawElementsInstancedBaseInstance
PUBLIC	glad_glDrawElementsInstancedBaseVertexBaseInstance
PUBLIC	glad_glGetInternalformativ
PUBLIC	glad_glGetActiveAtomicCounterBufferiv
PUBLIC	glad_glBindImageTexture
PUBLIC	glad_glMemoryBarrier
PUBLIC	glad_glTexStorage1D
PUBLIC	glad_glTexStorage2D
PUBLIC	glad_glTexStorage3D
PUBLIC	glad_glDrawTransformFeedbackInstanced
PUBLIC	glad_glDrawTransformFeedbackStreamInstanced
PUBLIC	GLAD_GL_VERSION_4_3
PUBLIC	glad_glClearBufferData
PUBLIC	glad_glClearBufferSubData
PUBLIC	glad_glDispatchCompute
PUBLIC	glad_glDispatchComputeIndirect
PUBLIC	glad_glCopyImageSubData
PUBLIC	glad_glFramebufferParameteri
PUBLIC	glad_glGetFramebufferParameteriv
PUBLIC	glad_glGetInternalformati64v
PUBLIC	glad_glInvalidateTexSubImage
PUBLIC	glad_glInvalidateTexImage
PUBLIC	glad_glInvalidateBufferSubData
PUBLIC	glad_glInvalidateBufferData
PUBLIC	glad_glInvalidateFramebuffer
PUBLIC	glad_glInvalidateSubFramebuffer
PUBLIC	glad_glMultiDrawArraysIndirect
PUBLIC	glad_glMultiDrawElementsIndirect
PUBLIC	glad_glGetProgramInterfaceiv
PUBLIC	glad_glGetProgramResourceIndex
PUBLIC	glad_glGetProgramResourceName
PUBLIC	glad_glGetProgramResourceiv
PUBLIC	glad_glGetProgramResourceLocation
PUBLIC	glad_glGetProgramResourceLocationIndex
PUBLIC	glad_glShaderStorageBlockBinding
PUBLIC	glad_glTexBufferRange
PUBLIC	glad_glTexStorage2DMultisample
PUBLIC	glad_glTexStorage3DMultisample
PUBLIC	glad_glTextureView
PUBLIC	glad_glBindVertexBuffer
PUBLIC	glad_glVertexAttribFormat
PUBLIC	glad_glVertexAttribIFormat
PUBLIC	glad_glVertexAttribLFormat
PUBLIC	glad_glVertexAttribBinding
PUBLIC	glad_glVertexBindingDivisor
PUBLIC	glad_glDebugMessageControl
PUBLIC	glad_glDebugMessageInsert
PUBLIC	glad_glDebugMessageCallback
PUBLIC	glad_glGetDebugMessageLog
PUBLIC	glad_glPushDebugGroup
PUBLIC	glad_glPopDebugGroup
PUBLIC	glad_glObjectLabel
PUBLIC	glad_glGetObjectLabel
PUBLIC	glad_glObjectPtrLabel
PUBLIC	glad_glGetObjectPtrLabel
PUBLIC	glad_glGetPointerv
PUBLIC	GLAD_GL_VERSION_4_4
PUBLIC	glad_glBufferStorage
PUBLIC	glad_glClearTexImage
PUBLIC	glad_glClearTexSubImage
PUBLIC	glad_glBindBuffersBase
PUBLIC	glad_glBindBuffersRange
PUBLIC	glad_glBindTextures
PUBLIC	glad_glBindSamplers
PUBLIC	glad_glBindImageTextures
PUBLIC	glad_glBindVertexBuffers
PUBLIC	GLAD_GL_VERSION_4_5
PUBLIC	glad_glClipControl
PUBLIC	glad_glCreateTransformFeedbacks
PUBLIC	glad_glTransformFeedbackBufferBase
PUBLIC	glad_glTransformFeedbackBufferRange
PUBLIC	glad_glGetTransformFeedbackiv
PUBLIC	glad_glGetTransformFeedbacki_v
PUBLIC	glad_glGetTransformFeedbacki64_v
PUBLIC	glad_glCreateBuffers
PUBLIC	glad_glNamedBufferStorage
PUBLIC	glad_glNamedBufferData
PUBLIC	glad_glNamedBufferSubData
PUBLIC	glad_glCopyNamedBufferSubData
PUBLIC	glad_glClearNamedBufferData
PUBLIC	glad_glClearNamedBufferSubData
PUBLIC	glad_glMapNamedBuffer
PUBLIC	glad_glMapNamedBufferRange
PUBLIC	glad_glUnmapNamedBuffer
PUBLIC	glad_glFlushMappedNamedBufferRange
PUBLIC	glad_glGetNamedBufferParameteriv
PUBLIC	glad_glGetNamedBufferParameteri64v
PUBLIC	glad_glGetNamedBufferPointerv
PUBLIC	glad_glGetNamedBufferSubData
PUBLIC	glad_glCreateFramebuffers
PUBLIC	glad_glNamedFramebufferRenderbuffer
PUBLIC	glad_glNamedFramebufferParameteri
PUBLIC	glad_glNamedFramebufferTexture
PUBLIC	glad_glNamedFramebufferTextureLayer
PUBLIC	glad_glNamedFramebufferDrawBuffer
PUBLIC	glad_glNamedFramebufferDrawBuffers
PUBLIC	glad_glNamedFramebufferReadBuffer
PUBLIC	glad_glInvalidateNamedFramebufferData
PUBLIC	glad_glInvalidateNamedFramebufferSubData
PUBLIC	glad_glClearNamedFramebufferiv
PUBLIC	glad_glClearNamedFramebufferuiv
PUBLIC	glad_glClearNamedFramebufferfv
PUBLIC	glad_glClearNamedFramebufferfi
PUBLIC	glad_glBlitNamedFramebuffer
PUBLIC	glad_glCheckNamedFramebufferStatus
PUBLIC	glad_glGetNamedFramebufferParameteriv
PUBLIC	glad_glGetNamedFramebufferAttachmentParameteriv
PUBLIC	glad_glCreateRenderbuffers
PUBLIC	glad_glNamedRenderbufferStorage
PUBLIC	glad_glNamedRenderbufferStorageMultisample
PUBLIC	glad_glGetNamedRenderbufferParameteriv
PUBLIC	glad_glCreateTextures
PUBLIC	glad_glTextureBuffer
PUBLIC	glad_glTextureBufferRange
PUBLIC	glad_glTextureStorage1D
PUBLIC	glad_glTextureStorage2D
PUBLIC	glad_glTextureStorage3D
PUBLIC	glad_glTextureStorage2DMultisample
PUBLIC	glad_glTextureStorage3DMultisample
PUBLIC	glad_glTextureSubImage1D
PUBLIC	glad_glTextureSubImage2D
PUBLIC	glad_glTextureSubImage3D
PUBLIC	glad_glCompressedTextureSubImage1D
PUBLIC	glad_glCompressedTextureSubImage2D
PUBLIC	glad_glCompressedTextureSubImage3D
PUBLIC	glad_glCopyTextureSubImage1D
PUBLIC	glad_glCopyTextureSubImage2D
PUBLIC	glad_glCopyTextureSubImage3D
PUBLIC	glad_glTextureParameterf
PUBLIC	glad_glTextureParameterfv
PUBLIC	glad_glTextureParameteri
PUBLIC	glad_glTextureParameterIiv
PUBLIC	glad_glTextureParameterIuiv
PUBLIC	glad_glTextureParameteriv
PUBLIC	glad_glGenerateTextureMipmap
PUBLIC	glad_glBindTextureUnit
PUBLIC	glad_glGetTextureImage
PUBLIC	glad_glGetCompressedTextureImage
PUBLIC	glad_glGetTextureLevelParameterfv
PUBLIC	glad_glGetTextureLevelParameteriv
PUBLIC	glad_glGetTextureParameterfv
PUBLIC	glad_glGetTextureParameterIiv
PUBLIC	glad_glGetTextureParameterIuiv
PUBLIC	glad_glGetTextureParameteriv
PUBLIC	glad_glCreateVertexArrays
PUBLIC	glad_glDisableVertexArrayAttrib
PUBLIC	glad_glEnableVertexArrayAttrib
PUBLIC	glad_glVertexArrayElementBuffer
PUBLIC	glad_glVertexArrayVertexBuffer
PUBLIC	glad_glVertexArrayVertexBuffers
PUBLIC	glad_glVertexArrayAttribBinding
PUBLIC	glad_glVertexArrayAttribFormat
PUBLIC	glad_glVertexArrayAttribIFormat
PUBLIC	glad_glVertexArrayAttribLFormat
PUBLIC	glad_glVertexArrayBindingDivisor
PUBLIC	glad_glGetVertexArrayiv
PUBLIC	glad_glGetVertexArrayIndexediv
PUBLIC	glad_glGetVertexArrayIndexed64iv
PUBLIC	glad_glCreateSamplers
PUBLIC	glad_glCreateProgramPipelines
PUBLIC	glad_glCreateQueries
PUBLIC	glad_glGetQueryBufferObjecti64v
PUBLIC	glad_glGetQueryBufferObjectiv
PUBLIC	glad_glGetQueryBufferObjectui64v
PUBLIC	glad_glGetQueryBufferObjectuiv
PUBLIC	glad_glMemoryBarrierByRegion
PUBLIC	glad_glGetTextureSubImage
PUBLIC	glad_glGetCompressedTextureSubImage
PUBLIC	glad_glGetGraphicsResetStatus
PUBLIC	glad_glGetnCompressedTexImage
PUBLIC	glad_glGetnTexImage
PUBLIC	glad_glGetnUniformdv
PUBLIC	glad_glGetnUniformfv
PUBLIC	glad_glGetnUniformiv
PUBLIC	glad_glGetnUniformuiv
PUBLIC	glad_glReadnPixels
PUBLIC	glad_glGetnMapdv
PUBLIC	glad_glGetnMapfv
PUBLIC	glad_glGetnMapiv
PUBLIC	glad_glGetnPixelMapfv
PUBLIC	glad_glGetnPixelMapuiv
PUBLIC	glad_glGetnPixelMapusv
PUBLIC	glad_glGetnPolygonStipple
PUBLIC	glad_glGetnColorTable
PUBLIC	glad_glGetnConvolutionFilter
PUBLIC	glad_glGetnSeparableFilter
PUBLIC	glad_glGetnHistogram
PUBLIC	glad_glGetnMinmax
PUBLIC	glad_glTextureBarrier
PUBLIC	GLAD_GL_VERSION_4_6
PUBLIC	glad_glSpecializeShader
PUBLIC	glad_glMultiDrawArraysIndirectCount
PUBLIC	glad_glMultiDrawElementsIndirectCount
PUBLIC	glad_glPolygonOffsetClamp
PUBLIC	GLAD_GL_VERSION_ES_CM_1_0
PUBLIC	glad_glAlphaFunc
PUBLIC	glad_glClipPlanef
PUBLIC	glad_glColor4f
PUBLIC	glad_glFogf
PUBLIC	glad_glFogfv
PUBLIC	glad_glFrustumf
PUBLIC	glad_glGetClipPlanef
PUBLIC	glad_glGetLightfv
PUBLIC	glad_glGetMaterialfv
PUBLIC	glad_glGetTexEnvfv
PUBLIC	glad_glLightModelf
PUBLIC	glad_glLightModelfv
PUBLIC	glad_glLightf
PUBLIC	glad_glLightfv
PUBLIC	glad_glLoadMatrixf
PUBLIC	glad_glMaterialf
PUBLIC	glad_glMaterialfv
PUBLIC	glad_glMultMatrixf
PUBLIC	glad_glMultiTexCoord4f
PUBLIC	glad_glNormal3f
PUBLIC	glad_glOrthof
PUBLIC	glad_glRotatef
PUBLIC	glad_glScalef
PUBLIC	glad_glTexEnvf
PUBLIC	glad_glTexEnvfv
PUBLIC	glad_glTranslatef
PUBLIC	glad_glAlphaFuncx
PUBLIC	glad_glClearColorx
PUBLIC	glad_glClearDepthx
PUBLIC	glad_glClientActiveTexture
PUBLIC	glad_glClipPlanex
PUBLIC	glad_glColor4ub
PUBLIC	glad_glColor4x
PUBLIC	glad_glColorPointer
PUBLIC	glad_glDepthRangex
PUBLIC	glad_glDisableClientState
PUBLIC	glad_glEnableClientState
PUBLIC	glad_glFogx
PUBLIC	glad_glFogxv
PUBLIC	glad_glFrustumx
PUBLIC	glad_glGetClipPlanex
PUBLIC	glad_glGetFixedv
PUBLIC	glad_glGetLightxv
PUBLIC	glad_glGetMaterialxv
PUBLIC	glad_glGetTexEnviv
PUBLIC	glad_glGetTexEnvxv
PUBLIC	glad_glGetTexParameterxv
PUBLIC	glad_glLightModelx
PUBLIC	glad_glLightModelxv
PUBLIC	glad_glLightx
PUBLIC	glad_glLightxv
PUBLIC	glad_glLineWidthx
PUBLIC	glad_glLoadIdentity
PUBLIC	glad_glLoadMatrixx
PUBLIC	glad_glMaterialx
PUBLIC	glad_glMaterialxv
PUBLIC	glad_glMatrixMode
PUBLIC	glad_glMultMatrixx
PUBLIC	glad_glMultiTexCoord4x
PUBLIC	glad_glNormal3x
PUBLIC	glad_glNormalPointer
PUBLIC	glad_glOrthox
PUBLIC	glad_glPointParameterx
PUBLIC	glad_glPointParameterxv
PUBLIC	glad_glPointSizex
PUBLIC	glad_glPolygonOffsetx
PUBLIC	glad_glPopMatrix
PUBLIC	glad_glPushMatrix
PUBLIC	glad_glRotatex
PUBLIC	glad_glSampleCoveragex
PUBLIC	glad_glScalex
PUBLIC	glad_glShadeModel
PUBLIC	glad_glTexCoordPointer
PUBLIC	glad_glTexEnvi
PUBLIC	glad_glTexEnvx
PUBLIC	glad_glTexEnviv
PUBLIC	glad_glTexEnvxv
PUBLIC	glad_glTexParameterx
PUBLIC	glad_glTexParameterxv
PUBLIC	glad_glTranslatex
PUBLIC	glad_glVertexPointer
PUBLIC	GLAD_GL_ES_VERSION_2_0
PUBLIC	GLAD_GL_ES_VERSION_3_0
PUBLIC	GLAD_GL_ES_VERSION_3_1
PUBLIC	GLAD_GL_ES_VERSION_3_2
PUBLIC	glad_glBlendBarrier
PUBLIC	glad_glPrimitiveBoundingBox
PUBLIC	GLAD_GL_SC_VERSION_2_0
_BSS	SEGMENT
GLVersion DQ	01H DUP (?)
GLAD_GL_VERSION_1_0 DD 01H DUP (?)
	ALIGN	8

glad_glCullFace DQ 01H DUP (?)
glad_glFrontFace DQ 01H DUP (?)
glad_glHint DQ	01H DUP (?)
glad_glLineWidth DQ 01H DUP (?)
glad_glPointSize DQ 01H DUP (?)
glad_glPolygonMode DQ 01H DUP (?)
glad_glScissor DQ 01H DUP (?)
glad_glTexParameterf DQ 01H DUP (?)
glad_glTexParameterfv DQ 01H DUP (?)
glad_glTexParameteri DQ 01H DUP (?)
glad_glTexParameteriv DQ 01H DUP (?)
glad_glTexImage1D DQ 01H DUP (?)
glad_glTexImage2D DQ 01H DUP (?)
glad_glDrawBuffer DQ 01H DUP (?)
glad_glClear DQ	01H DUP (?)
glad_glClearColor DQ 01H DUP (?)
glad_glClearStencil DQ 01H DUP (?)
glad_glClearDepth DQ 01H DUP (?)
glad_glStencilMask DQ 01H DUP (?)
glad_glColorMask DQ 01H DUP (?)
glad_glDepthMask DQ 01H DUP (?)
glad_glDisable DQ 01H DUP (?)
glad_glEnable DQ 01H DUP (?)
glad_glFinish DQ 01H DUP (?)
glad_glFlush DQ	01H DUP (?)
glad_glBlendFunc DQ 01H DUP (?)
glad_glLogicOp DQ 01H DUP (?)
glad_glStencilFunc DQ 01H DUP (?)
glad_glStencilOp DQ 01H DUP (?)
glad_glDepthFunc DQ 01H DUP (?)
glad_glPixelStoref DQ 01H DUP (?)
glad_glPixelStorei DQ 01H DUP (?)
glad_glReadBuffer DQ 01H DUP (?)
glad_glReadPixels DQ 01H DUP (?)
glad_glGetBooleanv DQ 01H DUP (?)
glad_glGetDoublev DQ 01H DUP (?)
glad_glGetError DQ 01H DUP (?)
glad_glGetFloatv DQ 01H DUP (?)
glad_glGetIntegerv DQ 01H DUP (?)
glad_glGetString DQ 01H DUP (?)
glad_glGetTexImage DQ 01H DUP (?)
glad_glGetTexParameterfv DQ 01H DUP (?)
glad_glGetTexParameteriv DQ 01H DUP (?)
glad_glGetTexLevelParameterfv DQ 01H DUP (?)
glad_glGetTexLevelParameteriv DQ 01H DUP (?)
glad_glIsEnabled DQ 01H DUP (?)
glad_glDepthRange DQ 01H DUP (?)
glad_glViewport DQ 01H DUP (?)
GLAD_GL_VERSION_1_1 DD 01H DUP (?)
	ALIGN	8

glad_glDrawArrays DQ 01H DUP (?)
glad_glDrawElements DQ 01H DUP (?)
glad_glPolygonOffset DQ 01H DUP (?)
glad_glCopyTexImage1D DQ 01H DUP (?)
glad_glCopyTexImage2D DQ 01H DUP (?)
glad_glCopyTexSubImage1D DQ 01H DUP (?)
glad_glCopyTexSubImage2D DQ 01H DUP (?)
glad_glTexSubImage1D DQ 01H DUP (?)
glad_glTexSubImage2D DQ 01H DUP (?)
glad_glBindTexture DQ 01H DUP (?)
glad_glDeleteTextures DQ 01H DUP (?)
glad_glGenTextures DQ 01H DUP (?)
glad_glIsTexture DQ 01H DUP (?)
GLAD_GL_VERSION_1_2 DD 01H DUP (?)
	ALIGN	8

glad_glDrawRangeElements DQ 01H DUP (?)
glad_glTexImage3D DQ 01H DUP (?)
glad_glTexSubImage3D DQ 01H DUP (?)
glad_glCopyTexSubImage3D DQ 01H DUP (?)
GLAD_GL_VERSION_1_3 DD 01H DUP (?)
	ALIGN	8

glad_glActiveTexture DQ 01H DUP (?)
glad_glSampleCoverage DQ 01H DUP (?)
glad_glCompressedTexImage3D DQ 01H DUP (?)
glad_glCompressedTexImage2D DQ 01H DUP (?)
glad_glCompressedTexImage1D DQ 01H DUP (?)
glad_glCompressedTexSubImage3D DQ 01H DUP (?)
glad_glCompressedTexSubImage2D DQ 01H DUP (?)
glad_glCompressedTexSubImage1D DQ 01H DUP (?)
glad_glGetCompressedTexImage DQ 01H DUP (?)
GLAD_GL_VERSION_1_4 DD 01H DUP (?)
	ALIGN	8

glad_glBlendFuncSeparate DQ 01H DUP (?)
glad_glMultiDrawArrays DQ 01H DUP (?)
glad_glMultiDrawElements DQ 01H DUP (?)
glad_glPointParameterf DQ 01H DUP (?)
glad_glPointParameterfv DQ 01H DUP (?)
glad_glPointParameteri DQ 01H DUP (?)
glad_glPointParameteriv DQ 01H DUP (?)
glad_glBlendColor DQ 01H DUP (?)
glad_glBlendEquation DQ 01H DUP (?)
GLAD_GL_VERSION_1_5 DD 01H DUP (?)
	ALIGN	8

glad_glGenQueries DQ 01H DUP (?)
glad_glDeleteQueries DQ 01H DUP (?)
glad_glIsQuery DQ 01H DUP (?)
glad_glBeginQuery DQ 01H DUP (?)
glad_glEndQuery DQ 01H DUP (?)
glad_glGetQueryiv DQ 01H DUP (?)
glad_glGetQueryObjectiv DQ 01H DUP (?)
glad_glGetQueryObjectuiv DQ 01H DUP (?)
glad_glBindBuffer DQ 01H DUP (?)
glad_glDeleteBuffers DQ 01H DUP (?)
glad_glGenBuffers DQ 01H DUP (?)
glad_glIsBuffer DQ 01H DUP (?)
glad_glBufferData DQ 01H DUP (?)
glad_glBufferSubData DQ 01H DUP (?)
glad_glGetBufferSubData DQ 01H DUP (?)
glad_glMapBuffer DQ 01H DUP (?)
glad_glUnmapBuffer DQ 01H DUP (?)
glad_glGetBufferParameteriv DQ 01H DUP (?)
glad_glGetBufferPointerv DQ 01H DUP (?)
GLAD_GL_VERSION_2_0 DD 01H DUP (?)
	ALIGN	8

glad_glBlendEquationSeparate DQ 01H DUP (?)
glad_glDrawBuffers DQ 01H DUP (?)
glad_glStencilOpSeparate DQ 01H DUP (?)
glad_glStencilFuncSeparate DQ 01H DUP (?)
glad_glStencilMaskSeparate DQ 01H DUP (?)
glad_glAttachShader DQ 01H DUP (?)
glad_glBindAttribLocation DQ 01H DUP (?)
glad_glCompileShader DQ 01H DUP (?)
glad_glCreateProgram DQ 01H DUP (?)
glad_glCreateShader DQ 01H DUP (?)
glad_glDeleteProgram DQ 01H DUP (?)
glad_glDeleteShader DQ 01H DUP (?)
glad_glDetachShader DQ 01H DUP (?)
glad_glDisableVertexAttribArray DQ 01H DUP (?)
glad_glEnableVertexAttribArray DQ 01H DUP (?)
glad_glGetActiveAttrib DQ 01H DUP (?)
glad_glGetActiveUniform DQ 01H DUP (?)
glad_glGetAttachedShaders DQ 01H DUP (?)
glad_glGetAttribLocation DQ 01H DUP (?)
glad_glGetProgramiv DQ 01H DUP (?)
glad_glGetProgramInfoLog DQ 01H DUP (?)
glad_glGetShaderiv DQ 01H DUP (?)
glad_glGetShaderInfoLog DQ 01H DUP (?)
glad_glGetShaderSource DQ 01H DUP (?)
glad_glGetUniformLocation DQ 01H DUP (?)
glad_glGetUniformfv DQ 01H DUP (?)
glad_glGetUniformiv DQ 01H DUP (?)
glad_glGetVertexAttribdv DQ 01H DUP (?)
glad_glGetVertexAttribfv DQ 01H DUP (?)
glad_glGetVertexAttribiv DQ 01H DUP (?)
glad_glGetVertexAttribPointerv DQ 01H DUP (?)
glad_glIsProgram DQ 01H DUP (?)
glad_glIsShader DQ 01H DUP (?)
glad_glLinkProgram DQ 01H DUP (?)
glad_glShaderSource DQ 01H DUP (?)
glad_glUseProgram DQ 01H DUP (?)
glad_glUniform1f DQ 01H DUP (?)
glad_glUniform2f DQ 01H DUP (?)
glad_glUniform3f DQ 01H DUP (?)
glad_glUniform4f DQ 01H DUP (?)
glad_glUniform1i DQ 01H DUP (?)
glad_glUniform2i DQ 01H DUP (?)
glad_glUniform3i DQ 01H DUP (?)
glad_glUniform4i DQ 01H DUP (?)
glad_glUniform1fv DQ 01H DUP (?)
glad_glUniform2fv DQ 01H DUP (?)
glad_glUniform3fv DQ 01H DUP (?)
glad_glUniform4fv DQ 01H DUP (?)
glad_glUniform1iv DQ 01H DUP (?)
glad_glUniform2iv DQ 01H DUP (?)
glad_glUniform3iv DQ 01H DUP (?)
glad_glUniform4iv DQ 01H DUP (?)
glad_glUniformMatrix2fv DQ 01H DUP (?)
glad_glUniformMatrix3fv DQ 01H DUP (?)
glad_glUniformMatrix4fv DQ 01H DUP (?)
glad_glValidateProgram DQ 01H DUP (?)
glad_glVertexAttrib1d DQ 01H DUP (?)
glad_glVertexAttrib1dv DQ 01H DUP (?)
glad_glVertexAttrib1f DQ 01H DUP (?)
glad_glVertexAttrib1fv DQ 01H DUP (?)
glad_glVertexAttrib1s DQ 01H DUP (?)
glad_glVertexAttrib1sv DQ 01H DUP (?)
glad_glVertexAttrib2d DQ 01H DUP (?)
glad_glVertexAttrib2dv DQ 01H DUP (?)
glad_glVertexAttrib2f DQ 01H DUP (?)
glad_glVertexAttrib2fv DQ 01H DUP (?)
glad_glVertexAttrib2s DQ 01H DUP (?)
glad_glVertexAttrib2sv DQ 01H DUP (?)
glad_glVertexAttrib3d DQ 01H DUP (?)
glad_glVertexAttrib3dv DQ 01H DUP (?)
glad_glVertexAttrib3f DQ 01H DUP (?)
glad_glVertexAttrib3fv DQ 01H DUP (?)
glad_glVertexAttrib3s DQ 01H DUP (?)
glad_glVertexAttrib3sv DQ 01H DUP (?)
glad_glVertexAttrib4Nbv DQ 01H DUP (?)
glad_glVertexAttrib4Niv DQ 01H DUP (?)
glad_glVertexAttrib4Nsv DQ 01H DUP (?)
glad_glVertexAttrib4Nub DQ 01H DUP (?)
glad_glVertexAttrib4Nubv DQ 01H DUP (?)
glad_glVertexAttrib4Nuiv DQ 01H DUP (?)
glad_glVertexAttrib4Nusv DQ 01H DUP (?)
glad_glVertexAttrib4bv DQ 01H DUP (?)
glad_glVertexAttrib4d DQ 01H DUP (?)
glad_glVertexAttrib4dv DQ 01H DUP (?)
glad_glVertexAttrib4f DQ 01H DUP (?)
glad_glVertexAttrib4fv DQ 01H DUP (?)
glad_glVertexAttrib4iv DQ 01H DUP (?)
glad_glVertexAttrib4s DQ 01H DUP (?)
glad_glVertexAttrib4sv DQ 01H DUP (?)
glad_glVertexAttrib4ubv DQ 01H DUP (?)
glad_glVertexAttrib4uiv DQ 01H DUP (?)
glad_glVertexAttrib4usv DQ 01H DUP (?)
glad_glVertexAttribPointer DQ 01H DUP (?)
GLAD_GL_VERSION_2_1 DD 01H DUP (?)
	ALIGN	8

glad_glUniformMatrix2x3fv DQ 01H DUP (?)
glad_glUniformMatrix3x2fv DQ 01H DUP (?)
glad_glUniformMatrix2x4fv DQ 01H DUP (?)
glad_glUniformMatrix4x2fv DQ 01H DUP (?)
glad_glUniformMatrix3x4fv DQ 01H DUP (?)
glad_glUniformMatrix4x3fv DQ 01H DUP (?)
GLAD_GL_VERSION_3_0 DD 01H DUP (?)
	ALIGN	8

glad_glColorMaski DQ 01H DUP (?)
glad_glGetBooleani_v DQ 01H DUP (?)
glad_glGetIntegeri_v DQ 01H DUP (?)
glad_glEnablei DQ 01H DUP (?)
glad_glDisablei DQ 01H DUP (?)
glad_glIsEnabledi DQ 01H DUP (?)
glad_glBeginTransformFeedback DQ 01H DUP (?)
glad_glEndTransformFeedback DQ 01H DUP (?)
glad_glBindBufferRange DQ 01H DUP (?)
glad_glBindBufferBase DQ 01H DUP (?)
glad_glTransformFeedbackVaryings DQ 01H DUP (?)
glad_glGetTransformFeedbackVarying DQ 01H DUP (?)
glad_glClampColor DQ 01H DUP (?)
glad_glBeginConditionalRender DQ 01H DUP (?)
glad_glEndConditionalRender DQ 01H DUP (?)
glad_glVertexAttribIPointer DQ 01H DUP (?)
glad_glGetVertexAttribIiv DQ 01H DUP (?)
glad_glGetVertexAttribIuiv DQ 01H DUP (?)
glad_glVertexAttribI1i DQ 01H DUP (?)
glad_glVertexAttribI2i DQ 01H DUP (?)
glad_glVertexAttribI3i DQ 01H DUP (?)
glad_glVertexAttribI4i DQ 01H DUP (?)
glad_glVertexAttribI1ui DQ 01H DUP (?)
glad_glVertexAttribI2ui DQ 01H DUP (?)
glad_glVertexAttribI3ui DQ 01H DUP (?)
glad_glVertexAttribI4ui DQ 01H DUP (?)
glad_glVertexAttribI1iv DQ 01H DUP (?)
glad_glVertexAttribI2iv DQ 01H DUP (?)
glad_glVertexAttribI3iv DQ 01H DUP (?)
glad_glVertexAttribI4iv DQ 01H DUP (?)
glad_glVertexAttribI1uiv DQ 01H DUP (?)
glad_glVertexAttribI2uiv DQ 01H DUP (?)
glad_glVertexAttribI3uiv DQ 01H DUP (?)
glad_glVertexAttribI4uiv DQ 01H DUP (?)
glad_glVertexAttribI4bv DQ 01H DUP (?)
glad_glVertexAttribI4sv DQ 01H DUP (?)
glad_glVertexAttribI4ubv DQ 01H DUP (?)
glad_glVertexAttribI4usv DQ 01H DUP (?)
glad_glGetUniformuiv DQ 01H DUP (?)
glad_glBindFragDataLocation DQ 01H DUP (?)
glad_glGetFragDataLocation DQ 01H DUP (?)
glad_glUniform1ui DQ 01H DUP (?)
glad_glUniform2ui DQ 01H DUP (?)
glad_glUniform3ui DQ 01H DUP (?)
glad_glUniform4ui DQ 01H DUP (?)
glad_glUniform1uiv DQ 01H DUP (?)
glad_glUniform2uiv DQ 01H DUP (?)
glad_glUniform3uiv DQ 01H DUP (?)
glad_glUniform4uiv DQ 01H DUP (?)
glad_glTexParameterIiv DQ 01H DUP (?)
glad_glTexParameterIuiv DQ 01H DUP (?)
glad_glGetTexParameterIiv DQ 01H DUP (?)
glad_glGetTexParameterIuiv DQ 01H DUP (?)
glad_glClearBufferiv DQ 01H DUP (?)
glad_glClearBufferuiv DQ 01H DUP (?)
glad_glClearBufferfv DQ 01H DUP (?)
glad_glClearBufferfi DQ 01H DUP (?)
glad_glGetStringi DQ 01H DUP (?)
glad_glIsRenderbuffer DQ 01H DUP (?)
glad_glBindRenderbuffer DQ 01H DUP (?)
glad_glDeleteRenderbuffers DQ 01H DUP (?)
glad_glGenRenderbuffers DQ 01H DUP (?)
glad_glRenderbufferStorage DQ 01H DUP (?)
glad_glGetRenderbufferParameteriv DQ 01H DUP (?)
glad_glIsFramebuffer DQ 01H DUP (?)
glad_glBindFramebuffer DQ 01H DUP (?)
glad_glDeleteFramebuffers DQ 01H DUP (?)
glad_glGenFramebuffers DQ 01H DUP (?)
glad_glCheckFramebufferStatus DQ 01H DUP (?)
glad_glFramebufferTexture1D DQ 01H DUP (?)
glad_glFramebufferTexture2D DQ 01H DUP (?)
glad_glFramebufferTexture3D DQ 01H DUP (?)
glad_glFramebufferRenderbuffer DQ 01H DUP (?)
glad_glGetFramebufferAttachmentParameteriv DQ 01H DUP (?)
glad_glGenerateMipmap DQ 01H DUP (?)
glad_glBlitFramebuffer DQ 01H DUP (?)
glad_glRenderbufferStorageMultisample DQ 01H DUP (?)
glad_glFramebufferTextureLayer DQ 01H DUP (?)
glad_glMapBufferRange DQ 01H DUP (?)
glad_glFlushMappedBufferRange DQ 01H DUP (?)
glad_glBindVertexArray DQ 01H DUP (?)
glad_glDeleteVertexArrays DQ 01H DUP (?)
glad_glGenVertexArrays DQ 01H DUP (?)
glad_glIsVertexArray DQ 01H DUP (?)
GLAD_GL_VERSION_3_1 DD 01H DUP (?)
	ALIGN	8

glad_glDrawArraysInstanced DQ 01H DUP (?)
glad_glDrawElementsInstanced DQ 01H DUP (?)
glad_glTexBuffer DQ 01H DUP (?)
glad_glPrimitiveRestartIndex DQ 01H DUP (?)
glad_glCopyBufferSubData DQ 01H DUP (?)
glad_glGetUniformIndices DQ 01H DUP (?)
glad_glGetActiveUniformsiv DQ 01H DUP (?)
glad_glGetActiveUniformName DQ 01H DUP (?)
glad_glGetUniformBlockIndex DQ 01H DUP (?)
glad_glGetActiveUniformBlockiv DQ 01H DUP (?)
glad_glGetActiveUniformBlockName DQ 01H DUP (?)
glad_glUniformBlockBinding DQ 01H DUP (?)
GLAD_GL_VERSION_3_2 DD 01H DUP (?)
	ALIGN	8

glad_glDrawElementsBaseVertex DQ 01H DUP (?)
glad_glDrawRangeElementsBaseVertex DQ 01H DUP (?)
glad_glDrawElementsInstancedBaseVertex DQ 01H DUP (?)
glad_glMultiDrawElementsBaseVertex DQ 01H DUP (?)
glad_glProvokingVertex DQ 01H DUP (?)
glad_glFenceSync DQ 01H DUP (?)
glad_glIsSync DQ 01H DUP (?)
glad_glDeleteSync DQ 01H DUP (?)
glad_glClientWaitSync DQ 01H DUP (?)
glad_glWaitSync DQ 01H DUP (?)
glad_glGetInteger64v DQ 01H DUP (?)
glad_glGetSynciv DQ 01H DUP (?)
glad_glGetInteger64i_v DQ 01H DUP (?)
glad_glGetBufferParameteri64v DQ 01H DUP (?)
glad_glFramebufferTexture DQ 01H DUP (?)
glad_glTexImage2DMultisample DQ 01H DUP (?)
glad_glTexImage3DMultisample DQ 01H DUP (?)
glad_glGetMultisamplefv DQ 01H DUP (?)
glad_glSampleMaski DQ 01H DUP (?)
GLAD_GL_VERSION_3_3 DD 01H DUP (?)
	ALIGN	8

glad_glBindFragDataLocationIndexed DQ 01H DUP (?)
glad_glGetFragDataIndex DQ 01H DUP (?)
glad_glGenSamplers DQ 01H DUP (?)
glad_glDeleteSamplers DQ 01H DUP (?)
glad_glIsSampler DQ 01H DUP (?)
glad_glBindSampler DQ 01H DUP (?)
glad_glSamplerParameteri DQ 01H DUP (?)
glad_glSamplerParameteriv DQ 01H DUP (?)
glad_glSamplerParameterf DQ 01H DUP (?)
glad_glSamplerParameterfv DQ 01H DUP (?)
glad_glSamplerParameterIiv DQ 01H DUP (?)
glad_glSamplerParameterIuiv DQ 01H DUP (?)
glad_glGetSamplerParameteriv DQ 01H DUP (?)
glad_glGetSamplerParameterIiv DQ 01H DUP (?)
glad_glGetSamplerParameterfv DQ 01H DUP (?)
glad_glGetSamplerParameterIuiv DQ 01H DUP (?)
glad_glQueryCounter DQ 01H DUP (?)
glad_glGetQueryObjecti64v DQ 01H DUP (?)
glad_glGetQueryObjectui64v DQ 01H DUP (?)
glad_glVertexAttribDivisor DQ 01H DUP (?)
glad_glVertexAttribP1ui DQ 01H DUP (?)
glad_glVertexAttribP1uiv DQ 01H DUP (?)
glad_glVertexAttribP2ui DQ 01H DUP (?)
glad_glVertexAttribP2uiv DQ 01H DUP (?)
glad_glVertexAttribP3ui DQ 01H DUP (?)
glad_glVertexAttribP3uiv DQ 01H DUP (?)
glad_glVertexAttribP4ui DQ 01H DUP (?)
glad_glVertexAttribP4uiv DQ 01H DUP (?)
glad_glVertexP2ui DQ 01H DUP (?)
glad_glVertexP2uiv DQ 01H DUP (?)
glad_glVertexP3ui DQ 01H DUP (?)
glad_glVertexP3uiv DQ 01H DUP (?)
glad_glVertexP4ui DQ 01H DUP (?)
glad_glVertexP4uiv DQ 01H DUP (?)
glad_glTexCoordP1ui DQ 01H DUP (?)
glad_glTexCoordP1uiv DQ 01H DUP (?)
glad_glTexCoordP2ui DQ 01H DUP (?)
glad_glTexCoordP2uiv DQ 01H DUP (?)
glad_glTexCoordP3ui DQ 01H DUP (?)
glad_glTexCoordP3uiv DQ 01H DUP (?)
glad_glTexCoordP4ui DQ 01H DUP (?)
glad_glTexCoordP4uiv DQ 01H DUP (?)
glad_glMultiTexCoordP1ui DQ 01H DUP (?)
glad_glMultiTexCoordP1uiv DQ 01H DUP (?)
glad_glMultiTexCoordP2ui DQ 01H DUP (?)
glad_glMultiTexCoordP2uiv DQ 01H DUP (?)
glad_glMultiTexCoordP3ui DQ 01H DUP (?)
glad_glMultiTexCoordP3uiv DQ 01H DUP (?)
glad_glMultiTexCoordP4ui DQ 01H DUP (?)
glad_glMultiTexCoordP4uiv DQ 01H DUP (?)
glad_glNormalP3ui DQ 01H DUP (?)
glad_glNormalP3uiv DQ 01H DUP (?)
glad_glColorP3ui DQ 01H DUP (?)
glad_glColorP3uiv DQ 01H DUP (?)
glad_glColorP4ui DQ 01H DUP (?)
glad_glColorP4uiv DQ 01H DUP (?)
glad_glSecondaryColorP3ui DQ 01H DUP (?)
glad_glSecondaryColorP3uiv DQ 01H DUP (?)
GLAD_GL_VERSION_4_0 DD 01H DUP (?)
	ALIGN	8

glad_glMinSampleShading DQ 01H DUP (?)
glad_glBlendEquationi DQ 01H DUP (?)
glad_glBlendEquationSeparatei DQ 01H DUP (?)
glad_glBlendFunci DQ 01H DUP (?)
glad_glBlendFuncSeparatei DQ 01H DUP (?)
glad_glDrawArraysIndirect DQ 01H DUP (?)
glad_glDrawElementsIndirect DQ 01H DUP (?)
glad_glUniform1d DQ 01H DUP (?)
glad_glUniform2d DQ 01H DUP (?)
glad_glUniform3d DQ 01H DUP (?)
glad_glUniform4d DQ 01H DUP (?)
glad_glUniform1dv DQ 01H DUP (?)
glad_glUniform2dv DQ 01H DUP (?)
glad_glUniform3dv DQ 01H DUP (?)
glad_glUniform4dv DQ 01H DUP (?)
glad_glUniformMatrix2dv DQ 01H DUP (?)
glad_glUniformMatrix3dv DQ 01H DUP (?)
glad_glUniformMatrix4dv DQ 01H DUP (?)
glad_glUniformMatrix2x3dv DQ 01H DUP (?)
glad_glUniformMatrix2x4dv DQ 01H DUP (?)
glad_glUniformMatrix3x2dv DQ 01H DUP (?)
glad_glUniformMatrix3x4dv DQ 01H DUP (?)
glad_glUniformMatrix4x2dv DQ 01H DUP (?)
glad_glUniformMatrix4x3dv DQ 01H DUP (?)
glad_glGetUniformdv DQ 01H DUP (?)
glad_glGetSubroutineUniformLocation DQ 01H DUP (?)
glad_glGetSubroutineIndex DQ 01H DUP (?)
glad_glGetActiveSubroutineUniformiv DQ 01H DUP (?)
glad_glGetActiveSubroutineUniformName DQ 01H DUP (?)
glad_glGetActiveSubroutineName DQ 01H DUP (?)
glad_glUniformSubroutinesuiv DQ 01H DUP (?)
glad_glGetUniformSubroutineuiv DQ 01H DUP (?)
glad_glGetProgramStageiv DQ 01H DUP (?)
glad_glPatchParameteri DQ 01H DUP (?)
glad_glPatchParameterfv DQ 01H DUP (?)
glad_glBindTransformFeedback DQ 01H DUP (?)
glad_glDeleteTransformFeedbacks DQ 01H DUP (?)
glad_glGenTransformFeedbacks DQ 01H DUP (?)
glad_glIsTransformFeedback DQ 01H DUP (?)
glad_glPauseTransformFeedback DQ 01H DUP (?)
glad_glResumeTransformFeedback DQ 01H DUP (?)
glad_glDrawTransformFeedback DQ 01H DUP (?)
glad_glDrawTransformFeedbackStream DQ 01H DUP (?)
glad_glBeginQueryIndexed DQ 01H DUP (?)
glad_glEndQueryIndexed DQ 01H DUP (?)
glad_glGetQueryIndexediv DQ 01H DUP (?)
GLAD_GL_VERSION_4_1 DD 01H DUP (?)
	ALIGN	8

glad_glReleaseShaderCompiler DQ 01H DUP (?)
glad_glShaderBinary DQ 01H DUP (?)
glad_glGetShaderPrecisionFormat DQ 01H DUP (?)
glad_glDepthRangef DQ 01H DUP (?)
glad_glClearDepthf DQ 01H DUP (?)
glad_glGetProgramBinary DQ 01H DUP (?)
glad_glProgramBinary DQ 01H DUP (?)
glad_glProgramParameteri DQ 01H DUP (?)
glad_glUseProgramStages DQ 01H DUP (?)
glad_glActiveShaderProgram DQ 01H DUP (?)
glad_glCreateShaderProgramv DQ 01H DUP (?)
glad_glBindProgramPipeline DQ 01H DUP (?)
glad_glDeleteProgramPipelines DQ 01H DUP (?)
glad_glGenProgramPipelines DQ 01H DUP (?)
glad_glIsProgramPipeline DQ 01H DUP (?)
glad_glGetProgramPipelineiv DQ 01H DUP (?)
glad_glProgramUniform1i DQ 01H DUP (?)
glad_glProgramUniform1iv DQ 01H DUP (?)
glad_glProgramUniform1f DQ 01H DUP (?)
glad_glProgramUniform1fv DQ 01H DUP (?)
glad_glProgramUniform1d DQ 01H DUP (?)
glad_glProgramUniform1dv DQ 01H DUP (?)
glad_glProgramUniform1ui DQ 01H DUP (?)
glad_glProgramUniform1uiv DQ 01H DUP (?)
glad_glProgramUniform2i DQ 01H DUP (?)
glad_glProgramUniform2iv DQ 01H DUP (?)
glad_glProgramUniform2f DQ 01H DUP (?)
glad_glProgramUniform2fv DQ 01H DUP (?)
glad_glProgramUniform2d DQ 01H DUP (?)
glad_glProgramUniform2dv DQ 01H DUP (?)
glad_glProgramUniform2ui DQ 01H DUP (?)
glad_glProgramUniform2uiv DQ 01H DUP (?)
glad_glProgramUniform3i DQ 01H DUP (?)
glad_glProgramUniform3iv DQ 01H DUP (?)
glad_glProgramUniform3f DQ 01H DUP (?)
glad_glProgramUniform3fv DQ 01H DUP (?)
glad_glProgramUniform3d DQ 01H DUP (?)
glad_glProgramUniform3dv DQ 01H DUP (?)
glad_glProgramUniform3ui DQ 01H DUP (?)
glad_glProgramUniform3uiv DQ 01H DUP (?)
glad_glProgramUniform4i DQ 01H DUP (?)
glad_glProgramUniform4iv DQ 01H DUP (?)
glad_glProgramUniform4f DQ 01H DUP (?)
glad_glProgramUniform4fv DQ 01H DUP (?)
glad_glProgramUniform4d DQ 01H DUP (?)
glad_glProgramUniform4dv DQ 01H DUP (?)
glad_glProgramUniform4ui DQ 01H DUP (?)
glad_glProgramUniform4uiv DQ 01H DUP (?)
glad_glProgramUniformMatrix2fv DQ 01H DUP (?)
glad_glProgramUniformMatrix3fv DQ 01H DUP (?)
glad_glProgramUniformMatrix4fv DQ 01H DUP (?)
glad_glProgramUniformMatrix2dv DQ 01H DUP (?)
glad_glProgramUniformMatrix3dv DQ 01H DUP (?)
glad_glProgramUniformMatrix4dv DQ 01H DUP (?)
glad_glProgramUniformMatrix2x3fv DQ 01H DUP (?)
glad_glProgramUniformMatrix3x2fv DQ 01H DUP (?)
glad_glProgramUniformMatrix2x4fv DQ 01H DUP (?)
glad_glProgramUniformMatrix4x2fv DQ 01H DUP (?)
glad_glProgramUniformMatrix3x4fv DQ 01H DUP (?)
glad_glProgramUniformMatrix4x3fv DQ 01H DUP (?)
glad_glProgramUniformMatrix2x3dv DQ 01H DUP (?)
glad_glProgramUniformMatrix3x2dv DQ 01H DUP (?)
glad_glProgramUniformMatrix2x4dv DQ 01H DUP (?)
glad_glProgramUniformMatrix4x2dv DQ 01H DUP (?)
glad_glProgramUniformMatrix3x4dv DQ 01H DUP (?)
glad_glProgramUniformMatrix4x3dv DQ 01H DUP (?)
glad_glValidateProgramPipeline DQ 01H DUP (?)
glad_glGetProgramPipelineInfoLog DQ 01H DUP (?)
glad_glVertexAttribL1d DQ 01H DUP (?)
glad_glVertexAttribL2d DQ 01H DUP (?)
glad_glVertexAttribL3d DQ 01H DUP (?)
glad_glVertexAttribL4d DQ 01H DUP (?)
glad_glVertexAttribL1dv DQ 01H DUP (?)
glad_glVertexAttribL2dv DQ 01H DUP (?)
glad_glVertexAttribL3dv DQ 01H DUP (?)
glad_glVertexAttribL4dv DQ 01H DUP (?)
glad_glVertexAttribLPointer DQ 01H DUP (?)
glad_glGetVertexAttribLdv DQ 01H DUP (?)
glad_glViewportArrayv DQ 01H DUP (?)
glad_glViewportIndexedf DQ 01H DUP (?)
glad_glViewportIndexedfv DQ 01H DUP (?)
glad_glScissorArrayv DQ 01H DUP (?)
glad_glScissorIndexed DQ 01H DUP (?)
glad_glScissorIndexedv DQ 01H DUP (?)
glad_glDepthRangeArrayv DQ 01H DUP (?)
glad_glDepthRangeIndexed DQ 01H DUP (?)
glad_glGetFloati_v DQ 01H DUP (?)
glad_glGetDoublei_v DQ 01H DUP (?)
GLAD_GL_VERSION_4_2 DD 01H DUP (?)
	ALIGN	8

glad_glDrawArraysInstancedBaseInstance DQ 01H DUP (?)
glad_glDrawElementsInstancedBaseInstance DQ 01H DUP (?)
glad_glDrawElementsInstancedBaseVertexBaseInstance DQ 01H DUP (?)
glad_glGetInternalformativ DQ 01H DUP (?)
glad_glGetActiveAtomicCounterBufferiv DQ 01H DUP (?)
glad_glBindImageTexture DQ 01H DUP (?)
glad_glMemoryBarrier DQ 01H DUP (?)
glad_glTexStorage1D DQ 01H DUP (?)
glad_glTexStorage2D DQ 01H DUP (?)
glad_glTexStorage3D DQ 01H DUP (?)
glad_glDrawTransformFeedbackInstanced DQ 01H DUP (?)
glad_glDrawTransformFeedbackStreamInstanced DQ 01H DUP (?)
GLAD_GL_VERSION_4_3 DD 01H DUP (?)
	ALIGN	8

glad_glClearBufferData DQ 01H DUP (?)
glad_glClearBufferSubData DQ 01H DUP (?)
glad_glDispatchCompute DQ 01H DUP (?)
glad_glDispatchComputeIndirect DQ 01H DUP (?)
glad_glCopyImageSubData DQ 01H DUP (?)
glad_glFramebufferParameteri DQ 01H DUP (?)
glad_glGetFramebufferParameteriv DQ 01H DUP (?)
glad_glGetInternalformati64v DQ 01H DUP (?)
glad_glInvalidateTexSubImage DQ 01H DUP (?)
glad_glInvalidateTexImage DQ 01H DUP (?)
glad_glInvalidateBufferSubData DQ 01H DUP (?)
glad_glInvalidateBufferData DQ 01H DUP (?)
glad_glInvalidateFramebuffer DQ 01H DUP (?)
glad_glInvalidateSubFramebuffer DQ 01H DUP (?)
glad_glMultiDrawArraysIndirect DQ 01H DUP (?)
glad_glMultiDrawElementsIndirect DQ 01H DUP (?)
glad_glGetProgramInterfaceiv DQ 01H DUP (?)
glad_glGetProgramResourceIndex DQ 01H DUP (?)
glad_glGetProgramResourceName DQ 01H DUP (?)
glad_glGetProgramResourceiv DQ 01H DUP (?)
glad_glGetProgramResourceLocation DQ 01H DUP (?)
glad_glGetProgramResourceLocationIndex DQ 01H DUP (?)
glad_glShaderStorageBlockBinding DQ 01H DUP (?)
glad_glTexBufferRange DQ 01H DUP (?)
glad_glTexStorage2DMultisample DQ 01H DUP (?)
glad_glTexStorage3DMultisample DQ 01H DUP (?)
glad_glTextureView DQ 01H DUP (?)
glad_glBindVertexBuffer DQ 01H DUP (?)
glad_glVertexAttribFormat DQ 01H DUP (?)
glad_glVertexAttribIFormat DQ 01H DUP (?)
glad_glVertexAttribLFormat DQ 01H DUP (?)
glad_glVertexAttribBinding DQ 01H DUP (?)
glad_glVertexBindingDivisor DQ 01H DUP (?)
glad_glDebugMessageControl DQ 01H DUP (?)
glad_glDebugMessageInsert DQ 01H DUP (?)
glad_glDebugMessageCallback DQ 01H DUP (?)
glad_glGetDebugMessageLog DQ 01H DUP (?)
glad_glPushDebugGroup DQ 01H DUP (?)
glad_glPopDebugGroup DQ 01H DUP (?)
glad_glObjectLabel DQ 01H DUP (?)
glad_glGetObjectLabel DQ 01H DUP (?)
glad_glObjectPtrLabel DQ 01H DUP (?)
glad_glGetObjectPtrLabel DQ 01H DUP (?)
glad_glGetPointerv DQ 01H DUP (?)
GLAD_GL_VERSION_4_4 DD 01H DUP (?)
	ALIGN	8

glad_glBufferStorage DQ 01H DUP (?)
glad_glClearTexImage DQ 01H DUP (?)
glad_glClearTexSubImage DQ 01H DUP (?)
glad_glBindBuffersBase DQ 01H DUP (?)
glad_glBindBuffersRange DQ 01H DUP (?)
glad_glBindTextures DQ 01H DUP (?)
glad_glBindSamplers DQ 01H DUP (?)
glad_glBindImageTextures DQ 01H DUP (?)
glad_glBindVertexBuffers DQ 01H DUP (?)
GLAD_GL_VERSION_4_5 DD 01H DUP (?)
	ALIGN	8

glad_glClipControl DQ 01H DUP (?)
glad_glCreateTransformFeedbacks DQ 01H DUP (?)
glad_glTransformFeedbackBufferBase DQ 01H DUP (?)
glad_glTransformFeedbackBufferRange DQ 01H DUP (?)
glad_glGetTransformFeedbackiv DQ 01H DUP (?)
glad_glGetTransformFeedbacki_v DQ 01H DUP (?)
glad_glGetTransformFeedbacki64_v DQ 01H DUP (?)
glad_glCreateBuffers DQ 01H DUP (?)
glad_glNamedBufferStorage DQ 01H DUP (?)
glad_glNamedBufferData DQ 01H DUP (?)
glad_glNamedBufferSubData DQ 01H DUP (?)
glad_glCopyNamedBufferSubData DQ 01H DUP (?)
glad_glClearNamedBufferData DQ 01H DUP (?)
glad_glClearNamedBufferSubData DQ 01H DUP (?)
glad_glMapNamedBuffer DQ 01H DUP (?)
glad_glMapNamedBufferRange DQ 01H DUP (?)
glad_glUnmapNamedBuffer DQ 01H DUP (?)
glad_glFlushMappedNamedBufferRange DQ 01H DUP (?)
glad_glGetNamedBufferParameteriv DQ 01H DUP (?)
glad_glGetNamedBufferParameteri64v DQ 01H DUP (?)
glad_glGetNamedBufferPointerv DQ 01H DUP (?)
glad_glGetNamedBufferSubData DQ 01H DUP (?)
glad_glCreateFramebuffers DQ 01H DUP (?)
glad_glNamedFramebufferRenderbuffer DQ 01H DUP (?)
glad_glNamedFramebufferParameteri DQ 01H DUP (?)
glad_glNamedFramebufferTexture DQ 01H DUP (?)
glad_glNamedFramebufferTextureLayer DQ 01H DUP (?)
glad_glNamedFramebufferDrawBuffer DQ 01H DUP (?)
glad_glNamedFramebufferDrawBuffers DQ 01H DUP (?)
glad_glNamedFramebufferReadBuffer DQ 01H DUP (?)
glad_glInvalidateNamedFramebufferData DQ 01H DUP (?)
glad_glInvalidateNamedFramebufferSubData DQ 01H DUP (?)
glad_glClearNamedFramebufferiv DQ 01H DUP (?)
glad_glClearNamedFramebufferuiv DQ 01H DUP (?)
glad_glClearNamedFramebufferfv DQ 01H DUP (?)
glad_glClearNamedFramebufferfi DQ 01H DUP (?)
glad_glBlitNamedFramebuffer DQ 01H DUP (?)
glad_glCheckNamedFramebufferStatus DQ 01H DUP (?)
glad_glGetNamedFramebufferParameteriv DQ 01H DUP (?)
glad_glGetNamedFramebufferAttachmentParameteriv DQ 01H DUP (?)
glad_glCreateRenderbuffers DQ 01H DUP (?)
glad_glNamedRenderbufferStorage DQ 01H DUP (?)
glad_glNamedRenderbufferStorageMultisample DQ 01H DUP (?)
glad_glGetNamedRenderbufferParameteriv DQ 01H DUP (?)
glad_glCreateTextures DQ 01H DUP (?)
glad_glTextureBuffer DQ 01H DUP (?)
glad_glTextureBufferRange DQ 01H DUP (?)
glad_glTextureStorage1D DQ 01H DUP (?)
glad_glTextureStorage2D DQ 01H DUP (?)
glad_glTextureStorage3D DQ 01H DUP (?)
glad_glTextureStorage2DMultisample DQ 01H DUP (?)
glad_glTextureStorage3DMultisample DQ 01H DUP (?)
glad_glTextureSubImage1D DQ 01H DUP (?)
glad_glTextureSubImage2D DQ 01H DUP (?)
glad_glTextureSubImage3D DQ 01H DUP (?)
glad_glCompressedTextureSubImage1D DQ 01H DUP (?)
glad_glCompressedTextureSubImage2D DQ 01H DUP (?)
glad_glCompressedTextureSubImage3D DQ 01H DUP (?)
glad_glCopyTextureSubImage1D DQ 01H DUP (?)
glad_glCopyTextureSubImage2D DQ 01H DUP (?)
glad_glCopyTextureSubImage3D DQ 01H DUP (?)
glad_glTextureParameterf DQ 01H DUP (?)
glad_glTextureParameterfv DQ 01H DUP (?)
glad_glTextureParameteri DQ 01H DUP (?)
glad_glTextureParameterIiv DQ 01H DUP (?)
glad_glTextureParameterIuiv DQ 01H DUP (?)
glad_glTextureParameteriv DQ 01H DUP (?)
glad_glGenerateTextureMipmap DQ 01H DUP (?)
glad_glBindTextureUnit DQ 01H DUP (?)
glad_glGetTextureImage DQ 01H DUP (?)
glad_glGetCompressedTextureImage DQ 01H DUP (?)
glad_glGetTextureLevelParameterfv DQ 01H DUP (?)
glad_glGetTextureLevelParameteriv DQ 01H DUP (?)
glad_glGetTextureParameterfv DQ 01H DUP (?)
glad_glGetTextureParameterIiv DQ 01H DUP (?)
glad_glGetTextureParameterIuiv DQ 01H DUP (?)
glad_glGetTextureParameteriv DQ 01H DUP (?)
glad_glCreateVertexArrays DQ 01H DUP (?)
glad_glDisableVertexArrayAttrib DQ 01H DUP (?)
glad_glEnableVertexArrayAttrib DQ 01H DUP (?)
glad_glVertexArrayElementBuffer DQ 01H DUP (?)
glad_glVertexArrayVertexBuffer DQ 01H DUP (?)
glad_glVertexArrayVertexBuffers DQ 01H DUP (?)
glad_glVertexArrayAttribBinding DQ 01H DUP (?)
glad_glVertexArrayAttribFormat DQ 01H DUP (?)
glad_glVertexArrayAttribIFormat DQ 01H DUP (?)
glad_glVertexArrayAttribLFormat DQ 01H DUP (?)
glad_glVertexArrayBindingDivisor DQ 01H DUP (?)
glad_glGetVertexArrayiv DQ 01H DUP (?)
glad_glGetVertexArrayIndexediv DQ 01H DUP (?)
glad_glGetVertexArrayIndexed64iv DQ 01H DUP (?)
glad_glCreateSamplers DQ 01H DUP (?)
glad_glCreateProgramPipelines DQ 01H DUP (?)
glad_glCreateQueries DQ 01H DUP (?)
glad_glGetQueryBufferObjecti64v DQ 01H DUP (?)
glad_glGetQueryBufferObjectiv DQ 01H DUP (?)
glad_glGetQueryBufferObjectui64v DQ 01H DUP (?)
glad_glGetQueryBufferObjectuiv DQ 01H DUP (?)
glad_glMemoryBarrierByRegion DQ 01H DUP (?)
glad_glGetTextureSubImage DQ 01H DUP (?)
glad_glGetCompressedTextureSubImage DQ 01H DUP (?)
glad_glGetGraphicsResetStatus DQ 01H DUP (?)
glad_glGetnCompressedTexImage DQ 01H DUP (?)
glad_glGetnTexImage DQ 01H DUP (?)
glad_glGetnUniformdv DQ 01H DUP (?)
glad_glGetnUniformfv DQ 01H DUP (?)
glad_glGetnUniformiv DQ 01H DUP (?)
glad_glGetnUniformuiv DQ 01H DUP (?)
glad_glReadnPixels DQ 01H DUP (?)
glad_glGetnMapdv DQ 01H DUP (?)
glad_glGetnMapfv DQ 01H DUP (?)
glad_glGetnMapiv DQ 01H DUP (?)
glad_glGetnPixelMapfv DQ 01H DUP (?)
glad_glGetnPixelMapuiv DQ 01H DUP (?)
glad_glGetnPixelMapusv DQ 01H DUP (?)
glad_glGetnPolygonStipple DQ 01H DUP (?)
glad_glGetnColorTable DQ 01H DUP (?)
glad_glGetnConvolutionFilter DQ 01H DUP (?)
glad_glGetnSeparableFilter DQ 01H DUP (?)
glad_glGetnHistogram DQ 01H DUP (?)
glad_glGetnMinmax DQ 01H DUP (?)
glad_glTextureBarrier DQ 01H DUP (?)
GLAD_GL_VERSION_4_6 DD 01H DUP (?)
	ALIGN	8

glad_glSpecializeShader DQ 01H DUP (?)
glad_glMultiDrawArraysIndirectCount DQ 01H DUP (?)
glad_glMultiDrawElementsIndirectCount DQ 01H DUP (?)
glad_glPolygonOffsetClamp DQ 01H DUP (?)
GLAD_GL_VERSION_ES_CM_1_0 DD 01H DUP (?)
	ALIGN	8

glad_glAlphaFunc DQ 01H DUP (?)
glad_glClipPlanef DQ 01H DUP (?)
glad_glColor4f DQ 01H DUP (?)
glad_glFogf DQ	01H DUP (?)
glad_glFogfv DQ	01H DUP (?)
glad_glFrustumf DQ 01H DUP (?)
glad_glGetClipPlanef DQ 01H DUP (?)
glad_glGetLightfv DQ 01H DUP (?)
glad_glGetMaterialfv DQ 01H DUP (?)
glad_glGetTexEnvfv DQ 01H DUP (?)
glad_glLightModelf DQ 01H DUP (?)
glad_glLightModelfv DQ 01H DUP (?)
glad_glLightf DQ 01H DUP (?)
glad_glLightfv DQ 01H DUP (?)
glad_glLoadMatrixf DQ 01H DUP (?)
glad_glMaterialf DQ 01H DUP (?)
glad_glMaterialfv DQ 01H DUP (?)
glad_glMultMatrixf DQ 01H DUP (?)
glad_glMultiTexCoord4f DQ 01H DUP (?)
glad_glNormal3f DQ 01H DUP (?)
glad_glOrthof DQ 01H DUP (?)
glad_glRotatef DQ 01H DUP (?)
glad_glScalef DQ 01H DUP (?)
glad_glTexEnvf DQ 01H DUP (?)
glad_glTexEnvfv DQ 01H DUP (?)
glad_glTranslatef DQ 01H DUP (?)
glad_glAlphaFuncx DQ 01H DUP (?)
glad_glClearColorx DQ 01H DUP (?)
glad_glClearDepthx DQ 01H DUP (?)
glad_glClientActiveTexture DQ 01H DUP (?)
glad_glClipPlanex DQ 01H DUP (?)
glad_glColor4ub DQ 01H DUP (?)
glad_glColor4x DQ 01H DUP (?)
glad_glColorPointer DQ 01H DUP (?)
glad_glDepthRangex DQ 01H DUP (?)
glad_glDisableClientState DQ 01H DUP (?)
glad_glEnableClientState DQ 01H DUP (?)
glad_glFogx DQ	01H DUP (?)
glad_glFogxv DQ	01H DUP (?)
glad_glFrustumx DQ 01H DUP (?)
glad_glGetClipPlanex DQ 01H DUP (?)
glad_glGetFixedv DQ 01H DUP (?)
glad_glGetLightxv DQ 01H DUP (?)
glad_glGetMaterialxv DQ 01H DUP (?)
glad_glGetTexEnviv DQ 01H DUP (?)
glad_glGetTexEnvxv DQ 01H DUP (?)
glad_glGetTexParameterxv DQ 01H DUP (?)
glad_glLightModelx DQ 01H DUP (?)
glad_glLightModelxv DQ 01H DUP (?)
glad_glLightx DQ 01H DUP (?)
glad_glLightxv DQ 01H DUP (?)
glad_glLineWidthx DQ 01H DUP (?)
glad_glLoadIdentity DQ 01H DUP (?)
glad_glLoadMatrixx DQ 01H DUP (?)
glad_glMaterialx DQ 01H DUP (?)
glad_glMaterialxv DQ 01H DUP (?)
glad_glMatrixMode DQ 01H DUP (?)
glad_glMultMatrixx DQ 01H DUP (?)
glad_glMultiTexCoord4x DQ 01H DUP (?)
glad_glNormal3x DQ 01H DUP (?)
glad_glNormalPointer DQ 01H DUP (?)
glad_glOrthox DQ 01H DUP (?)
glad_glPointParameterx DQ 01H DUP (?)
glad_glPointParameterxv DQ 01H DUP (?)
glad_glPointSizex DQ 01H DUP (?)
glad_glPolygonOffsetx DQ 01H DUP (?)
glad_glPopMatrix DQ 01H DUP (?)
glad_glPushMatrix DQ 01H DUP (?)
glad_glRotatex DQ 01H DUP (?)
glad_glSampleCoveragex DQ 01H DUP (?)
glad_glScalex DQ 01H DUP (?)
glad_glShadeModel DQ 01H DUP (?)
glad_glTexCoordPointer DQ 01H DUP (?)
glad_glTexEnvi DQ 01H DUP (?)
glad_glTexEnvx DQ 01H DUP (?)
glad_glTexEnviv DQ 01H DUP (?)
glad_glTexEnvxv DQ 01H DUP (?)
glad_glTexParameterx DQ 01H DUP (?)
glad_glTexParameterxv DQ 01H DUP (?)
glad_glTranslatex DQ 01H DUP (?)
glad_glVertexPointer DQ 01H DUP (?)
GLAD_GL_ES_VERSION_2_0 DD 01H DUP (?)
GLAD_GL_ES_VERSION_3_0 DD 01H DUP (?)
GLAD_GL_ES_VERSION_3_1 DD 01H DUP (?)
GLAD_GL_ES_VERSION_3_2 DD 01H DUP (?)
glad_glBlendBarrier DQ 01H DUP (?)
glad_glPrimitiveBoundingBox DQ 01H DUP (?)
GLAD_GL_SC_VERSION_2_0 DD 01H DUP (?)
_BSS	ENDS
msvcjmc	SEGMENT
__9C03CD75_concurrencysal@h DB 01H
__CA64BAF1_sal@h DB 01H
__95655E73_vadefs@h DB 01H
__1D560A45_vcruntime@h DB 01H
__1B0272D9_corecrt@h DB 01H
__44420885_corecrt_stdio_config@h DB 01H
__AB601D8D_corecrt_wstdio@h DB 01H
__C1EC35D3_stdio@h DB 01H
__45DED006_corecrt_malloc@h DB 01H
__13F5961F_stddef@h DB 01H
__FD6DBD68_corecrt_search@h DB 01H
__E2E33A61_corecrt_wstdlib@h DB 01H
__531E1E2A_limits@h DB 01H
__6E5ACABA_stdlib@h DB 01H
__61CC25A1_errno@h DB 01H
__7061C667_vcruntime_string@h DB 01H
__E4C945B4_corecrt_memcpy_s@h DB 01H
__8EAFF484_corecrt_memory@h DB 01H
__6490AEC5_corecrt_wstring@h DB 01H
__E8295E1E_string@h DB 01H
__ED683015_stdint@h DB 01H
__0E1B4EC4_khrplatform@h DB 01H
__CCB3A311_glad@h DB 01H
__0ED14FEE_winpackagefamily@h DB 01H
__F92EF742_winapifamily@h DB 01H
__22E515EB_sdkddkver@h DB 01H
__F214EFBF_excpt@h DB 01H
__D9B78EDA_stdarg@h DB 01H
__29F49F40_specstrings_undef@h DB 01H
__D0F42932_specstrings_strict@h DB 01H
__F00405FD_sdv_driverspecs@h DB 01H
__173E09CA_driverspecs@h DB 01H
__9A452361_specstrings@h DB 01H
__74484FB3_corecrt_wctype@h DB 01H
__1EC467ED_ctype@h DB 01H
__98517906_kernelspecs@h DB 01H
__D3497022_basetsd@h DB 01H
__7FCB5136_guiddef@h DB 01H
__FF8A9E11_pshpack4@h DB 01H
__D5438902_poppack@h DB 01H
__FB07E2A3_pshpack2@h DB 01H
__F6906775_pshpack8@h DB 01H
__F9415CFA_pshpack1@h DB 01H
__E58C6F1C_apiset@h DB 01H
__A5C52262_ktmtypes@h DB 01H
__FBBA8F9D_winnt@h DB 01H
__A32D3D2C_minwindef@h DB 01H
__7D798299_windef@h DB 01H
__9AE108E9_apisetcconv@h DB 01H
__9CE53D2C_minwinbase@h DB 01H
__5D0AA210_apiquery2@h DB 01H
__4DD4E726_processenv@h DB 01H
__3575CC96_fileapi@h DB 01H
__8EA220E6_fileapifromapp@h DB 01H
__BF9B31FE_debugapi@h DB 01H
__C3AFE134_utilapiset@h DB 01H
__76F69E51_handleapi@h DB 01H
__7E63D784_errhandlingapi@h DB 01H
__FFA7003C_fibersapi@h DB 01H
__8971CECF_namedpipeapi@h DB 01H
__46C9D8A6_profileapi@h DB 01H
__98D4F0A3_heapapi@h DB 01H
__50EF2A88_ioapiset@h DB 01H
__92EA1464_synchapi@h DB 01H
__A53D8AED_interlockedapi@h DB 01H
__B506CAAF_processthreadsapi@h DB 01H
__FF735694_sysinfoapi@h DB 01H
__29589789_memoryapi@h DB 01H
__E9C7A663_enclaveapi@h DB 01H
__D035F9F7_threadpoollegacyapiset@h DB 01H
__C899130C_threadpoolapiset@h DB 01H
__E0441EE7_jobapi@h DB 01H
__CEF86838_jobapi2@h DB 01H
__35AC6B9A_wow64apiset@h DB 01H
__C8AE41A5_libloaderapi@h DB 01H
__CC9E232D_securitybaseapi@h DB 01H
__C9D0C9B8_namespaceapi@h DB 01H
__30FF9CAD_systemtopologyapi@h DB 01H
__4D358795_processtopologyapi@h DB 01H
__40446D10_securityappcontainer@h DB 01H
__3A952EDF_realtimeapiset@h DB 01H
__F4865F4B_winerror@h DB 01H
__53C1BD93_timezoneapi@h DB 01H
__1FFBEDBF_winbase@h DB 01H
__43D3FA34_wingdi@h DB 01H
__D24A7391_tvout@h DB 01H
__7713A6C8_winuser@h DB 01H
__0B345F71_datetimeapi@h DB 01H
__9AC6960C_winnls@h DB 01H
__973A40A8_stringapiset@h DB 01H
__CC46FEE2_wincontypes@h DB 01H
__97D70BE1_consoleapi@h DB 01H
__27EC5E18_consoleapi2@h DB 01H
__262E342F_consoleapi3@h DB 01H
__641DCD70_wincon@h DB 01H
__5A96C7A7_verrsrc@h DB 01H
__B69C6FF2_winver@h DB 01H
__7AEB8C37_reason@h DB 01H
__59F1A8A9_winreg@h DB 01H
__EE0E2B7F_wnnc@h DB 01H
__DCDB7054_winnetwk@h DB 01H
__EDC72EEB_cderr@h DB 01H
__95F9199D_dde@h DB 01H
__66427627_ddeml@h DB 01H
__957C29A0_dlgs@h DB 01H
__12EA15AF_lzexpand@h DB 01H
__62131F15_mmsyscom@h DB 01H
__47E68D49_mciapi@h DB 01H
__5D7DD356_mmiscapi@h DB 01H
__7223D2EF_mmiscapi2@h DB 01H
__A330DBB3_playsoundapi@h DB 01H
__601B366F_mmeapi@h DB 01H
__1134ADD5_timeapi@h DB 01H
__93F2265A_joystickapi@h DB 01H
__DF6EB4E3_mmsystem@h DB 01H
__BD641FCB_nb30@h DB 01H
__DF8704F0_rpcdcep@h DB 01H
__5C6CA7BB_rpcdce@h DB 01H
__853533C4_rpcnsi@h DB 01H
__2D2406C3_rpcnterr@h DB 01H
__64521D71_rpcasync@h DB 01H
__AADCBA08_rpc@h DB 01H
__19E26CFF_shellapi@h DB 01H
__1E9F31D3_winperf@h DB 01H
__832A4112_inaddr@h DB 01H
__32C6F875_winsock@h DB 01H
__7953A3F8_bcrypt@h DB 01H
__E4169492_ncrypt@h DB 01H
__AF3DDDC3_dpapi@h DB 01H
__D1E23BF2_wincrypt@h DB 01H
__82AB4779_winefs@h DB 01H
__1FE431C9_rpcnsip@h DB 01H
__2B741F2D_rpcsal@h DB 01H
__92623256_rpcndr@h DB 01H
__9C18532E_wtypesbase@h DB 01H
__EA2E1D6D_wtypes@h DB 01H
__7DDD9F45_winioctl@h DB 01H
__E550A843_winsmcrd@h DB 01H
__9809C1BA_winscard@h DB 01H
__EA174FA4_prsht@h DB 01H
__0E1BD114_winspool@h DB 01H
__30B1AFDA_unknwnbase@h DB 01H
__328C1996_objidlbase@h DB 01H
__C4E06B6A_cguid@h DB 01H
__434718C5_combaseapi@h DB 01H
__DE6FDEF1_unknwn@h DB 01H
__CCE0BACC_objidl@h DB 01H
__8C7011E5_oaidl@h DB 01H
__2E0B7863_propidlbase@h DB 01H
__BF4CF2EC_coml2api@h DB 01H
__6D897344_oleidl@h DB 01H
__1129FC2C_servprov@h DB 01H
__757952E4_msxml@h DB 01H
__B1191D53_urlmon@h DB 01H
__404D1A47_propidl@h DB 01H
__A1C63593_objbase@h DB 01H
__C1B0A9CB_oleauto@h DB 01H
__24EAF61F_ole2@h DB 01H
__2B1843DA_commdlg@h DB 01H
__81DDEDE3_stralign@h DB 01H
__2134D1B4_winsvc@h DB 01H
__11C07376_mcx@h DB 01H
__577CE3E7_ime_cmodes@h DB 01H
__1E72C31E_imm@h DB 01H
__E15BF856_windows@h DB 01H
__2B68C239_glad@c DB 01H
msvcjmc	ENDS
PUBLIC	__local_stdio_scanf_options
PUBLIC	_vsscanf_s_l
PUBLIC	vsscanf_s
PUBLIC	sscanf_s
PUBLIC	gladLoadGL
PUBLIC	gladLoadGLLoader
PUBLIC	gladLoadGLES1Loader
PUBLIC	gladLoadGLES2Loader
PUBLIC	gladLoadGLSC2Loader
PUBLIC	__JustMyCode_Default
PUBLIC	??_C@_1BK@LCODAJLO@?$AAo?$AAp?$AAe?$AAn?$AAg?$AAl?$AA3?$AA2?$AA?4?$AAd?$AAl?$AAl@ ; `string'
PUBLIC	??_C@_0BC@FFKMKEGM@wglGetProcAddress@		; `string'
PUBLIC	??_C@_0L@BAPBLHME@glCullFace@			; `string'
PUBLIC	??_C@_0M@ILBMDJDA@glFrontFace@			; `string'
PUBLIC	??_C@_06HEADGMBC@glHint@			; `string'
PUBLIC	??_C@_0M@CFLGNFPG@glLineWidth@			; `string'
PUBLIC	??_C@_0M@EEAPMMNM@glPointSize@			; `string'
PUBLIC	??_C@_0O@DKMNBFMB@glPolygonMode@		; `string'
PUBLIC	??_C@_09ECGPAEPL@glScissor@			; `string'
PUBLIC	??_C@_0BA@INKFIMGP@glTexParameterf@		; `string'
PUBLIC	??_C@_0BB@KEOFAHDF@glTexParameterfv@		; `string'
PUBLIC	??_C@_0BA@KDNJAKA@glTexParameteri@		; `string'
PUBLIC	??_C@_0BB@KPLJEAAI@glTexParameteriv@		; `string'
PUBLIC	??_C@_0N@JDMMMFHL@glTexImage1D@			; `string'
PUBLIC	??_C@_0N@JBIKHLCC@glTexImage2D@			; `string'
PUBLIC	??_C@_0N@EKCLGPL@glDrawBuffer@			; `string'
PUBLIC	??_C@_07IBAPPAHJ@glClear@			; `string'
PUBLIC	??_C@_0N@OGLMDNKC@glClearColor@			; `string'
PUBLIC	??_C@_0P@KBLPBBFP@glClearStencil@		; `string'
PUBLIC	??_C@_0N@LJIELNG@glClearDepth@			; `string'
PUBLIC	??_C@_0O@DJFHPFEP@glStencilMask@		; `string'
PUBLIC	??_C@_0M@DLGOAHPH@glColorMask@			; `string'
PUBLIC	??_C@_0M@KABMFLLN@glDepthMask@			; `string'
PUBLIC	??_C@_09MHGMIMKN@glDisable@			; `string'
PUBLIC	??_C@_08OOEHEKOP@glEnable@			; `string'
PUBLIC	??_C@_08DFCPOKBK@glFinish@			; `string'
PUBLIC	??_C@_07COFELLJA@glFlush@			; `string'
PUBLIC	??_C@_0M@PFBKOKOH@glBlendFunc@			; `string'
PUBLIC	??_C@_09GKGMNAKG@glLogicOp@			; `string'
PUBLIC	??_C@_0O@ENNLLOLN@glStencilFunc@		; `string'
PUBLIC	??_C@_0M@BILBNGF@glStencilOp@			; `string'
PUBLIC	??_C@_0M@NEJABAEP@glDepthFunc@			; `string'
PUBLIC	??_C@_0O@BFLAHHCK@glPixelStoref@		; `string'
PUBLIC	??_C@_0O@JCCIGLOF@glPixelStorei@		; `string'
PUBLIC	??_C@_0N@HFKHBECK@glReadBuffer@			; `string'
PUBLIC	??_C@_0N@CKFNNHOO@glReadPixels@			; `string'
PUBLIC	??_C@_0O@NLMELLCJ@glGetBooleanv@		; `string'
PUBLIC	??_C@_0N@OFBMMCDH@glGetDoublev@			; `string'
PUBLIC	??_C@_0L@FPKAMKHB@glGetError@			; `string'
PUBLIC	??_C@_0M@CKCOBONE@glGetFloatv@			; `string'
PUBLIC	??_C@_0O@DHHDCCLF@glGetIntegerv@		; `string'
PUBLIC	??_C@_0M@OPOBFDCB@glGetString@			; `string'
PUBLIC	??_C@_0O@DOIIJLAD@glGetTexImage@		; `string'
PUBLIC	??_C@_0BE@DNHBPKMC@glGetTexParameterfv@		; `string'
PUBLIC	??_C@_0BE@DGCNLNPP@glGetTexParameteriv@		; `string'
PUBLIC	??_C@_0BJ@GAMLGIFF@glGetTexLevelParameterfv@	; `string'
PUBLIC	??_C@_0BJ@GLJHCPGI@glGetTexLevelParameteriv@	; `string'
PUBLIC	??_C@_0M@INHMIHKC@glIsEnabled@			; `string'
PUBLIC	??_C@_0N@PEBDIKOA@glDepthRange@			; `string'
PUBLIC	??_C@_0L@KBLIPDFH@glViewport@			; `string'
PUBLIC	??_C@_0N@CMNPPOHA@glDrawArrays@			; `string'
PUBLIC	??_C@_0P@MENFIFGE@glDrawElements@		; `string'
PUBLIC	??_C@_0BA@FFBJGNC@glPolygonOffset@		; `string'
PUBLIC	??_C@_0BB@MEEDBHPL@glCopyTexImage1D@		; `string'
PUBLIC	??_C@_0BB@MGAFKJKC@glCopyTexImage2D@		; `string'
PUBLIC	??_C@_0BE@PKNCAIGI@glCopyTexSubImage1D@		; `string'
PUBLIC	??_C@_0BE@PIJELGDB@glCopyTexSubImage2D@		; `string'
PUBLIC	??_C@_0BA@NFOOCKJD@glTexSubImage1D@		; `string'
PUBLIC	??_C@_0BA@NHKIJEMK@glTexSubImage2D@		; `string'
PUBLIC	??_C@_0O@JKKCIBGC@glBindTexture@		; `string'
PUBLIC	??_C@_0BB@KMPLFJIC@glDeleteTextures@		; `string'
PUBLIC	??_C@_0O@LLMANLNK@glGenTextures@		; `string'
PUBLIC	??_C@_0M@NJHAEPDN@glIsTexture@			; `string'
PUBLIC	??_C@_0BE@IHNAGJGJ@glDrawRangeElements@		; `string'
PUBLIC	??_C@_0N@JAEIBBBF@glTexImage3D@			; `string'
PUBLIC	??_C@_0BA@NGGKPOPN@glTexSubImage3D@		; `string'
PUBLIC	??_C@_0BE@PJFGNMAG@glCopyTexSubImage3D@		; `string'
PUBLIC	??_C@_0BA@KOBBIKOF@glActiveTexture@		; `string'
PUBLIC	??_C@_0BB@BJGIPMOA@glSampleCoverage@		; `string'
PUBLIC	??_C@_0BH@GGHNMAGP@glCompressedTexImage3D@	; `string'
PUBLIC	??_C@_0BH@GHLPKKFI@glCompressedTexImage2D@	; `string'
PUBLIC	??_C@_0BH@GFPJBEAB@glCompressedTexImage1D@	; `string'
PUBLIC	??_C@_0BK@EBJMCDPA@glCompressedTexSubImage3D@	; `string'
PUBLIC	??_C@_0BK@EAFOEJMH@glCompressedTexSubImage2D@	; `string'
PUBLIC	??_C@_0BK@ECBIPHJO@glCompressedTexSubImage1D@	; `string'
PUBLIC	??_C@_0BI@MPANLPPL@glGetCompressedTexImage@	; `string'
PUBLIC	??_C@_0BE@LLLCIIOO@glBlendFuncSeparate@		; `string'
PUBLIC	??_C@_0BC@IBABPJFA@glMultiDrawArrays@		; `string'
PUBLIC	??_C@_0BE@MPDFJJLL@glMultiDrawElements@		; `string'
PUBLIC	??_C@_0BC@FGOOEDO@glPointParameterf@		; `string'
PUBLIC	??_C@_0BD@LIABKNDP@glPointParameterfv@		; `string'
PUBLIC	??_C@_0BC@ICPGPIPB@glPointParameteri@		; `string'
PUBLIC	??_C@_0BD@LDFNOKAC@glPointParameteriv@		; `string'
PUBLIC	??_C@_0N@PKBMFJDK@glBlendColor@			; `string'
PUBLIC	??_C@_0BA@PFHILPAN@glBlendEquation@		; `string'
PUBLIC	??_C@_0N@CJIGHHJ@glGenQueries@			; `string'
PUBLIC	??_C@_0BA@IOKEHMOH@glDeleteQueries@		; `string'
PUBLIC	??_C@_09CNNLCEBN@glIsQuery@			; `string'
PUBLIC	??_C@_0N@GIAGIGPA@glBeginQuery@			; `string'
PUBLIC	??_C@_0L@FLEBHIDM@glEndQuery@			; `string'
PUBLIC	??_C@_0N@BPACPFCI@glGetQueryiv@			; `string'
PUBLIC	??_C@_0BD@KMBBCJID@glGetQueryObjectiv@		; `string'
PUBLIC	??_C@_0BE@MNBBKJ@glGetQueryObjectuiv@		; `string'
PUBLIC	??_C@_0N@BONEPPLO@glBindBuffer@			; `string'
PUBLIC	??_C@_0BA@DMNLADIO@glDeleteBuffers@		; `string'
PUBLIC	??_C@_0N@LAOHBIBA@glGenBuffers@			; `string'
PUBLIC	??_C@_0L@KFPDMKNG@glIsBuffer@			; `string'
PUBLIC	??_C@_0N@JHHJMABP@glBufferData@			; `string'
PUBLIC	??_C@_0BA@GAJMDBBN@glBufferSubData@		; `string'
PUBLIC	??_C@_0BD@PNDAHMBO@glGetBufferSubData@		; `string'
PUBLIC	??_C@_0M@NNHDPACA@glMapBuffer@			; `string'
PUBLIC	??_C@_0O@OFGHBLEO@glUnmapBuffer@		; `string'
PUBLIC	??_C@_0BH@BMIEIFJP@glGetBufferParameteriv@	; `string'
PUBLIC	??_C@_0BE@KNJEIFMC@glGetBufferPointerv@		; `string'
PUBLIC	??_C@_0BI@JNHDNJAG@glBlendEquationSeparate@	; `string'
PUBLIC	??_C@_0O@COHJKDBH@glDrawBuffers@		; `string'
PUBLIC	??_C@_0BE@GAPLDNGF@glStencilOpSeparate@		; `string'
PUBLIC	??_C@_0BG@FCMNCEIA@glStencilFuncSeparate@	; `string'
PUBLIC	??_C@_0BG@MMKPIEJI@glStencilMaskSeparate@	; `string'
PUBLIC	??_C@_0P@LDMLEABL@glAttachShader@		; `string'
PUBLIC	??_C@_0BF@MHKEFIHM@glBindAttribLocation@	; `string'
PUBLIC	??_C@_0BA@DGIEGONF@glCompileShader@		; `string'
PUBLIC	??_C@_0BA@FLKLHNKP@glCreateProgram@		; `string'
PUBLIC	??_C@_0P@HGHBNC@glCreateShader@			; `string'
PUBLIC	??_C@_0BA@NKGCDOPO@glDeleteProgram@		; `string'
PUBLIC	??_C@_0P@HHCDONAG@glDeleteShader@		; `string'
PUBLIC	??_C@_0P@DJFJFCJL@glDetachShader@		; `string'
PUBLIC	??_C@_0BL@NKHLOFFF@glDisableVertexAttribArray@	; `string'
PUBLIC	??_C@_0BK@EHBAHNHE@glEnableVertexAttribArray@	; `string'
PUBLIC	??_C@_0BC@MBALAOHF@glGetActiveAttrib@		; `string'
PUBLIC	??_C@_0BD@NIMHLLKN@glGetActiveUniform@		; `string'
PUBLIC	??_C@_0BF@GHMDGFEM@glGetAttachedShaders@	; `string'
PUBLIC	??_C@_0BE@BEPGJDMM@glGetAttribLocation@		; `string'
PUBLIC	??_C@_0P@FMMDFLCO@glGetProgramiv@		; `string'
PUBLIC	??_C@_0BE@DHGHAJFL@glGetProgramInfoLog@		; `string'
PUBLIC	??_C@_0O@JBDFPDMG@glGetShaderiv@		; `string'
PUBLIC	??_C@_0BD@GIABBCMO@glGetShaderInfoLog@		; `string'
PUBLIC	??_C@_0BC@ELEIFJEL@glGetShaderSource@		; `string'
PUBLIC	??_C@_0BF@KIOPGICP@glGetUniformLocation@	; `string'
PUBLIC	??_C@_0P@DFCJIBG@glGetUniformfv@		; `string'
PUBLIC	??_C@_0P@IAONPCL@glGetUniformiv@		; `string'
PUBLIC	??_C@_0BE@HDPMJMIN@glGetVertexAttribdv@		; `string'
PUBLIC	??_C@_0BE@HAHIEIOD@glGetVertexAttribfv@		; `string'
PUBLIC	??_C@_0BE@HLCEAPNO@glGetVertexAttribiv@		; `string'
PUBLIC	??_C@_0BK@DOJMENLD@glGetVertexAttribPointerv@	; `string'
PUBLIC	??_C@_0M@INLOJDGO@glIsProgram@			; `string'
PUBLIC	??_C@_0L@MDDLFIHC@glIsShader@			; `string'
PUBLIC	??_C@_0O@PIOEEBPO@glLinkProgram@		; `string'
PUBLIC	??_C@_0P@DFHCPFMO@glShaderSource@		; `string'
PUBLIC	??_C@_0N@ICBDHBI@glUseProgram@			; `string'
PUBLIC	??_C@_0M@MLICAPOF@glUniform1f@			; `string'
PUBLIC	??_C@_0M@MJMELBLM@glUniform2f@			; `string'
PUBLIC	??_C@_0M@MIAGNLIL@glUniform3f@			; `string'
PUBLIC	??_C@_0M@MNEJMNAO@glUniform4f@			; `string'
PUBLIC	??_C@_0M@EMBKBDCK@glUniform1i@			; `string'
PUBLIC	??_C@_0M@EOFMKNHD@glUniform2i@			; `string'
PUBLIC	??_C@_0M@EPJOMHEE@glUniform3i@			; `string'
PUBLIC	??_C@_0M@EKNBNBMB@glUniform4i@			; `string'
PUBLIC	??_C@_0N@KJMOEKII@glUniform1fv@			; `string'
PUBLIC	??_C@_0N@LLHLOFGG@glUniform2fv@			; `string'
PUBLIC	??_C@_0N@DMHICAD@glUniform3fv@			; `string'
PUBLIC	??_C@_0N@JOBALKLK@glUniform4fv@			; `string'
PUBLIC	??_C@_0N@KCJCANLF@glUniform1iv@			; `string'
PUBLIC	??_C@_0N@LACHKCFL@glUniform2iv@			; `string'
PUBLIC	??_C@_0N@IJLMFDO@glUniform3iv@			; `string'
PUBLIC	??_C@_0N@JFEMPNIH@glUniform4iv@			; `string'
PUBLIC	??_C@_0BD@JIBJELHD@glUniformMatrix2fv@		; `string'
PUBLIC	??_C@_0BD@CAKFCMBG@glUniformMatrix3fv@		; `string'
PUBLIC	??_C@_0BD@LNHCBEKP@glUniformMatrix4fv@		; `string'
PUBLIC	??_C@_0BC@MAPGDLJK@glValidateProgram@		; `string'
PUBLIC	??_C@_0BB@PIOLPNPC@glVertexAttrib1d@		; `string'
PUBLIC	??_C@_0BC@CKCOKGLN@glVertexAttrib1dv@		; `string'
PUBLIC	??_C@_0BB@MKNNJPHA@glVertexAttrib1f@		; `string'
PUBLIC	??_C@_0BC@CJKKHCND@glVertexAttrib1fv@		; `string'
PUBLIC	??_C@_0BB@PNGIHJGE@glVertexAttrib1s@		; `string'
PUBLIC	??_C@_0BC@DDEHBDEI@glVertexAttrib1sv@		; `string'
PUBLIC	??_C@_0BB@PKKNEDKL@glVertexAttrib2d@		; `string'
PUBLIC	??_C@_0BC@DIJLAJFD@glVertexAttrib2dv@		; `string'
PUBLIC	??_C@_0BB@MIJLCBCJ@glVertexAttrib2f@		; `string'
PUBLIC	??_C@_0BC@DLBPNNDN@glVertexAttrib2fv@		; `string'
PUBLIC	??_C@_0BB@PPCOMHDN@glVertexAttrib2s@		; `string'
PUBLIC	??_C@_0BC@CBPCLMKG@glVertexAttrib2sv@		; `string'
PUBLIC	??_C@_0BB@PLGPCJJM@glVertexAttrib3d@		; `string'
PUBLIC	??_C@_0BC@IACHGODG@glVertexAttrib3dv@		; `string'
PUBLIC	??_C@_0BB@MJFJELBO@glVertexAttrib3f@		; `string'
PUBLIC	??_C@_0BC@IDKDLKFI@glVertexAttrib3fv@		; `string'
PUBLIC	??_C@_0BB@POOMKNAK@glVertexAttrib3s@		; `string'
PUBLIC	??_C@_0BC@JJEONLMD@glVertexAttrib3sv@		; `string'
PUBLIC	??_C@_0BD@NANPPEGB@glVertexAttrib4Nbv@		; `string'
PUBLIC	??_C@_0BD@NMIKBLIA@glVertexAttrib4Niv@		; `string'
PUBLIC	??_C@_0BD@MNDLDNCG@glVertexAttrib4Nsv@		; `string'
PUBLIC	??_C@_0BD@OHBIJGMB@glVertexAttrib4Nub@		; `string'
PUBLIC	??_C@_0BE@JFOBDEMA@glVertexAttrib4Nubv@		; `string'
PUBLIC	??_C@_0BE@JJLENLCB@glVertexAttrib4Nuiv@		; `string'
PUBLIC	??_C@_0BE@IIAFPNIH@glVertexAttrib4Nusv@		; `string'
PUBLIC	??_C@_0BC@BJHNCKDN@glVertexAttrib4bv@		; `string'
PUBLIC	??_C@_0BB@POCADPBJ@glVertexAttrib4d@		; `string'
PUBLIC	??_C@_0BC@BNPAFGIP@glVertexAttrib4dv@		; `string'
PUBLIC	??_C@_0BB@MMBGFNJL@glVertexAttrib4f@		; `string'
PUBLIC	??_C@_0BC@BOHEICOB@glVertexAttrib4fv@		; `string'
PUBLIC	??_C@_0BC@BFCIMFNM@glVertexAttrib4iv@		; `string'
PUBLIC	??_C@_0BB@PLKDLLIP@glVertexAttrib4s@		; `string'
PUBLIC	??_C@_0BC@EJJODHK@glVertexAttrib4sv@		; `string'
PUBLIC	??_C@_0BD@PHPFILMB@glVertexAttrib4ubv@		; `string'
PUBLIC	??_C@_0BD@PLKAGECA@glVertexAttrib4uiv@		; `string'
PUBLIC	??_C@_0BD@OKBBECIG@glVertexAttrib4usv@		; `string'
PUBLIC	??_C@_0BG@JPNNNPKG@glVertexAttribPointer@	; `string'
PUBLIC	??_C@_0BF@KDDJMCDK@glUniformMatrix2x3fv@	; `string'
PUBLIC	??_C@_0BF@NANJHGPK@glUniformMatrix3x2fv@	; `string'
PUBLIC	??_C@_0BF@DOOOPKID@glUniformMatrix2x4fv@	; `string'
PUBLIC	??_C@_0BF@MNNMEGEC@glUniformMatrix4x2fv@	; `string'
PUBLIC	??_C@_0BF@PFLCCJCG@glUniformMatrix3x4fv@	; `string'
PUBLIC	??_C@_0BF@HFGACBCH@glUniformMatrix4x3fv@	; `string'
PUBLIC	??_C@_0N@JHNNNJFG@glColorMaski@			; `string'
PUBLIC	??_C@_0BA@OAKNOBP@glGetBooleani_v@		; `string'
PUBLIC	??_C@_0BA@FKCNNMFO@glGetIntegeri_v@		; `string'
PUBLIC	??_C@_09IEGEGIEN@glEnablei@			; `string'
PUBLIC	??_C@_0L@BMJPGDDH@glDisablei@			; `string'
PUBLIC	??_C@_0N@IMGKGOKN@glIsEnabledi@			; `string'
PUBLIC	??_C@_0BJ@FHJKOECC@glBeginTransformFeedback@	; `string'
PUBLIC	??_C@_0BH@LCFLNNBH@glEndTransformFeedback@	; `string'
PUBLIC	??_C@_0BC@EEMMCHMB@glBindBufferRange@		; `string'
PUBLIC	??_C@_0BB@LDPKOCJI@glBindBufferBase@		; `string'
PUBLIC	??_C@_0BM@IJFAKBEF@glTransformFeedbackVaryings@	; `string'
PUBLIC	??_C@_0BO@ODFLPNG@glGetTransformFeedbackVarying@ ; `string'
PUBLIC	??_C@_0N@HLGAGIMI@glClampColor@			; `string'
PUBLIC	??_C@_0BJ@EHEPIEPF@glBeginConditionalRender@	; `string'
PUBLIC	??_C@_0BH@KCIOLNMA@glEndConditionalRender@	; `string'
PUBLIC	??_C@_0BH@NLOEHKCD@glVertexAttribIPointer@	; `string'
PUBLIC	??_C@_0BF@KPDNEONP@glGetVertexAttribIiv@	; `string'
PUBLIC	??_C@_0BG@GCBDCABB@glGetVertexAttribIuiv@	; `string'
PUBLIC	??_C@_0BC@CDIIMMAL@glVertexAttribI1i@		; `string'
PUBLIC	??_C@_0BC@CBMOHCFC@glVertexAttribI2i@		; `string'
PUBLIC	??_C@_0BC@CAAMBIGF@glVertexAttribI3i@		; `string'
PUBLIC	??_C@_0BC@CFEDAOOA@glVertexAttribI4i@		; `string'
PUBLIC	??_C@_0BD@DGPCNLLO@glVertexAttribI1ui@		; `string'
PUBLIC	??_C@_0BD@CEEHHEFA@glVertexAttribI2ui@		; `string'
PUBLIC	??_C@_0BD@JMPLBDDF@glVertexAttribI3ui@		; `string'
PUBLIC	??_C@_0BD@BCMCLIM@glVertexAttribI4ui@		; `string'
PUBLIC	??_C@_0BD@OOJEIPDE@glVertexAttribI1iv@		; `string'
PUBLIC	??_C@_0BD@PMCBCANK@glVertexAttribI2iv@		; `string'
PUBLIC	??_C@_0BD@EEJNEHLP@glVertexAttribI3iv@		; `string'
PUBLIC	??_C@_0BD@NJEKHPAG@glVertexAttribI4iv@		; `string'
PUBLIC	??_C@_0BE@FFIKLCCA@glVertexAttribI1uiv@		; `string'
PUBLIC	??_C@_0BE@BCCKMIPA@glVertexAttribI2uiv@		; `string'
PUBLIC	??_C@_0BE@CPEKOBEA@glVertexAttribI3uiv@		; `string'
PUBLIC	??_C@_0BE@JNGKDNFA@glVertexAttribI4uiv@		; `string'
PUBLIC	??_C@_0BD@NFBPJAOH@glVertexAttribI4bv@		; `string'
PUBLIC	??_C@_0BD@MIPLFJKA@glVertexAttribI4sv@		; `string'
PUBLIC	??_C@_0BE@JBDPNCLB@glVertexAttribI4ubv@		; `string'
PUBLIC	??_C@_0BE@IMNLBLPG@glVertexAttribI4usv@		; `string'
PUBLIC	??_C@_0BA@NIGECFIF@glGetUniformuiv@		; `string'
PUBLIC	??_C@_0BH@DLJLAGBA@glBindFragDataLocation@	; `string'
PUBLIC	??_C@_0BG@NDOIGAMC@glGetFragDataLocation@	; `string'
PUBLIC	??_C@_0N@HKPEFJDP@glUniform1ui@			; `string'
PUBLIC	??_C@_0N@GIEBPGNB@glUniform2ui@			; `string'
PUBLIC	??_C@_0N@NAPNJBLE@glUniform3ui@			; `string'
PUBLIC	??_C@_0N@ENCKKJAN@glUniform4ui@			; `string'
PUBLIC	??_C@_0O@MPHJAHBE@glUniform1uiv@		; `string'
PUBLIC	??_C@_0O@IINJHNME@glUniform2uiv@		; `string'
PUBLIC	??_C@_0O@LFLJFEHE@glUniform3uiv@		; `string'
PUBLIC	??_C@_0O@HJJIIGE@glUniform4uiv@			; `string'
PUBLIC	??_C@_0BC@MAFJKEHB@glTexParameterIiv@		; `string'
PUBLIC	??_C@_0BD@FDBCMKBE@glTexParameterIuiv@		; `string'
PUBLIC	??_C@_0BF@ODBJFHDD@glGetTexParameterIiv@	; `string'
PUBLIC	??_C@_0BG@MLODKKFL@glGetTexParameterIuiv@	; `string'
PUBLIC	??_C@_0BA@CGCJAEIN@glClearBufferiv@		; `string'
PUBLIC	??_C@_0BB@OHPPAEID@glClearBufferuiv@		; `string'
PUBLIC	??_C@_0BA@CNHFEDLA@glClearBufferfv@		; `string'
PUBLIC	??_C@_0BA@OACPENCO@glClearBufferfi@		; `string'
PUBLIC	??_C@_0N@PILJCBOD@glGetStringi@			; `string'
PUBLIC	??_C@_0BB@DGGHKKOH@glIsRenderbuffer@		; `string'
PUBLIC	??_C@_0BD@EPOPJGFA@glBindRenderbuffer@		; `string'
PUBLIC	??_C@_0BG@KKOKEJDE@glDeleteRenderbuffers@	; `string'
PUBLIC	??_C@_0BD@MIGEDNGJ@glGenRenderbuffers@		; `string'
PUBLIC	??_C@_0BG@EOIILGMJ@glRenderbufferStorage@	; `string'
PUBLIC	??_C@_0BN@FGKAECKO@glGetRenderbufferParameteriv@ ; `string'
PUBLIC	??_C@_0BA@FGBIJCNH@glIsFramebuffer@		; `string'
PUBLIC	??_C@_0BC@CJMIBNO@glBindFramebuffer@		; `string'
PUBLIC	??_C@_0BF@DJNJENP@glDeleteFramebuffers@		; `string'
PUBLIC	??_C@_0BC@FAPEBGID@glGenFramebuffers@		; `string'
PUBLIC	??_C@_0BJ@GIOLHEAD@glCheckFramebufferStatus@	; `string'
PUBLIC	??_C@_0BH@JAMDNNBM@glFramebufferTexture1D@	; `string'
PUBLIC	??_C@_0BH@JCIFGDEF@glFramebufferTexture2D@	; `string'
PUBLIC	??_C@_0BH@JDEHAJHC@glFramebufferTexture3D@	; `string'
PUBLIC	??_C@_0BK@OJDINAOA@glFramebufferRenderbuffer@	; `string'
PUBLIC	??_C@_0CG@KLDGJEON@glGetFramebufferAttachmentParam@ ; `string'
PUBLIC	??_C@_0BB@BHNIMGDM@glGenerateMipmap@		; `string'
PUBLIC	??_C@_0BC@OANBDDEP@glBlitFramebuffer@		; `string'
PUBLIC	??_C@_0CB@HNONLGJE@glRenderbufferStorageMultisampl@ ; `string'
PUBLIC	??_C@_0BK@NIHIDBBO@glFramebufferTextureLayer@	; `string'
PUBLIC	??_C@_0BB@EOHJGBIO@glMapBufferRange@		; `string'
PUBLIC	??_C@_0BJ@NCDMGHKF@glFlushMappedBufferRange@	; `string'
PUBLIC	??_C@_0BC@LHBAHFAN@glBindVertexArray@		; `string'
PUBLIC	??_C@_0BF@BMPCJLEF@glDeleteVertexArrays@	; `string'
PUBLIC	??_C@_0BC@EPJLBJBJ@glGenVertexArrays@		; `string'
PUBLIC	??_C@_0BA@ODJEGGAE@glIsVertexArray@		; `string'
PUBLIC	??_C@_0BG@HIOFINAN@glDrawArraysInstanced@	; `string'
PUBLIC	??_C@_0BI@CGJENFBH@glDrawElementsInstanced@	; `string'
PUBLIC	??_C@_0M@IIMBBALL@glTexBuffer@			; `string'
PUBLIC	??_C@_0BI@LJDLNGAF@glPrimitiveRestartIndex@	; `string'
PUBLIC	??_C@_0BE@EPKABDOG@glCopyBufferSubData@		; `string'
PUBLIC	??_C@_0BE@MDPMIDEE@glGetUniformIndices@		; `string'
PUBLIC	??_C@_0BG@JEHIMPCG@glGetActiveUniformsiv@	; `string'
PUBLIC	??_C@_0BH@EGGFHKJJ@glGetActiveUniformName@	; `string'
PUBLIC	??_C@_0BH@CBDIMHHE@glGetUniformBlockIndex@	; `string'
PUBLIC	??_C@_0BK@DMHOPJGL@glGetActiveUniformBlockiv@	; `string'
PUBLIC	??_C@_0BM@KEMCJPAJ@glGetActiveUniformBlockName@	; `string'
PUBLIC	??_C@_0BG@BOLEKKCP@glUniformBlockBinding@	; `string'
PUBLIC	??_C@_0BJ@LFMMIAHA@glDrawElementsBaseVertex@	; `string'
PUBLIC	??_C@_0BO@KBDDBILP@glDrawRangeElementsBaseVertex@ ; `string'
PUBLIC	??_C@_0CC@KLOIIKNA@glDrawElementsInstancedBaseVert@ ; `string'
PUBLIC	??_C@_0BO@NAPFJEEK@glMultiDrawElementsBaseVertex@ ; `string'
PUBLIC	??_C@_0BC@ECOAPEBI@glProvokingVertex@		; `string'
PUBLIC	??_C@_0M@EFGFPFLP@glFenceSync@			; `string'
PUBLIC	??_C@_08JPIIHJEO@glIsSync@			; `string'
PUBLIC	??_C@_0N@PIFDNDFG@glDeleteSync@			; `string'
PUBLIC	??_C@_0BB@KDMPGJAC@glClientWaitSync@		; `string'
PUBLIC	??_C@_0L@MHLOGHGO@glWaitSync@			; `string'
PUBLIC	??_C@_0BA@INMBOHGL@glGetInteger64v@		; `string'
PUBLIC	??_C@_0M@MPEEOPIN@glGetSynciv@			; `string'
PUBLIC	??_C@_0BC@KOJILIEC@glGetInteger64i_v@		; `string'
PUBLIC	??_C@_0BJ@KKBIDGPP@glGetBufferParameteri64v@	; `string'
PUBLIC	??_C@_0BF@ENLMLILA@glFramebufferTexture@	; `string'
PUBLIC	??_C@_0BI@FHDFLFA@glTexImage2DMultisample@	; `string'
PUBLIC	??_C@_0BI@JIHMLKCG@glTexImage3DMultisample@	; `string'
PUBLIC	??_C@_0BD@DHLIMGN@glGetMultisamplefv@		; `string'
PUBLIC	??_C@_0O@JNHBCHMB@glSampleMaski@		; `string'
PUBLIC	??_C@_0BO@POJBGCGG@glBindFragDataLocationIndexed@ ; `string'
PUBLIC	??_C@_0BD@COCJFEOH@glGetFragDataIndex@		; `string'
PUBLIC	??_C@_0O@EMMLGGLG@glGenSamplers@		; `string'
PUBLIC	??_C@_0BB@FLPAOEOO@glDeleteSamplers@		; `string'
PUBLIC	??_C@_0M@LAJKHOKJ@glIsSampler@			; `string'
PUBLIC	??_C@_0O@PDEILAPG@glBindSampler@		; `string'
PUBLIC	??_C@_0BE@KBCBMPJO@glSamplerParameteri@		; `string'
PUBLIC	??_C@_0BF@GOHDEBPM@glSamplerParameteriv@	; `string'
PUBLIC	??_C@_0BE@CGLJNDFB@glSamplerParameterf@		; `string'
PUBLIC	??_C@_0BF@GFCPAGMB@glSamplerParameterfv@	; `string'
PUBLIC	??_C@_0BG@HKEIFIHF@glSamplerParameterIiv@	; `string'
PUBLIC	??_C@_0BH@FEMFBPPB@glSamplerParameterIuiv@	; `string'
PUBLIC	??_C@_0BI@FECAOLJP@glGetSamplerParameteriv@	; `string'
PUBLIC	??_C@_0BJ@KOMJDLDN@glGetSamplerParameterIiv@	; `string'
PUBLIC	??_C@_0BI@FPHMKMKC@glGetSamplerParameterfv@	; `string'
PUBLIC	??_C@_0BK@CMBGFHDA@glGetSamplerParameterIuiv@	; `string'
PUBLIC	??_C@_0P@KALICDIM@glQueryCounter@		; `string'
PUBLIC	??_C@_0BF@JDAPDEPE@glGetQueryObjecti64v@	; `string'
PUBLIC	??_C@_0BG@NEGGOMJO@glGetQueryObjectui64v@	; `string'
PUBLIC	??_C@_0BG@NEBMAEHM@glVertexAttribDivisor@	; `string'
PUBLIC	??_C@_0BD@FLACCOEN@glVertexAttribP1ui@		; `string'
PUBLIC	??_C@_0BE@HBFDOBHD@glVertexAttribP1uiv@		; `string'
PUBLIC	??_C@_0BD@EJLHIBKD@glVertexAttribP2ui@		; `string'
PUBLIC	??_C@_0BE@DGPDJLKD@glVertexAttribP2uiv@		; `string'
PUBLIC	??_C@_0BD@PBALOGMG@glVertexAttribP3ui@		; `string'
PUBLIC	??_C@_0BE@LJDLCBD@glVertexAttribP3uiv@		; `string'
PUBLIC	??_C@_0BD@GMNMNOHP@glVertexAttribP4ui@		; `string'
PUBLIC	??_C@_0BE@LJLDGOAD@glVertexAttribP4uiv@		; `string'
PUBLIC	??_C@_0N@EFBCIBMC@glVertexP2ui@			; `string'
PUBLIC	??_C@_0O@MEKGPGN@glVertexP2uiv@			; `string'
PUBLIC	??_C@_0N@PNKOOGKH@glVertexP3ui@			; `string'
PUBLIC	??_C@_0O@DBCKEGNN@glVertexP3uiv@		; `string'
PUBLIC	??_C@_0N@GAHJNOBO@glVertexP4ui@			; `string'
PUBLIC	??_C@_0O@IDAKJKMN@glVertexP4uiv@		; `string'
PUBLIC	??_C@_0P@OLJHLLHJ@glTexCoordP1ui@		; `string'
PUBLIC	??_C@_0BA@FAFHIAFD@glTexCoordP1uiv@		; `string'
PUBLIC	??_C@_0P@PJCCBEJH@glTexCoordP2ui@		; `string'
PUBLIC	??_C@_0BA@BHPHPKID@glTexCoordP2uiv@		; `string'
PUBLIC	??_C@_0P@EBJOHDPC@glTexCoordP3ui@		; `string'
PUBLIC	??_C@_0BA@CKJHNDDD@glTexCoordP3uiv@		; `string'
PUBLIC	??_C@_0P@NMEJELEL@glTexCoordP4ui@		; `string'
PUBLIC	??_C@_0BA@JILHAPCD@glTexCoordP4uiv@		; `string'
PUBLIC	??_C@_0BE@OAHHKHKG@glMultiTexCoordP1ui@		; `string'
PUBLIC	??_C@_0BF@EGDAKPAK@glMultiTexCoordP1uiv@	; `string'
PUBLIC	??_C@_0BE@PCMCAIEI@glMultiTexCoordP2ui@		; `string'
PUBLIC	??_C@_0BF@BJANFNK@glMultiTexCoordP2uiv@		; `string'
PUBLIC	??_C@_0BE@EKHOGPCN@glMultiTexCoordP3ui@		; `string'
PUBLIC	??_C@_0BF@DMPAPMGK@glMultiTexCoordP3uiv@	; `string'
PUBLIC	??_C@_0BE@NHKJFHJE@glMultiTexCoordP4ui@		; `string'
PUBLIC	??_C@_0BF@IONACAHK@glMultiTexCoordP4uiv@	; `string'
PUBLIC	??_C@_0N@PBEFBNHO@glNormalP3ui@			; `string'
PUBLIC	??_C@_0O@MOCJMHFG@glNormalP3uiv@		; `string'
PUBLIC	??_C@_0M@PEKBINNN@glColorP3ui@			; `string'
PUBLIC	??_C@_0N@IBPDNBJE@glColorP3uiv@			; `string'
PUBLIC	??_C@_0M@GJHGLFGE@glColorP4ui@			; `string'
PUBLIC	??_C@_0N@DDNDANIE@glColorP4uiv@			; `string'
PUBLIC	??_C@_0BF@PDDGBPKP@glSecondaryColorP3ui@	; `string'
PUBLIC	??_C@_0BG@DPPPFGBG@glSecondaryColorP3uiv@	; `string'
PUBLIC	??_C@_0BD@EDGCEBP@glMinSampleShading@		; `string'
PUBLIC	??_C@_0BB@MKHLNEOM@glBlendEquationi@		; `string'
PUBLIC	??_C@_0BJ@FNMBAGAC@glBlendEquationSeparatei@	; `string'
PUBLIC	??_C@_0N@IKKELNNP@glBlendFunci@			; `string'
PUBLIC	??_C@_0BF@PDDGKNBJ@glBlendFuncSeparatei@	; `string'
PUBLIC	??_C@_0BF@BGDCPAEP@glDrawArraysIndirect@	; `string'
PUBLIC	??_C@_0BH@LJJDOEDH@glDrawElementsIndirect@	; `string'
PUBLIC	??_C@_0M@PJLEGNGH@glUniform1d@			; `string'
PUBLIC	??_C@_0M@PLPCNDDO@glUniform2d@			; `string'
PUBLIC	??_C@_0M@PKDALJAJ@glUniform3d@			; `string'
PUBLIC	??_C@_0M@PPHPKPIM@glUniform4d@			; `string'
PUBLIC	??_C@_0N@KKEKJOOG@glUniform1dv@			; `string'
PUBLIC	??_C@_0N@LIPPDBAI@glUniform2dv@			; `string'
PUBLIC	??_C@_0N@EDFGGN@glUniform3dv@			; `string'
PUBLIC	??_C@_0N@JNJEGONE@glUniform4dv@			; `string'
PUBLIC	??_C@_0BD@JLJNJPBN@glUniformMatrix2dv@		; `string'
PUBLIC	??_C@_0BD@CDCBPIHI@glUniformMatrix3dv@		; `string'
PUBLIC	??_C@_0BD@LOPGMAMB@glUniformMatrix4dv@		; `string'
PUBLIC	??_C@_0BF@KALNBGFE@glUniformMatrix2x3dv@	; `string'
PUBLIC	??_C@_0BF@DNGKCOON@glUniformMatrix2x4dv@	; `string'
PUBLIC	??_C@_0BF@NDFNKCJE@glUniformMatrix3x2dv@	; `string'
PUBLIC	??_C@_0BF@PGDGPNEI@glUniformMatrix3x4dv@	; `string'
PUBLIC	??_C@_0BF@MOFIJCCM@glUniformMatrix4x2dv@	; `string'
PUBLIC	??_C@_0BF@HGOEPFEJ@glUniformMatrix4x3dv@	; `string'
PUBLIC	??_C@_0P@NGEMHI@glGetUniformdv@			; `string'
PUBLIC	??_C@_0BP@IBIPLDOA@glGetSubroutineUniformLocation@ ; `string'
PUBLIC	??_C@_0BF@ONDIGCJG@glGetSubroutineIndex@	; `string'
PUBLIC	??_C@_0BP@FAPFAJFP@glGetActiveSubroutineUniformiv@ ; `string'
PUBLIC	??_C@_0CB@KCFFPCGJ@glGetActiveSubroutineUniformNam@ ; `string'
PUBLIC	??_C@_0BK@JPHEACLL@glGetActiveSubroutineName@	; `string'
PUBLIC	??_C@_0BI@CDPOBBHI@glUniformSubroutinesuiv@	; `string'
PUBLIC	??_C@_0BK@BLMOFAGJ@glGetUniformSubroutineuiv@	; `string'
PUBLIC	??_C@_0BE@LOKJCDFH@glGetProgramStageiv@		; `string'
PUBLIC	??_C@_0BC@PAPDGMLA@glPatchParameteri@		; `string'
PUBLIC	??_C@_0BD@LJKINJKN@glPatchParameterfv@		; `string'
PUBLIC	??_C@_0BI@BPJKLMIG@glBindTransformFeedback@	; `string'
PUBLIC	??_C@_0BL@DIGEBFBK@glDeleteTransformFeedbacks@	; `string'
PUBLIC	??_C@_0BI@KANKBGAE@glGenTransformFeedbacks@	; `string'
PUBLIC	??_C@_0BG@BGFLKHBM@glIsTransformFeedback@	; `string'
PUBLIC	??_C@_0BJ@FFNLKBCB@glPauseTransformFeedback@	; `string'
PUBLIC	??_C@_0BK@JMHONFHF@glResumeTransformFeedback@	; `string'
PUBLIC	??_C@_0BI@LEOILCPN@glDrawTransformFeedback@	; `string'
PUBLIC	??_C@_0BO@IGLFNCDG@glDrawTransformFeedbackStream@ ; `string'
PUBLIC	??_C@_0BE@BDKPJDEE@glBeginQueryIndexed@		; `string'
PUBLIC	??_C@_0BC@DPMHMNME@glEndQueryIndexed@		; `string'
PUBLIC	??_C@_0BE@CCFJPMFI@glGetQueryIndexediv@		; `string'
PUBLIC	??_C@_0BI@HGKABJPJ@glReleaseShaderCompiler@	; `string'
PUBLIC	??_C@_0P@IMINELFB@glShaderBinary@		; `string'
PUBLIC	??_C@_0BL@MLAOOHPD@glGetShaderPrecisionFormat@	; `string'
PUBLIC	??_C@_0O@JDFJDNND@glDepthRangef@		; `string'
PUBLIC	??_C@_0O@FMBMCDIL@glClearDepthf@		; `string'
PUBLIC	??_C@_0BD@JBCEHKON@glGetProgramBinary@		; `string'
PUBLIC	??_C@_0BA@MIIDHOO@glProgramBinary@		; `string'
PUBLIC	??_C@_0BE@EELDBEME@glProgramParameteri@		; `string'
PUBLIC	??_C@_0BD@CADKHDMH@glUseProgramStages@		; `string'
PUBLIC	??_C@_0BG@IAIOGMEB@glActiveShaderProgram@	; `string'
PUBLIC	??_C@_0BH@BOJGDFJN@glCreateShaderProgramv@	; `string'
PUBLIC	??_C@_0BG@GLPOKNCG@glBindProgramPipeline@	; `string'
PUBLIC	??_C@_0BJ@CHBGABHE@glDeleteProgramPipelines@	; `string'
PUBLIC	??_C@_0BG@CCBKOCA@glGenProgramPipelines@	; `string'
PUBLIC	??_C@_0BE@DLHPDHCH@glIsProgramPipeline@		; `string'
PUBLIC	??_C@_0BH@DNOPNJMO@glGetProgramPipelineiv@	; `string'
PUBLIC	??_C@_0BD@COCLMGIM@glProgramUniform1i@		; `string'
PUBLIC	??_C@_0BE@JNEFDKLN@glProgramUniform1iv@		; `string'
PUBLIC	??_C@_0BD@KJLDNKED@glProgramUniform1f@		; `string'
PUBLIC	??_C@_0BE@JGBJHNIA@glProgramUniform1fv@		; `string'
PUBLIC	??_C@_0BD@JLIFLIMB@glProgramUniform1d@		; `string'
PUBLIC	??_C@_0BE@JFJNKJOO@glProgramUniform1dv@		; `string'
PUBLIC	??_C@_0BE@EFCDGODH@glProgramUniform1ui@		; `string'
PUBLIC	??_C@_0BF@MBJNFIBB@glProgramUniform1uiv@	; `string'
PUBLIC	??_C@_0BD@CMGNHINF@glProgramUniform2i@		; `string'
PUBLIC	??_C@_0BE@IPPAJFFD@glProgramUniform2iv@		; `string'
PUBLIC	??_C@_0BD@KLPFGEBK@glProgramUniform2f@		; `string'
PUBLIC	??_C@_0BE@IEKMNCGO@glProgramUniform2fv@		; `string'
PUBLIC	??_C@_0BD@JJMDAGJI@glProgramUniform2d@		; `string'
PUBLIC	??_C@_0BE@IHCIAGAA@glProgramUniform2dv@		; `string'
PUBLIC	??_C@_0BE@FHJGMBNJ@glProgramUniform2ui@		; `string'
PUBLIC	??_C@_0BF@IGDNCCMB@glProgramUniform2uiv@	; `string'
PUBLIC	??_C@_0BD@CNKPBCOC@glProgramUniform3i@		; `string'
PUBLIC	??_C@_0BE@DHEMPCDG@glProgramUniform3iv@		; `string'
PUBLIC	??_C@_0BD@KKDHAOCN@glProgramUniform3f@		; `string'
PUBLIC	??_C@_0BE@DMBALFAL@glProgramUniform3fv@		; `string'
PUBLIC	??_C@_0BD@JIABGMKP@glProgramUniform3d@		; `string'
PUBLIC	??_C@_0BE@DPJEGBGF@glProgramUniform3dv@		; `string'
PUBLIC	??_C@_0BE@OPCKKGLM@glProgramUniform3ui@		; `string'
PUBLIC	??_C@_0BF@LLFNALHB@glProgramUniform3uiv@	; `string'
PUBLIC	??_C@_0BD@CIOAAEGH@glProgramUniform4i@		; `string'
PUBLIC	??_C@_0BE@KKJLMKIP@glProgramUniform4iv@		; `string'
PUBLIC	??_C@_0BD@KPHIBIKI@glProgramUniform4f@		; `string'
PUBLIC	??_C@_0BE@KBMHINLC@glProgramUniform4fv@		; `string'
PUBLIC	??_C@_0BD@JNEOHKCK@glProgramUniform4d@		; `string'
PUBLIC	??_C@_0BE@KCEDFJNM@glProgramUniform4dv@		; `string'
PUBLIC	??_C@_0BE@HCPNJOAF@glProgramUniform4ui@		; `string'
PUBLIC	??_C@_0BF@JHNNHGB@glProgramUniform4uiv@		; `string'
PUBLIC	??_C@_0BK@PDPPIOAF@glProgramUniformMatrix2fv@	; `string'
PUBLIC	??_C@_0BK@ELEDOJGA@glProgramUniformMatrix3fv@	; `string'
PUBLIC	??_C@_0BK@NGJENBNJ@glProgramUniformMatrix4fv@	; `string'
PUBLIC	??_C@_0BK@PAHLFKGL@glProgramUniformMatrix2dv@	; `string'
PUBLIC	??_C@_0BK@EIMHDNAO@glProgramUniformMatrix3dv@	; `string'
PUBLIC	??_C@_0BK@NFBAAFLH@glProgramUniformMatrix4dv@	; `string'
PUBLIC	??_C@_0BM@DBFCEBJD@glProgramUniformMatrix2x3fv@	; `string'
PUBLIC	??_C@_0BM@ECLCPFFD@glProgramUniformMatrix3x2fv@	; `string'
PUBLIC	??_C@_0BM@KMIFHJCK@glProgramUniformMatrix2x4fv@	; `string'
PUBLIC	??_C@_0BM@FPLHMFOL@glProgramUniformMatrix4x2fv@	; `string'
PUBLIC	??_C@_0BM@GHNJKKIP@glProgramUniformMatrix3x4fv@	; `string'
PUBLIC	??_C@_0BM@OHALKCIO@glProgramUniformMatrix4x3fv@	; `string'
PUBLIC	??_C@_0BM@DCNGJFPN@glProgramUniformMatrix2x3dv@	; `string'
PUBLIC	??_C@_0BM@EBDGCBDN@glProgramUniformMatrix3x2dv@	; `string'
PUBLIC	??_C@_0BM@KPABKNEE@glProgramUniformMatrix2x4dv@	; `string'
PUBLIC	??_C@_0BM@FMDDBBIF@glProgramUniformMatrix4x2dv@	; `string'
PUBLIC	??_C@_0BM@GEFNHOOB@glProgramUniformMatrix3x4dv@	; `string'
PUBLIC	??_C@_0BM@OEIPHGOA@glProgramUniformMatrix4x3dv@	; `string'
PUBLIC	??_C@_0BK@HHHCKEGH@glValidateProgramPipeline@	; `string'
PUBLIC	??_C@_0BM@BFFCFFFG@glGetProgramPipelineInfoLog@	; `string'
PUBLIC	??_C@_0BC@KBPIECHE@glVertexAttribL1d@		; `string'
PUBLIC	??_C@_0BC@KDLOPMCN@glVertexAttribL2d@		; `string'
PUBLIC	??_C@_0BC@KCHMJGBK@glVertexAttribL3d@		; `string'
PUBLIC	??_C@_0BC@KHDDIAJP@glVertexAttribL4d@		; `string'
PUBLIC	??_C@_0BD@COKMJDBH@glVertexAttribL1dv@		; `string'
PUBLIC	??_C@_0BD@DMBJDMPJ@glVertexAttribL2dv@		; `string'
PUBLIC	??_C@_0BD@IEKFFLJM@glVertexAttribL3dv@		; `string'
PUBLIC	??_C@_0BD@BJHCGDCF@glVertexAttribL4dv@		; `string'
PUBLIC	??_C@_0BH@JBHDDPGM@glVertexAttribLPointer@	; `string'
PUBLIC	??_C@_0BF@JADLCNLO@glGetVertexAttribLdv@	; `string'
PUBLIC	??_C@_0BB@JIDIDPIB@glViewportArrayv@		; `string'
PUBLIC	??_C@_0BD@JIBIAPIN@glViewportIndexedf@		; `string'
PUBLIC	??_C@_0BE@OKPEDJOC@glViewportIndexedfv@		; `string'
PUBLIC	??_C@_0BA@BMNFINIA@glScissorArrayv@		; `string'
PUBLIC	??_C@_0BB@BJHNCIAL@glScissorIndexed@		; `string'
PUBLIC	??_C@_0BC@OOKOHKNA@glScissorIndexedv@		; `string'
PUBLIC	??_C@_0BD@JLCIOMKN@glDepthRangeArrayv@		; `string'
PUBLIC	??_C@_0BE@FMCFIJBP@glDepthRangeIndexed@		; `string'
PUBLIC	??_C@_0O@JKEOHGC@glGetFloati_v@			; `string'
PUBLIC	??_C@_0P@PDJCBGIA@glGetDoublei_v@		; `string'
PUBLIC	??_C@_0CC@FBJBJHCN@glDrawArraysInstancedBaseInstan@ ; `string'
PUBLIC	??_C@_0CE@NGNINKJD@glDrawElementsInstancedBaseInst@ ; `string'
PUBLIC	??_C@_0CO@GCMNEAOA@glDrawElementsInstancedBaseVert@ ; `string'
PUBLIC	??_C@_0BG@BAOCDJPF@glGetInternalformativ@	; `string'
PUBLIC	??_C@_0CB@CEHFMJFN@glGetActiveAtomicCounterBufferi@ ; `string'
PUBLIC	??_C@_0BD@GAKEPNGD@glBindImageTexture@		; `string'
PUBLIC	??_C@_0BA@HIHPNLBJ@glMemoryBarrier@		; `string'
PUBLIC	??_C@_0P@LCLGPEBO@glTexStorage1D@		; `string'
PUBLIC	??_C@_0P@LAPAEKEH@glTexStorage2D@		; `string'
PUBLIC	??_C@_0P@LBDCCAHA@glTexStorage3D@		; `string'
PUBLIC	??_C@_0CB@NDMLCEF@glDrawTransformFeedbackInstance@ ; `string'
PUBLIC	??_C@_0CH@OMPFKBLK@glDrawTransformFeedbackStreamIn@ ; `string'
PUBLIC	??_C@_0BC@FCMBBKMP@glClearBufferData@		; `string'
PUBLIC	??_C@_0BF@FDHIBCMD@glClearBufferSubData@	; `string'
PUBLIC	??_C@_0BC@DKKFFIGC@glDispatchCompute@		; `string'
PUBLIC	??_C@_0BK@EJMOGMMI@glDispatchComputeIndirect@	; `string'
PUBLIC	??_C@_0BD@BNCHOBBL@glCopyImageSubData@		; `string'
PUBLIC	??_C@_0BI@MLACHGDK@glFramebufferParameteri@	; `string'
PUBLIC	??_C@_0BM@BFEEFCMK@glGetFramebufferParameteriv@	; `string'
PUBLIC	??_C@_0BI@PHNNEGBD@glGetInternalformati64v@	; `string'
PUBLIC	??_C@_0BI@FJDKFLGL@glInvalidateTexSubImage@	; `string'
PUBLIC	??_C@_0BF@KHIECPKG@glInvalidateTexImage@	; `string'
PUBLIC	??_C@_0BK@HOHOHNAC@glInvalidateBufferSubData@	; `string'
PUBLIC	??_C@_0BH@OGIFIBHA@glInvalidateBufferData@	; `string'
PUBLIC	??_C@_0BI@OAJPOHIP@glInvalidateFramebuffer@	; `string'
PUBLIC	??_C@_0BL@IHGLAPPE@glInvalidateSubFramebuffer@	; `string'
PUBLIC	??_C@_0BK@IKGAIKOP@glMultiDrawArraysIndirect@	; `string'
PUBLIC	??_C@_0BM@KHEEFMKO@glMultiDrawElementsIndirect@	; `string'
PUBLIC	??_C@_0BI@ICGPDPK@glGetProgramInterfaceiv@	; `string'
PUBLIC	??_C@_0BK@DBDCONKB@glGetProgramResourceIndex@	; `string'
PUBLIC	??_C@_0BJ@OHCPEAGJ@glGetProgramResourceName@	; `string'
PUBLIC	??_C@_0BH@LEDFEPHI@glGetProgramResourceiv@	; `string'
PUBLIC	??_C@_0BN@BIJNENLC@glGetProgramResourceLocation@ ; `string'
PUBLIC	??_C@_0CC@GHECGAIH@glGetProgramResourceLocationInd@ ; `string'
PUBLIC	??_C@_0BM@GDDCNIBO@glShaderStorageBlockBinding@	; `string'
PUBLIC	??_C@_0BB@DPMGLFNI@glTexBufferRange@		; `string'
PUBLIC	??_C@_0BK@PDJAKDKP@glTexStorage2DMultisample@	; `string'
PUBLIC	??_C@_0BK@GOJPECNJ@glTexStorage3DMultisample@	; `string'
PUBLIC	??_C@_0O@BNFDGIMP@glTextureView@		; `string'
PUBLIC	??_C@_0BD@FCGJAOHG@glBindVertexBuffer@		; `string'
PUBLIC	??_C@_0BF@JEIPPBFE@glVertexAttribFormat@	; `string'
PUBLIC	??_C@_0BG@KJAHAHDI@glVertexAttribIFormat@	; `string'
PUBLIC	??_C@_0BG@OBOHAJFM@glVertexAttribLFormat@	; `string'
PUBLIC	??_C@_0BG@MLFHCGE@glVertexAttribBinding@	; `string'
PUBLIC	??_C@_0BH@GNGCLGOI@glVertexBindingDivisor@	; `string'
PUBLIC	??_C@_0BG@MNBDCEEP@glDebugMessageControl@	; `string'
PUBLIC	??_C@_0BF@DGOJNFDO@glDebugMessageInsert@	; `string'
PUBLIC	??_C@_0BH@IGFENJCI@glDebugMessageCallback@	; `string'
PUBLIC	??_C@_0BF@FGBMJKND@glGetDebugMessageLog@	; `string'
PUBLIC	??_C@_0BB@DEFFBEGJ@glPushDebugGroup@		; `string'
PUBLIC	??_C@_0BA@PMJBDENK@glPopDebugGroup@		; `string'
PUBLIC	??_C@_0O@EFJDECDM@glObjectLabel@		; `string'
PUBLIC	??_C@_0BB@MOEDHKDB@glGetObjectLabel@		; `string'
PUBLIC	??_C@_0BB@FBABGDIL@glObjectPtrLabel@		; `string'
PUBLIC	??_C@_0BE@MIJFJOHM@glGetObjectPtrLabel@		; `string'
PUBLIC	??_C@_0O@LADEDGJO@glGetPointerv@		; `string'
PUBLIC	??_C@_0BA@COBILMHM@glBufferStorage@		; `string'
PUBLIC	??_C@_0BA@FNPOIBAF@glClearTexImage@		; `string'
PUBLIC	??_C@_0BD@CFALBON@glClearTexSubImage@		; `string'
PUBLIC	??_C@_0BC@ENBBLPHM@glBindBuffersBase@		; `string'
PUBLIC	??_C@_0BD@ODFFOKPN@glBindBuffersRange@		; `string'
PUBLIC	??_C@_0P@KHDEIIMA@glBindTextures@		; `string'
PUBLIC	??_C@_0P@FADPDFKM@glBindSamplers@		; `string'
PUBLIC	??_C@_0BE@NAMJLOCK@glBindImageTextures@		; `string'
PUBLIC	??_C@_0BE@LNCGJHDC@glBindVertexBuffers@		; `string'
PUBLIC	??_C@_0O@DMMKFMGC@glClipControl@		; `string'
PUBLIC	??_C@_0BL@HPCMJLAK@glCreateTransformFeedbacks@	; `string'
PUBLIC	??_C@_0BO@EGLKNJFA@glTransformFeedbackBufferBase@ ; `string'
PUBLIC	??_C@_0BP@NBIGCNHI@glTransformFeedbackBufferRange@ ; `string'
PUBLIC	??_C@_0BJ@OFMLPMDO@glGetTransformFeedbackiv@	; `string'
PUBLIC	??_C@_0BK@IPHNHFEI@glGetTransformFeedbacki_v@	; `string'
PUBLIC	??_C@_0BM@KDHFPNLE@glGetTransformFeedbacki64_v@	; `string'
PUBLIC	??_C@_0BA@LNBCEANP@glCreateBuffers@		; `string'
PUBLIC	??_C@_0BF@INMFIINC@glNamedBufferStorage@	; `string'
PUBLIC	??_C@_0BC@LHEABGCG@glNamedBufferData@		; `string'
PUBLIC	??_C@_0BF@MDEBAFLD@glNamedBufferSubData@	; `string'
PUBLIC	??_C@_0BJ@MJPDCHND@glCopyNamedBufferSubData@	; `string'
PUBLIC	??_C@_0BH@KJMLMCB@glClearNamedBufferData@	; `string'
PUBLIC	??_C@_0BK@BNIDNJBH@glClearNamedBufferSubData@	; `string'
PUBLIC	??_C@_0BB@JLMCGIDB@glMapNamedBuffer@		; `string'
PUBLIC	??_C@_0BG@JLCGKFD@glMapNamedBufferRange@	; `string'
PUBLIC	??_C@_0BD@LAAONAHD@glUnmapNamedBuffer@		; `string'
PUBLIC	??_C@_0BO@DBGNKBKH@glFlushMappedNamedBufferRange@ ; `string'
PUBLIC	??_C@_0BM@KFAGBFPK@glGetNamedBufferParameteriv@	; `string'
PUBLIC	??_C@_0BO@ECJNIDNL@glGetNamedBufferParameteri64v@ ; `string'
PUBLIC	??_C@_0BJ@NBEMEIKG@glGetNamedBufferPointerv@	; `string'
PUBLIC	??_C@_0BI@PJBCKPNA@glGetNamedBufferSubData@	; `string'
PUBLIC	??_C@_0BF@DDKJIBLC@glCreateFramebuffers@	; `string'
PUBLIC	??_C@_0BP@MGCPNBGC@glNamedFramebufferRenderbuffer@ ; `string'
PUBLIC	??_C@_0BN@LBMOOIHC@glNamedFramebufferParameteri@ ; `string'
PUBLIC	??_C@_0BK@PNJJLPPI@glNamedFramebufferTexture@	; `string'
PUBLIC	??_C@_0BP@PHGPDAJM@glNamedFramebufferTextureLayer@ ; `string'
PUBLIC	??_C@_0BN@MOAIHNEF@glNamedFramebufferDrawBuffer@ ; `string'
PUBLIC	??_C@_0BO@CGKJHFH@glNamedFramebufferDrawBuffers@ ; `string'
PUBLIC	??_C@_0BN@LPANNPJE@glNamedFramebufferReadBuffer@ ; `string'
PUBLIC	??_C@_0CB@OGGNKJIL@glInvalidateNamedFramebufferDat@ ; `string'
PUBLIC	??_C@_0CE@DEGDCFND@glInvalidateNamedFramebufferSub@ ; `string'
PUBLIC	??_C@_0BK@NPOLJJAK@glClearNamedFramebufferiv@	; `string'
PUBLIC	??_C@_0BL@JENKNAJN@glClearNamedFramebufferuiv@	; `string'
PUBLIC	??_C@_0BK@NELHNODH@glClearNamedFramebufferfv@	; `string'
PUBLIC	??_C@_0BK@BJONNAKJ@glClearNamedFramebufferfi@	; `string'
PUBLIC	??_C@_0BH@FNFDNHAI@glBlitNamedFramebuffer@	; `string'
PUBLIC	??_C@_0BO@LMABFPGK@glCheckNamedFramebufferStatus@ ; `string'
PUBLIC	??_C@_0CB@COGAJBEM@glGetNamedFramebufferParameteri@ ; `string'
PUBLIC	??_C@_0CL@BGDPEPCC@glGetNamedFramebufferAttachment@ ; `string'
PUBLIC	??_C@_0BG@JJNJGAME@glCreateRenderbuffers@	; `string'
PUBLIC	??_C@_0BL@DGDPFKGM@glNamedRenderbufferStorage@	; `string'
PUBLIC	??_C@_0CG@IDKJGKBA@glNamedRenderbufferStorageMulti@ ; `string'
PUBLIC	??_C@_0CC@FCEAEAHI@glGetNamedRenderbufferParameter@ ; `string'
PUBLIC	??_C@_0BB@LABGPBKD@glCreateTextures@		; `string'
PUBLIC	??_C@_0BA@BEJOBNBA@glTextureBuffer@		; `string'
PUBLIC	??_C@_0BF@HAEPGPBJ@glTextureBufferRange@	; `string'
PUBLIC	??_C@_0BD@CJOBHECL@glTextureStorage1D@		; `string'
PUBLIC	??_C@_0BD@CLKHMKHC@glTextureStorage2D@		; `string'
PUBLIC	??_C@_0BD@CKGFKAEF@glTextureStorage3D@		; `string'
PUBLIC	??_C@_0BO@CIHBMJOI@glTextureStorage2DMultisample@ ; `string'
PUBLIC	??_C@_0BO@LFHOCIJO@glTextureStorage3DMultisample@ ; `string'
PUBLIC	??_C@_0BE@IDMGLJDA@glTextureSubImage1D@		; `string'
PUBLIC	??_C@_0BE@IBIAAHGJ@glTextureSubImage2D@		; `string'
PUBLIC	??_C@_0BE@IAECGNFO@glTextureSubImage3D@		; `string'
PUBLIC	??_C@_0BO@NIHAIHFC@glCompressedTextureSubImage1D@ ; `string'
PUBLIC	??_C@_0BO@NKDGDJAL@glCompressedTextureSubImage2D@ ; `string'
PUBLIC	??_C@_0BO@NLPEFDDM@glCompressedTextureSubImage3D@ ; `string'
PUBLIC	??_C@_0BI@DBEKPOLO@glCopyTextureSubImage1D@	; `string'
PUBLIC	??_C@_0BI@DDAMEAOH@glCopyTextureSubImage2D@	; `string'
PUBLIC	??_C@_0BI@DCMOCKNA@glCopyTextureSubImage3D@	; `string'
PUBLIC	??_C@_0BE@NLINBPMM@glTextureParameterf@		; `string'
PUBLIC	??_C@_0BF@OLGMNNPE@glTextureParameterfv@	; `string'
PUBLIC	??_C@_0BE@FMBFADAD@glTextureParameteri@		; `string'
PUBLIC	??_C@_0BG@CMHFNPIN@glTextureParameterIiv@	; `string'
PUBLIC	??_C@_0BH@OHPFFIFI@glTextureParameterIuiv@	; `string'
PUBLIC	??_C@_0BF@OADAJKMJ@glTextureParameteriv@	; `string'
PUBLIC	??_C@_0BI@JJPLGFEG@glGenerateTextureMipmap@	; `string'
PUBLIC	??_C@_0BC@NKGMGGNI@glBindTextureUnit@		; `string'
PUBLIC	??_C@_0BC@PJDCJNIH@glGetTextureImage@		; `string'
PUBLIC	??_C@_0BM@JOKODHH@glGetCompressedTextureImage@	; `string'
PUBLIC	??_C@_0BN@HMEFKCC@glGetTextureLevelParameterfv@	; `string'
PUBLIC	??_C@_0BN@MJIBNBP@glGetTextureLevelParameteriv@	; `string'
PUBLIC	??_C@_0BI@NBDPHHJH@glGetTextureParameterfv@	; `string'
PUBLIC	??_C@_0BJ@PIPELMMF@glGetTextureParameterIiv@	; `string'
PUBLIC	??_C@_0BK@JPCGBAJJ@glGetTextureParameterIuiv@	; `string'
PUBLIC	??_C@_0BI@NKGDDAKK@glGetTextureParameteriv@	; `string'
PUBLIC	??_C@_0BF@CMMGIOCI@glCreateVertexArrays@	; `string'
PUBLIC	??_C@_0BL@FEKBMKFD@glDisableVertexArrayAttrib@	; `string'
PUBLIC	??_C@_0BK@MJMKFCHC@glEnableVertexArrayAttrib@	; `string'
PUBLIC	??_C@_0BL@GGCAPDMO@glVertexArrayElementBuffer@	; `string'
PUBLIC	??_C@_0BK@BIEMNHGJ@glVertexArrayVertexBuffer@	; `string'
PUBLIC	??_C@_0BL@DAGELPBO@glVertexArrayVertexBuffers@	; `string'
PUBLIC	??_C@_0BL@DJHJAEGB@glVertexArrayAttribBinding@	; `string'
PUBLIC	??_C@_0BK@ONFBAOHM@glVertexArrayAttribFormat@	; `string'
PUBLIC	??_C@_0BL@JMMLHBDN@glVertexArrayAttribIFormat@	; `string'
PUBLIC	??_C@_0BL@NECLHPFJ@glVertexArrayAttribLFormat@	; `string'
PUBLIC	??_C@_0BM@BNDNIOBB@glVertexArrayBindingDivisor@	; `string'
PUBLIC	??_C@_0BD@CPJNCJFG@glGetVertexArrayiv@		; `string'
PUBLIC	??_C@_0BK@FIIPMDBK@glGetVertexArrayIndexediv@	; `string'
PUBLIC	??_C@_0BM@HHNNHCN@glGetVertexArrayIndexed64iv@	; `string'
PUBLIC	??_C@_0BB@EHBNEMMP@glCreateSamplers@		; `string'
PUBLIC	??_C@_0BJ@GJEEIMGK@glCreateProgramPipelines@	; `string'
PUBLIC	??_C@_0BA@PGNDPLG@glCreateQueries@		; `string'
PUBLIC	??_C@_0BL@KFECDHBF@glGetQueryBufferObjecti64v@	; `string'
PUBLIC	??_C@_0BJ@OBIFNHGB@glGetQueryBufferObjectiv@	; `string'
PUBLIC	??_C@_0BM@DFNHDHD@glGetQueryBufferObjectui64v@	; `string'
PUBLIC	??_C@_0BK@EOIEAGAD@glGetQueryBufferObjectuiv@	; `string'
PUBLIC	??_C@_0BI@IDCHHHAI@glMemoryBarrierByRegion@	; `string'
PUBLIC	??_C@_0BF@JEEEKNGB@glGetTextureSubImage@	; `string'
PUBLIC	??_C@_0BP@BIDENANP@glGetCompressedTextureSubImage@ ; `string'
PUBLIC	??_C@_0BJ@ILPAOCDN@glGetGraphicsResetStatus@	; `string'
PUBLIC	??_C@_0BJ@HLNIHAOG@glGetnCompressedTexImage@	; `string'
PUBLIC	??_C@_0P@FBKOCLCM@glGetnTexImage@		; `string'
PUBLIC	??_C@_0BA@KLGIFHJB@glGetnUniformdv@		; `string'
PUBLIC	??_C@_0BA@KIOMIDPP@glGetnUniformfv@		; `string'
PUBLIC	??_C@_0BA@KDLAMEMC@glGetnUniformiv@		; `string'
PUBLIC	??_C@_0BB@BBJMBEC@glGetnUniformuiv@		; `string'
PUBLIC	??_C@_0O@NELODAJJ@glReadnPixels@		; `string'
PUBLIC	??_C@_0M@FBDPJCFH@glGetnMapdv@			; `string'
PUBLIC	??_C@_0M@FCLLEGDJ@glGetnMapfv@			; `string'
PUBLIC	??_C@_0M@FJOHABAE@glGetnMapiv@			; `string'
PUBLIC	??_C@_0BB@JKBANCED@glGetnPixelMapfv@		; `string'
PUBLIC	??_C@_0BC@MDPMMCLE@glGetnPixelMapuiv@		; `string'
PUBLIC	??_C@_0BC@NCENOEBC@glGetnPixelMapusv@		; `string'
PUBLIC	??_C@_0BF@NBHIHHJA@glGetnPolygonStipple@	; `string'
PUBLIC	??_C@_0BB@EFKGOAOL@glGetnColorTable@		; `string'
PUBLIC	??_C@_0BI@GBFNHONB@glGetnConvolutionFilter@	; `string'
PUBLIC	??_C@_0BG@LBKKJBFC@glGetnSeparableFilter@	; `string'
PUBLIC	??_C@_0BA@POEMGEO@glGetnHistogram@		; `string'
PUBLIC	??_C@_0N@EFFKFJMK@glGetnMinmax@			; `string'
PUBLIC	??_C@_0BB@MNKDFGFC@glTextureBarrier@		; `string'
PUBLIC	??_C@_0BD@LNCLLNDI@glSpecializeShader@		; `string'
PUBLIC	??_C@_0BP@GGIOCPJI@glMultiDrawArraysIndirectCount@ ; `string'
PUBLIC	??_C@_0CB@BPEMAMPH@glMultiDrawElementsIndirectCoun@ ; `string'
PUBLIC	??_C@_0BF@ECLDHBOO@glPolygonOffsetClamp@	; `string'
PUBLIC	??_C@_0O@ENGHJHNB@OpenGL?5ES?9CM?5@		; `string'
PUBLIC	??_C@_0O@EMKFPNOG@OpenGL?5ES?9CL?5@		; `string'
PUBLIC	??_C@_0L@JLFHOCGA@OpenGL?5ES?5@			; `string'
PUBLIC	??_C@_05KBEOJPB@?$CFd?4?$CFd@			; `string'
PUBLIC	??_C@_0M@BJGLMKCC@glAlphaFunc@			; `string'
PUBLIC	??_C@_0N@CIEBEEDM@glClipPlanef@			; `string'
PUBLIC	??_C@_09PKFCMFPF@glColor4f@			; `string'
PUBLIC	??_C@_06JJHNMGPD@glFogf@			; `string'
PUBLIC	??_C@_07FNEIAABA@glFogfv@			; `string'
PUBLIC	??_C@_0L@HFEMMHCG@glFrustumf@			; `string'
PUBLIC	??_C@_0BA@EGMBKDGG@glGetClipPlanef@		; `string'
PUBLIC	??_C@_0N@MGGMJGKA@glGetLightfv@			; `string'
PUBLIC	??_C@_0BA@GCPPEEDM@glGetMaterialfv@		; `string'
PUBLIC	??_C@_0O@KDAJGFCL@glGetTexEnvfv@		; `string'
PUBLIC	??_C@_0O@HPCJLAII@glLightModelf@		; `string'
PUBLIC	??_C@_0P@JKHJPMNC@glLightModelfv@		; `string'
PUBLIC	??_C@_08LPDPILEL@glLightf@			; `string'
PUBLIC	??_C@_09JINEHJOD@glLightfv@			; `string'
PUBLIC	??_C@_0O@DJGBMGEI@glLoadMatrixf@		; `string'
PUBLIC	??_C@_0M@HANOIKMC@glMaterialf@			; `string'
PUBLIC	??_C@_0N@MHPKDGG@glMaterialfv@			; `string'
PUBLIC	??_C@_0O@LHKDNPKJ@glMultMatrixf@		; `string'
PUBLIC	??_C@_0BC@LDICFFJG@glMultiTexCoord4f@		; `string'
PUBLIC	??_C@_0L@DGGCBPPM@glNormal3f@			; `string'
PUBLIC	??_C@_08NAPFMCEN@glOrthof@			; `string'
PUBLIC	??_C@_09FCODNBIM@glRotatef@			; `string'
PUBLIC	??_C@_08JCPEOPLK@glScalef@			; `string'
PUBLIC	??_C@_09FCLLGECI@glTexEnvf@			; `string'
PUBLIC	??_C@_0L@EMICMNOO@glTexEnvfv@			; `string'
PUBLIC	??_C@_0N@IFPDDBNE@glTranslatef@			; `string'
PUBLIC	??_C@_0N@DCJPNJNA@glAlphaFuncx@			; `string'
PUBLIC	??_C@_0O@NPNIINAH@glClearColorx@		; `string'
PUBLIC	??_C@_0O@IIFNBMFE@glClearDepthx@		; `string'
PUBLIC	??_C@_0BG@EGKOMLFO@glClientActiveTexture@	; `string'
PUBLIC	??_C@_0N@PMAAHLOD@glClipPlanex@			; `string'
PUBLIC	??_C@_0L@IEIGEAFK@glColor4ub@			; `string'
PUBLIC	??_C@_09COBDPKCK@glColor4x@			; `string'
PUBLIC	??_C@_0P@DPKEGLKI@glColorPointer@		; `string'
PUBLIC	??_C@_0O@EHBIACAM@glDepthRangex@		; `string'
PUBLIC	??_C@_0BF@LJDHBNBP@glDisableClientState@	; `string'
PUBLIC	??_C@_0BE@KECPKGNE@glEnableClientState@		; `string'
PUBLIC	??_C@_06ENDMPJCM@glFogx@			; `string'
PUBLIC	??_C@_07ELPAIOGK@glFogxv@			; `string'
PUBLIC	??_C@_0L@KBANPIPJ@glFrustumx@			; `string'
PUBLIC	??_C@_0BA@JCIAJMLJ@glGetClipPlanex@		; `string'
PUBLIC	??_C@_0M@DLGHPANC@glGetFixedv@			; `string'
PUBLIC	??_C@_0N@NANEBINK@glGetLightxv@			; `string'
PUBLIC	??_C@_0BA@HEEHMKEG@glGetMaterialxv@		; `string'
PUBLIC	??_C@_0O@KIFFCCBG@glGetTexEnviv@		; `string'
PUBLIC	??_C@_0O@LFLBOLFB@glGetTexEnvxv@		; `string'
PUBLIC	??_C@_0BE@CLMJHELI@glGetTexParameterxv@		; `string'
PUBLIC	??_C@_0O@KLGIIPFH@glLightModelx@		; `string'
PUBLIC	??_C@_0P@IMMBHCKI@glLightModelxv@		; `string'
PUBLIC	??_C@_08GLHOLEJE@glLightx@			; `string'
PUBLIC	??_C@_09IOGMPHJJ@glLightxv@			; `string'
PUBLIC	??_C@_0N@LDBNBCAC@glLineWidthx@			; `string'
PUBLIC	??_C@_0P@EJAFHEPO@glLoadIdentity@		; `string'
PUBLIC	??_C@_0O@ONCAPJJH@glLoadMatrixx@		; `string'
PUBLIC	??_C@_0M@KEJPLFBN@glMaterialx@			; `string'
PUBLIC	??_C@_0N@BKMHCNBM@glMaterialxv@			; `string'
PUBLIC	??_C@_0N@KDLNHKEJ@glMatrixMode@			; `string'
PUBLIC	??_C@_0O@GDOCOAHG@glMultMatrixx@		; `string'
PUBLIC	??_C@_0BC@GHMDGKEJ@glMultiTexCoord4x@		; `string'
PUBLIC	??_C@_0L@OCCDCACD@glNormal3x@			; `string'
PUBLIC	??_C@_0BA@DCLMCEOP@glNormalPointer@		; `string'
PUBLIC	??_C@_08ELEPNJC@glOrthox@			; `string'
PUBLIC	??_C@_0BC@NBCPNLOB@glPointParameterx@		; `string'
PUBLIC	??_C@_0BD@KOLJCDEF@glPointParameterxv@		; `string'
PUBLIC	??_C@_0N@GIMHGCMN@glPointSizex@			; `string'
PUBLIC	??_C@_0BB@IPDOBBJA@glPolygonOffsetx@		; `string'
PUBLIC	??_C@_0M@JPEAAEEK@glPopMatrix@			; `string'
PUBLIC	??_C@_0N@IHFNHGBL@glPushMatrix@			; `string'
PUBLIC	??_C@_09IGKCOOFD@glRotatex@			; `string'
PUBLIC	??_C@_0BC@EHPFHJHK@glSampleCoveragex@		; `string'
PUBLIC	??_C@_08EGLFNAGF@glScalex@			; `string'
PUBLIC	??_C@_0N@NALMFHKN@glShadeModel@			; `string'
PUBLIC	??_C@_0BC@DAOMILMO@glTexCoordPointer@		; `string'
PUBLIC	??_C@_09NFCDHIOH@glTexEnvi@			; `string'
PUBLIC	??_C@_09IGPKFLPH@glTexEnvx@			; `string'
PUBLIC	??_C@_0L@EHNOIKND@glTexEnviv@			; `string'
PUBLIC	??_C@_0L@FKDKEDJE@glTexEnvxv@			; `string'
PUBLIC	??_C@_0BA@FJOELDLA@glTexParameterx@		; `string'
PUBLIC	??_C@_0BB@LCFNIJEP@glTexParameterxv@		; `string'
PUBLIC	??_C@_0N@FBLCAOAL@glTranslatex@			; `string'
PUBLIC	??_C@_0BA@HAHECJNK@glVertexPointer@		; `string'
PUBLIC	??_C@_0P@NOCKEEAP@glBlendBarrier@		; `string'
PUBLIC	??_C@_0BH@DBMDBNBL@glPrimitiveBoundingBox@	; `string'
EXTRN	__imp___stdio_common_vsscanf:PROC
EXTRN	__imp_free:PROC
EXTRN	__imp_malloc:PROC
EXTRN	__imp_strncmp:PROC
EXTRN	__imp_FreeLibrary:PROC
EXTRN	__imp_GetProcAddress:PROC
EXTRN	__imp_LoadLibraryW:PROC
EXTRN	__CheckForDebuggerJustMyCode:PROC
EXTRN	__GSHandlerCheck:PROC
EXTRN	__security_check_cookie:PROC
EXTRN	__security_cookie:QWORD
_DATA	SEGMENT
COMM	?_OptionsStorage@?1??__local_stdio_scanf_options@@9@9:QWORD							; `__local_stdio_scanf_options'::`2'::_OptionsStorage
_DATA	ENDS
_BSS	SEGMENT
	ALIGN	8

libGL	DQ	01H DUP (?)
gladGetProcAddressPtr DQ 01H DUP (?)
max_loaded_major DD 01H DUP (?)
max_loaded_minor DD 01H DUP (?)
exts	DQ	01H DUP (?)
num_exts_i DD	01H DUP (?)
	ALIGN	8

exts_i	DQ	01H DUP (?)
_BSS	ENDS
;	COMDAT pdata
pdata	SEGMENT
$pdata$__local_stdio_scanf_options DD imagerel $LN3
	DD	imagerel $LN3+36
	DD	imagerel $unwind$__local_stdio_scanf_options
pdata	ENDS
;	COMDAT pdata
pdata	SEGMENT
$pdata$_vsscanf_s_l DD imagerel $LN3
	DD	imagerel $LN3+102
	DD	imagerel $unwind$_vsscanf_s_l
pdata	ENDS
;	COMDAT pdata
pdata	SEGMENT
$pdata$vsscanf_s DD imagerel $LN3
	DD	imagerel $LN3+63
	DD	imagerel $unwind$vsscanf_s
pdata	ENDS
;	COMDAT pdata
pdata	SEGMENT
$pdata$sscanf_s DD imagerel $LN3
	DD	imagerel $LN3+119
	DD	imagerel $unwind$sscanf_s
pdata	ENDS
;	COMDAT pdata
pdata	SEGMENT
$pdata$gladLoadGL DD imagerel $LN4
	DD	imagerel $LN4+68
	DD	imagerel $unwind$gladLoadGL
pdata	ENDS
;	COMDAT pdata
pdata	SEGMENT
$pdata$gladLoadGLLoader DD imagerel $LN8
	DD	imagerel $LN8+336
	DD	imagerel $unwind$gladLoadGLLoader
pdata	ENDS
;	COMDAT pdata
pdata	SEGMENT
$pdata$gladLoadGLES1Loader DD imagerel $LN8
	DD	imagerel $LN8+168
	DD	imagerel $unwind$gladLoadGLES1Loader
pdata	ENDS
;	COMDAT pdata
pdata	SEGMENT
$pdata$gladLoadGLES2Loader DD imagerel $LN8
	DD	imagerel $LN8+195
	DD	imagerel $unwind$gladLoadGLES2Loader
pdata	ENDS
;	COMDAT pdata
pdata	SEGMENT
$pdata$gladLoadGLSC2Loader DD imagerel $LN8
	DD	imagerel $LN8+168
	DD	imagerel $unwind$gladLoadGLSC2Loader
pdata	ENDS
;	COMDAT pdata
pdata	SEGMENT
$pdata$get_proc DD imagerel get_proc
	DD	imagerel get_proc+111
	DD	imagerel $unwind$get_proc
pdata	ENDS
;	COMDAT pdata
pdata	SEGMENT
$pdata$open_gl DD imagerel open_gl
	DD	imagerel open_gl+127
	DD	imagerel $unwind$open_gl
pdata	ENDS
;	COMDAT pdata
pdata	SEGMENT
$pdata$close_gl DD imagerel close_gl
	DD	imagerel close_gl+63
	DD	imagerel $unwind$close_gl
pdata	ENDS
;	COMDAT pdata
pdata	SEGMENT
$pdata$get_exts DD imagerel get_exts
	DD	imagerel get_exts+339
	DD	imagerel $unwind$get_exts
pdata	ENDS
;	COMDAT pdata
pdata	SEGMENT
$pdata$free_exts DD imagerel free_exts
	DD	imagerel free_exts+114
	DD	imagerel $unwind$free_exts
pdata	ENDS
;	COMDAT pdata
pdata	SEGMENT
$pdata$load_GL_VERSION_1_0 DD imagerel load_GL_VERSION_1_0
	DD	imagerel load_GL_VERSION_1_0+863
	DD	imagerel $unwind$load_GL_VERSION_1_0
pdata	ENDS
;	COMDAT pdata
pdata	SEGMENT
$pdata$load_GL_VERSION_1_1 DD imagerel load_GL_VERSION_1_1
	DD	imagerel load_GL_VERSION_1_1+268
	DD	imagerel $unwind$load_GL_VERSION_1_1
pdata	ENDS
;	COMDAT pdata
pdata	SEGMENT
$pdata$load_GL_VERSION_1_2 DD imagerel load_GL_VERSION_1_2
	DD	imagerel load_GL_VERSION_1_2+112
	DD	imagerel $unwind$load_GL_VERSION_1_2
pdata	ENDS
;	COMDAT pdata
pdata	SEGMENT
$pdata$load_GL_VERSION_1_3 DD imagerel load_GL_VERSION_1_3
	DD	imagerel load_GL_VERSION_1_3+200
	DD	imagerel $unwind$load_GL_VERSION_1_3
pdata	ENDS
;	COMDAT pdata
pdata	SEGMENT
$pdata$load_GL_VERSION_1_4 DD imagerel load_GL_VERSION_1_4
	DD	imagerel load_GL_VERSION_1_4+200
	DD	imagerel $unwind$load_GL_VERSION_1_4
pdata	ENDS
;	COMDAT pdata
pdata	SEGMENT
$pdata$load_GL_VERSION_1_5 DD imagerel load_GL_VERSION_1_5
	DD	imagerel load_GL_VERSION_1_5+370
	DD	imagerel $unwind$load_GL_VERSION_1_5
pdata	ENDS
;	COMDAT pdata
pdata	SEGMENT
$pdata$load_GL_VERSION_2_0 DD imagerel load_GL_VERSION_2_0
	DD	imagerel load_GL_VERSION_2_0+1628
	DD	imagerel $unwind$load_GL_VERSION_2_0
pdata	ENDS
;	COMDAT pdata
pdata	SEGMENT
$pdata$load_GL_VERSION_2_1 DD imagerel load_GL_VERSION_2_1
	DD	imagerel load_GL_VERSION_2_1+146
	DD	imagerel $unwind$load_GL_VERSION_2_1
pdata	ENDS
;	COMDAT pdata
pdata	SEGMENT
$pdata$load_GL_VERSION_3_0 DD imagerel load_GL_VERSION_3_0
	DD	imagerel load_GL_VERSION_3_0+1475
	DD	imagerel $unwind$load_GL_VERSION_3_0
pdata	ENDS
;	COMDAT pdata
pdata	SEGMENT
$pdata$load_GL_VERSION_3_1 DD imagerel load_GL_VERSION_3_1
	DD	imagerel load_GL_VERSION_3_1+302
	DD	imagerel $unwind$load_GL_VERSION_3_1
pdata	ENDS
;	COMDAT pdata
pdata	SEGMENT
$pdata$load_GL_VERSION_3_2 DD imagerel load_GL_VERSION_3_2
	DD	imagerel load_GL_VERSION_3_2+370
	DD	imagerel $unwind$load_GL_VERSION_3_2
pdata	ENDS
;	COMDAT pdata
pdata	SEGMENT
$pdata$load_GL_VERSION_3_3 DD imagerel load_GL_VERSION_3_3
	DD	imagerel load_GL_VERSION_3_3+1033
	DD	imagerel $unwind$load_GL_VERSION_3_3
pdata	ENDS
;	COMDAT pdata
pdata	SEGMENT
$pdata$load_GL_VERSION_4_0 DD imagerel load_GL_VERSION_4_0
	DD	imagerel load_GL_VERSION_4_0+829
	DD	imagerel $unwind$load_GL_VERSION_4_0
pdata	ENDS
;	COMDAT pdata
pdata	SEGMENT
$pdata$load_GL_VERSION_4_1 DD imagerel load_GL_VERSION_4_1
	DD	imagerel load_GL_VERSION_4_1+1560
	DD	imagerel $unwind$load_GL_VERSION_4_1
pdata	ENDS
;	COMDAT pdata
pdata	SEGMENT
$pdata$load_GL_VERSION_4_2 DD imagerel load_GL_VERSION_4_2
	DD	imagerel load_GL_VERSION_4_2+251
	DD	imagerel $unwind$load_GL_VERSION_4_2
pdata	ENDS
;	COMDAT pdata
pdata	SEGMENT
$pdata$load_GL_VERSION_4_3 DD imagerel load_GL_VERSION_4_3
	DD	imagerel load_GL_VERSION_4_3+795
	DD	imagerel $unwind$load_GL_VERSION_4_3
pdata	ENDS
;	COMDAT pdata
pdata	SEGMENT
$pdata$load_GL_VERSION_4_4 DD imagerel load_GL_VERSION_4_4
	DD	imagerel load_GL_VERSION_4_4+200
	DD	imagerel $unwind$load_GL_VERSION_4_4
pdata	ENDS
;	COMDAT pdata
pdata	SEGMENT
$pdata$load_GL_VERSION_4_5 DD imagerel load_GL_VERSION_4_5
	DD	imagerel load_GL_VERSION_4_5+2121
	DD	imagerel $unwind$load_GL_VERSION_4_5
pdata	ENDS
;	COMDAT pdata
pdata	SEGMENT
$pdata$load_GL_VERSION_4_6 DD imagerel load_GL_VERSION_4_6
	DD	imagerel load_GL_VERSION_4_6+112
	DD	imagerel $unwind$load_GL_VERSION_4_6
pdata	ENDS
;	COMDAT pdata
pdata	SEGMENT
$pdata$find_extensionsGL DD imagerel find_extensionsGL
	DD	imagerel find_extensionsGL+52
	DD	imagerel $unwind$find_extensionsGL
pdata	ENDS
;	COMDAT pdata
pdata	SEGMENT
$pdata$find_coreGL DD imagerel find_coreGL
	DD	imagerel find_coreGL+1376
	DD	imagerel $unwind$find_coreGL
pdata	ENDS
;	COMDAT pdata
pdata	SEGMENT
$pdata$load_GL_VERSION_ES_CM_1_0 DD imagerel load_GL_VERSION_ES_CM_1_0
	DD	imagerel load_GL_VERSION_ES_CM_1_0+2495
	DD	imagerel $unwind$load_GL_VERSION_ES_CM_1_0
pdata	ENDS
;	COMDAT pdata
pdata	SEGMENT
$pdata$find_extensionsGLES1 DD imagerel find_extensionsGLES1
	DD	imagerel find_extensionsGLES1+52
	DD	imagerel $unwind$find_extensionsGLES1
pdata	ENDS
;	COMDAT pdata
pdata	SEGMENT
$pdata$find_coreGLES1 DD imagerel find_coreGLES1
	DD	imagerel find_coreGLES1+440
	DD	imagerel $unwind$find_coreGLES1
pdata	ENDS
;	COMDAT pdata
pdata	SEGMENT
$pdata$load_GL_ES_VERSION_2_0 DD imagerel load_GL_ES_VERSION_2_0
	DD	imagerel load_GL_ES_VERSION_2_0+2461
	DD	imagerel $unwind$load_GL_ES_VERSION_2_0
pdata	ENDS
;	COMDAT pdata
pdata	SEGMENT
$pdata$load_GL_ES_VERSION_3_0 DD imagerel load_GL_ES_VERSION_3_0
	DD	imagerel load_GL_ES_VERSION_3_0+1815
	DD	imagerel $unwind$load_GL_ES_VERSION_3_0
pdata	ENDS
;	COMDAT pdata
pdata	SEGMENT
$pdata$load_GL_ES_VERSION_3_1 DD imagerel load_GL_ES_VERSION_3_1
	DD	imagerel load_GL_ES_VERSION_3_1+1203
	DD	imagerel $unwind$load_GL_ES_VERSION_3_1
pdata	ENDS
;	COMDAT pdata
pdata	SEGMENT
$pdata$load_GL_ES_VERSION_3_2 DD imagerel load_GL_ES_VERSION_3_2
	DD	imagerel load_GL_ES_VERSION_3_2+795
	DD	imagerel $unwind$load_GL_ES_VERSION_3_2
pdata	ENDS
;	COMDAT pdata
pdata	SEGMENT
$pdata$find_extensionsGLES2 DD imagerel find_extensionsGLES2
	DD	imagerel find_extensionsGLES2+52
	DD	imagerel $unwind$find_extensionsGLES2
pdata	ENDS
;	COMDAT pdata
pdata	SEGMENT
$pdata$find_coreGLES2 DD imagerel find_coreGLES2
	DD	imagerel find_coreGLES2+596
	DD	imagerel $unwind$find_coreGLES2
pdata	ENDS
;	COMDAT pdata
pdata	SEGMENT
$pdata$load_GL_SC_VERSION_2_0 DD imagerel load_GL_SC_VERSION_2_0
	DD	imagerel load_GL_SC_VERSION_2_0+1934
	DD	imagerel $unwind$load_GL_SC_VERSION_2_0
pdata	ENDS
;	COMDAT pdata
pdata	SEGMENT
$pdata$find_extensionsGLSC2 DD imagerel find_extensionsGLSC2
	DD	imagerel find_extensionsGLSC2+52
	DD	imagerel $unwind$find_extensionsGLSC2
pdata	ENDS
;	COMDAT pdata
pdata	SEGMENT
$pdata$find_coreGLSC2 DD imagerel find_coreGLSC2
	DD	imagerel find_coreGLSC2+440
	DD	imagerel $unwind$find_coreGLSC2
pdata	ENDS
;	COMDAT ??_C@_0BH@DBMDBNBL@glPrimitiveBoundingBox@
CONST	SEGMENT
??_C@_0BH@DBMDBNBL@glPrimitiveBoundingBox@ DB 'glPrimitiveBoundingBox', 00H ; `string'
CONST	ENDS
;	COMDAT ??_C@_0P@NOCKEEAP@glBlendBarrier@
CONST	SEGMENT
??_C@_0P@NOCKEEAP@glBlendBarrier@ DB 'glBlendBarrier', 00H ; `string'
CONST	ENDS
;	COMDAT ??_C@_0BA@HAHECJNK@glVertexPointer@
CONST	SEGMENT
??_C@_0BA@HAHECJNK@glVertexPointer@ DB 'glVertexPointer', 00H ; `string'
CONST	ENDS
;	COMDAT ??_C@_0N@FBLCAOAL@glTranslatex@
CONST	SEGMENT
??_C@_0N@FBLCAOAL@glTranslatex@ DB 'glTranslatex', 00H	; `string'
CONST	ENDS
;	COMDAT ??_C@_0BB@LCFNIJEP@glTexParameterxv@
CONST	SEGMENT
??_C@_0BB@LCFNIJEP@glTexParameterxv@ DB 'glTexParameterxv', 00H ; `string'
CONST	ENDS
;	COMDAT ??_C@_0BA@FJOELDLA@glTexParameterx@
CONST	SEGMENT
??_C@_0BA@FJOELDLA@glTexParameterx@ DB 'glTexParameterx', 00H ; `string'
CONST	ENDS
;	COMDAT ??_C@_0L@FKDKEDJE@glTexEnvxv@
CONST	SEGMENT
??_C@_0L@FKDKEDJE@glTexEnvxv@ DB 'glTexEnvxv', 00H	; `string'
CONST	ENDS
;	COMDAT ??_C@_0L@EHNOIKND@glTexEnviv@
CONST	SEGMENT
??_C@_0L@EHNOIKND@glTexEnviv@ DB 'glTexEnviv', 00H	; `string'
CONST	ENDS
;	COMDAT ??_C@_09IGPKFLPH@glTexEnvx@
CONST	SEGMENT
??_C@_09IGPKFLPH@glTexEnvx@ DB 'glTexEnvx', 00H		; `string'
CONST	ENDS
;	COMDAT ??_C@_09NFCDHIOH@glTexEnvi@
CONST	SEGMENT
??_C@_09NFCDHIOH@glTexEnvi@ DB 'glTexEnvi', 00H		; `string'
CONST	ENDS
;	COMDAT ??_C@_0BC@DAOMILMO@glTexCoordPointer@
CONST	SEGMENT
??_C@_0BC@DAOMILMO@glTexCoordPointer@ DB 'glTexCoordPointer', 00H ; `string'
CONST	ENDS
;	COMDAT ??_C@_0N@NALMFHKN@glShadeModel@
CONST	SEGMENT
??_C@_0N@NALMFHKN@glShadeModel@ DB 'glShadeModel', 00H	; `string'
CONST	ENDS
;	COMDAT ??_C@_08EGLFNAGF@glScalex@
CONST	SEGMENT
??_C@_08EGLFNAGF@glScalex@ DB 'glScalex', 00H		; `string'
CONST	ENDS
;	COMDAT ??_C@_0BC@EHPFHJHK@glSampleCoveragex@
CONST	SEGMENT
??_C@_0BC@EHPFHJHK@glSampleCoveragex@ DB 'glSampleCoveragex', 00H ; `string'
CONST	ENDS
;	COMDAT ??_C@_09IGKCOOFD@glRotatex@
CONST	SEGMENT
??_C@_09IGKCOOFD@glRotatex@ DB 'glRotatex', 00H		; `string'
CONST	ENDS
;	COMDAT ??_C@_0N@IHFNHGBL@glPushMatrix@
CONST	SEGMENT
??_C@_0N@IHFNHGBL@glPushMatrix@ DB 'glPushMatrix', 00H	; `string'
CONST	ENDS
;	COMDAT ??_C@_0M@JPEAAEEK@glPopMatrix@
CONST	SEGMENT
??_C@_0M@JPEAAEEK@glPopMatrix@ DB 'glPopMatrix', 00H	; `string'
CONST	ENDS
;	COMDAT ??_C@_0BB@IPDOBBJA@glPolygonOffsetx@
CONST	SEGMENT
??_C@_0BB@IPDOBBJA@glPolygonOffsetx@ DB 'glPolygonOffsetx', 00H ; `string'
CONST	ENDS
;	COMDAT ??_C@_0N@GIMHGCMN@glPointSizex@
CONST	SEGMENT
??_C@_0N@GIMHGCMN@glPointSizex@ DB 'glPointSizex', 00H	; `string'
CONST	ENDS
;	COMDAT ??_C@_0BD@KOLJCDEF@glPointParameterxv@
CONST	SEGMENT
??_C@_0BD@KOLJCDEF@glPointParameterxv@ DB 'glPointParameterxv', 00H ; `string'
CONST	ENDS
;	COMDAT ??_C@_0BC@NBCPNLOB@glPointParameterx@
CONST	SEGMENT
??_C@_0BC@NBCPNLOB@glPointParameterx@ DB 'glPointParameterx', 00H ; `string'
CONST	ENDS
;	COMDAT ??_C@_08ELEPNJC@glOrthox@
CONST	SEGMENT
??_C@_08ELEPNJC@glOrthox@ DB 'glOrthox', 00H		; `string'
CONST	ENDS
;	COMDAT ??_C@_0BA@DCLMCEOP@glNormalPointer@
CONST	SEGMENT
??_C@_0BA@DCLMCEOP@glNormalPointer@ DB 'glNormalPointer', 00H ; `string'
CONST	ENDS
;	COMDAT ??_C@_0L@OCCDCACD@glNormal3x@
CONST	SEGMENT
??_C@_0L@OCCDCACD@glNormal3x@ DB 'glNormal3x', 00H	; `string'
CONST	ENDS
;	COMDAT ??_C@_0BC@GHMDGKEJ@glMultiTexCoord4x@
CONST	SEGMENT
??_C@_0BC@GHMDGKEJ@glMultiTexCoord4x@ DB 'glMultiTexCoord4x', 00H ; `string'
CONST	ENDS
;	COMDAT ??_C@_0O@GDOCOAHG@glMultMatrixx@
CONST	SEGMENT
??_C@_0O@GDOCOAHG@glMultMatrixx@ DB 'glMultMatrixx', 00H ; `string'
CONST	ENDS
;	COMDAT ??_C@_0N@KDLNHKEJ@glMatrixMode@
CONST	SEGMENT
??_C@_0N@KDLNHKEJ@glMatrixMode@ DB 'glMatrixMode', 00H	; `string'
CONST	ENDS
;	COMDAT ??_C@_0N@BKMHCNBM@glMaterialxv@
CONST	SEGMENT
??_C@_0N@BKMHCNBM@glMaterialxv@ DB 'glMaterialxv', 00H	; `string'
CONST	ENDS
;	COMDAT ??_C@_0M@KEJPLFBN@glMaterialx@
CONST	SEGMENT
??_C@_0M@KEJPLFBN@glMaterialx@ DB 'glMaterialx', 00H	; `string'
CONST	ENDS
;	COMDAT ??_C@_0O@ONCAPJJH@glLoadMatrixx@
CONST	SEGMENT
??_C@_0O@ONCAPJJH@glLoadMatrixx@ DB 'glLoadMatrixx', 00H ; `string'
CONST	ENDS
;	COMDAT ??_C@_0P@EJAFHEPO@glLoadIdentity@
CONST	SEGMENT
??_C@_0P@EJAFHEPO@glLoadIdentity@ DB 'glLoadIdentity', 00H ; `string'
CONST	ENDS
;	COMDAT ??_C@_0N@LDBNBCAC@glLineWidthx@
CONST	SEGMENT
??_C@_0N@LDBNBCAC@glLineWidthx@ DB 'glLineWidthx', 00H	; `string'
CONST	ENDS
;	COMDAT ??_C@_09IOGMPHJJ@glLightxv@
CONST	SEGMENT
??_C@_09IOGMPHJJ@glLightxv@ DB 'glLightxv', 00H		; `string'
CONST	ENDS
;	COMDAT ??_C@_08GLHOLEJE@glLightx@
CONST	SEGMENT
??_C@_08GLHOLEJE@glLightx@ DB 'glLightx', 00H		; `string'
CONST	ENDS
;	COMDAT ??_C@_0P@IMMBHCKI@glLightModelxv@
CONST	SEGMENT
??_C@_0P@IMMBHCKI@glLightModelxv@ DB 'glLightModelxv', 00H ; `string'
CONST	ENDS
;	COMDAT ??_C@_0O@KLGIIPFH@glLightModelx@
CONST	SEGMENT
??_C@_0O@KLGIIPFH@glLightModelx@ DB 'glLightModelx', 00H ; `string'
CONST	ENDS
;	COMDAT ??_C@_0BE@CLMJHELI@glGetTexParameterxv@
CONST	SEGMENT
??_C@_0BE@CLMJHELI@glGetTexParameterxv@ DB 'glGetTexParameterxv', 00H ; `string'
CONST	ENDS
;	COMDAT ??_C@_0O@LFLBOLFB@glGetTexEnvxv@
CONST	SEGMENT
??_C@_0O@LFLBOLFB@glGetTexEnvxv@ DB 'glGetTexEnvxv', 00H ; `string'
CONST	ENDS
;	COMDAT ??_C@_0O@KIFFCCBG@glGetTexEnviv@
CONST	SEGMENT
??_C@_0O@KIFFCCBG@glGetTexEnviv@ DB 'glGetTexEnviv', 00H ; `string'
CONST	ENDS
;	COMDAT ??_C@_0BA@HEEHMKEG@glGetMaterialxv@
CONST	SEGMENT
??_C@_0BA@HEEHMKEG@glGetMaterialxv@ DB 'glGetMaterialxv', 00H ; `string'
CONST	ENDS
;	COMDAT ??_C@_0N@NANEBINK@glGetLightxv@
CONST	SEGMENT
??_C@_0N@NANEBINK@glGetLightxv@ DB 'glGetLightxv', 00H	; `string'
CONST	ENDS
;	COMDAT ??_C@_0M@DLGHPANC@glGetFixedv@
CONST	SEGMENT
??_C@_0M@DLGHPANC@glGetFixedv@ DB 'glGetFixedv', 00H	; `string'
CONST	ENDS
;	COMDAT ??_C@_0BA@JCIAJMLJ@glGetClipPlanex@
CONST	SEGMENT
??_C@_0BA@JCIAJMLJ@glGetClipPlanex@ DB 'glGetClipPlanex', 00H ; `string'
CONST	ENDS
;	COMDAT ??_C@_0L@KBANPIPJ@glFrustumx@
CONST	SEGMENT
??_C@_0L@KBANPIPJ@glFrustumx@ DB 'glFrustumx', 00H	; `string'
CONST	ENDS
;	COMDAT ??_C@_07ELPAIOGK@glFogxv@
CONST	SEGMENT
??_C@_07ELPAIOGK@glFogxv@ DB 'glFogxv', 00H		; `string'
CONST	ENDS
;	COMDAT ??_C@_06ENDMPJCM@glFogx@
CONST	SEGMENT
??_C@_06ENDMPJCM@glFogx@ DB 'glFogx', 00H		; `string'
CONST	ENDS
;	COMDAT ??_C@_0BE@KECPKGNE@glEnableClientState@
CONST	SEGMENT
??_C@_0BE@KECPKGNE@glEnableClientState@ DB 'glEnableClientState', 00H ; `string'
CONST	ENDS
;	COMDAT ??_C@_0BF@LJDHBNBP@glDisableClientState@
CONST	SEGMENT
??_C@_0BF@LJDHBNBP@glDisableClientState@ DB 'glDisableClientState', 00H ; `string'
CONST	ENDS
;	COMDAT ??_C@_0O@EHBIACAM@glDepthRangex@
CONST	SEGMENT
??_C@_0O@EHBIACAM@glDepthRangex@ DB 'glDepthRangex', 00H ; `string'
CONST	ENDS
;	COMDAT ??_C@_0P@DPKEGLKI@glColorPointer@
CONST	SEGMENT
??_C@_0P@DPKEGLKI@glColorPointer@ DB 'glColorPointer', 00H ; `string'
CONST	ENDS
;	COMDAT ??_C@_09COBDPKCK@glColor4x@
CONST	SEGMENT
??_C@_09COBDPKCK@glColor4x@ DB 'glColor4x', 00H		; `string'
CONST	ENDS
;	COMDAT ??_C@_0L@IEIGEAFK@glColor4ub@
CONST	SEGMENT
??_C@_0L@IEIGEAFK@glColor4ub@ DB 'glColor4ub', 00H	; `string'
CONST	ENDS
;	COMDAT ??_C@_0N@PMAAHLOD@glClipPlanex@
CONST	SEGMENT
??_C@_0N@PMAAHLOD@glClipPlanex@ DB 'glClipPlanex', 00H	; `string'
CONST	ENDS
;	COMDAT ??_C@_0BG@EGKOMLFO@glClientActiveTexture@
CONST	SEGMENT
??_C@_0BG@EGKOMLFO@glClientActiveTexture@ DB 'glClientActiveTexture', 00H ; `string'
CONST	ENDS
;	COMDAT ??_C@_0O@IIFNBMFE@glClearDepthx@
CONST	SEGMENT
??_C@_0O@IIFNBMFE@glClearDepthx@ DB 'glClearDepthx', 00H ; `string'
CONST	ENDS
;	COMDAT ??_C@_0O@NPNIINAH@glClearColorx@
CONST	SEGMENT
??_C@_0O@NPNIINAH@glClearColorx@ DB 'glClearColorx', 00H ; `string'
CONST	ENDS
;	COMDAT ??_C@_0N@DCJPNJNA@glAlphaFuncx@
CONST	SEGMENT
??_C@_0N@DCJPNJNA@glAlphaFuncx@ DB 'glAlphaFuncx', 00H	; `string'
CONST	ENDS
;	COMDAT ??_C@_0N@IFPDDBNE@glTranslatef@
CONST	SEGMENT
??_C@_0N@IFPDDBNE@glTranslatef@ DB 'glTranslatef', 00H	; `string'
CONST	ENDS
;	COMDAT ??_C@_0L@EMICMNOO@glTexEnvfv@
CONST	SEGMENT
??_C@_0L@EMICMNOO@glTexEnvfv@ DB 'glTexEnvfv', 00H	; `string'
CONST	ENDS
;	COMDAT ??_C@_09FCLLGECI@glTexEnvf@
CONST	SEGMENT
??_C@_09FCLLGECI@glTexEnvf@ DB 'glTexEnvf', 00H		; `string'
CONST	ENDS
;	COMDAT ??_C@_08JCPEOPLK@glScalef@
CONST	SEGMENT
??_C@_08JCPEOPLK@glScalef@ DB 'glScalef', 00H		; `string'
CONST	ENDS
;	COMDAT ??_C@_09FCODNBIM@glRotatef@
CONST	SEGMENT
??_C@_09FCODNBIM@glRotatef@ DB 'glRotatef', 00H		; `string'
CONST	ENDS
;	COMDAT ??_C@_08NAPFMCEN@glOrthof@
CONST	SEGMENT
??_C@_08NAPFMCEN@glOrthof@ DB 'glOrthof', 00H		; `string'
CONST	ENDS
;	COMDAT ??_C@_0L@DGGCBPPM@glNormal3f@
CONST	SEGMENT
??_C@_0L@DGGCBPPM@glNormal3f@ DB 'glNormal3f', 00H	; `string'
CONST	ENDS
;	COMDAT ??_C@_0BC@LDICFFJG@glMultiTexCoord4f@
CONST	SEGMENT
??_C@_0BC@LDICFFJG@glMultiTexCoord4f@ DB 'glMultiTexCoord4f', 00H ; `string'
CONST	ENDS
;	COMDAT ??_C@_0O@LHKDNPKJ@glMultMatrixf@
CONST	SEGMENT
??_C@_0O@LHKDNPKJ@glMultMatrixf@ DB 'glMultMatrixf', 00H ; `string'
CONST	ENDS
;	COMDAT ??_C@_0N@MHPKDGG@glMaterialfv@
CONST	SEGMENT
??_C@_0N@MHPKDGG@glMaterialfv@ DB 'glMaterialfv', 00H	; `string'
CONST	ENDS
;	COMDAT ??_C@_0M@HANOIKMC@glMaterialf@
CONST	SEGMENT
??_C@_0M@HANOIKMC@glMaterialf@ DB 'glMaterialf', 00H	; `string'
CONST	ENDS
;	COMDAT ??_C@_0O@DJGBMGEI@glLoadMatrixf@
CONST	SEGMENT
??_C@_0O@DJGBMGEI@glLoadMatrixf@ DB 'glLoadMatrixf', 00H ; `string'
CONST	ENDS
;	COMDAT ??_C@_09JINEHJOD@glLightfv@
CONST	SEGMENT
??_C@_09JINEHJOD@glLightfv@ DB 'glLightfv', 00H		; `string'
CONST	ENDS
;	COMDAT ??_C@_08LPDPILEL@glLightf@
CONST	SEGMENT
??_C@_08LPDPILEL@glLightf@ DB 'glLightf', 00H		; `string'
CONST	ENDS
;	COMDAT ??_C@_0P@JKHJPMNC@glLightModelfv@
CONST	SEGMENT
??_C@_0P@JKHJPMNC@glLightModelfv@ DB 'glLightModelfv', 00H ; `string'
CONST	ENDS
;	COMDAT ??_C@_0O@HPCJLAII@glLightModelf@
CONST	SEGMENT
??_C@_0O@HPCJLAII@glLightModelf@ DB 'glLightModelf', 00H ; `string'
CONST	ENDS
;	COMDAT ??_C@_0O@KDAJGFCL@glGetTexEnvfv@
CONST	SEGMENT
??_C@_0O@KDAJGFCL@glGetTexEnvfv@ DB 'glGetTexEnvfv', 00H ; `string'
CONST	ENDS
;	COMDAT ??_C@_0BA@GCPPEEDM@glGetMaterialfv@
CONST	SEGMENT
??_C@_0BA@GCPPEEDM@glGetMaterialfv@ DB 'glGetMaterialfv', 00H ; `string'
CONST	ENDS
;	COMDAT ??_C@_0N@MGGMJGKA@glGetLightfv@
CONST	SEGMENT
??_C@_0N@MGGMJGKA@glGetLightfv@ DB 'glGetLightfv', 00H	; `string'
CONST	ENDS
;	COMDAT ??_C@_0BA@EGMBKDGG@glGetClipPlanef@
CONST	SEGMENT
??_C@_0BA@EGMBKDGG@glGetClipPlanef@ DB 'glGetClipPlanef', 00H ; `string'
CONST	ENDS
;	COMDAT ??_C@_0L@HFEMMHCG@glFrustumf@
CONST	SEGMENT
??_C@_0L@HFEMMHCG@glFrustumf@ DB 'glFrustumf', 00H	; `string'
CONST	ENDS
;	COMDAT ??_C@_07FNEIAABA@glFogfv@
CONST	SEGMENT
??_C@_07FNEIAABA@glFogfv@ DB 'glFogfv', 00H		; `string'
CONST	ENDS
;	COMDAT ??_C@_06JJHNMGPD@glFogf@
CONST	SEGMENT
??_C@_06JJHNMGPD@glFogf@ DB 'glFogf', 00H		; `string'
CONST	ENDS
;	COMDAT ??_C@_09PKFCMFPF@glColor4f@
CONST	SEGMENT
??_C@_09PKFCMFPF@glColor4f@ DB 'glColor4f', 00H		; `string'
CONST	ENDS
;	COMDAT ??_C@_0N@CIEBEEDM@glClipPlanef@
CONST	SEGMENT
??_C@_0N@CIEBEEDM@glClipPlanef@ DB 'glClipPlanef', 00H	; `string'
CONST	ENDS
;	COMDAT ??_C@_0M@BJGLMKCC@glAlphaFunc@
CONST	SEGMENT
??_C@_0M@BJGLMKCC@glAlphaFunc@ DB 'glAlphaFunc', 00H	; `string'
CONST	ENDS
;	COMDAT ??_C@_05KBEOJPB@?$CFd?4?$CFd@
CONST	SEGMENT
??_C@_05KBEOJPB@?$CFd?4?$CFd@ DB '%d.%d', 00H		; `string'
CONST	ENDS
;	COMDAT ??_C@_0L@JLFHOCGA@OpenGL?5ES?5@
CONST	SEGMENT
??_C@_0L@JLFHOCGA@OpenGL?5ES?5@ DB 'OpenGL ES ', 00H	; `string'
CONST	ENDS
;	COMDAT ??_C@_0O@EMKFPNOG@OpenGL?5ES?9CL?5@
CONST	SEGMENT
??_C@_0O@EMKFPNOG@OpenGL?5ES?9CL?5@ DB 'OpenGL ES-CL ', 00H ; `string'
CONST	ENDS
;	COMDAT ??_C@_0O@ENGHJHNB@OpenGL?5ES?9CM?5@
CONST	SEGMENT
??_C@_0O@ENGHJHNB@OpenGL?5ES?9CM?5@ DB 'OpenGL ES-CM ', 00H ; `string'
CONST	ENDS
;	COMDAT ??_C@_0BF@ECLDHBOO@glPolygonOffsetClamp@
CONST	SEGMENT
??_C@_0BF@ECLDHBOO@glPolygonOffsetClamp@ DB 'glPolygonOffsetClamp', 00H ; `string'
CONST	ENDS
;	COMDAT ??_C@_0CB@BPEMAMPH@glMultiDrawElementsIndirectCoun@
CONST	SEGMENT
??_C@_0CB@BPEMAMPH@glMultiDrawElementsIndirectCoun@ DB 'glMultiDrawElemen'
	DB	'tsIndirectCount', 00H			; `string'
CONST	ENDS
;	COMDAT ??_C@_0BP@GGIOCPJI@glMultiDrawArraysIndirectCount@
CONST	SEGMENT
??_C@_0BP@GGIOCPJI@glMultiDrawArraysIndirectCount@ DB 'glMultiDrawArraysI'
	DB	'ndirectCount', 00H				; `string'
CONST	ENDS
;	COMDAT ??_C@_0BD@LNCLLNDI@glSpecializeShader@
CONST	SEGMENT
??_C@_0BD@LNCLLNDI@glSpecializeShader@ DB 'glSpecializeShader', 00H ; `string'
CONST	ENDS
;	COMDAT ??_C@_0BB@MNKDFGFC@glTextureBarrier@
CONST	SEGMENT
??_C@_0BB@MNKDFGFC@glTextureBarrier@ DB 'glTextureBarrier', 00H ; `string'
CONST	ENDS
;	COMDAT ??_C@_0N@EFFKFJMK@glGetnMinmax@
CONST	SEGMENT
??_C@_0N@EFFKFJMK@glGetnMinmax@ DB 'glGetnMinmax', 00H	; `string'
CONST	ENDS
;	COMDAT ??_C@_0BA@POEMGEO@glGetnHistogram@
CONST	SEGMENT
??_C@_0BA@POEMGEO@glGetnHistogram@ DB 'glGetnHistogram', 00H ; `string'
CONST	ENDS
;	COMDAT ??_C@_0BG@LBKKJBFC@glGetnSeparableFilter@
CONST	SEGMENT
??_C@_0BG@LBKKJBFC@glGetnSeparableFilter@ DB 'glGetnSeparableFilter', 00H ; `string'
CONST	ENDS
;	COMDAT ??_C@_0BI@GBFNHONB@glGetnConvolutionFilter@
CONST	SEGMENT
??_C@_0BI@GBFNHONB@glGetnConvolutionFilter@ DB 'glGetnConvolutionFilter', 00H ; `string'
CONST	ENDS
;	COMDAT ??_C@_0BB@EFKGOAOL@glGetnColorTable@
CONST	SEGMENT
??_C@_0BB@EFKGOAOL@glGetnColorTable@ DB 'glGetnColorTable', 00H ; `string'
CONST	ENDS
;	COMDAT ??_C@_0BF@NBHIHHJA@glGetnPolygonStipple@
CONST	SEGMENT
??_C@_0BF@NBHIHHJA@glGetnPolygonStipple@ DB 'glGetnPolygonStipple', 00H ; `string'
CONST	ENDS
;	COMDAT ??_C@_0BC@NCENOEBC@glGetnPixelMapusv@
CONST	SEGMENT
??_C@_0BC@NCENOEBC@glGetnPixelMapusv@ DB 'glGetnPixelMapusv', 00H ; `string'
CONST	ENDS
;	COMDAT ??_C@_0BC@MDPMMCLE@glGetnPixelMapuiv@
CONST	SEGMENT
??_C@_0BC@MDPMMCLE@glGetnPixelMapuiv@ DB 'glGetnPixelMapuiv', 00H ; `string'
CONST	ENDS
;	COMDAT ??_C@_0BB@JKBANCED@glGetnPixelMapfv@
CONST	SEGMENT
??_C@_0BB@JKBANCED@glGetnPixelMapfv@ DB 'glGetnPixelMapfv', 00H ; `string'
CONST	ENDS
;	COMDAT ??_C@_0M@FJOHABAE@glGetnMapiv@
CONST	SEGMENT
??_C@_0M@FJOHABAE@glGetnMapiv@ DB 'glGetnMapiv', 00H	; `string'
CONST	ENDS
;	COMDAT ??_C@_0M@FCLLEGDJ@glGetnMapfv@
CONST	SEGMENT
??_C@_0M@FCLLEGDJ@glGetnMapfv@ DB 'glGetnMapfv', 00H	; `string'
CONST	ENDS
;	COMDAT ??_C@_0M@FBDPJCFH@glGetnMapdv@
CONST	SEGMENT
??_C@_0M@FBDPJCFH@glGetnMapdv@ DB 'glGetnMapdv', 00H	; `string'
CONST	ENDS
;	COMDAT ??_C@_0O@NELODAJJ@glReadnPixels@
CONST	SEGMENT
??_C@_0O@NELODAJJ@glReadnPixels@ DB 'glReadnPixels', 00H ; `string'
CONST	ENDS
;	COMDAT ??_C@_0BB@BBJMBEC@glGetnUniformuiv@
CONST	SEGMENT
??_C@_0BB@BBJMBEC@glGetnUniformuiv@ DB 'glGetnUniformuiv', 00H ; `string'
CONST	ENDS
;	COMDAT ??_C@_0BA@KDLAMEMC@glGetnUniformiv@
CONST	SEGMENT
??_C@_0BA@KDLAMEMC@glGetnUniformiv@ DB 'glGetnUniformiv', 00H ; `string'
CONST	ENDS
;	COMDAT ??_C@_0BA@KIOMIDPP@glGetnUniformfv@
CONST	SEGMENT
??_C@_0BA@KIOMIDPP@glGetnUniformfv@ DB 'glGetnUniformfv', 00H ; `string'
CONST	ENDS
;	COMDAT ??_C@_0BA@KLGIFHJB@glGetnUniformdv@
CONST	SEGMENT
??_C@_0BA@KLGIFHJB@glGetnUniformdv@ DB 'glGetnUniformdv', 00H ; `string'
CONST	ENDS
;	COMDAT ??_C@_0P@FBKOCLCM@glGetnTexImage@
CONST	SEGMENT
??_C@_0P@FBKOCLCM@glGetnTexImage@ DB 'glGetnTexImage', 00H ; `string'
CONST	ENDS
;	COMDAT ??_C@_0BJ@HLNIHAOG@glGetnCompressedTexImage@
CONST	SEGMENT
??_C@_0BJ@HLNIHAOG@glGetnCompressedTexImage@ DB 'glGetnCompressedTexImage'
	DB	00H						; `string'
CONST	ENDS
;	COMDAT ??_C@_0BJ@ILPAOCDN@glGetGraphicsResetStatus@
CONST	SEGMENT
??_C@_0BJ@ILPAOCDN@glGetGraphicsResetStatus@ DB 'glGetGraphicsResetStatus'
	DB	00H						; `string'
CONST	ENDS
;	COMDAT ??_C@_0BP@BIDENANP@glGetCompressedTextureSubImage@
CONST	SEGMENT
??_C@_0BP@BIDENANP@glGetCompressedTextureSubImage@ DB 'glGetCompressedTex'
	DB	'tureSubImage', 00H				; `string'
CONST	ENDS
;	COMDAT ??_C@_0BF@JEEEKNGB@glGetTextureSubImage@
CONST	SEGMENT
??_C@_0BF@JEEEKNGB@glGetTextureSubImage@ DB 'glGetTextureSubImage', 00H ; `string'
CONST	ENDS
;	COMDAT ??_C@_0BI@IDCHHHAI@glMemoryBarrierByRegion@
CONST	SEGMENT
??_C@_0BI@IDCHHHAI@glMemoryBarrierByRegion@ DB 'glMemoryBarrierByRegion', 00H ; `string'
CONST	ENDS
;	COMDAT ??_C@_0BK@EOIEAGAD@glGetQueryBufferObjectuiv@
CONST	SEGMENT
??_C@_0BK@EOIEAGAD@glGetQueryBufferObjectuiv@ DB 'glGetQueryBufferObjectu'
	DB	'iv', 00H					; `string'
CONST	ENDS
;	COMDAT ??_C@_0BM@DFNHDHD@glGetQueryBufferObjectui64v@
CONST	SEGMENT
??_C@_0BM@DFNHDHD@glGetQueryBufferObjectui64v@ DB 'glGetQueryBufferObject'
	DB	'ui64v', 00H					; `string'
CONST	ENDS
;	COMDAT ??_C@_0BJ@OBIFNHGB@glGetQueryBufferObjectiv@
CONST	SEGMENT
??_C@_0BJ@OBIFNHGB@glGetQueryBufferObjectiv@ DB 'glGetQueryBufferObjectiv'
	DB	00H						; `string'
CONST	ENDS
;	COMDAT ??_C@_0BL@KFECDHBF@glGetQueryBufferObjecti64v@
CONST	SEGMENT
??_C@_0BL@KFECDHBF@glGetQueryBufferObjecti64v@ DB 'glGetQueryBufferObject'
	DB	'i64v', 00H					; `string'
CONST	ENDS
;	COMDAT ??_C@_0BA@PGNDPLG@glCreateQueries@
CONST	SEGMENT
??_C@_0BA@PGNDPLG@glCreateQueries@ DB 'glCreateQueries', 00H ; `string'
CONST	ENDS
;	COMDAT ??_C@_0BJ@GJEEIMGK@glCreateProgramPipelines@
CONST	SEGMENT
??_C@_0BJ@GJEEIMGK@glCreateProgramPipelines@ DB 'glCreateProgramPipelines'
	DB	00H						; `string'
CONST	ENDS
;	COMDAT ??_C@_0BB@EHBNEMMP@glCreateSamplers@
CONST	SEGMENT
??_C@_0BB@EHBNEMMP@glCreateSamplers@ DB 'glCreateSamplers', 00H ; `string'
CONST	ENDS
;	COMDAT ??_C@_0BM@HHNNHCN@glGetVertexArrayIndexed64iv@
CONST	SEGMENT
??_C@_0BM@HHNNHCN@glGetVertexArrayIndexed64iv@ DB 'glGetVertexArrayIndexe'
	DB	'd64iv', 00H					; `string'
CONST	ENDS
;	COMDAT ??_C@_0BK@FIIPMDBK@glGetVertexArrayIndexediv@
CONST	SEGMENT
??_C@_0BK@FIIPMDBK@glGetVertexArrayIndexediv@ DB 'glGetVertexArrayIndexed'
	DB	'iv', 00H					; `string'
CONST	ENDS
;	COMDAT ??_C@_0BD@CPJNCJFG@glGetVertexArrayiv@
CONST	SEGMENT
??_C@_0BD@CPJNCJFG@glGetVertexArrayiv@ DB 'glGetVertexArrayiv', 00H ; `string'
CONST	ENDS
;	COMDAT ??_C@_0BM@BNDNIOBB@glVertexArrayBindingDivisor@
CONST	SEGMENT
??_C@_0BM@BNDNIOBB@glVertexArrayBindingDivisor@ DB 'glVertexArrayBindingD'
	DB	'ivisor', 00H				; `string'
CONST	ENDS
;	COMDAT ??_C@_0BL@NECLHPFJ@glVertexArrayAttribLFormat@
CONST	SEGMENT
??_C@_0BL@NECLHPFJ@glVertexArrayAttribLFormat@ DB 'glVertexArrayAttribLFo'
	DB	'rmat', 00H					; `string'
CONST	ENDS
;	COMDAT ??_C@_0BL@JMMLHBDN@glVertexArrayAttribIFormat@
CONST	SEGMENT
??_C@_0BL@JMMLHBDN@glVertexArrayAttribIFormat@ DB 'glVertexArrayAttribIFo'
	DB	'rmat', 00H					; `string'
CONST	ENDS
;	COMDAT ??_C@_0BK@ONFBAOHM@glVertexArrayAttribFormat@
CONST	SEGMENT
??_C@_0BK@ONFBAOHM@glVertexArrayAttribFormat@ DB 'glVertexArrayAttribForm'
	DB	'at', 00H					; `string'
CONST	ENDS
;	COMDAT ??_C@_0BL@DJHJAEGB@glVertexArrayAttribBinding@
CONST	SEGMENT
??_C@_0BL@DJHJAEGB@glVertexArrayAttribBinding@ DB 'glVertexArrayAttribBin'
	DB	'ding', 00H					; `string'
CONST	ENDS
;	COMDAT ??_C@_0BL@DAGELPBO@glVertexArrayVertexBuffers@
CONST	SEGMENT
??_C@_0BL@DAGELPBO@glVertexArrayVertexBuffers@ DB 'glVertexArrayVertexBuf'
	DB	'fers', 00H					; `string'
CONST	ENDS
;	COMDAT ??_C@_0BK@BIEMNHGJ@glVertexArrayVertexBuffer@
CONST	SEGMENT
??_C@_0BK@BIEMNHGJ@glVertexArrayVertexBuffer@ DB 'glVertexArrayVertexBuff'
	DB	'er', 00H					; `string'
CONST	ENDS
;	COMDAT ??_C@_0BL@GGCAPDMO@glVertexArrayElementBuffer@
CONST	SEGMENT
??_C@_0BL@GGCAPDMO@glVertexArrayElementBuffer@ DB 'glVertexArrayElementBu'
	DB	'ffer', 00H					; `string'
CONST	ENDS
;	COMDAT ??_C@_0BK@MJMKFCHC@glEnableVertexArrayAttrib@
CONST	SEGMENT
??_C@_0BK@MJMKFCHC@glEnableVertexArrayAttrib@ DB 'glEnableVertexArrayAttr'
	DB	'ib', 00H					; `string'
CONST	ENDS
;	COMDAT ??_C@_0BL@FEKBMKFD@glDisableVertexArrayAttrib@
CONST	SEGMENT
??_C@_0BL@FEKBMKFD@glDisableVertexArrayAttrib@ DB 'glDisableVertexArrayAt'
	DB	'trib', 00H					; `string'
CONST	ENDS
;	COMDAT ??_C@_0BF@CMMGIOCI@glCreateVertexArrays@
CONST	SEGMENT
??_C@_0BF@CMMGIOCI@glCreateVertexArrays@ DB 'glCreateVertexArrays', 00H ; `string'
CONST	ENDS
;	COMDAT ??_C@_0BI@NKGDDAKK@glGetTextureParameteriv@
CONST	SEGMENT
??_C@_0BI@NKGDDAKK@glGetTextureParameteriv@ DB 'glGetTextureParameteriv', 00H ; `string'
CONST	ENDS
;	COMDAT ??_C@_0BK@JPCGBAJJ@glGetTextureParameterIuiv@
CONST	SEGMENT
??_C@_0BK@JPCGBAJJ@glGetTextureParameterIuiv@ DB 'glGetTextureParameterIu'
	DB	'iv', 00H					; `string'
CONST	ENDS
;	COMDAT ??_C@_0BJ@PIPELMMF@glGetTextureParameterIiv@
CONST	SEGMENT
??_C@_0BJ@PIPELMMF@glGetTextureParameterIiv@ DB 'glGetTextureParameterIiv'
	DB	00H						; `string'
CONST	ENDS
;	COMDAT ??_C@_0BI@NBDPHHJH@glGetTextureParameterfv@
CONST	SEGMENT
??_C@_0BI@NBDPHHJH@glGetTextureParameterfv@ DB 'glGetTextureParameterfv', 00H ; `string'
CONST	ENDS
;	COMDAT ??_C@_0BN@MJIBNBP@glGetTextureLevelParameteriv@
CONST	SEGMENT
??_C@_0BN@MJIBNBP@glGetTextureLevelParameteriv@ DB 'glGetTextureLevelPara'
	DB	'meteriv', 00H				; `string'
CONST	ENDS
;	COMDAT ??_C@_0BN@HMEFKCC@glGetTextureLevelParameterfv@
CONST	SEGMENT
??_C@_0BN@HMEFKCC@glGetTextureLevelParameterfv@ DB 'glGetTextureLevelPara'
	DB	'meterfv', 00H				; `string'
CONST	ENDS
;	COMDAT ??_C@_0BM@JOKODHH@glGetCompressedTextureImage@
CONST	SEGMENT
??_C@_0BM@JOKODHH@glGetCompressedTextureImage@ DB 'glGetCompressedTexture'
	DB	'Image', 00H					; `string'
CONST	ENDS
;	COMDAT ??_C@_0BC@PJDCJNIH@glGetTextureImage@
CONST	SEGMENT
??_C@_0BC@PJDCJNIH@glGetTextureImage@ DB 'glGetTextureImage', 00H ; `string'
CONST	ENDS
;	COMDAT ??_C@_0BC@NKGMGGNI@glBindTextureUnit@
CONST	SEGMENT
??_C@_0BC@NKGMGGNI@glBindTextureUnit@ DB 'glBindTextureUnit', 00H ; `string'
CONST	ENDS
;	COMDAT ??_C@_0BI@JJPLGFEG@glGenerateTextureMipmap@
CONST	SEGMENT
??_C@_0BI@JJPLGFEG@glGenerateTextureMipmap@ DB 'glGenerateTextureMipmap', 00H ; `string'
CONST	ENDS
;	COMDAT ??_C@_0BF@OADAJKMJ@glTextureParameteriv@
CONST	SEGMENT
??_C@_0BF@OADAJKMJ@glTextureParameteriv@ DB 'glTextureParameteriv', 00H ; `string'
CONST	ENDS
;	COMDAT ??_C@_0BH@OHPFFIFI@glTextureParameterIuiv@
CONST	SEGMENT
??_C@_0BH@OHPFFIFI@glTextureParameterIuiv@ DB 'glTextureParameterIuiv', 00H ; `string'
CONST	ENDS
;	COMDAT ??_C@_0BG@CMHFNPIN@glTextureParameterIiv@
CONST	SEGMENT
??_C@_0BG@CMHFNPIN@glTextureParameterIiv@ DB 'glTextureParameterIiv', 00H ; `string'
CONST	ENDS
;	COMDAT ??_C@_0BE@FMBFADAD@glTextureParameteri@
CONST	SEGMENT
??_C@_0BE@FMBFADAD@glTextureParameteri@ DB 'glTextureParameteri', 00H ; `string'
CONST	ENDS
;	COMDAT ??_C@_0BF@OLGMNNPE@glTextureParameterfv@
CONST	SEGMENT
??_C@_0BF@OLGMNNPE@glTextureParameterfv@ DB 'glTextureParameterfv', 00H ; `string'
CONST	ENDS
;	COMDAT ??_C@_0BE@NLINBPMM@glTextureParameterf@
CONST	SEGMENT
??_C@_0BE@NLINBPMM@glTextureParameterf@ DB 'glTextureParameterf', 00H ; `string'
CONST	ENDS
;	COMDAT ??_C@_0BI@DCMOCKNA@glCopyTextureSubImage3D@
CONST	SEGMENT
??_C@_0BI@DCMOCKNA@glCopyTextureSubImage3D@ DB 'glCopyTextureSubImage3D', 00H ; `string'
CONST	ENDS
;	COMDAT ??_C@_0BI@DDAMEAOH@glCopyTextureSubImage2D@
CONST	SEGMENT
??_C@_0BI@DDAMEAOH@glCopyTextureSubImage2D@ DB 'glCopyTextureSubImage2D', 00H ; `string'
CONST	ENDS
;	COMDAT ??_C@_0BI@DBEKPOLO@glCopyTextureSubImage1D@
CONST	SEGMENT
??_C@_0BI@DBEKPOLO@glCopyTextureSubImage1D@ DB 'glCopyTextureSubImage1D', 00H ; `string'
CONST	ENDS
;	COMDAT ??_C@_0BO@NLPEFDDM@glCompressedTextureSubImage3D@
CONST	SEGMENT
??_C@_0BO@NLPEFDDM@glCompressedTextureSubImage3D@ DB 'glCompressedTexture'
	DB	'SubImage3D', 00H				; `string'
CONST	ENDS
;	COMDAT ??_C@_0BO@NKDGDJAL@glCompressedTextureSubImage2D@
CONST	SEGMENT
??_C@_0BO@NKDGDJAL@glCompressedTextureSubImage2D@ DB 'glCompressedTexture'
	DB	'SubImage2D', 00H				; `string'
CONST	ENDS
;	COMDAT ??_C@_0BO@NIHAIHFC@glCompressedTextureSubImage1D@
CONST	SEGMENT
??_C@_0BO@NIHAIHFC@glCompressedTextureSubImage1D@ DB 'glCompressedTexture'
	DB	'SubImage1D', 00H				; `string'
CONST	ENDS
;	COMDAT ??_C@_0BE@IAECGNFO@glTextureSubImage3D@
CONST	SEGMENT
??_C@_0BE@IAECGNFO@glTextureSubImage3D@ DB 'glTextureSubImage3D', 00H ; `string'
CONST	ENDS
;	COMDAT ??_C@_0BE@IBIAAHGJ@glTextureSubImage2D@
CONST	SEGMENT
??_C@_0BE@IBIAAHGJ@glTextureSubImage2D@ DB 'glTextureSubImage2D', 00H ; `string'
CONST	ENDS
;	COMDAT ??_C@_0BE@IDMGLJDA@glTextureSubImage1D@
CONST	SEGMENT
??_C@_0BE@IDMGLJDA@glTextureSubImage1D@ DB 'glTextureSubImage1D', 00H ; `string'
CONST	ENDS
;	COMDAT ??_C@_0BO@LFHOCIJO@glTextureStorage3DMultisample@
CONST	SEGMENT
??_C@_0BO@LFHOCIJO@glTextureStorage3DMultisample@ DB 'glTextureStorage3DM'
	DB	'ultisample', 00H				; `string'
CONST	ENDS
;	COMDAT ??_C@_0BO@CIHBMJOI@glTextureStorage2DMultisample@
CONST	SEGMENT
??_C@_0BO@CIHBMJOI@glTextureStorage2DMultisample@ DB 'glTextureStorage2DM'
	DB	'ultisample', 00H				; `string'
CONST	ENDS
;	COMDAT ??_C@_0BD@CKGFKAEF@glTextureStorage3D@
CONST	SEGMENT
??_C@_0BD@CKGFKAEF@glTextureStorage3D@ DB 'glTextureStorage3D', 00H ; `string'
CONST	ENDS
;	COMDAT ??_C@_0BD@CLKHMKHC@glTextureStorage2D@
CONST	SEGMENT
??_C@_0BD@CLKHMKHC@glTextureStorage2D@ DB 'glTextureStorage2D', 00H ; `string'
CONST	ENDS
;	COMDAT ??_C@_0BD@CJOBHECL@glTextureStorage1D@
CONST	SEGMENT
??_C@_0BD@CJOBHECL@glTextureStorage1D@ DB 'glTextureStorage1D', 00H ; `string'
CONST	ENDS
;	COMDAT ??_C@_0BF@HAEPGPBJ@glTextureBufferRange@
CONST	SEGMENT
??_C@_0BF@HAEPGPBJ@glTextureBufferRange@ DB 'glTextureBufferRange', 00H ; `string'
CONST	ENDS
;	COMDAT ??_C@_0BA@BEJOBNBA@glTextureBuffer@
CONST	SEGMENT
??_C@_0BA@BEJOBNBA@glTextureBuffer@ DB 'glTextureBuffer', 00H ; `string'
CONST	ENDS
;	COMDAT ??_C@_0BB@LABGPBKD@glCreateTextures@
CONST	SEGMENT
??_C@_0BB@LABGPBKD@glCreateTextures@ DB 'glCreateTextures', 00H ; `string'
CONST	ENDS
;	COMDAT ??_C@_0CC@FCEAEAHI@glGetNamedRenderbufferParameter@
CONST	SEGMENT
??_C@_0CC@FCEAEAHI@glGetNamedRenderbufferParameter@ DB 'glGetNamedRenderb'
	DB	'ufferParameteriv', 00H			; `string'
CONST	ENDS
;	COMDAT ??_C@_0CG@IDKJGKBA@glNamedRenderbufferStorageMulti@
CONST	SEGMENT
??_C@_0CG@IDKJGKBA@glNamedRenderbufferStorageMulti@ DB 'glNamedRenderbuff'
	DB	'erStorageMultisample', 00H			; `string'
CONST	ENDS
;	COMDAT ??_C@_0BL@DGDPFKGM@glNamedRenderbufferStorage@
CONST	SEGMENT
??_C@_0BL@DGDPFKGM@glNamedRenderbufferStorage@ DB 'glNamedRenderbufferSto'
	DB	'rage', 00H					; `string'
CONST	ENDS
;	COMDAT ??_C@_0BG@JJNJGAME@glCreateRenderbuffers@
CONST	SEGMENT
??_C@_0BG@JJNJGAME@glCreateRenderbuffers@ DB 'glCreateRenderbuffers', 00H ; `string'
CONST	ENDS
;	COMDAT ??_C@_0CL@BGDPEPCC@glGetNamedFramebufferAttachment@
CONST	SEGMENT
??_C@_0CL@BGDPEPCC@glGetNamedFramebufferAttachment@ DB 'glGetNamedFramebu'
	DB	'fferAttachmentParameteriv', 00H		; `string'
CONST	ENDS
;	COMDAT ??_C@_0CB@COGAJBEM@glGetNamedFramebufferParameteri@
CONST	SEGMENT
??_C@_0CB@COGAJBEM@glGetNamedFramebufferParameteri@ DB 'glGetNamedFramebu'
	DB	'fferParameteriv', 00H			; `string'
CONST	ENDS
;	COMDAT ??_C@_0BO@LMABFPGK@glCheckNamedFramebufferStatus@
CONST	SEGMENT
??_C@_0BO@LMABFPGK@glCheckNamedFramebufferStatus@ DB 'glCheckNamedFramebu'
	DB	'fferStatus', 00H				; `string'
CONST	ENDS
;	COMDAT ??_C@_0BH@FNFDNHAI@glBlitNamedFramebuffer@
CONST	SEGMENT
??_C@_0BH@FNFDNHAI@glBlitNamedFramebuffer@ DB 'glBlitNamedFramebuffer', 00H ; `string'
CONST	ENDS
;	COMDAT ??_C@_0BK@BJONNAKJ@glClearNamedFramebufferfi@
CONST	SEGMENT
??_C@_0BK@BJONNAKJ@glClearNamedFramebufferfi@ DB 'glClearNamedFramebuffer'
	DB	'fi', 00H					; `string'
CONST	ENDS
;	COMDAT ??_C@_0BK@NELHNODH@glClearNamedFramebufferfv@
CONST	SEGMENT
??_C@_0BK@NELHNODH@glClearNamedFramebufferfv@ DB 'glClearNamedFramebuffer'
	DB	'fv', 00H					; `string'
CONST	ENDS
;	COMDAT ??_C@_0BL@JENKNAJN@glClearNamedFramebufferuiv@
CONST	SEGMENT
??_C@_0BL@JENKNAJN@glClearNamedFramebufferuiv@ DB 'glClearNamedFramebuffe'
	DB	'ruiv', 00H					; `string'
CONST	ENDS
;	COMDAT ??_C@_0BK@NPOLJJAK@glClearNamedFramebufferiv@
CONST	SEGMENT
??_C@_0BK@NPOLJJAK@glClearNamedFramebufferiv@ DB 'glClearNamedFramebuffer'
	DB	'iv', 00H					; `string'
CONST	ENDS
;	COMDAT ??_C@_0CE@DEGDCFND@glInvalidateNamedFramebufferSub@
CONST	SEGMENT
??_C@_0CE@DEGDCFND@glInvalidateNamedFramebufferSub@ DB 'glInvalidateNamed'
	DB	'FramebufferSubData', 00H			; `string'
CONST	ENDS
;	COMDAT ??_C@_0CB@OGGNKJIL@glInvalidateNamedFramebufferDat@
CONST	SEGMENT
??_C@_0CB@OGGNKJIL@glInvalidateNamedFramebufferDat@ DB 'glInvalidateNamed'
	DB	'FramebufferData', 00H			; `string'
CONST	ENDS
;	COMDAT ??_C@_0BN@LPANNPJE@glNamedFramebufferReadBuffer@
CONST	SEGMENT
??_C@_0BN@LPANNPJE@glNamedFramebufferReadBuffer@ DB 'glNamedFramebufferRe'
	DB	'adBuffer', 00H				; `string'
CONST	ENDS
;	COMDAT ??_C@_0BO@CGKJHFH@glNamedFramebufferDrawBuffers@
CONST	SEGMENT
??_C@_0BO@CGKJHFH@glNamedFramebufferDrawBuffers@ DB 'glNamedFramebufferDr'
	DB	'awBuffers', 00H				; `string'
CONST	ENDS
;	COMDAT ??_C@_0BN@MOAIHNEF@glNamedFramebufferDrawBuffer@
CONST	SEGMENT
??_C@_0BN@MOAIHNEF@glNamedFramebufferDrawBuffer@ DB 'glNamedFramebufferDr'
	DB	'awBuffer', 00H				; `string'
CONST	ENDS
;	COMDAT ??_C@_0BP@PHGPDAJM@glNamedFramebufferTextureLayer@
CONST	SEGMENT
??_C@_0BP@PHGPDAJM@glNamedFramebufferTextureLayer@ DB 'glNamedFramebuffer'
	DB	'TextureLayer', 00H				; `string'
CONST	ENDS
;	COMDAT ??_C@_0BK@PNJJLPPI@glNamedFramebufferTexture@
CONST	SEGMENT
??_C@_0BK@PNJJLPPI@glNamedFramebufferTexture@ DB 'glNamedFramebufferTextu'
	DB	're', 00H					; `string'
CONST	ENDS
;	COMDAT ??_C@_0BN@LBMOOIHC@glNamedFramebufferParameteri@
CONST	SEGMENT
??_C@_0BN@LBMOOIHC@glNamedFramebufferParameteri@ DB 'glNamedFramebufferPa'
	DB	'rameteri', 00H				; `string'
CONST	ENDS
;	COMDAT ??_C@_0BP@MGCPNBGC@glNamedFramebufferRenderbuffer@
CONST	SEGMENT
??_C@_0BP@MGCPNBGC@glNamedFramebufferRenderbuffer@ DB 'glNamedFramebuffer'
	DB	'Renderbuffer', 00H				; `string'
CONST	ENDS
;	COMDAT ??_C@_0BF@DDKJIBLC@glCreateFramebuffers@
CONST	SEGMENT
??_C@_0BF@DDKJIBLC@glCreateFramebuffers@ DB 'glCreateFramebuffers', 00H ; `string'
CONST	ENDS
;	COMDAT ??_C@_0BI@PJBCKPNA@glGetNamedBufferSubData@
CONST	SEGMENT
??_C@_0BI@PJBCKPNA@glGetNamedBufferSubData@ DB 'glGetNamedBufferSubData', 00H ; `string'
CONST	ENDS
;	COMDAT ??_C@_0BJ@NBEMEIKG@glGetNamedBufferPointerv@
CONST	SEGMENT
??_C@_0BJ@NBEMEIKG@glGetNamedBufferPointerv@ DB 'glGetNamedBufferPointerv'
	DB	00H						; `string'
CONST	ENDS
;	COMDAT ??_C@_0BO@ECJNIDNL@glGetNamedBufferParameteri64v@
CONST	SEGMENT
??_C@_0BO@ECJNIDNL@glGetNamedBufferParameteri64v@ DB 'glGetNamedBufferPar'
	DB	'ameteri64v', 00H				; `string'
CONST	ENDS
;	COMDAT ??_C@_0BM@KFAGBFPK@glGetNamedBufferParameteriv@
CONST	SEGMENT
??_C@_0BM@KFAGBFPK@glGetNamedBufferParameteriv@ DB 'glGetNamedBufferParam'
	DB	'eteriv', 00H				; `string'
CONST	ENDS
;	COMDAT ??_C@_0BO@DBGNKBKH@glFlushMappedNamedBufferRange@
CONST	SEGMENT
??_C@_0BO@DBGNKBKH@glFlushMappedNamedBufferRange@ DB 'glFlushMappedNamedB'
	DB	'ufferRange', 00H				; `string'
CONST	ENDS
;	COMDAT ??_C@_0BD@LAAONAHD@glUnmapNamedBuffer@
CONST	SEGMENT
??_C@_0BD@LAAONAHD@glUnmapNamedBuffer@ DB 'glUnmapNamedBuffer', 00H ; `string'
CONST	ENDS
;	COMDAT ??_C@_0BG@JLCGKFD@glMapNamedBufferRange@
CONST	SEGMENT
??_C@_0BG@JLCGKFD@glMapNamedBufferRange@ DB 'glMapNamedBufferRange', 00H ; `string'
CONST	ENDS
;	COMDAT ??_C@_0BB@JLMCGIDB@glMapNamedBuffer@
CONST	SEGMENT
??_C@_0BB@JLMCGIDB@glMapNamedBuffer@ DB 'glMapNamedBuffer', 00H ; `string'
CONST	ENDS
;	COMDAT ??_C@_0BK@BNIDNJBH@glClearNamedBufferSubData@
CONST	SEGMENT
??_C@_0BK@BNIDNJBH@glClearNamedBufferSubData@ DB 'glClearNamedBufferSubDa'
	DB	'ta', 00H					; `string'
CONST	ENDS
;	COMDAT ??_C@_0BH@KJMLMCB@glClearNamedBufferData@
CONST	SEGMENT
??_C@_0BH@KJMLMCB@glClearNamedBufferData@ DB 'glClearNamedBufferData', 00H ; `string'
CONST	ENDS
;	COMDAT ??_C@_0BJ@MJPDCHND@glCopyNamedBufferSubData@
CONST	SEGMENT
??_C@_0BJ@MJPDCHND@glCopyNamedBufferSubData@ DB 'glCopyNamedBufferSubData'
	DB	00H						; `string'
CONST	ENDS
;	COMDAT ??_C@_0BF@MDEBAFLD@glNamedBufferSubData@
CONST	SEGMENT
??_C@_0BF@MDEBAFLD@glNamedBufferSubData@ DB 'glNamedBufferSubData', 00H ; `string'
CONST	ENDS
;	COMDAT ??_C@_0BC@LHEABGCG@glNamedBufferData@
CONST	SEGMENT
??_C@_0BC@LHEABGCG@glNamedBufferData@ DB 'glNamedBufferData', 00H ; `string'
CONST	ENDS
;	COMDAT ??_C@_0BF@INMFIINC@glNamedBufferStorage@
CONST	SEGMENT
??_C@_0BF@INMFIINC@glNamedBufferStorage@ DB 'glNamedBufferStorage', 00H ; `string'
CONST	ENDS
;	COMDAT ??_C@_0BA@LNBCEANP@glCreateBuffers@
CONST	SEGMENT
??_C@_0BA@LNBCEANP@glCreateBuffers@ DB 'glCreateBuffers', 00H ; `string'
CONST	ENDS
;	COMDAT ??_C@_0BM@KDHFPNLE@glGetTransformFeedbacki64_v@
CONST	SEGMENT
??_C@_0BM@KDHFPNLE@glGetTransformFeedbacki64_v@ DB 'glGetTransformFeedbac'
	DB	'ki64_v', 00H				; `string'
CONST	ENDS
;	COMDAT ??_C@_0BK@IPHNHFEI@glGetTransformFeedbacki_v@
CONST	SEGMENT
??_C@_0BK@IPHNHFEI@glGetTransformFeedbacki_v@ DB 'glGetTransformFeedbacki'
	DB	'_v', 00H					; `string'
CONST	ENDS
;	COMDAT ??_C@_0BJ@OFMLPMDO@glGetTransformFeedbackiv@
CONST	SEGMENT
??_C@_0BJ@OFMLPMDO@glGetTransformFeedbackiv@ DB 'glGetTransformFeedbackiv'
	DB	00H						; `string'
CONST	ENDS
;	COMDAT ??_C@_0BP@NBIGCNHI@glTransformFeedbackBufferRange@
CONST	SEGMENT
??_C@_0BP@NBIGCNHI@glTransformFeedbackBufferRange@ DB 'glTransformFeedbac'
	DB	'kBufferRange', 00H				; `string'
CONST	ENDS
;	COMDAT ??_C@_0BO@EGLKNJFA@glTransformFeedbackBufferBase@
CONST	SEGMENT
??_C@_0BO@EGLKNJFA@glTransformFeedbackBufferBase@ DB 'glTransformFeedback'
	DB	'BufferBase', 00H				; `string'
CONST	ENDS
;	COMDAT ??_C@_0BL@HPCMJLAK@glCreateTransformFeedbacks@
CONST	SEGMENT
??_C@_0BL@HPCMJLAK@glCreateTransformFeedbacks@ DB 'glCreateTransformFeedb'
	DB	'acks', 00H					; `string'
CONST	ENDS
;	COMDAT ??_C@_0O@DMMKFMGC@glClipControl@
CONST	SEGMENT
??_C@_0O@DMMKFMGC@glClipControl@ DB 'glClipControl', 00H ; `string'
CONST	ENDS
;	COMDAT ??_C@_0BE@LNCGJHDC@glBindVertexBuffers@
CONST	SEGMENT
??_C@_0BE@LNCGJHDC@glBindVertexBuffers@ DB 'glBindVertexBuffers', 00H ; `string'
CONST	ENDS
;	COMDAT ??_C@_0BE@NAMJLOCK@glBindImageTextures@
CONST	SEGMENT
??_C@_0BE@NAMJLOCK@glBindImageTextures@ DB 'glBindImageTextures', 00H ; `string'
CONST	ENDS
;	COMDAT ??_C@_0P@FADPDFKM@glBindSamplers@
CONST	SEGMENT
??_C@_0P@FADPDFKM@glBindSamplers@ DB 'glBindSamplers', 00H ; `string'
CONST	ENDS
;	COMDAT ??_C@_0P@KHDEIIMA@glBindTextures@
CONST	SEGMENT
??_C@_0P@KHDEIIMA@glBindTextures@ DB 'glBindTextures', 00H ; `string'
CONST	ENDS
;	COMDAT ??_C@_0BD@ODFFOKPN@glBindBuffersRange@
CONST	SEGMENT
??_C@_0BD@ODFFOKPN@glBindBuffersRange@ DB 'glBindBuffersRange', 00H ; `string'
CONST	ENDS
;	COMDAT ??_C@_0BC@ENBBLPHM@glBindBuffersBase@
CONST	SEGMENT
??_C@_0BC@ENBBLPHM@glBindBuffersBase@ DB 'glBindBuffersBase', 00H ; `string'
CONST	ENDS
;	COMDAT ??_C@_0BD@CFALBON@glClearTexSubImage@
CONST	SEGMENT
??_C@_0BD@CFALBON@glClearTexSubImage@ DB 'glClearTexSubImage', 00H ; `string'
CONST	ENDS
;	COMDAT ??_C@_0BA@FNPOIBAF@glClearTexImage@
CONST	SEGMENT
??_C@_0BA@FNPOIBAF@glClearTexImage@ DB 'glClearTexImage', 00H ; `string'
CONST	ENDS
;	COMDAT ??_C@_0BA@COBILMHM@glBufferStorage@
CONST	SEGMENT
??_C@_0BA@COBILMHM@glBufferStorage@ DB 'glBufferStorage', 00H ; `string'
CONST	ENDS
;	COMDAT ??_C@_0O@LADEDGJO@glGetPointerv@
CONST	SEGMENT
??_C@_0O@LADEDGJO@glGetPointerv@ DB 'glGetPointerv', 00H ; `string'
CONST	ENDS
;	COMDAT ??_C@_0BE@MIJFJOHM@glGetObjectPtrLabel@
CONST	SEGMENT
??_C@_0BE@MIJFJOHM@glGetObjectPtrLabel@ DB 'glGetObjectPtrLabel', 00H ; `string'
CONST	ENDS
;	COMDAT ??_C@_0BB@FBABGDIL@glObjectPtrLabel@
CONST	SEGMENT
??_C@_0BB@FBABGDIL@glObjectPtrLabel@ DB 'glObjectPtrLabel', 00H ; `string'
CONST	ENDS
;	COMDAT ??_C@_0BB@MOEDHKDB@glGetObjectLabel@
CONST	SEGMENT
??_C@_0BB@MOEDHKDB@glGetObjectLabel@ DB 'glGetObjectLabel', 00H ; `string'
CONST	ENDS
;	COMDAT ??_C@_0O@EFJDECDM@glObjectLabel@
CONST	SEGMENT
??_C@_0O@EFJDECDM@glObjectLabel@ DB 'glObjectLabel', 00H ; `string'
CONST	ENDS
;	COMDAT ??_C@_0BA@PMJBDENK@glPopDebugGroup@
CONST	SEGMENT
??_C@_0BA@PMJBDENK@glPopDebugGroup@ DB 'glPopDebugGroup', 00H ; `string'
CONST	ENDS
;	COMDAT ??_C@_0BB@DEFFBEGJ@glPushDebugGroup@
CONST	SEGMENT
??_C@_0BB@DEFFBEGJ@glPushDebugGroup@ DB 'glPushDebugGroup', 00H ; `string'
CONST	ENDS
;	COMDAT ??_C@_0BF@FGBMJKND@glGetDebugMessageLog@
CONST	SEGMENT
??_C@_0BF@FGBMJKND@glGetDebugMessageLog@ DB 'glGetDebugMessageLog', 00H ; `string'
CONST	ENDS
;	COMDAT ??_C@_0BH@IGFENJCI@glDebugMessageCallback@
CONST	SEGMENT
??_C@_0BH@IGFENJCI@glDebugMessageCallback@ DB 'glDebugMessageCallback', 00H ; `string'
CONST	ENDS
;	COMDAT ??_C@_0BF@DGOJNFDO@glDebugMessageInsert@
CONST	SEGMENT
??_C@_0BF@DGOJNFDO@glDebugMessageInsert@ DB 'glDebugMessageInsert', 00H ; `string'
CONST	ENDS
;	COMDAT ??_C@_0BG@MNBDCEEP@glDebugMessageControl@
CONST	SEGMENT
??_C@_0BG@MNBDCEEP@glDebugMessageControl@ DB 'glDebugMessageControl', 00H ; `string'
CONST	ENDS
;	COMDAT ??_C@_0BH@GNGCLGOI@glVertexBindingDivisor@
CONST	SEGMENT
??_C@_0BH@GNGCLGOI@glVertexBindingDivisor@ DB 'glVertexBindingDivisor', 00H ; `string'
CONST	ENDS
;	COMDAT ??_C@_0BG@MLFHCGE@glVertexAttribBinding@
CONST	SEGMENT
??_C@_0BG@MLFHCGE@glVertexAttribBinding@ DB 'glVertexAttribBinding', 00H ; `string'
CONST	ENDS
;	COMDAT ??_C@_0BG@OBOHAJFM@glVertexAttribLFormat@
CONST	SEGMENT
??_C@_0BG@OBOHAJFM@glVertexAttribLFormat@ DB 'glVertexAttribLFormat', 00H ; `string'
CONST	ENDS
;	COMDAT ??_C@_0BG@KJAHAHDI@glVertexAttribIFormat@
CONST	SEGMENT
??_C@_0BG@KJAHAHDI@glVertexAttribIFormat@ DB 'glVertexAttribIFormat', 00H ; `string'
CONST	ENDS
;	COMDAT ??_C@_0BF@JEIPPBFE@glVertexAttribFormat@
CONST	SEGMENT
??_C@_0BF@JEIPPBFE@glVertexAttribFormat@ DB 'glVertexAttribFormat', 00H ; `string'
CONST	ENDS
;	COMDAT ??_C@_0BD@FCGJAOHG@glBindVertexBuffer@
CONST	SEGMENT
??_C@_0BD@FCGJAOHG@glBindVertexBuffer@ DB 'glBindVertexBuffer', 00H ; `string'
CONST	ENDS
;	COMDAT ??_C@_0O@BNFDGIMP@glTextureView@
CONST	SEGMENT
??_C@_0O@BNFDGIMP@glTextureView@ DB 'glTextureView', 00H ; `string'
CONST	ENDS
;	COMDAT ??_C@_0BK@GOJPECNJ@glTexStorage3DMultisample@
CONST	SEGMENT
??_C@_0BK@GOJPECNJ@glTexStorage3DMultisample@ DB 'glTexStorage3DMultisamp'
	DB	'le', 00H					; `string'
CONST	ENDS
;	COMDAT ??_C@_0BK@PDJAKDKP@glTexStorage2DMultisample@
CONST	SEGMENT
??_C@_0BK@PDJAKDKP@glTexStorage2DMultisample@ DB 'glTexStorage2DMultisamp'
	DB	'le', 00H					; `string'
CONST	ENDS
;	COMDAT ??_C@_0BB@DPMGLFNI@glTexBufferRange@
CONST	SEGMENT
??_C@_0BB@DPMGLFNI@glTexBufferRange@ DB 'glTexBufferRange', 00H ; `string'
CONST	ENDS
;	COMDAT ??_C@_0BM@GDDCNIBO@glShaderStorageBlockBinding@
CONST	SEGMENT
??_C@_0BM@GDDCNIBO@glShaderStorageBlockBinding@ DB 'glShaderStorageBlockB'
	DB	'inding', 00H				; `string'
CONST	ENDS
;	COMDAT ??_C@_0CC@GHECGAIH@glGetProgramResourceLocationInd@
CONST	SEGMENT
??_C@_0CC@GHECGAIH@glGetProgramResourceLocationInd@ DB 'glGetProgramResou'
	DB	'rceLocationIndex', 00H			; `string'
CONST	ENDS
;	COMDAT ??_C@_0BN@BIJNENLC@glGetProgramResourceLocation@
CONST	SEGMENT
??_C@_0BN@BIJNENLC@glGetProgramResourceLocation@ DB 'glGetProgramResource'
	DB	'Location', 00H				; `string'
CONST	ENDS
;	COMDAT ??_C@_0BH@LEDFEPHI@glGetProgramResourceiv@
CONST	SEGMENT
??_C@_0BH@LEDFEPHI@glGetProgramResourceiv@ DB 'glGetProgramResourceiv', 00H ; `string'
CONST	ENDS
;	COMDAT ??_C@_0BJ@OHCPEAGJ@glGetProgramResourceName@
CONST	SEGMENT
??_C@_0BJ@OHCPEAGJ@glGetProgramResourceName@ DB 'glGetProgramResourceName'
	DB	00H						; `string'
CONST	ENDS
;	COMDAT ??_C@_0BK@DBDCONKB@glGetProgramResourceIndex@
CONST	SEGMENT
??_C@_0BK@DBDCONKB@glGetProgramResourceIndex@ DB 'glGetProgramResourceInd'
	DB	'ex', 00H					; `string'
CONST	ENDS
;	COMDAT ??_C@_0BI@ICGPDPK@glGetProgramInterfaceiv@
CONST	SEGMENT
??_C@_0BI@ICGPDPK@glGetProgramInterfaceiv@ DB 'glGetProgramInterfaceiv', 00H ; `string'
CONST	ENDS
;	COMDAT ??_C@_0BM@KHEEFMKO@glMultiDrawElementsIndirect@
CONST	SEGMENT
??_C@_0BM@KHEEFMKO@glMultiDrawElementsIndirect@ DB 'glMultiDrawElementsIn'
	DB	'direct', 00H				; `string'
CONST	ENDS
;	COMDAT ??_C@_0BK@IKGAIKOP@glMultiDrawArraysIndirect@
CONST	SEGMENT
??_C@_0BK@IKGAIKOP@glMultiDrawArraysIndirect@ DB 'glMultiDrawArraysIndire'
	DB	'ct', 00H					; `string'
CONST	ENDS
;	COMDAT ??_C@_0BL@IHGLAPPE@glInvalidateSubFramebuffer@
CONST	SEGMENT
??_C@_0BL@IHGLAPPE@glInvalidateSubFramebuffer@ DB 'glInvalidateSubFramebu'
	DB	'ffer', 00H					; `string'
CONST	ENDS
;	COMDAT ??_C@_0BI@OAJPOHIP@glInvalidateFramebuffer@
CONST	SEGMENT
??_C@_0BI@OAJPOHIP@glInvalidateFramebuffer@ DB 'glInvalidateFramebuffer', 00H ; `string'
CONST	ENDS
;	COMDAT ??_C@_0BH@OGIFIBHA@glInvalidateBufferData@
CONST	SEGMENT
??_C@_0BH@OGIFIBHA@glInvalidateBufferData@ DB 'glInvalidateBufferData', 00H ; `string'
CONST	ENDS
;	COMDAT ??_C@_0BK@HOHOHNAC@glInvalidateBufferSubData@
CONST	SEGMENT
??_C@_0BK@HOHOHNAC@glInvalidateBufferSubData@ DB 'glInvalidateBufferSubDa'
	DB	'ta', 00H					; `string'
CONST	ENDS
;	COMDAT ??_C@_0BF@KHIECPKG@glInvalidateTexImage@
CONST	SEGMENT
??_C@_0BF@KHIECPKG@glInvalidateTexImage@ DB 'glInvalidateTexImage', 00H ; `string'
CONST	ENDS
;	COMDAT ??_C@_0BI@FJDKFLGL@glInvalidateTexSubImage@
CONST	SEGMENT
??_C@_0BI@FJDKFLGL@glInvalidateTexSubImage@ DB 'glInvalidateTexSubImage', 00H ; `string'
CONST	ENDS
;	COMDAT ??_C@_0BI@PHNNEGBD@glGetInternalformati64v@
CONST	SEGMENT
??_C@_0BI@PHNNEGBD@glGetInternalformati64v@ DB 'glGetInternalformati64v', 00H ; `string'
CONST	ENDS
;	COMDAT ??_C@_0BM@BFEEFCMK@glGetFramebufferParameteriv@
CONST	SEGMENT
??_C@_0BM@BFEEFCMK@glGetFramebufferParameteriv@ DB 'glGetFramebufferParam'
	DB	'eteriv', 00H				; `string'
CONST	ENDS
;	COMDAT ??_C@_0BI@MLACHGDK@glFramebufferParameteri@
CONST	SEGMENT
??_C@_0BI@MLACHGDK@glFramebufferParameteri@ DB 'glFramebufferParameteri', 00H ; `string'
CONST	ENDS
;	COMDAT ??_C@_0BD@BNCHOBBL@glCopyImageSubData@
CONST	SEGMENT
??_C@_0BD@BNCHOBBL@glCopyImageSubData@ DB 'glCopyImageSubData', 00H ; `string'
CONST	ENDS
;	COMDAT ??_C@_0BK@EJMOGMMI@glDispatchComputeIndirect@
CONST	SEGMENT
??_C@_0BK@EJMOGMMI@glDispatchComputeIndirect@ DB 'glDispatchComputeIndire'
	DB	'ct', 00H					; `string'
CONST	ENDS
;	COMDAT ??_C@_0BC@DKKFFIGC@glDispatchCompute@
CONST	SEGMENT
??_C@_0BC@DKKFFIGC@glDispatchCompute@ DB 'glDispatchCompute', 00H ; `string'
CONST	ENDS
;	COMDAT ??_C@_0BF@FDHIBCMD@glClearBufferSubData@
CONST	SEGMENT
??_C@_0BF@FDHIBCMD@glClearBufferSubData@ DB 'glClearBufferSubData', 00H ; `string'
CONST	ENDS
;	COMDAT ??_C@_0BC@FCMBBKMP@glClearBufferData@
CONST	SEGMENT
??_C@_0BC@FCMBBKMP@glClearBufferData@ DB 'glClearBufferData', 00H ; `string'
CONST	ENDS
;	COMDAT ??_C@_0CH@OMPFKBLK@glDrawTransformFeedbackStreamIn@
CONST	SEGMENT
??_C@_0CH@OMPFKBLK@glDrawTransformFeedbackStreamIn@ DB 'glDrawTransformFe'
	DB	'edbackStreamInstanced', 00H			; `string'
CONST	ENDS
;	COMDAT ??_C@_0CB@NDMLCEF@glDrawTransformFeedbackInstance@
CONST	SEGMENT
??_C@_0CB@NDMLCEF@glDrawTransformFeedbackInstance@ DB 'glDrawTransformFee'
	DB	'dbackInstanced', 00H			; `string'
CONST	ENDS
;	COMDAT ??_C@_0P@LBDCCAHA@glTexStorage3D@
CONST	SEGMENT
??_C@_0P@LBDCCAHA@glTexStorage3D@ DB 'glTexStorage3D', 00H ; `string'
CONST	ENDS
;	COMDAT ??_C@_0P@LAPAEKEH@glTexStorage2D@
CONST	SEGMENT
??_C@_0P@LAPAEKEH@glTexStorage2D@ DB 'glTexStorage2D', 00H ; `string'
CONST	ENDS
;	COMDAT ??_C@_0P@LCLGPEBO@glTexStorage1D@
CONST	SEGMENT
??_C@_0P@LCLGPEBO@glTexStorage1D@ DB 'glTexStorage1D', 00H ; `string'
CONST	ENDS
;	COMDAT ??_C@_0BA@HIHPNLBJ@glMemoryBarrier@
CONST	SEGMENT
??_C@_0BA@HIHPNLBJ@glMemoryBarrier@ DB 'glMemoryBarrier', 00H ; `string'
CONST	ENDS
;	COMDAT ??_C@_0BD@GAKEPNGD@glBindImageTexture@
CONST	SEGMENT
??_C@_0BD@GAKEPNGD@glBindImageTexture@ DB 'glBindImageTexture', 00H ; `string'
CONST	ENDS
;	COMDAT ??_C@_0CB@CEHFMJFN@glGetActiveAtomicCounterBufferi@
CONST	SEGMENT
??_C@_0CB@CEHFMJFN@glGetActiveAtomicCounterBufferi@ DB 'glGetActiveAtomic'
	DB	'CounterBufferiv', 00H			; `string'
CONST	ENDS
;	COMDAT ??_C@_0BG@BAOCDJPF@glGetInternalformativ@
CONST	SEGMENT
??_C@_0BG@BAOCDJPF@glGetInternalformativ@ DB 'glGetInternalformativ', 00H ; `string'
CONST	ENDS
;	COMDAT ??_C@_0CO@GCMNEAOA@glDrawElementsInstancedBaseVert@
CONST	SEGMENT
??_C@_0CO@GCMNEAOA@glDrawElementsInstancedBaseVert@ DB 'glDrawElementsIns'
	DB	'tancedBaseVertexBaseInstance', 00H		; `string'
CONST	ENDS
;	COMDAT ??_C@_0CE@NGNINKJD@glDrawElementsInstancedBaseInst@
CONST	SEGMENT
??_C@_0CE@NGNINKJD@glDrawElementsInstancedBaseInst@ DB 'glDrawElementsIns'
	DB	'tancedBaseInstance', 00H			; `string'
CONST	ENDS
;	COMDAT ??_C@_0CC@FBJBJHCN@glDrawArraysInstancedBaseInstan@
CONST	SEGMENT
??_C@_0CC@FBJBJHCN@glDrawArraysInstancedBaseInstan@ DB 'glDrawArraysInsta'
	DB	'ncedBaseInstance', 00H			; `string'
CONST	ENDS
;	COMDAT ??_C@_0P@PDJCBGIA@glGetDoublei_v@
CONST	SEGMENT
??_C@_0P@PDJCBGIA@glGetDoublei_v@ DB 'glGetDoublei_v', 00H ; `string'
CONST	ENDS
;	COMDAT ??_C@_0O@JKEOHGC@glGetFloati_v@
CONST	SEGMENT
??_C@_0O@JKEOHGC@glGetFloati_v@ DB 'glGetFloati_v', 00H	; `string'
CONST	ENDS
;	COMDAT ??_C@_0BE@FMCFIJBP@glDepthRangeIndexed@
CONST	SEGMENT
??_C@_0BE@FMCFIJBP@glDepthRangeIndexed@ DB 'glDepthRangeIndexed', 00H ; `string'
CONST	ENDS
;	COMDAT ??_C@_0BD@JLCIOMKN@glDepthRangeArrayv@
CONST	SEGMENT
??_C@_0BD@JLCIOMKN@glDepthRangeArrayv@ DB 'glDepthRangeArrayv', 00H ; `string'
CONST	ENDS
;	COMDAT ??_C@_0BC@OOKOHKNA@glScissorIndexedv@
CONST	SEGMENT
??_C@_0BC@OOKOHKNA@glScissorIndexedv@ DB 'glScissorIndexedv', 00H ; `string'
CONST	ENDS
;	COMDAT ??_C@_0BB@BJHNCIAL@glScissorIndexed@
CONST	SEGMENT
??_C@_0BB@BJHNCIAL@glScissorIndexed@ DB 'glScissorIndexed', 00H ; `string'
CONST	ENDS
;	COMDAT ??_C@_0BA@BMNFINIA@glScissorArrayv@
CONST	SEGMENT
??_C@_0BA@BMNFINIA@glScissorArrayv@ DB 'glScissorArrayv', 00H ; `string'
CONST	ENDS
;	COMDAT ??_C@_0BE@OKPEDJOC@glViewportIndexedfv@
CONST	SEGMENT
??_C@_0BE@OKPEDJOC@glViewportIndexedfv@ DB 'glViewportIndexedfv', 00H ; `string'
CONST	ENDS
;	COMDAT ??_C@_0BD@JIBIAPIN@glViewportIndexedf@
CONST	SEGMENT
??_C@_0BD@JIBIAPIN@glViewportIndexedf@ DB 'glViewportIndexedf', 00H ; `string'
CONST	ENDS
;	COMDAT ??_C@_0BB@JIDIDPIB@glViewportArrayv@
CONST	SEGMENT
??_C@_0BB@JIDIDPIB@glViewportArrayv@ DB 'glViewportArrayv', 00H ; `string'
CONST	ENDS
;	COMDAT ??_C@_0BF@JADLCNLO@glGetVertexAttribLdv@
CONST	SEGMENT
??_C@_0BF@JADLCNLO@glGetVertexAttribLdv@ DB 'glGetVertexAttribLdv', 00H ; `string'
CONST	ENDS
;	COMDAT ??_C@_0BH@JBHDDPGM@glVertexAttribLPointer@
CONST	SEGMENT
??_C@_0BH@JBHDDPGM@glVertexAttribLPointer@ DB 'glVertexAttribLPointer', 00H ; `string'
CONST	ENDS
;	COMDAT ??_C@_0BD@BJHCGDCF@glVertexAttribL4dv@
CONST	SEGMENT
??_C@_0BD@BJHCGDCF@glVertexAttribL4dv@ DB 'glVertexAttribL4dv', 00H ; `string'
CONST	ENDS
;	COMDAT ??_C@_0BD@IEKFFLJM@glVertexAttribL3dv@
CONST	SEGMENT
??_C@_0BD@IEKFFLJM@glVertexAttribL3dv@ DB 'glVertexAttribL3dv', 00H ; `string'
CONST	ENDS
;	COMDAT ??_C@_0BD@DMBJDMPJ@glVertexAttribL2dv@
CONST	SEGMENT
??_C@_0BD@DMBJDMPJ@glVertexAttribL2dv@ DB 'glVertexAttribL2dv', 00H ; `string'
CONST	ENDS
;	COMDAT ??_C@_0BD@COKMJDBH@glVertexAttribL1dv@
CONST	SEGMENT
??_C@_0BD@COKMJDBH@glVertexAttribL1dv@ DB 'glVertexAttribL1dv', 00H ; `string'
CONST	ENDS
;	COMDAT ??_C@_0BC@KHDDIAJP@glVertexAttribL4d@
CONST	SEGMENT
??_C@_0BC@KHDDIAJP@glVertexAttribL4d@ DB 'glVertexAttribL4d', 00H ; `string'
CONST	ENDS
;	COMDAT ??_C@_0BC@KCHMJGBK@glVertexAttribL3d@
CONST	SEGMENT
??_C@_0BC@KCHMJGBK@glVertexAttribL3d@ DB 'glVertexAttribL3d', 00H ; `string'
CONST	ENDS
;	COMDAT ??_C@_0BC@KDLOPMCN@glVertexAttribL2d@
CONST	SEGMENT
??_C@_0BC@KDLOPMCN@glVertexAttribL2d@ DB 'glVertexAttribL2d', 00H ; `string'
CONST	ENDS
;	COMDAT ??_C@_0BC@KBPIECHE@glVertexAttribL1d@
CONST	SEGMENT
??_C@_0BC@KBPIECHE@glVertexAttribL1d@ DB 'glVertexAttribL1d', 00H ; `string'
CONST	ENDS
;	COMDAT ??_C@_0BM@BFFCFFFG@glGetProgramPipelineInfoLog@
CONST	SEGMENT
??_C@_0BM@BFFCFFFG@glGetProgramPipelineInfoLog@ DB 'glGetProgramPipelineI'
	DB	'nfoLog', 00H				; `string'
CONST	ENDS
;	COMDAT ??_C@_0BK@HHHCKEGH@glValidateProgramPipeline@
CONST	SEGMENT
??_C@_0BK@HHHCKEGH@glValidateProgramPipeline@ DB 'glValidateProgramPipeli'
	DB	'ne', 00H					; `string'
CONST	ENDS
;	COMDAT ??_C@_0BM@OEIPHGOA@glProgramUniformMatrix4x3dv@
CONST	SEGMENT
??_C@_0BM@OEIPHGOA@glProgramUniformMatrix4x3dv@ DB 'glProgramUniformMatri'
	DB	'x4x3dv', 00H				; `string'
CONST	ENDS
;	COMDAT ??_C@_0BM@GEFNHOOB@glProgramUniformMatrix3x4dv@
CONST	SEGMENT
??_C@_0BM@GEFNHOOB@glProgramUniformMatrix3x4dv@ DB 'glProgramUniformMatri'
	DB	'x3x4dv', 00H				; `string'
CONST	ENDS
;	COMDAT ??_C@_0BM@FMDDBBIF@glProgramUniformMatrix4x2dv@
CONST	SEGMENT
??_C@_0BM@FMDDBBIF@glProgramUniformMatrix4x2dv@ DB 'glProgramUniformMatri'
	DB	'x4x2dv', 00H				; `string'
CONST	ENDS
;	COMDAT ??_C@_0BM@KPABKNEE@glProgramUniformMatrix2x4dv@
CONST	SEGMENT
??_C@_0BM@KPABKNEE@glProgramUniformMatrix2x4dv@ DB 'glProgramUniformMatri'
	DB	'x2x4dv', 00H				; `string'
CONST	ENDS
;	COMDAT ??_C@_0BM@EBDGCBDN@glProgramUniformMatrix3x2dv@
CONST	SEGMENT
??_C@_0BM@EBDGCBDN@glProgramUniformMatrix3x2dv@ DB 'glProgramUniformMatri'
	DB	'x3x2dv', 00H				; `string'
CONST	ENDS
;	COMDAT ??_C@_0BM@DCNGJFPN@glProgramUniformMatrix2x3dv@
CONST	SEGMENT
??_C@_0BM@DCNGJFPN@glProgramUniformMatrix2x3dv@ DB 'glProgramUniformMatri'
	DB	'x2x3dv', 00H				; `string'
CONST	ENDS
;	COMDAT ??_C@_0BM@OHALKCIO@glProgramUniformMatrix4x3fv@
CONST	SEGMENT
??_C@_0BM@OHALKCIO@glProgramUniformMatrix4x3fv@ DB 'glProgramUniformMatri'
	DB	'x4x3fv', 00H				; `string'
CONST	ENDS
;	COMDAT ??_C@_0BM@GHNJKKIP@glProgramUniformMatrix3x4fv@
CONST	SEGMENT
??_C@_0BM@GHNJKKIP@glProgramUniformMatrix3x4fv@ DB 'glProgramUniformMatri'
	DB	'x3x4fv', 00H				; `string'
CONST	ENDS
;	COMDAT ??_C@_0BM@FPLHMFOL@glProgramUniformMatrix4x2fv@
CONST	SEGMENT
??_C@_0BM@FPLHMFOL@glProgramUniformMatrix4x2fv@ DB 'glProgramUniformMatri'
	DB	'x4x2fv', 00H				; `string'
CONST	ENDS
;	COMDAT ??_C@_0BM@KMIFHJCK@glProgramUniformMatrix2x4fv@
CONST	SEGMENT
??_C@_0BM@KMIFHJCK@glProgramUniformMatrix2x4fv@ DB 'glProgramUniformMatri'
	DB	'x2x4fv', 00H				; `string'
CONST	ENDS
;	COMDAT ??_C@_0BM@ECLCPFFD@glProgramUniformMatrix3x2fv@
CONST	SEGMENT
??_C@_0BM@ECLCPFFD@glProgramUniformMatrix3x2fv@ DB 'glProgramUniformMatri'
	DB	'x3x2fv', 00H				; `string'
CONST	ENDS
;	COMDAT ??_C@_0BM@DBFCEBJD@glProgramUniformMatrix2x3fv@
CONST	SEGMENT
??_C@_0BM@DBFCEBJD@glProgramUniformMatrix2x3fv@ DB 'glProgramUniformMatri'
	DB	'x2x3fv', 00H				; `string'
CONST	ENDS
;	COMDAT ??_C@_0BK@NFBAAFLH@glProgramUniformMatrix4dv@
CONST	SEGMENT
??_C@_0BK@NFBAAFLH@glProgramUniformMatrix4dv@ DB 'glProgramUniformMatrix4'
	DB	'dv', 00H					; `string'
CONST	ENDS
;	COMDAT ??_C@_0BK@EIMHDNAO@glProgramUniformMatrix3dv@
CONST	SEGMENT
??_C@_0BK@EIMHDNAO@glProgramUniformMatrix3dv@ DB 'glProgramUniformMatrix3'
	DB	'dv', 00H					; `string'
CONST	ENDS
;	COMDAT ??_C@_0BK@PAHLFKGL@glProgramUniformMatrix2dv@
CONST	SEGMENT
??_C@_0BK@PAHLFKGL@glProgramUniformMatrix2dv@ DB 'glProgramUniformMatrix2'
	DB	'dv', 00H					; `string'
CONST	ENDS
;	COMDAT ??_C@_0BK@NGJENBNJ@glProgramUniformMatrix4fv@
CONST	SEGMENT
??_C@_0BK@NGJENBNJ@glProgramUniformMatrix4fv@ DB 'glProgramUniformMatrix4'
	DB	'fv', 00H					; `string'
CONST	ENDS
;	COMDAT ??_C@_0BK@ELEDOJGA@glProgramUniformMatrix3fv@
CONST	SEGMENT
??_C@_0BK@ELEDOJGA@glProgramUniformMatrix3fv@ DB 'glProgramUniformMatrix3'
	DB	'fv', 00H					; `string'
CONST	ENDS
;	COMDAT ??_C@_0BK@PDPPIOAF@glProgramUniformMatrix2fv@
CONST	SEGMENT
??_C@_0BK@PDPPIOAF@glProgramUniformMatrix2fv@ DB 'glProgramUniformMatrix2'
	DB	'fv', 00H					; `string'
CONST	ENDS
;	COMDAT ??_C@_0BF@JHNNHGB@glProgramUniform4uiv@
CONST	SEGMENT
??_C@_0BF@JHNNHGB@glProgramUniform4uiv@ DB 'glProgramUniform4uiv', 00H ; `string'
CONST	ENDS
;	COMDAT ??_C@_0BE@HCPNJOAF@glProgramUniform4ui@
CONST	SEGMENT
??_C@_0BE@HCPNJOAF@glProgramUniform4ui@ DB 'glProgramUniform4ui', 00H ; `string'
CONST	ENDS
;	COMDAT ??_C@_0BE@KCEDFJNM@glProgramUniform4dv@
CONST	SEGMENT
??_C@_0BE@KCEDFJNM@glProgramUniform4dv@ DB 'glProgramUniform4dv', 00H ; `string'
CONST	ENDS
;	COMDAT ??_C@_0BD@JNEOHKCK@glProgramUniform4d@
CONST	SEGMENT
??_C@_0BD@JNEOHKCK@glProgramUniform4d@ DB 'glProgramUniform4d', 00H ; `string'
CONST	ENDS
;	COMDAT ??_C@_0BE@KBMHINLC@glProgramUniform4fv@
CONST	SEGMENT
??_C@_0BE@KBMHINLC@glProgramUniform4fv@ DB 'glProgramUniform4fv', 00H ; `string'
CONST	ENDS
;	COMDAT ??_C@_0BD@KPHIBIKI@glProgramUniform4f@
CONST	SEGMENT
??_C@_0BD@KPHIBIKI@glProgramUniform4f@ DB 'glProgramUniform4f', 00H ; `string'
CONST	ENDS
;	COMDAT ??_C@_0BE@KKJLMKIP@glProgramUniform4iv@
CONST	SEGMENT
??_C@_0BE@KKJLMKIP@glProgramUniform4iv@ DB 'glProgramUniform4iv', 00H ; `string'
CONST	ENDS
;	COMDAT ??_C@_0BD@CIOAAEGH@glProgramUniform4i@
CONST	SEGMENT
??_C@_0BD@CIOAAEGH@glProgramUniform4i@ DB 'glProgramUniform4i', 00H ; `string'
CONST	ENDS
;	COMDAT ??_C@_0BF@LLFNALHB@glProgramUniform3uiv@
CONST	SEGMENT
??_C@_0BF@LLFNALHB@glProgramUniform3uiv@ DB 'glProgramUniform3uiv', 00H ; `string'
CONST	ENDS
;	COMDAT ??_C@_0BE@OPCKKGLM@glProgramUniform3ui@
CONST	SEGMENT
??_C@_0BE@OPCKKGLM@glProgramUniform3ui@ DB 'glProgramUniform3ui', 00H ; `string'
CONST	ENDS
;	COMDAT ??_C@_0BE@DPJEGBGF@glProgramUniform3dv@
CONST	SEGMENT
??_C@_0BE@DPJEGBGF@glProgramUniform3dv@ DB 'glProgramUniform3dv', 00H ; `string'
CONST	ENDS
;	COMDAT ??_C@_0BD@JIABGMKP@glProgramUniform3d@
CONST	SEGMENT
??_C@_0BD@JIABGMKP@glProgramUniform3d@ DB 'glProgramUniform3d', 00H ; `string'
CONST	ENDS
;	COMDAT ??_C@_0BE@DMBALFAL@glProgramUniform3fv@
CONST	SEGMENT
??_C@_0BE@DMBALFAL@glProgramUniform3fv@ DB 'glProgramUniform3fv', 00H ; `string'
CONST	ENDS
;	COMDAT ??_C@_0BD@KKDHAOCN@glProgramUniform3f@
CONST	SEGMENT
??_C@_0BD@KKDHAOCN@glProgramUniform3f@ DB 'glProgramUniform3f', 00H ; `string'
CONST	ENDS
;	COMDAT ??_C@_0BE@DHEMPCDG@glProgramUniform3iv@
CONST	SEGMENT
??_C@_0BE@DHEMPCDG@glProgramUniform3iv@ DB 'glProgramUniform3iv', 00H ; `string'
CONST	ENDS
;	COMDAT ??_C@_0BD@CNKPBCOC@glProgramUniform3i@
CONST	SEGMENT
??_C@_0BD@CNKPBCOC@glProgramUniform3i@ DB 'glProgramUniform3i', 00H ; `string'
CONST	ENDS
;	COMDAT ??_C@_0BF@IGDNCCMB@glProgramUniform2uiv@
CONST	SEGMENT
??_C@_0BF@IGDNCCMB@glProgramUniform2uiv@ DB 'glProgramUniform2uiv', 00H ; `string'
CONST	ENDS
;	COMDAT ??_C@_0BE@FHJGMBNJ@glProgramUniform2ui@
CONST	SEGMENT
??_C@_0BE@FHJGMBNJ@glProgramUniform2ui@ DB 'glProgramUniform2ui', 00H ; `string'
CONST	ENDS
;	COMDAT ??_C@_0BE@IHCIAGAA@glProgramUniform2dv@
CONST	SEGMENT
??_C@_0BE@IHCIAGAA@glProgramUniform2dv@ DB 'glProgramUniform2dv', 00H ; `string'
CONST	ENDS
;	COMDAT ??_C@_0BD@JJMDAGJI@glProgramUniform2d@
CONST	SEGMENT
??_C@_0BD@JJMDAGJI@glProgramUniform2d@ DB 'glProgramUniform2d', 00H ; `string'
CONST	ENDS
;	COMDAT ??_C@_0BE@IEKMNCGO@glProgramUniform2fv@
CONST	SEGMENT
??_C@_0BE@IEKMNCGO@glProgramUniform2fv@ DB 'glProgramUniform2fv', 00H ; `string'
CONST	ENDS
;	COMDAT ??_C@_0BD@KLPFGEBK@glProgramUniform2f@
CONST	SEGMENT
??_C@_0BD@KLPFGEBK@glProgramUniform2f@ DB 'glProgramUniform2f', 00H ; `string'
CONST	ENDS
;	COMDAT ??_C@_0BE@IPPAJFFD@glProgramUniform2iv@
CONST	SEGMENT
??_C@_0BE@IPPAJFFD@glProgramUniform2iv@ DB 'glProgramUniform2iv', 00H ; `string'
CONST	ENDS
;	COMDAT ??_C@_0BD@CMGNHINF@glProgramUniform2i@
CONST	SEGMENT
??_C@_0BD@CMGNHINF@glProgramUniform2i@ DB 'glProgramUniform2i', 00H ; `string'
CONST	ENDS
;	COMDAT ??_C@_0BF@MBJNFIBB@glProgramUniform1uiv@
CONST	SEGMENT
??_C@_0BF@MBJNFIBB@glProgramUniform1uiv@ DB 'glProgramUniform1uiv', 00H ; `string'
CONST	ENDS
;	COMDAT ??_C@_0BE@EFCDGODH@glProgramUniform1ui@
CONST	SEGMENT
??_C@_0BE@EFCDGODH@glProgramUniform1ui@ DB 'glProgramUniform1ui', 00H ; `string'
CONST	ENDS
;	COMDAT ??_C@_0BE@JFJNKJOO@glProgramUniform1dv@
CONST	SEGMENT
??_C@_0BE@JFJNKJOO@glProgramUniform1dv@ DB 'glProgramUniform1dv', 00H ; `string'
CONST	ENDS
;	COMDAT ??_C@_0BD@JLIFLIMB@glProgramUniform1d@
CONST	SEGMENT
??_C@_0BD@JLIFLIMB@glProgramUniform1d@ DB 'glProgramUniform1d', 00H ; `string'
CONST	ENDS
;	COMDAT ??_C@_0BE@JGBJHNIA@glProgramUniform1fv@
CONST	SEGMENT
??_C@_0BE@JGBJHNIA@glProgramUniform1fv@ DB 'glProgramUniform1fv', 00H ; `string'
CONST	ENDS
;	COMDAT ??_C@_0BD@KJLDNKED@glProgramUniform1f@
CONST	SEGMENT
??_C@_0BD@KJLDNKED@glProgramUniform1f@ DB 'glProgramUniform1f', 00H ; `string'
CONST	ENDS
;	COMDAT ??_C@_0BE@JNEFDKLN@glProgramUniform1iv@
CONST	SEGMENT
??_C@_0BE@JNEFDKLN@glProgramUniform1iv@ DB 'glProgramUniform1iv', 00H ; `string'
CONST	ENDS
;	COMDAT ??_C@_0BD@COCLMGIM@glProgramUniform1i@
CONST	SEGMENT
??_C@_0BD@COCLMGIM@glProgramUniform1i@ DB 'glProgramUniform1i', 00H ; `string'
CONST	ENDS
;	COMDAT ??_C@_0BH@DNOPNJMO@glGetProgramPipelineiv@
CONST	SEGMENT
??_C@_0BH@DNOPNJMO@glGetProgramPipelineiv@ DB 'glGetProgramPipelineiv', 00H ; `string'
CONST	ENDS
;	COMDAT ??_C@_0BE@DLHPDHCH@glIsProgramPipeline@
CONST	SEGMENT
??_C@_0BE@DLHPDHCH@glIsProgramPipeline@ DB 'glIsProgramPipeline', 00H ; `string'
CONST	ENDS
;	COMDAT ??_C@_0BG@CCBKOCA@glGenProgramPipelines@
CONST	SEGMENT
??_C@_0BG@CCBKOCA@glGenProgramPipelines@ DB 'glGenProgramPipelines', 00H ; `string'
CONST	ENDS
;	COMDAT ??_C@_0BJ@CHBGABHE@glDeleteProgramPipelines@
CONST	SEGMENT
??_C@_0BJ@CHBGABHE@glDeleteProgramPipelines@ DB 'glDeleteProgramPipelines'
	DB	00H						; `string'
CONST	ENDS
;	COMDAT ??_C@_0BG@GLPOKNCG@glBindProgramPipeline@
CONST	SEGMENT
??_C@_0BG@GLPOKNCG@glBindProgramPipeline@ DB 'glBindProgramPipeline', 00H ; `string'
CONST	ENDS
;	COMDAT ??_C@_0BH@BOJGDFJN@glCreateShaderProgramv@
CONST	SEGMENT
??_C@_0BH@BOJGDFJN@glCreateShaderProgramv@ DB 'glCreateShaderProgramv', 00H ; `string'
CONST	ENDS
;	COMDAT ??_C@_0BG@IAIOGMEB@glActiveShaderProgram@
CONST	SEGMENT
??_C@_0BG@IAIOGMEB@glActiveShaderProgram@ DB 'glActiveShaderProgram', 00H ; `string'
CONST	ENDS
;	COMDAT ??_C@_0BD@CADKHDMH@glUseProgramStages@
CONST	SEGMENT
??_C@_0BD@CADKHDMH@glUseProgramStages@ DB 'glUseProgramStages', 00H ; `string'
CONST	ENDS
;	COMDAT ??_C@_0BE@EELDBEME@glProgramParameteri@
CONST	SEGMENT
??_C@_0BE@EELDBEME@glProgramParameteri@ DB 'glProgramParameteri', 00H ; `string'
CONST	ENDS
;	COMDAT ??_C@_0BA@MIIDHOO@glProgramBinary@
CONST	SEGMENT
??_C@_0BA@MIIDHOO@glProgramBinary@ DB 'glProgramBinary', 00H ; `string'
CONST	ENDS
;	COMDAT ??_C@_0BD@JBCEHKON@glGetProgramBinary@
CONST	SEGMENT
??_C@_0BD@JBCEHKON@glGetProgramBinary@ DB 'glGetProgramBinary', 00H ; `string'
CONST	ENDS
;	COMDAT ??_C@_0O@FMBMCDIL@glClearDepthf@
CONST	SEGMENT
??_C@_0O@FMBMCDIL@glClearDepthf@ DB 'glClearDepthf', 00H ; `string'
CONST	ENDS
;	COMDAT ??_C@_0O@JDFJDNND@glDepthRangef@
CONST	SEGMENT
??_C@_0O@JDFJDNND@glDepthRangef@ DB 'glDepthRangef', 00H ; `string'
CONST	ENDS
;	COMDAT ??_C@_0BL@MLAOOHPD@glGetShaderPrecisionFormat@
CONST	SEGMENT
??_C@_0BL@MLAOOHPD@glGetShaderPrecisionFormat@ DB 'glGetShaderPrecisionFo'
	DB	'rmat', 00H					; `string'
CONST	ENDS
;	COMDAT ??_C@_0P@IMINELFB@glShaderBinary@
CONST	SEGMENT
??_C@_0P@IMINELFB@glShaderBinary@ DB 'glShaderBinary', 00H ; `string'
CONST	ENDS
;	COMDAT ??_C@_0BI@HGKABJPJ@glReleaseShaderCompiler@
CONST	SEGMENT
??_C@_0BI@HGKABJPJ@glReleaseShaderCompiler@ DB 'glReleaseShaderCompiler', 00H ; `string'
CONST	ENDS
;	COMDAT ??_C@_0BE@CCFJPMFI@glGetQueryIndexediv@
CONST	SEGMENT
??_C@_0BE@CCFJPMFI@glGetQueryIndexediv@ DB 'glGetQueryIndexediv', 00H ; `string'
CONST	ENDS
;	COMDAT ??_C@_0BC@DPMHMNME@glEndQueryIndexed@
CONST	SEGMENT
??_C@_0BC@DPMHMNME@glEndQueryIndexed@ DB 'glEndQueryIndexed', 00H ; `string'
CONST	ENDS
;	COMDAT ??_C@_0BE@BDKPJDEE@glBeginQueryIndexed@
CONST	SEGMENT
??_C@_0BE@BDKPJDEE@glBeginQueryIndexed@ DB 'glBeginQueryIndexed', 00H ; `string'
CONST	ENDS
;	COMDAT ??_C@_0BO@IGLFNCDG@glDrawTransformFeedbackStream@
CONST	SEGMENT
??_C@_0BO@IGLFNCDG@glDrawTransformFeedbackStream@ DB 'glDrawTransformFeed'
	DB	'backStream', 00H				; `string'
CONST	ENDS
;	COMDAT ??_C@_0BI@LEOILCPN@glDrawTransformFeedback@
CONST	SEGMENT
??_C@_0BI@LEOILCPN@glDrawTransformFeedback@ DB 'glDrawTransformFeedback', 00H ; `string'
CONST	ENDS
;	COMDAT ??_C@_0BK@JMHONFHF@glResumeTransformFeedback@
CONST	SEGMENT
??_C@_0BK@JMHONFHF@glResumeTransformFeedback@ DB 'glResumeTransformFeedba'
	DB	'ck', 00H					; `string'
CONST	ENDS
;	COMDAT ??_C@_0BJ@FFNLKBCB@glPauseTransformFeedback@
CONST	SEGMENT
??_C@_0BJ@FFNLKBCB@glPauseTransformFeedback@ DB 'glPauseTransformFeedback'
	DB	00H						; `string'
CONST	ENDS
;	COMDAT ??_C@_0BG@BGFLKHBM@glIsTransformFeedback@
CONST	SEGMENT
??_C@_0BG@BGFLKHBM@glIsTransformFeedback@ DB 'glIsTransformFeedback', 00H ; `string'
CONST	ENDS
;	COMDAT ??_C@_0BI@KANKBGAE@glGenTransformFeedbacks@
CONST	SEGMENT
??_C@_0BI@KANKBGAE@glGenTransformFeedbacks@ DB 'glGenTransformFeedbacks', 00H ; `string'
CONST	ENDS
;	COMDAT ??_C@_0BL@DIGEBFBK@glDeleteTransformFeedbacks@
CONST	SEGMENT
??_C@_0BL@DIGEBFBK@glDeleteTransformFeedbacks@ DB 'glDeleteTransformFeedb'
	DB	'acks', 00H					; `string'
CONST	ENDS
;	COMDAT ??_C@_0BI@BPJKLMIG@glBindTransformFeedback@
CONST	SEGMENT
??_C@_0BI@BPJKLMIG@glBindTransformFeedback@ DB 'glBindTransformFeedback', 00H ; `string'
CONST	ENDS
;	COMDAT ??_C@_0BD@LJKINJKN@glPatchParameterfv@
CONST	SEGMENT
??_C@_0BD@LJKINJKN@glPatchParameterfv@ DB 'glPatchParameterfv', 00H ; `string'
CONST	ENDS
;	COMDAT ??_C@_0BC@PAPDGMLA@glPatchParameteri@
CONST	SEGMENT
??_C@_0BC@PAPDGMLA@glPatchParameteri@ DB 'glPatchParameteri', 00H ; `string'
CONST	ENDS
;	COMDAT ??_C@_0BE@LOKJCDFH@glGetProgramStageiv@
CONST	SEGMENT
??_C@_0BE@LOKJCDFH@glGetProgramStageiv@ DB 'glGetProgramStageiv', 00H ; `string'
CONST	ENDS
;	COMDAT ??_C@_0BK@BLMOFAGJ@glGetUniformSubroutineuiv@
CONST	SEGMENT
??_C@_0BK@BLMOFAGJ@glGetUniformSubroutineuiv@ DB 'glGetUniformSubroutineu'
	DB	'iv', 00H					; `string'
CONST	ENDS
;	COMDAT ??_C@_0BI@CDPOBBHI@glUniformSubroutinesuiv@
CONST	SEGMENT
??_C@_0BI@CDPOBBHI@glUniformSubroutinesuiv@ DB 'glUniformSubroutinesuiv', 00H ; `string'
CONST	ENDS
;	COMDAT ??_C@_0BK@JPHEACLL@glGetActiveSubroutineName@
CONST	SEGMENT
??_C@_0BK@JPHEACLL@glGetActiveSubroutineName@ DB 'glGetActiveSubroutineNa'
	DB	'me', 00H					; `string'
CONST	ENDS
;	COMDAT ??_C@_0CB@KCFFPCGJ@glGetActiveSubroutineUniformNam@
CONST	SEGMENT
??_C@_0CB@KCFFPCGJ@glGetActiveSubroutineUniformNam@ DB 'glGetActiveSubrou'
	DB	'tineUniformName', 00H			; `string'
CONST	ENDS
;	COMDAT ??_C@_0BP@FAPFAJFP@glGetActiveSubroutineUniformiv@
CONST	SEGMENT
??_C@_0BP@FAPFAJFP@glGetActiveSubroutineUniformiv@ DB 'glGetActiveSubrout'
	DB	'ineUniformiv', 00H				; `string'
CONST	ENDS
;	COMDAT ??_C@_0BF@ONDIGCJG@glGetSubroutineIndex@
CONST	SEGMENT
??_C@_0BF@ONDIGCJG@glGetSubroutineIndex@ DB 'glGetSubroutineIndex', 00H ; `string'
CONST	ENDS
;	COMDAT ??_C@_0BP@IBIPLDOA@glGetSubroutineUniformLocation@
CONST	SEGMENT
??_C@_0BP@IBIPLDOA@glGetSubroutineUniformLocation@ DB 'glGetSubroutineUni'
	DB	'formLocation', 00H				; `string'
CONST	ENDS
;	COMDAT ??_C@_0P@NGEMHI@glGetUniformdv@
CONST	SEGMENT
??_C@_0P@NGEMHI@glGetUniformdv@ DB 'glGetUniformdv', 00H ; `string'
CONST	ENDS
;	COMDAT ??_C@_0BF@HGOEPFEJ@glUniformMatrix4x3dv@
CONST	SEGMENT
??_C@_0BF@HGOEPFEJ@glUniformMatrix4x3dv@ DB 'glUniformMatrix4x3dv', 00H ; `string'
CONST	ENDS
;	COMDAT ??_C@_0BF@MOFIJCCM@glUniformMatrix4x2dv@
CONST	SEGMENT
??_C@_0BF@MOFIJCCM@glUniformMatrix4x2dv@ DB 'glUniformMatrix4x2dv', 00H ; `string'
CONST	ENDS
;	COMDAT ??_C@_0BF@PGDGPNEI@glUniformMatrix3x4dv@
CONST	SEGMENT
??_C@_0BF@PGDGPNEI@glUniformMatrix3x4dv@ DB 'glUniformMatrix3x4dv', 00H ; `string'
CONST	ENDS
;	COMDAT ??_C@_0BF@NDFNKCJE@glUniformMatrix3x2dv@
CONST	SEGMENT
??_C@_0BF@NDFNKCJE@glUniformMatrix3x2dv@ DB 'glUniformMatrix3x2dv', 00H ; `string'
CONST	ENDS
;	COMDAT ??_C@_0BF@DNGKCOON@glUniformMatrix2x4dv@
CONST	SEGMENT
??_C@_0BF@DNGKCOON@glUniformMatrix2x4dv@ DB 'glUniformMatrix2x4dv', 00H ; `string'
CONST	ENDS
;	COMDAT ??_C@_0BF@KALNBGFE@glUniformMatrix2x3dv@
CONST	SEGMENT
??_C@_0BF@KALNBGFE@glUniformMatrix2x3dv@ DB 'glUniformMatrix2x3dv', 00H ; `string'
CONST	ENDS
;	COMDAT ??_C@_0BD@LOPGMAMB@glUniformMatrix4dv@
CONST	SEGMENT
??_C@_0BD@LOPGMAMB@glUniformMatrix4dv@ DB 'glUniformMatrix4dv', 00H ; `string'
CONST	ENDS
;	COMDAT ??_C@_0BD@CDCBPIHI@glUniformMatrix3dv@
CONST	SEGMENT
??_C@_0BD@CDCBPIHI@glUniformMatrix3dv@ DB 'glUniformMatrix3dv', 00H ; `string'
CONST	ENDS
;	COMDAT ??_C@_0BD@JLJNJPBN@glUniformMatrix2dv@
CONST	SEGMENT
??_C@_0BD@JLJNJPBN@glUniformMatrix2dv@ DB 'glUniformMatrix2dv', 00H ; `string'
CONST	ENDS
;	COMDAT ??_C@_0N@JNJEGONE@glUniform4dv@
CONST	SEGMENT
??_C@_0N@JNJEGONE@glUniform4dv@ DB 'glUniform4dv', 00H	; `string'
CONST	ENDS
;	COMDAT ??_C@_0N@EDFGGN@glUniform3dv@
CONST	SEGMENT
??_C@_0N@EDFGGN@glUniform3dv@ DB 'glUniform3dv', 00H	; `string'
CONST	ENDS
;	COMDAT ??_C@_0N@LIPPDBAI@glUniform2dv@
CONST	SEGMENT
??_C@_0N@LIPPDBAI@glUniform2dv@ DB 'glUniform2dv', 00H	; `string'
CONST	ENDS
;	COMDAT ??_C@_0N@KKEKJOOG@glUniform1dv@
CONST	SEGMENT
??_C@_0N@KKEKJOOG@glUniform1dv@ DB 'glUniform1dv', 00H	; `string'
CONST	ENDS
;	COMDAT ??_C@_0M@PPHPKPIM@glUniform4d@
CONST	SEGMENT
??_C@_0M@PPHPKPIM@glUniform4d@ DB 'glUniform4d', 00H	; `string'
CONST	ENDS
;	COMDAT ??_C@_0M@PKDALJAJ@glUniform3d@
CONST	SEGMENT
??_C@_0M@PKDALJAJ@glUniform3d@ DB 'glUniform3d', 00H	; `string'
CONST	ENDS
;	COMDAT ??_C@_0M@PLPCNDDO@glUniform2d@
CONST	SEGMENT
??_C@_0M@PLPCNDDO@glUniform2d@ DB 'glUniform2d', 00H	; `string'
CONST	ENDS
;	COMDAT ??_C@_0M@PJLEGNGH@glUniform1d@
CONST	SEGMENT
??_C@_0M@PJLEGNGH@glUniform1d@ DB 'glUniform1d', 00H	; `string'
CONST	ENDS
;	COMDAT ??_C@_0BH@LJJDOEDH@glDrawElementsIndirect@
CONST	SEGMENT
??_C@_0BH@LJJDOEDH@glDrawElementsIndirect@ DB 'glDrawElementsIndirect', 00H ; `string'
CONST	ENDS
;	COMDAT ??_C@_0BF@BGDCPAEP@glDrawArraysIndirect@
CONST	SEGMENT
??_C@_0BF@BGDCPAEP@glDrawArraysIndirect@ DB 'glDrawArraysIndirect', 00H ; `string'
CONST	ENDS
;	COMDAT ??_C@_0BF@PDDGKNBJ@glBlendFuncSeparatei@
CONST	SEGMENT
??_C@_0BF@PDDGKNBJ@glBlendFuncSeparatei@ DB 'glBlendFuncSeparatei', 00H ; `string'
CONST	ENDS
;	COMDAT ??_C@_0N@IKKELNNP@glBlendFunci@
CONST	SEGMENT
??_C@_0N@IKKELNNP@glBlendFunci@ DB 'glBlendFunci', 00H	; `string'
CONST	ENDS
;	COMDAT ??_C@_0BJ@FNMBAGAC@glBlendEquationSeparatei@
CONST	SEGMENT
??_C@_0BJ@FNMBAGAC@glBlendEquationSeparatei@ DB 'glBlendEquationSeparatei'
	DB	00H						; `string'
CONST	ENDS
;	COMDAT ??_C@_0BB@MKHLNEOM@glBlendEquationi@
CONST	SEGMENT
??_C@_0BB@MKHLNEOM@glBlendEquationi@ DB 'glBlendEquationi', 00H ; `string'
CONST	ENDS
;	COMDAT ??_C@_0BD@EDGCEBP@glMinSampleShading@
CONST	SEGMENT
??_C@_0BD@EDGCEBP@glMinSampleShading@ DB 'glMinSampleShading', 00H ; `string'
CONST	ENDS
;	COMDAT ??_C@_0BG@DPPPFGBG@glSecondaryColorP3uiv@
CONST	SEGMENT
??_C@_0BG@DPPPFGBG@glSecondaryColorP3uiv@ DB 'glSecondaryColorP3uiv', 00H ; `string'
CONST	ENDS
;	COMDAT ??_C@_0BF@PDDGBPKP@glSecondaryColorP3ui@
CONST	SEGMENT
??_C@_0BF@PDDGBPKP@glSecondaryColorP3ui@ DB 'glSecondaryColorP3ui', 00H ; `string'
CONST	ENDS
;	COMDAT ??_C@_0N@DDNDANIE@glColorP4uiv@
CONST	SEGMENT
??_C@_0N@DDNDANIE@glColorP4uiv@ DB 'glColorP4uiv', 00H	; `string'
CONST	ENDS
;	COMDAT ??_C@_0M@GJHGLFGE@glColorP4ui@
CONST	SEGMENT
??_C@_0M@GJHGLFGE@glColorP4ui@ DB 'glColorP4ui', 00H	; `string'
CONST	ENDS
;	COMDAT ??_C@_0N@IBPDNBJE@glColorP3uiv@
CONST	SEGMENT
??_C@_0N@IBPDNBJE@glColorP3uiv@ DB 'glColorP3uiv', 00H	; `string'
CONST	ENDS
;	COMDAT ??_C@_0M@PEKBINNN@glColorP3ui@
CONST	SEGMENT
??_C@_0M@PEKBINNN@glColorP3ui@ DB 'glColorP3ui', 00H	; `string'
CONST	ENDS
;	COMDAT ??_C@_0O@MOCJMHFG@glNormalP3uiv@
CONST	SEGMENT
??_C@_0O@MOCJMHFG@glNormalP3uiv@ DB 'glNormalP3uiv', 00H ; `string'
CONST	ENDS
;	COMDAT ??_C@_0N@PBEFBNHO@glNormalP3ui@
CONST	SEGMENT
??_C@_0N@PBEFBNHO@glNormalP3ui@ DB 'glNormalP3ui', 00H	; `string'
CONST	ENDS
;	COMDAT ??_C@_0BF@IONACAHK@glMultiTexCoordP4uiv@
CONST	SEGMENT
??_C@_0BF@IONACAHK@glMultiTexCoordP4uiv@ DB 'glMultiTexCoordP4uiv', 00H ; `string'
CONST	ENDS
;	COMDAT ??_C@_0BE@NHKJFHJE@glMultiTexCoordP4ui@
CONST	SEGMENT
??_C@_0BE@NHKJFHJE@glMultiTexCoordP4ui@ DB 'glMultiTexCoordP4ui', 00H ; `string'
CONST	ENDS
;	COMDAT ??_C@_0BF@DMPAPMGK@glMultiTexCoordP3uiv@
CONST	SEGMENT
??_C@_0BF@DMPAPMGK@glMultiTexCoordP3uiv@ DB 'glMultiTexCoordP3uiv', 00H ; `string'
CONST	ENDS
;	COMDAT ??_C@_0BE@EKHOGPCN@glMultiTexCoordP3ui@
CONST	SEGMENT
??_C@_0BE@EKHOGPCN@glMultiTexCoordP3ui@ DB 'glMultiTexCoordP3ui', 00H ; `string'
CONST	ENDS
;	COMDAT ??_C@_0BF@BJANFNK@glMultiTexCoordP2uiv@
CONST	SEGMENT
??_C@_0BF@BJANFNK@glMultiTexCoordP2uiv@ DB 'glMultiTexCoordP2uiv', 00H ; `string'
CONST	ENDS
;	COMDAT ??_C@_0BE@PCMCAIEI@glMultiTexCoordP2ui@
CONST	SEGMENT
??_C@_0BE@PCMCAIEI@glMultiTexCoordP2ui@ DB 'glMultiTexCoordP2ui', 00H ; `string'
CONST	ENDS
;	COMDAT ??_C@_0BF@EGDAKPAK@glMultiTexCoordP1uiv@
CONST	SEGMENT
??_C@_0BF@EGDAKPAK@glMultiTexCoordP1uiv@ DB 'glMultiTexCoordP1uiv', 00H ; `string'
CONST	ENDS
;	COMDAT ??_C@_0BE@OAHHKHKG@glMultiTexCoordP1ui@
CONST	SEGMENT
??_C@_0BE@OAHHKHKG@glMultiTexCoordP1ui@ DB 'glMultiTexCoordP1ui', 00H ; `string'
CONST	ENDS
;	COMDAT ??_C@_0BA@JILHAPCD@glTexCoordP4uiv@
CONST	SEGMENT
??_C@_0BA@JILHAPCD@glTexCoordP4uiv@ DB 'glTexCoordP4uiv', 00H ; `string'
CONST	ENDS
;	COMDAT ??_C@_0P@NMEJELEL@glTexCoordP4ui@
CONST	SEGMENT
??_C@_0P@NMEJELEL@glTexCoordP4ui@ DB 'glTexCoordP4ui', 00H ; `string'
CONST	ENDS
;	COMDAT ??_C@_0BA@CKJHNDDD@glTexCoordP3uiv@
CONST	SEGMENT
??_C@_0BA@CKJHNDDD@glTexCoordP3uiv@ DB 'glTexCoordP3uiv', 00H ; `string'
CONST	ENDS
;	COMDAT ??_C@_0P@EBJOHDPC@glTexCoordP3ui@
CONST	SEGMENT
??_C@_0P@EBJOHDPC@glTexCoordP3ui@ DB 'glTexCoordP3ui', 00H ; `string'
CONST	ENDS
;	COMDAT ??_C@_0BA@BHPHPKID@glTexCoordP2uiv@
CONST	SEGMENT
??_C@_0BA@BHPHPKID@glTexCoordP2uiv@ DB 'glTexCoordP2uiv', 00H ; `string'
CONST	ENDS
;	COMDAT ??_C@_0P@PJCCBEJH@glTexCoordP2ui@
CONST	SEGMENT
??_C@_0P@PJCCBEJH@glTexCoordP2ui@ DB 'glTexCoordP2ui', 00H ; `string'
CONST	ENDS
;	COMDAT ??_C@_0BA@FAFHIAFD@glTexCoordP1uiv@
CONST	SEGMENT
??_C@_0BA@FAFHIAFD@glTexCoordP1uiv@ DB 'glTexCoordP1uiv', 00H ; `string'
CONST	ENDS
;	COMDAT ??_C@_0P@OLJHLLHJ@glTexCoordP1ui@
CONST	SEGMENT
??_C@_0P@OLJHLLHJ@glTexCoordP1ui@ DB 'glTexCoordP1ui', 00H ; `string'
CONST	ENDS
;	COMDAT ??_C@_0O@IDAKJKMN@glVertexP4uiv@
CONST	SEGMENT
??_C@_0O@IDAKJKMN@glVertexP4uiv@ DB 'glVertexP4uiv', 00H ; `string'
CONST	ENDS
;	COMDAT ??_C@_0N@GAHJNOBO@glVertexP4ui@
CONST	SEGMENT
??_C@_0N@GAHJNOBO@glVertexP4ui@ DB 'glVertexP4ui', 00H	; `string'
CONST	ENDS
;	COMDAT ??_C@_0O@DBCKEGNN@glVertexP3uiv@
CONST	SEGMENT
??_C@_0O@DBCKEGNN@glVertexP3uiv@ DB 'glVertexP3uiv', 00H ; `string'
CONST	ENDS
;	COMDAT ??_C@_0N@PNKOOGKH@glVertexP3ui@
CONST	SEGMENT
??_C@_0N@PNKOOGKH@glVertexP3ui@ DB 'glVertexP3ui', 00H	; `string'
CONST	ENDS
;	COMDAT ??_C@_0O@MEKGPGN@glVertexP2uiv@
CONST	SEGMENT
??_C@_0O@MEKGPGN@glVertexP2uiv@ DB 'glVertexP2uiv', 00H	; `string'
CONST	ENDS
;	COMDAT ??_C@_0N@EFBCIBMC@glVertexP2ui@
CONST	SEGMENT
??_C@_0N@EFBCIBMC@glVertexP2ui@ DB 'glVertexP2ui', 00H	; `string'
CONST	ENDS
;	COMDAT ??_C@_0BE@LJLDGOAD@glVertexAttribP4uiv@
CONST	SEGMENT
??_C@_0BE@LJLDGOAD@glVertexAttribP4uiv@ DB 'glVertexAttribP4uiv', 00H ; `string'
CONST	ENDS
;	COMDAT ??_C@_0BD@GMNMNOHP@glVertexAttribP4ui@
CONST	SEGMENT
??_C@_0BD@GMNMNOHP@glVertexAttribP4ui@ DB 'glVertexAttribP4ui', 00H ; `string'
CONST	ENDS
;	COMDAT ??_C@_0BE@LJDLCBD@glVertexAttribP3uiv@
CONST	SEGMENT
??_C@_0BE@LJDLCBD@glVertexAttribP3uiv@ DB 'glVertexAttribP3uiv', 00H ; `string'
CONST	ENDS
;	COMDAT ??_C@_0BD@PBALOGMG@glVertexAttribP3ui@
CONST	SEGMENT
??_C@_0BD@PBALOGMG@glVertexAttribP3ui@ DB 'glVertexAttribP3ui', 00H ; `string'
CONST	ENDS
;	COMDAT ??_C@_0BE@DGPDJLKD@glVertexAttribP2uiv@
CONST	SEGMENT
??_C@_0BE@DGPDJLKD@glVertexAttribP2uiv@ DB 'glVertexAttribP2uiv', 00H ; `string'
CONST	ENDS
;	COMDAT ??_C@_0BD@EJLHIBKD@glVertexAttribP2ui@
CONST	SEGMENT
??_C@_0BD@EJLHIBKD@glVertexAttribP2ui@ DB 'glVertexAttribP2ui', 00H ; `string'
CONST	ENDS
;	COMDAT ??_C@_0BE@HBFDOBHD@glVertexAttribP1uiv@
CONST	SEGMENT
??_C@_0BE@HBFDOBHD@glVertexAttribP1uiv@ DB 'glVertexAttribP1uiv', 00H ; `string'
CONST	ENDS
;	COMDAT ??_C@_0BD@FLACCOEN@glVertexAttribP1ui@
CONST	SEGMENT
??_C@_0BD@FLACCOEN@glVertexAttribP1ui@ DB 'glVertexAttribP1ui', 00H ; `string'
CONST	ENDS
;	COMDAT ??_C@_0BG@NEBMAEHM@glVertexAttribDivisor@
CONST	SEGMENT
??_C@_0BG@NEBMAEHM@glVertexAttribDivisor@ DB 'glVertexAttribDivisor', 00H ; `string'
CONST	ENDS
;	COMDAT ??_C@_0BG@NEGGOMJO@glGetQueryObjectui64v@
CONST	SEGMENT
??_C@_0BG@NEGGOMJO@glGetQueryObjectui64v@ DB 'glGetQueryObjectui64v', 00H ; `string'
CONST	ENDS
;	COMDAT ??_C@_0BF@JDAPDEPE@glGetQueryObjecti64v@
CONST	SEGMENT
??_C@_0BF@JDAPDEPE@glGetQueryObjecti64v@ DB 'glGetQueryObjecti64v', 00H ; `string'
CONST	ENDS
;	COMDAT ??_C@_0P@KALICDIM@glQueryCounter@
CONST	SEGMENT
??_C@_0P@KALICDIM@glQueryCounter@ DB 'glQueryCounter', 00H ; `string'
CONST	ENDS
;	COMDAT ??_C@_0BK@CMBGFHDA@glGetSamplerParameterIuiv@
CONST	SEGMENT
??_C@_0BK@CMBGFHDA@glGetSamplerParameterIuiv@ DB 'glGetSamplerParameterIu'
	DB	'iv', 00H					; `string'
CONST	ENDS
;	COMDAT ??_C@_0BI@FPHMKMKC@glGetSamplerParameterfv@
CONST	SEGMENT
??_C@_0BI@FPHMKMKC@glGetSamplerParameterfv@ DB 'glGetSamplerParameterfv', 00H ; `string'
CONST	ENDS
;	COMDAT ??_C@_0BJ@KOMJDLDN@glGetSamplerParameterIiv@
CONST	SEGMENT
??_C@_0BJ@KOMJDLDN@glGetSamplerParameterIiv@ DB 'glGetSamplerParameterIiv'
	DB	00H						; `string'
CONST	ENDS
;	COMDAT ??_C@_0BI@FECAOLJP@glGetSamplerParameteriv@
CONST	SEGMENT
??_C@_0BI@FECAOLJP@glGetSamplerParameteriv@ DB 'glGetSamplerParameteriv', 00H ; `string'
CONST	ENDS
;	COMDAT ??_C@_0BH@FEMFBPPB@glSamplerParameterIuiv@
CONST	SEGMENT
??_C@_0BH@FEMFBPPB@glSamplerParameterIuiv@ DB 'glSamplerParameterIuiv', 00H ; `string'
CONST	ENDS
;	COMDAT ??_C@_0BG@HKEIFIHF@glSamplerParameterIiv@
CONST	SEGMENT
??_C@_0BG@HKEIFIHF@glSamplerParameterIiv@ DB 'glSamplerParameterIiv', 00H ; `string'
CONST	ENDS
;	COMDAT ??_C@_0BF@GFCPAGMB@glSamplerParameterfv@
CONST	SEGMENT
??_C@_0BF@GFCPAGMB@glSamplerParameterfv@ DB 'glSamplerParameterfv', 00H ; `string'
CONST	ENDS
;	COMDAT ??_C@_0BE@CGLJNDFB@glSamplerParameterf@
CONST	SEGMENT
??_C@_0BE@CGLJNDFB@glSamplerParameterf@ DB 'glSamplerParameterf', 00H ; `string'
CONST	ENDS
;	COMDAT ??_C@_0BF@GOHDEBPM@glSamplerParameteriv@
CONST	SEGMENT
??_C@_0BF@GOHDEBPM@glSamplerParameteriv@ DB 'glSamplerParameteriv', 00H ; `string'
CONST	ENDS
;	COMDAT ??_C@_0BE@KBCBMPJO@glSamplerParameteri@
CONST	SEGMENT
??_C@_0BE@KBCBMPJO@glSamplerParameteri@ DB 'glSamplerParameteri', 00H ; `string'
CONST	ENDS
;	COMDAT ??_C@_0O@PDEILAPG@glBindSampler@
CONST	SEGMENT
??_C@_0O@PDEILAPG@glBindSampler@ DB 'glBindSampler', 00H ; `string'
CONST	ENDS
;	COMDAT ??_C@_0M@LAJKHOKJ@glIsSampler@
CONST	SEGMENT
??_C@_0M@LAJKHOKJ@glIsSampler@ DB 'glIsSampler', 00H	; `string'
CONST	ENDS
;	COMDAT ??_C@_0BB@FLPAOEOO@glDeleteSamplers@
CONST	SEGMENT
??_C@_0BB@FLPAOEOO@glDeleteSamplers@ DB 'glDeleteSamplers', 00H ; `string'
CONST	ENDS
;	COMDAT ??_C@_0O@EMMLGGLG@glGenSamplers@
CONST	SEGMENT
??_C@_0O@EMMLGGLG@glGenSamplers@ DB 'glGenSamplers', 00H ; `string'
CONST	ENDS
;	COMDAT ??_C@_0BD@COCJFEOH@glGetFragDataIndex@
CONST	SEGMENT
??_C@_0BD@COCJFEOH@glGetFragDataIndex@ DB 'glGetFragDataIndex', 00H ; `string'
CONST	ENDS
;	COMDAT ??_C@_0BO@POJBGCGG@glBindFragDataLocationIndexed@
CONST	SEGMENT
??_C@_0BO@POJBGCGG@glBindFragDataLocationIndexed@ DB 'glBindFragDataLocat'
	DB	'ionIndexed', 00H				; `string'
CONST	ENDS
;	COMDAT ??_C@_0O@JNHBCHMB@glSampleMaski@
CONST	SEGMENT
??_C@_0O@JNHBCHMB@glSampleMaski@ DB 'glSampleMaski', 00H ; `string'
CONST	ENDS
;	COMDAT ??_C@_0BD@DHLIMGN@glGetMultisamplefv@
CONST	SEGMENT
??_C@_0BD@DHLIMGN@glGetMultisamplefv@ DB 'glGetMultisamplefv', 00H ; `string'
CONST	ENDS
;	COMDAT ??_C@_0BI@JIHMLKCG@glTexImage3DMultisample@
CONST	SEGMENT
??_C@_0BI@JIHMLKCG@glTexImage3DMultisample@ DB 'glTexImage3DMultisample', 00H ; `string'
CONST	ENDS
;	COMDAT ??_C@_0BI@FHDFLFA@glTexImage2DMultisample@
CONST	SEGMENT
??_C@_0BI@FHDFLFA@glTexImage2DMultisample@ DB 'glTexImage2DMultisample', 00H ; `string'
CONST	ENDS
;	COMDAT ??_C@_0BF@ENLMLILA@glFramebufferTexture@
CONST	SEGMENT
??_C@_0BF@ENLMLILA@glFramebufferTexture@ DB 'glFramebufferTexture', 00H ; `string'
CONST	ENDS
;	COMDAT ??_C@_0BJ@KKBIDGPP@glGetBufferParameteri64v@
CONST	SEGMENT
??_C@_0BJ@KKBIDGPP@glGetBufferParameteri64v@ DB 'glGetBufferParameteri64v'
	DB	00H						; `string'
CONST	ENDS
;	COMDAT ??_C@_0BC@KOJILIEC@glGetInteger64i_v@
CONST	SEGMENT
??_C@_0BC@KOJILIEC@glGetInteger64i_v@ DB 'glGetInteger64i_v', 00H ; `string'
CONST	ENDS
;	COMDAT ??_C@_0M@MPEEOPIN@glGetSynciv@
CONST	SEGMENT
??_C@_0M@MPEEOPIN@glGetSynciv@ DB 'glGetSynciv', 00H	; `string'
CONST	ENDS
;	COMDAT ??_C@_0BA@INMBOHGL@glGetInteger64v@
CONST	SEGMENT
??_C@_0BA@INMBOHGL@glGetInteger64v@ DB 'glGetInteger64v', 00H ; `string'
CONST	ENDS
;	COMDAT ??_C@_0L@MHLOGHGO@glWaitSync@
CONST	SEGMENT
??_C@_0L@MHLOGHGO@glWaitSync@ DB 'glWaitSync', 00H	; `string'
CONST	ENDS
;	COMDAT ??_C@_0BB@KDMPGJAC@glClientWaitSync@
CONST	SEGMENT
??_C@_0BB@KDMPGJAC@glClientWaitSync@ DB 'glClientWaitSync', 00H ; `string'
CONST	ENDS
;	COMDAT ??_C@_0N@PIFDNDFG@glDeleteSync@
CONST	SEGMENT
??_C@_0N@PIFDNDFG@glDeleteSync@ DB 'glDeleteSync', 00H	; `string'
CONST	ENDS
;	COMDAT ??_C@_08JPIIHJEO@glIsSync@
CONST	SEGMENT
??_C@_08JPIIHJEO@glIsSync@ DB 'glIsSync', 00H		; `string'
CONST	ENDS
;	COMDAT ??_C@_0M@EFGFPFLP@glFenceSync@
CONST	SEGMENT
??_C@_0M@EFGFPFLP@glFenceSync@ DB 'glFenceSync', 00H	; `string'
CONST	ENDS
;	COMDAT ??_C@_0BC@ECOAPEBI@glProvokingVertex@
CONST	SEGMENT
??_C@_0BC@ECOAPEBI@glProvokingVertex@ DB 'glProvokingVertex', 00H ; `string'
CONST	ENDS
;	COMDAT ??_C@_0BO@NAPFJEEK@glMultiDrawElementsBaseVertex@
CONST	SEGMENT
??_C@_0BO@NAPFJEEK@glMultiDrawElementsBaseVertex@ DB 'glMultiDrawElements'
	DB	'BaseVertex', 00H				; `string'
CONST	ENDS
;	COMDAT ??_C@_0CC@KLOIIKNA@glDrawElementsInstancedBaseVert@
CONST	SEGMENT
??_C@_0CC@KLOIIKNA@glDrawElementsInstancedBaseVert@ DB 'glDrawElementsIns'
	DB	'tancedBaseVertex', 00H			; `string'
CONST	ENDS
;	COMDAT ??_C@_0BO@KBDDBILP@glDrawRangeElementsBaseVertex@
CONST	SEGMENT
??_C@_0BO@KBDDBILP@glDrawRangeElementsBaseVertex@ DB 'glDrawRangeElements'
	DB	'BaseVertex', 00H				; `string'
CONST	ENDS
;	COMDAT ??_C@_0BJ@LFMMIAHA@glDrawElementsBaseVertex@
CONST	SEGMENT
??_C@_0BJ@LFMMIAHA@glDrawElementsBaseVertex@ DB 'glDrawElementsBaseVertex'
	DB	00H						; `string'
CONST	ENDS
;	COMDAT ??_C@_0BG@BOLEKKCP@glUniformBlockBinding@
CONST	SEGMENT
??_C@_0BG@BOLEKKCP@glUniformBlockBinding@ DB 'glUniformBlockBinding', 00H ; `string'
CONST	ENDS
;	COMDAT ??_C@_0BM@KEMCJPAJ@glGetActiveUniformBlockName@
CONST	SEGMENT
??_C@_0BM@KEMCJPAJ@glGetActiveUniformBlockName@ DB 'glGetActiveUniformBlo'
	DB	'ckName', 00H				; `string'
CONST	ENDS
;	COMDAT ??_C@_0BK@DMHOPJGL@glGetActiveUniformBlockiv@
CONST	SEGMENT
??_C@_0BK@DMHOPJGL@glGetActiveUniformBlockiv@ DB 'glGetActiveUniformBlock'
	DB	'iv', 00H					; `string'
CONST	ENDS
;	COMDAT ??_C@_0BH@CBDIMHHE@glGetUniformBlockIndex@
CONST	SEGMENT
??_C@_0BH@CBDIMHHE@glGetUniformBlockIndex@ DB 'glGetUniformBlockIndex', 00H ; `string'
CONST	ENDS
;	COMDAT ??_C@_0BH@EGGFHKJJ@glGetActiveUniformName@
CONST	SEGMENT
??_C@_0BH@EGGFHKJJ@glGetActiveUniformName@ DB 'glGetActiveUniformName', 00H ; `string'
CONST	ENDS
;	COMDAT ??_C@_0BG@JEHIMPCG@glGetActiveUniformsiv@
CONST	SEGMENT
??_C@_0BG@JEHIMPCG@glGetActiveUniformsiv@ DB 'glGetActiveUniformsiv', 00H ; `string'
CONST	ENDS
;	COMDAT ??_C@_0BE@MDPMIDEE@glGetUniformIndices@
CONST	SEGMENT
??_C@_0BE@MDPMIDEE@glGetUniformIndices@ DB 'glGetUniformIndices', 00H ; `string'
CONST	ENDS
;	COMDAT ??_C@_0BE@EPKABDOG@glCopyBufferSubData@
CONST	SEGMENT
??_C@_0BE@EPKABDOG@glCopyBufferSubData@ DB 'glCopyBufferSubData', 00H ; `string'
CONST	ENDS
;	COMDAT ??_C@_0BI@LJDLNGAF@glPrimitiveRestartIndex@
CONST	SEGMENT
??_C@_0BI@LJDLNGAF@glPrimitiveRestartIndex@ DB 'glPrimitiveRestartIndex', 00H ; `string'
CONST	ENDS
;	COMDAT ??_C@_0M@IIMBBALL@glTexBuffer@
CONST	SEGMENT
??_C@_0M@IIMBBALL@glTexBuffer@ DB 'glTexBuffer', 00H	; `string'
CONST	ENDS
;	COMDAT ??_C@_0BI@CGJENFBH@glDrawElementsInstanced@
CONST	SEGMENT
??_C@_0BI@CGJENFBH@glDrawElementsInstanced@ DB 'glDrawElementsInstanced', 00H ; `string'
CONST	ENDS
;	COMDAT ??_C@_0BG@HIOFINAN@glDrawArraysInstanced@
CONST	SEGMENT
??_C@_0BG@HIOFINAN@glDrawArraysInstanced@ DB 'glDrawArraysInstanced', 00H ; `string'
CONST	ENDS
;	COMDAT ??_C@_0BA@ODJEGGAE@glIsVertexArray@
CONST	SEGMENT
??_C@_0BA@ODJEGGAE@glIsVertexArray@ DB 'glIsVertexArray', 00H ; `string'
CONST	ENDS
;	COMDAT ??_C@_0BC@EPJLBJBJ@glGenVertexArrays@
CONST	SEGMENT
??_C@_0BC@EPJLBJBJ@glGenVertexArrays@ DB 'glGenVertexArrays', 00H ; `string'
CONST	ENDS
;	COMDAT ??_C@_0BF@BMPCJLEF@glDeleteVertexArrays@
CONST	SEGMENT
??_C@_0BF@BMPCJLEF@glDeleteVertexArrays@ DB 'glDeleteVertexArrays', 00H ; `string'
CONST	ENDS
;	COMDAT ??_C@_0BC@LHBAHFAN@glBindVertexArray@
CONST	SEGMENT
??_C@_0BC@LHBAHFAN@glBindVertexArray@ DB 'glBindVertexArray', 00H ; `string'
CONST	ENDS
;	COMDAT ??_C@_0BJ@NCDMGHKF@glFlushMappedBufferRange@
CONST	SEGMENT
??_C@_0BJ@NCDMGHKF@glFlushMappedBufferRange@ DB 'glFlushMappedBufferRange'
	DB	00H						; `string'
CONST	ENDS
;	COMDAT ??_C@_0BB@EOHJGBIO@glMapBufferRange@
CONST	SEGMENT
??_C@_0BB@EOHJGBIO@glMapBufferRange@ DB 'glMapBufferRange', 00H ; `string'
CONST	ENDS
;	COMDAT ??_C@_0BK@NIHIDBBO@glFramebufferTextureLayer@
CONST	SEGMENT
??_C@_0BK@NIHIDBBO@glFramebufferTextureLayer@ DB 'glFramebufferTextureLay'
	DB	'er', 00H					; `string'
CONST	ENDS
;	COMDAT ??_C@_0CB@HNONLGJE@glRenderbufferStorageMultisampl@
CONST	SEGMENT
??_C@_0CB@HNONLGJE@glRenderbufferStorageMultisampl@ DB 'glRenderbufferSto'
	DB	'rageMultisample', 00H			; `string'
CONST	ENDS
;	COMDAT ??_C@_0BC@OANBDDEP@glBlitFramebuffer@
CONST	SEGMENT
??_C@_0BC@OANBDDEP@glBlitFramebuffer@ DB 'glBlitFramebuffer', 00H ; `string'
CONST	ENDS
;	COMDAT ??_C@_0BB@BHNIMGDM@glGenerateMipmap@
CONST	SEGMENT
??_C@_0BB@BHNIMGDM@glGenerateMipmap@ DB 'glGenerateMipmap', 00H ; `string'
CONST	ENDS
;	COMDAT ??_C@_0CG@KLDGJEON@glGetFramebufferAttachmentParam@
CONST	SEGMENT
??_C@_0CG@KLDGJEON@glGetFramebufferAttachmentParam@ DB 'glGetFramebufferA'
	DB	'ttachmentParameteriv', 00H			; `string'
CONST	ENDS
;	COMDAT ??_C@_0BK@OJDINAOA@glFramebufferRenderbuffer@
CONST	SEGMENT
??_C@_0BK@OJDINAOA@glFramebufferRenderbuffer@ DB 'glFramebufferRenderbuff'
	DB	'er', 00H					; `string'
CONST	ENDS
;	COMDAT ??_C@_0BH@JDEHAJHC@glFramebufferTexture3D@
CONST	SEGMENT
??_C@_0BH@JDEHAJHC@glFramebufferTexture3D@ DB 'glFramebufferTexture3D', 00H ; `string'
CONST	ENDS
;	COMDAT ??_C@_0BH@JCIFGDEF@glFramebufferTexture2D@
CONST	SEGMENT
??_C@_0BH@JCIFGDEF@glFramebufferTexture2D@ DB 'glFramebufferTexture2D', 00H ; `string'
CONST	ENDS
;	COMDAT ??_C@_0BH@JAMDNNBM@glFramebufferTexture1D@
CONST	SEGMENT
??_C@_0BH@JAMDNNBM@glFramebufferTexture1D@ DB 'glFramebufferTexture1D', 00H ; `string'
CONST	ENDS
;	COMDAT ??_C@_0BJ@GIOLHEAD@glCheckFramebufferStatus@
CONST	SEGMENT
??_C@_0BJ@GIOLHEAD@glCheckFramebufferStatus@ DB 'glCheckFramebufferStatus'
	DB	00H						; `string'
CONST	ENDS
;	COMDAT ??_C@_0BC@FAPEBGID@glGenFramebuffers@
CONST	SEGMENT
??_C@_0BC@FAPEBGID@glGenFramebuffers@ DB 'glGenFramebuffers', 00H ; `string'
CONST	ENDS
;	COMDAT ??_C@_0BF@DJNJENP@glDeleteFramebuffers@
CONST	SEGMENT
??_C@_0BF@DJNJENP@glDeleteFramebuffers@ DB 'glDeleteFramebuffers', 00H ; `string'
CONST	ENDS
;	COMDAT ??_C@_0BC@CJMIBNO@glBindFramebuffer@
CONST	SEGMENT
??_C@_0BC@CJMIBNO@glBindFramebuffer@ DB 'glBindFramebuffer', 00H ; `string'
CONST	ENDS
;	COMDAT ??_C@_0BA@FGBIJCNH@glIsFramebuffer@
CONST	SEGMENT
??_C@_0BA@FGBIJCNH@glIsFramebuffer@ DB 'glIsFramebuffer', 00H ; `string'
CONST	ENDS
;	COMDAT ??_C@_0BN@FGKAECKO@glGetRenderbufferParameteriv@
CONST	SEGMENT
??_C@_0BN@FGKAECKO@glGetRenderbufferParameteriv@ DB 'glGetRenderbufferPar'
	DB	'ameteriv', 00H				; `string'
CONST	ENDS
;	COMDAT ??_C@_0BG@EOIILGMJ@glRenderbufferStorage@
CONST	SEGMENT
??_C@_0BG@EOIILGMJ@glRenderbufferStorage@ DB 'glRenderbufferStorage', 00H ; `string'
CONST	ENDS
;	COMDAT ??_C@_0BD@MIGEDNGJ@glGenRenderbuffers@
CONST	SEGMENT
??_C@_0BD@MIGEDNGJ@glGenRenderbuffers@ DB 'glGenRenderbuffers', 00H ; `string'
CONST	ENDS
;	COMDAT ??_C@_0BG@KKOKEJDE@glDeleteRenderbuffers@
CONST	SEGMENT
??_C@_0BG@KKOKEJDE@glDeleteRenderbuffers@ DB 'glDeleteRenderbuffers', 00H ; `string'
CONST	ENDS
;	COMDAT ??_C@_0BD@EPOPJGFA@glBindRenderbuffer@
CONST	SEGMENT
??_C@_0BD@EPOPJGFA@glBindRenderbuffer@ DB 'glBindRenderbuffer', 00H ; `string'
CONST	ENDS
;	COMDAT ??_C@_0BB@DGGHKKOH@glIsRenderbuffer@
CONST	SEGMENT
??_C@_0BB@DGGHKKOH@glIsRenderbuffer@ DB 'glIsRenderbuffer', 00H ; `string'
CONST	ENDS
;	COMDAT ??_C@_0N@PILJCBOD@glGetStringi@
CONST	SEGMENT
??_C@_0N@PILJCBOD@glGetStringi@ DB 'glGetStringi', 00H	; `string'
CONST	ENDS
;	COMDAT ??_C@_0BA@OACPENCO@glClearBufferfi@
CONST	SEGMENT
??_C@_0BA@OACPENCO@glClearBufferfi@ DB 'glClearBufferfi', 00H ; `string'
CONST	ENDS
;	COMDAT ??_C@_0BA@CNHFEDLA@glClearBufferfv@
CONST	SEGMENT
??_C@_0BA@CNHFEDLA@glClearBufferfv@ DB 'glClearBufferfv', 00H ; `string'
CONST	ENDS
;	COMDAT ??_C@_0BB@OHPPAEID@glClearBufferuiv@
CONST	SEGMENT
??_C@_0BB@OHPPAEID@glClearBufferuiv@ DB 'glClearBufferuiv', 00H ; `string'
CONST	ENDS
;	COMDAT ??_C@_0BA@CGCJAEIN@glClearBufferiv@
CONST	SEGMENT
??_C@_0BA@CGCJAEIN@glClearBufferiv@ DB 'glClearBufferiv', 00H ; `string'
CONST	ENDS
;	COMDAT ??_C@_0BG@MLODKKFL@glGetTexParameterIuiv@
CONST	SEGMENT
??_C@_0BG@MLODKKFL@glGetTexParameterIuiv@ DB 'glGetTexParameterIuiv', 00H ; `string'
CONST	ENDS
;	COMDAT ??_C@_0BF@ODBJFHDD@glGetTexParameterIiv@
CONST	SEGMENT
??_C@_0BF@ODBJFHDD@glGetTexParameterIiv@ DB 'glGetTexParameterIiv', 00H ; `string'
CONST	ENDS
;	COMDAT ??_C@_0BD@FDBCMKBE@glTexParameterIuiv@
CONST	SEGMENT
??_C@_0BD@FDBCMKBE@glTexParameterIuiv@ DB 'glTexParameterIuiv', 00H ; `string'
CONST	ENDS
;	COMDAT ??_C@_0BC@MAFJKEHB@glTexParameterIiv@
CONST	SEGMENT
??_C@_0BC@MAFJKEHB@glTexParameterIiv@ DB 'glTexParameterIiv', 00H ; `string'
CONST	ENDS
;	COMDAT ??_C@_0O@HJJIIGE@glUniform4uiv@
CONST	SEGMENT
??_C@_0O@HJJIIGE@glUniform4uiv@ DB 'glUniform4uiv', 00H	; `string'
CONST	ENDS
;	COMDAT ??_C@_0O@LFLJFEHE@glUniform3uiv@
CONST	SEGMENT
??_C@_0O@LFLJFEHE@glUniform3uiv@ DB 'glUniform3uiv', 00H ; `string'
CONST	ENDS
;	COMDAT ??_C@_0O@IINJHNME@glUniform2uiv@
CONST	SEGMENT
??_C@_0O@IINJHNME@glUniform2uiv@ DB 'glUniform2uiv', 00H ; `string'
CONST	ENDS
;	COMDAT ??_C@_0O@MPHJAHBE@glUniform1uiv@
CONST	SEGMENT
??_C@_0O@MPHJAHBE@glUniform1uiv@ DB 'glUniform1uiv', 00H ; `string'
CONST	ENDS
;	COMDAT ??_C@_0N@ENCKKJAN@glUniform4ui@
CONST	SEGMENT
??_C@_0N@ENCKKJAN@glUniform4ui@ DB 'glUniform4ui', 00H	; `string'
CONST	ENDS
;	COMDAT ??_C@_0N@NAPNJBLE@glUniform3ui@
CONST	SEGMENT
??_C@_0N@NAPNJBLE@glUniform3ui@ DB 'glUniform3ui', 00H	; `string'
CONST	ENDS
;	COMDAT ??_C@_0N@GIEBPGNB@glUniform2ui@
CONST	SEGMENT
??_C@_0N@GIEBPGNB@glUniform2ui@ DB 'glUniform2ui', 00H	; `string'
CONST	ENDS
;	COMDAT ??_C@_0N@HKPEFJDP@glUniform1ui@
CONST	SEGMENT
??_C@_0N@HKPEFJDP@glUniform1ui@ DB 'glUniform1ui', 00H	; `string'
CONST	ENDS
;	COMDAT ??_C@_0BG@NDOIGAMC@glGetFragDataLocation@
CONST	SEGMENT
??_C@_0BG@NDOIGAMC@glGetFragDataLocation@ DB 'glGetFragDataLocation', 00H ; `string'
CONST	ENDS
;	COMDAT ??_C@_0BH@DLJLAGBA@glBindFragDataLocation@
CONST	SEGMENT
??_C@_0BH@DLJLAGBA@glBindFragDataLocation@ DB 'glBindFragDataLocation', 00H ; `string'
CONST	ENDS
;	COMDAT ??_C@_0BA@NIGECFIF@glGetUniformuiv@
CONST	SEGMENT
??_C@_0BA@NIGECFIF@glGetUniformuiv@ DB 'glGetUniformuiv', 00H ; `string'
CONST	ENDS
;	COMDAT ??_C@_0BE@IMNLBLPG@glVertexAttribI4usv@
CONST	SEGMENT
??_C@_0BE@IMNLBLPG@glVertexAttribI4usv@ DB 'glVertexAttribI4usv', 00H ; `string'
CONST	ENDS
;	COMDAT ??_C@_0BE@JBDPNCLB@glVertexAttribI4ubv@
CONST	SEGMENT
??_C@_0BE@JBDPNCLB@glVertexAttribI4ubv@ DB 'glVertexAttribI4ubv', 00H ; `string'
CONST	ENDS
;	COMDAT ??_C@_0BD@MIPLFJKA@glVertexAttribI4sv@
CONST	SEGMENT
??_C@_0BD@MIPLFJKA@glVertexAttribI4sv@ DB 'glVertexAttribI4sv', 00H ; `string'
CONST	ENDS
;	COMDAT ??_C@_0BD@NFBPJAOH@glVertexAttribI4bv@
CONST	SEGMENT
??_C@_0BD@NFBPJAOH@glVertexAttribI4bv@ DB 'glVertexAttribI4bv', 00H ; `string'
CONST	ENDS
;	COMDAT ??_C@_0BE@JNGKDNFA@glVertexAttribI4uiv@
CONST	SEGMENT
??_C@_0BE@JNGKDNFA@glVertexAttribI4uiv@ DB 'glVertexAttribI4uiv', 00H ; `string'
CONST	ENDS
;	COMDAT ??_C@_0BE@CPEKOBEA@glVertexAttribI3uiv@
CONST	SEGMENT
??_C@_0BE@CPEKOBEA@glVertexAttribI3uiv@ DB 'glVertexAttribI3uiv', 00H ; `string'
CONST	ENDS
;	COMDAT ??_C@_0BE@BCCKMIPA@glVertexAttribI2uiv@
CONST	SEGMENT
??_C@_0BE@BCCKMIPA@glVertexAttribI2uiv@ DB 'glVertexAttribI2uiv', 00H ; `string'
CONST	ENDS
;	COMDAT ??_C@_0BE@FFIKLCCA@glVertexAttribI1uiv@
CONST	SEGMENT
??_C@_0BE@FFIKLCCA@glVertexAttribI1uiv@ DB 'glVertexAttribI1uiv', 00H ; `string'
CONST	ENDS
;	COMDAT ??_C@_0BD@NJEKHPAG@glVertexAttribI4iv@
CONST	SEGMENT
??_C@_0BD@NJEKHPAG@glVertexAttribI4iv@ DB 'glVertexAttribI4iv', 00H ; `string'
CONST	ENDS
;	COMDAT ??_C@_0BD@EEJNEHLP@glVertexAttribI3iv@
CONST	SEGMENT
??_C@_0BD@EEJNEHLP@glVertexAttribI3iv@ DB 'glVertexAttribI3iv', 00H ; `string'
CONST	ENDS
;	COMDAT ??_C@_0BD@PMCBCANK@glVertexAttribI2iv@
CONST	SEGMENT
??_C@_0BD@PMCBCANK@glVertexAttribI2iv@ DB 'glVertexAttribI2iv', 00H ; `string'
CONST	ENDS
;	COMDAT ??_C@_0BD@OOJEIPDE@glVertexAttribI1iv@
CONST	SEGMENT
??_C@_0BD@OOJEIPDE@glVertexAttribI1iv@ DB 'glVertexAttribI1iv', 00H ; `string'
CONST	ENDS
;	COMDAT ??_C@_0BD@BCMCLIM@glVertexAttribI4ui@
CONST	SEGMENT
??_C@_0BD@BCMCLIM@glVertexAttribI4ui@ DB 'glVertexAttribI4ui', 00H ; `string'
CONST	ENDS
;	COMDAT ??_C@_0BD@JMPLBDDF@glVertexAttribI3ui@
CONST	SEGMENT
??_C@_0BD@JMPLBDDF@glVertexAttribI3ui@ DB 'glVertexAttribI3ui', 00H ; `string'
CONST	ENDS
;	COMDAT ??_C@_0BD@CEEHHEFA@glVertexAttribI2ui@
CONST	SEGMENT
??_C@_0BD@CEEHHEFA@glVertexAttribI2ui@ DB 'glVertexAttribI2ui', 00H ; `string'
CONST	ENDS
;	COMDAT ??_C@_0BD@DGPCNLLO@glVertexAttribI1ui@
CONST	SEGMENT
??_C@_0BD@DGPCNLLO@glVertexAttribI1ui@ DB 'glVertexAttribI1ui', 00H ; `string'
CONST	ENDS
;	COMDAT ??_C@_0BC@CFEDAOOA@glVertexAttribI4i@
CONST	SEGMENT
??_C@_0BC@CFEDAOOA@glVertexAttribI4i@ DB 'glVertexAttribI4i', 00H ; `string'
CONST	ENDS
;	COMDAT ??_C@_0BC@CAAMBIGF@glVertexAttribI3i@
CONST	SEGMENT
??_C@_0BC@CAAMBIGF@glVertexAttribI3i@ DB 'glVertexAttribI3i', 00H ; `string'
CONST	ENDS
;	COMDAT ??_C@_0BC@CBMOHCFC@glVertexAttribI2i@
CONST	SEGMENT
??_C@_0BC@CBMOHCFC@glVertexAttribI2i@ DB 'glVertexAttribI2i', 00H ; `string'
CONST	ENDS
;	COMDAT ??_C@_0BC@CDIIMMAL@glVertexAttribI1i@
CONST	SEGMENT
??_C@_0BC@CDIIMMAL@glVertexAttribI1i@ DB 'glVertexAttribI1i', 00H ; `string'
CONST	ENDS
;	COMDAT ??_C@_0BG@GCBDCABB@glGetVertexAttribIuiv@
CONST	SEGMENT
??_C@_0BG@GCBDCABB@glGetVertexAttribIuiv@ DB 'glGetVertexAttribIuiv', 00H ; `string'
CONST	ENDS
;	COMDAT ??_C@_0BF@KPDNEONP@glGetVertexAttribIiv@
CONST	SEGMENT
??_C@_0BF@KPDNEONP@glGetVertexAttribIiv@ DB 'glGetVertexAttribIiv', 00H ; `string'
CONST	ENDS
;	COMDAT ??_C@_0BH@NLOEHKCD@glVertexAttribIPointer@
CONST	SEGMENT
??_C@_0BH@NLOEHKCD@glVertexAttribIPointer@ DB 'glVertexAttribIPointer', 00H ; `string'
CONST	ENDS
;	COMDAT ??_C@_0BH@KCIOLNMA@glEndConditionalRender@
CONST	SEGMENT
??_C@_0BH@KCIOLNMA@glEndConditionalRender@ DB 'glEndConditionalRender', 00H ; `string'
CONST	ENDS
;	COMDAT ??_C@_0BJ@EHEPIEPF@glBeginConditionalRender@
CONST	SEGMENT
??_C@_0BJ@EHEPIEPF@glBeginConditionalRender@ DB 'glBeginConditionalRender'
	DB	00H						; `string'
CONST	ENDS
;	COMDAT ??_C@_0N@HLGAGIMI@glClampColor@
CONST	SEGMENT
??_C@_0N@HLGAGIMI@glClampColor@ DB 'glClampColor', 00H	; `string'
CONST	ENDS
;	COMDAT ??_C@_0BO@ODFLPNG@glGetTransformFeedbackVarying@
CONST	SEGMENT
??_C@_0BO@ODFLPNG@glGetTransformFeedbackVarying@ DB 'glGetTransformFeedba'
	DB	'ckVarying', 00H				; `string'
CONST	ENDS
;	COMDAT ??_C@_0BM@IJFAKBEF@glTransformFeedbackVaryings@
CONST	SEGMENT
??_C@_0BM@IJFAKBEF@glTransformFeedbackVaryings@ DB 'glTransformFeedbackVa'
	DB	'ryings', 00H				; `string'
CONST	ENDS
;	COMDAT ??_C@_0BB@LDPKOCJI@glBindBufferBase@
CONST	SEGMENT
??_C@_0BB@LDPKOCJI@glBindBufferBase@ DB 'glBindBufferBase', 00H ; `string'
CONST	ENDS
;	COMDAT ??_C@_0BC@EEMMCHMB@glBindBufferRange@
CONST	SEGMENT
??_C@_0BC@EEMMCHMB@glBindBufferRange@ DB 'glBindBufferRange', 00H ; `string'
CONST	ENDS
;	COMDAT ??_C@_0BH@LCFLNNBH@glEndTransformFeedback@
CONST	SEGMENT
??_C@_0BH@LCFLNNBH@glEndTransformFeedback@ DB 'glEndTransformFeedback', 00H ; `string'
CONST	ENDS
;	COMDAT ??_C@_0BJ@FHJKOECC@glBeginTransformFeedback@
CONST	SEGMENT
??_C@_0BJ@FHJKOECC@glBeginTransformFeedback@ DB 'glBeginTransformFeedback'
	DB	00H						; `string'
CONST	ENDS
;	COMDAT ??_C@_0N@IMGKGOKN@glIsEnabledi@
CONST	SEGMENT
??_C@_0N@IMGKGOKN@glIsEnabledi@ DB 'glIsEnabledi', 00H	; `string'
CONST	ENDS
;	COMDAT ??_C@_0L@BMJPGDDH@glDisablei@
CONST	SEGMENT
??_C@_0L@BMJPGDDH@glDisablei@ DB 'glDisablei', 00H	; `string'
CONST	ENDS
;	COMDAT ??_C@_09IEGEGIEN@glEnablei@
CONST	SEGMENT
??_C@_09IEGEGIEN@glEnablei@ DB 'glEnablei', 00H		; `string'
CONST	ENDS
;	COMDAT ??_C@_0BA@FKCNNMFO@glGetIntegeri_v@
CONST	SEGMENT
??_C@_0BA@FKCNNMFO@glGetIntegeri_v@ DB 'glGetIntegeri_v', 00H ; `string'
CONST	ENDS
;	COMDAT ??_C@_0BA@OAKNOBP@glGetBooleani_v@
CONST	SEGMENT
??_C@_0BA@OAKNOBP@glGetBooleani_v@ DB 'glGetBooleani_v', 00H ; `string'
CONST	ENDS
;	COMDAT ??_C@_0N@JHNNNJFG@glColorMaski@
CONST	SEGMENT
??_C@_0N@JHNNNJFG@glColorMaski@ DB 'glColorMaski', 00H	; `string'
CONST	ENDS
;	COMDAT ??_C@_0BF@HFGACBCH@glUniformMatrix4x3fv@
CONST	SEGMENT
??_C@_0BF@HFGACBCH@glUniformMatrix4x3fv@ DB 'glUniformMatrix4x3fv', 00H ; `string'
CONST	ENDS
;	COMDAT ??_C@_0BF@PFLCCJCG@glUniformMatrix3x4fv@
CONST	SEGMENT
??_C@_0BF@PFLCCJCG@glUniformMatrix3x4fv@ DB 'glUniformMatrix3x4fv', 00H ; `string'
CONST	ENDS
;	COMDAT ??_C@_0BF@MNNMEGEC@glUniformMatrix4x2fv@
CONST	SEGMENT
??_C@_0BF@MNNMEGEC@glUniformMatrix4x2fv@ DB 'glUniformMatrix4x2fv', 00H ; `string'
CONST	ENDS
;	COMDAT ??_C@_0BF@DOOOPKID@glUniformMatrix2x4fv@
CONST	SEGMENT
??_C@_0BF@DOOOPKID@glUniformMatrix2x4fv@ DB 'glUniformMatrix2x4fv', 00H ; `string'
CONST	ENDS
;	COMDAT ??_C@_0BF@NANJHGPK@glUniformMatrix3x2fv@
CONST	SEGMENT
??_C@_0BF@NANJHGPK@glUniformMatrix3x2fv@ DB 'glUniformMatrix3x2fv', 00H ; `string'
CONST	ENDS
;	COMDAT ??_C@_0BF@KDDJMCDK@glUniformMatrix2x3fv@
CONST	SEGMENT
??_C@_0BF@KDDJMCDK@glUniformMatrix2x3fv@ DB 'glUniformMatrix2x3fv', 00H ; `string'
CONST	ENDS
;	COMDAT ??_C@_0BG@JPNNNPKG@glVertexAttribPointer@
CONST	SEGMENT
??_C@_0BG@JPNNNPKG@glVertexAttribPointer@ DB 'glVertexAttribPointer', 00H ; `string'
CONST	ENDS
;	COMDAT ??_C@_0BD@OKBBECIG@glVertexAttrib4usv@
CONST	SEGMENT
??_C@_0BD@OKBBECIG@glVertexAttrib4usv@ DB 'glVertexAttrib4usv', 00H ; `string'
CONST	ENDS
;	COMDAT ??_C@_0BD@PLKAGECA@glVertexAttrib4uiv@
CONST	SEGMENT
??_C@_0BD@PLKAGECA@glVertexAttrib4uiv@ DB 'glVertexAttrib4uiv', 00H ; `string'
CONST	ENDS
;	COMDAT ??_C@_0BD@PHPFILMB@glVertexAttrib4ubv@
CONST	SEGMENT
??_C@_0BD@PHPFILMB@glVertexAttrib4ubv@ DB 'glVertexAttrib4ubv', 00H ; `string'
CONST	ENDS
;	COMDAT ??_C@_0BC@EJJODHK@glVertexAttrib4sv@
CONST	SEGMENT
??_C@_0BC@EJJODHK@glVertexAttrib4sv@ DB 'glVertexAttrib4sv', 00H ; `string'
CONST	ENDS
;	COMDAT ??_C@_0BB@PLKDLLIP@glVertexAttrib4s@
CONST	SEGMENT
??_C@_0BB@PLKDLLIP@glVertexAttrib4s@ DB 'glVertexAttrib4s', 00H ; `string'
CONST	ENDS
;	COMDAT ??_C@_0BC@BFCIMFNM@glVertexAttrib4iv@
CONST	SEGMENT
??_C@_0BC@BFCIMFNM@glVertexAttrib4iv@ DB 'glVertexAttrib4iv', 00H ; `string'
CONST	ENDS
;	COMDAT ??_C@_0BC@BOHEICOB@glVertexAttrib4fv@
CONST	SEGMENT
??_C@_0BC@BOHEICOB@glVertexAttrib4fv@ DB 'glVertexAttrib4fv', 00H ; `string'
CONST	ENDS
;	COMDAT ??_C@_0BB@MMBGFNJL@glVertexAttrib4f@
CONST	SEGMENT
??_C@_0BB@MMBGFNJL@glVertexAttrib4f@ DB 'glVertexAttrib4f', 00H ; `string'
CONST	ENDS
;	COMDAT ??_C@_0BC@BNPAFGIP@glVertexAttrib4dv@
CONST	SEGMENT
??_C@_0BC@BNPAFGIP@glVertexAttrib4dv@ DB 'glVertexAttrib4dv', 00H ; `string'
CONST	ENDS
;	COMDAT ??_C@_0BB@POCADPBJ@glVertexAttrib4d@
CONST	SEGMENT
??_C@_0BB@POCADPBJ@glVertexAttrib4d@ DB 'glVertexAttrib4d', 00H ; `string'
CONST	ENDS
;	COMDAT ??_C@_0BC@BJHNCKDN@glVertexAttrib4bv@
CONST	SEGMENT
??_C@_0BC@BJHNCKDN@glVertexAttrib4bv@ DB 'glVertexAttrib4bv', 00H ; `string'
CONST	ENDS
;	COMDAT ??_C@_0BE@IIAFPNIH@glVertexAttrib4Nusv@
CONST	SEGMENT
??_C@_0BE@IIAFPNIH@glVertexAttrib4Nusv@ DB 'glVertexAttrib4Nusv', 00H ; `string'
CONST	ENDS
;	COMDAT ??_C@_0BE@JJLENLCB@glVertexAttrib4Nuiv@
CONST	SEGMENT
??_C@_0BE@JJLENLCB@glVertexAttrib4Nuiv@ DB 'glVertexAttrib4Nuiv', 00H ; `string'
CONST	ENDS
;	COMDAT ??_C@_0BE@JFOBDEMA@glVertexAttrib4Nubv@
CONST	SEGMENT
??_C@_0BE@JFOBDEMA@glVertexAttrib4Nubv@ DB 'glVertexAttrib4Nubv', 00H ; `string'
CONST	ENDS
;	COMDAT ??_C@_0BD@OHBIJGMB@glVertexAttrib4Nub@
CONST	SEGMENT
??_C@_0BD@OHBIJGMB@glVertexAttrib4Nub@ DB 'glVertexAttrib4Nub', 00H ; `string'
CONST	ENDS
;	COMDAT ??_C@_0BD@MNDLDNCG@glVertexAttrib4Nsv@
CONST	SEGMENT
??_C@_0BD@MNDLDNCG@glVertexAttrib4Nsv@ DB 'glVertexAttrib4Nsv', 00H ; `string'
CONST	ENDS
;	COMDAT ??_C@_0BD@NMIKBLIA@glVertexAttrib4Niv@
CONST	SEGMENT
??_C@_0BD@NMIKBLIA@glVertexAttrib4Niv@ DB 'glVertexAttrib4Niv', 00H ; `string'
CONST	ENDS
;	COMDAT ??_C@_0BD@NANPPEGB@glVertexAttrib4Nbv@
CONST	SEGMENT
??_C@_0BD@NANPPEGB@glVertexAttrib4Nbv@ DB 'glVertexAttrib4Nbv', 00H ; `string'
CONST	ENDS
;	COMDAT ??_C@_0BC@JJEONLMD@glVertexAttrib3sv@
CONST	SEGMENT
??_C@_0BC@JJEONLMD@glVertexAttrib3sv@ DB 'glVertexAttrib3sv', 00H ; `string'
CONST	ENDS
;	COMDAT ??_C@_0BB@POOMKNAK@glVertexAttrib3s@
CONST	SEGMENT
??_C@_0BB@POOMKNAK@glVertexAttrib3s@ DB 'glVertexAttrib3s', 00H ; `string'
CONST	ENDS
;	COMDAT ??_C@_0BC@IDKDLKFI@glVertexAttrib3fv@
CONST	SEGMENT
??_C@_0BC@IDKDLKFI@glVertexAttrib3fv@ DB 'glVertexAttrib3fv', 00H ; `string'
CONST	ENDS
;	COMDAT ??_C@_0BB@MJFJELBO@glVertexAttrib3f@
CONST	SEGMENT
??_C@_0BB@MJFJELBO@glVertexAttrib3f@ DB 'glVertexAttrib3f', 00H ; `string'
CONST	ENDS
;	COMDAT ??_C@_0BC@IACHGODG@glVertexAttrib3dv@
CONST	SEGMENT
??_C@_0BC@IACHGODG@glVertexAttrib3dv@ DB 'glVertexAttrib3dv', 00H ; `string'
CONST	ENDS
;	COMDAT ??_C@_0BB@PLGPCJJM@glVertexAttrib3d@
CONST	SEGMENT
??_C@_0BB@PLGPCJJM@glVertexAttrib3d@ DB 'glVertexAttrib3d', 00H ; `string'
CONST	ENDS
;	COMDAT ??_C@_0BC@CBPCLMKG@glVertexAttrib2sv@
CONST	SEGMENT
??_C@_0BC@CBPCLMKG@glVertexAttrib2sv@ DB 'glVertexAttrib2sv', 00H ; `string'
CONST	ENDS
;	COMDAT ??_C@_0BB@PPCOMHDN@glVertexAttrib2s@
CONST	SEGMENT
??_C@_0BB@PPCOMHDN@glVertexAttrib2s@ DB 'glVertexAttrib2s', 00H ; `string'
CONST	ENDS
;	COMDAT ??_C@_0BC@DLBPNNDN@glVertexAttrib2fv@
CONST	SEGMENT
??_C@_0BC@DLBPNNDN@glVertexAttrib2fv@ DB 'glVertexAttrib2fv', 00H ; `string'
CONST	ENDS
;	COMDAT ??_C@_0BB@MIJLCBCJ@glVertexAttrib2f@
CONST	SEGMENT
??_C@_0BB@MIJLCBCJ@glVertexAttrib2f@ DB 'glVertexAttrib2f', 00H ; `string'
CONST	ENDS
;	COMDAT ??_C@_0BC@DIJLAJFD@glVertexAttrib2dv@
CONST	SEGMENT
??_C@_0BC@DIJLAJFD@glVertexAttrib2dv@ DB 'glVertexAttrib2dv', 00H ; `string'
CONST	ENDS
;	COMDAT ??_C@_0BB@PKKNEDKL@glVertexAttrib2d@
CONST	SEGMENT
??_C@_0BB@PKKNEDKL@glVertexAttrib2d@ DB 'glVertexAttrib2d', 00H ; `string'
CONST	ENDS
;	COMDAT ??_C@_0BC@DDEHBDEI@glVertexAttrib1sv@
CONST	SEGMENT
??_C@_0BC@DDEHBDEI@glVertexAttrib1sv@ DB 'glVertexAttrib1sv', 00H ; `string'
CONST	ENDS
;	COMDAT ??_C@_0BB@PNGIHJGE@glVertexAttrib1s@
CONST	SEGMENT
??_C@_0BB@PNGIHJGE@glVertexAttrib1s@ DB 'glVertexAttrib1s', 00H ; `string'
CONST	ENDS
;	COMDAT ??_C@_0BC@CJKKHCND@glVertexAttrib1fv@
CONST	SEGMENT
??_C@_0BC@CJKKHCND@glVertexAttrib1fv@ DB 'glVertexAttrib1fv', 00H ; `string'
CONST	ENDS
;	COMDAT ??_C@_0BB@MKNNJPHA@glVertexAttrib1f@
CONST	SEGMENT
??_C@_0BB@MKNNJPHA@glVertexAttrib1f@ DB 'glVertexAttrib1f', 00H ; `string'
CONST	ENDS
;	COMDAT ??_C@_0BC@CKCOKGLN@glVertexAttrib1dv@
CONST	SEGMENT
??_C@_0BC@CKCOKGLN@glVertexAttrib1dv@ DB 'glVertexAttrib1dv', 00H ; `string'
CONST	ENDS
;	COMDAT ??_C@_0BB@PIOLPNPC@glVertexAttrib1d@
CONST	SEGMENT
??_C@_0BB@PIOLPNPC@glVertexAttrib1d@ DB 'glVertexAttrib1d', 00H ; `string'
CONST	ENDS
;	COMDAT ??_C@_0BC@MAPGDLJK@glValidateProgram@
CONST	SEGMENT
??_C@_0BC@MAPGDLJK@glValidateProgram@ DB 'glValidateProgram', 00H ; `string'
CONST	ENDS
;	COMDAT ??_C@_0BD@LNHCBEKP@glUniformMatrix4fv@
CONST	SEGMENT
??_C@_0BD@LNHCBEKP@glUniformMatrix4fv@ DB 'glUniformMatrix4fv', 00H ; `string'
CONST	ENDS
;	COMDAT ??_C@_0BD@CAKFCMBG@glUniformMatrix3fv@
CONST	SEGMENT
??_C@_0BD@CAKFCMBG@glUniformMatrix3fv@ DB 'glUniformMatrix3fv', 00H ; `string'
CONST	ENDS
;	COMDAT ??_C@_0BD@JIBJELHD@glUniformMatrix2fv@
CONST	SEGMENT
??_C@_0BD@JIBJELHD@glUniformMatrix2fv@ DB 'glUniformMatrix2fv', 00H ; `string'
CONST	ENDS
;	COMDAT ??_C@_0N@JFEMPNIH@glUniform4iv@
CONST	SEGMENT
??_C@_0N@JFEMPNIH@glUniform4iv@ DB 'glUniform4iv', 00H	; `string'
CONST	ENDS
;	COMDAT ??_C@_0N@IJLMFDO@glUniform3iv@
CONST	SEGMENT
??_C@_0N@IJLMFDO@glUniform3iv@ DB 'glUniform3iv', 00H	; `string'
CONST	ENDS
;	COMDAT ??_C@_0N@LACHKCFL@glUniform2iv@
CONST	SEGMENT
??_C@_0N@LACHKCFL@glUniform2iv@ DB 'glUniform2iv', 00H	; `string'
CONST	ENDS
;	COMDAT ??_C@_0N@KCJCANLF@glUniform1iv@
CONST	SEGMENT
??_C@_0N@KCJCANLF@glUniform1iv@ DB 'glUniform1iv', 00H	; `string'
CONST	ENDS
;	COMDAT ??_C@_0N@JOBALKLK@glUniform4fv@
CONST	SEGMENT
??_C@_0N@JOBALKLK@glUniform4fv@ DB 'glUniform4fv', 00H	; `string'
CONST	ENDS
;	COMDAT ??_C@_0N@DMHICAD@glUniform3fv@
CONST	SEGMENT
??_C@_0N@DMHICAD@glUniform3fv@ DB 'glUniform3fv', 00H	; `string'
CONST	ENDS
;	COMDAT ??_C@_0N@LLHLOFGG@glUniform2fv@
CONST	SEGMENT
??_C@_0N@LLHLOFGG@glUniform2fv@ DB 'glUniform2fv', 00H	; `string'
CONST	ENDS
;	COMDAT ??_C@_0N@KJMOEKII@glUniform1fv@
CONST	SEGMENT
??_C@_0N@KJMOEKII@glUniform1fv@ DB 'glUniform1fv', 00H	; `string'
CONST	ENDS
;	COMDAT ??_C@_0M@EKNBNBMB@glUniform4i@
CONST	SEGMENT
??_C@_0M@EKNBNBMB@glUniform4i@ DB 'glUniform4i', 00H	; `string'
CONST	ENDS
;	COMDAT ??_C@_0M@EPJOMHEE@glUniform3i@
CONST	SEGMENT
??_C@_0M@EPJOMHEE@glUniform3i@ DB 'glUniform3i', 00H	; `string'
CONST	ENDS
;	COMDAT ??_C@_0M@EOFMKNHD@glUniform2i@
CONST	SEGMENT
??_C@_0M@EOFMKNHD@glUniform2i@ DB 'glUniform2i', 00H	; `string'
CONST	ENDS
;	COMDAT ??_C@_0M@EMBKBDCK@glUniform1i@
CONST	SEGMENT
??_C@_0M@EMBKBDCK@glUniform1i@ DB 'glUniform1i', 00H	; `string'
CONST	ENDS
;	COMDAT ??_C@_0M@MNEJMNAO@glUniform4f@
CONST	SEGMENT
??_C@_0M@MNEJMNAO@glUniform4f@ DB 'glUniform4f', 00H	; `string'
CONST	ENDS
;	COMDAT ??_C@_0M@MIAGNLIL@glUniform3f@
CONST	SEGMENT
??_C@_0M@MIAGNLIL@glUniform3f@ DB 'glUniform3f', 00H	; `string'
CONST	ENDS
;	COMDAT ??_C@_0M@MJMELBLM@glUniform2f@
CONST	SEGMENT
??_C@_0M@MJMELBLM@glUniform2f@ DB 'glUniform2f', 00H	; `string'
CONST	ENDS
;	COMDAT ??_C@_0M@MLICAPOF@glUniform1f@
CONST	SEGMENT
??_C@_0M@MLICAPOF@glUniform1f@ DB 'glUniform1f', 00H	; `string'
CONST	ENDS
;	COMDAT ??_C@_0N@ICBDHBI@glUseProgram@
CONST	SEGMENT
??_C@_0N@ICBDHBI@glUseProgram@ DB 'glUseProgram', 00H	; `string'
CONST	ENDS
;	COMDAT ??_C@_0P@DFHCPFMO@glShaderSource@
CONST	SEGMENT
??_C@_0P@DFHCPFMO@glShaderSource@ DB 'glShaderSource', 00H ; `string'
CONST	ENDS
;	COMDAT ??_C@_0O@PIOEEBPO@glLinkProgram@
CONST	SEGMENT
??_C@_0O@PIOEEBPO@glLinkProgram@ DB 'glLinkProgram', 00H ; `string'
CONST	ENDS
;	COMDAT ??_C@_0L@MDDLFIHC@glIsShader@
CONST	SEGMENT
??_C@_0L@MDDLFIHC@glIsShader@ DB 'glIsShader', 00H	; `string'
CONST	ENDS
;	COMDAT ??_C@_0M@INLOJDGO@glIsProgram@
CONST	SEGMENT
??_C@_0M@INLOJDGO@glIsProgram@ DB 'glIsProgram', 00H	; `string'
CONST	ENDS
;	COMDAT ??_C@_0BK@DOJMENLD@glGetVertexAttribPointerv@
CONST	SEGMENT
??_C@_0BK@DOJMENLD@glGetVertexAttribPointerv@ DB 'glGetVertexAttribPointe'
	DB	'rv', 00H					; `string'
CONST	ENDS
;	COMDAT ??_C@_0BE@HLCEAPNO@glGetVertexAttribiv@
CONST	SEGMENT
??_C@_0BE@HLCEAPNO@glGetVertexAttribiv@ DB 'glGetVertexAttribiv', 00H ; `string'
CONST	ENDS
;	COMDAT ??_C@_0BE@HAHIEIOD@glGetVertexAttribfv@
CONST	SEGMENT
??_C@_0BE@HAHIEIOD@glGetVertexAttribfv@ DB 'glGetVertexAttribfv', 00H ; `string'
CONST	ENDS
;	COMDAT ??_C@_0BE@HDPMJMIN@glGetVertexAttribdv@
CONST	SEGMENT
??_C@_0BE@HDPMJMIN@glGetVertexAttribdv@ DB 'glGetVertexAttribdv', 00H ; `string'
CONST	ENDS
;	COMDAT ??_C@_0P@IAONPCL@glGetUniformiv@
CONST	SEGMENT
??_C@_0P@IAONPCL@glGetUniformiv@ DB 'glGetUniformiv', 00H ; `string'
CONST	ENDS
;	COMDAT ??_C@_0P@DFCJIBG@glGetUniformfv@
CONST	SEGMENT
??_C@_0P@DFCJIBG@glGetUniformfv@ DB 'glGetUniformfv', 00H ; `string'
CONST	ENDS
;	COMDAT ??_C@_0BF@KIOPGICP@glGetUniformLocation@
CONST	SEGMENT
??_C@_0BF@KIOPGICP@glGetUniformLocation@ DB 'glGetUniformLocation', 00H ; `string'
CONST	ENDS
;	COMDAT ??_C@_0BC@ELEIFJEL@glGetShaderSource@
CONST	SEGMENT
??_C@_0BC@ELEIFJEL@glGetShaderSource@ DB 'glGetShaderSource', 00H ; `string'
CONST	ENDS
;	COMDAT ??_C@_0BD@GIABBCMO@glGetShaderInfoLog@
CONST	SEGMENT
??_C@_0BD@GIABBCMO@glGetShaderInfoLog@ DB 'glGetShaderInfoLog', 00H ; `string'
CONST	ENDS
;	COMDAT ??_C@_0O@JBDFPDMG@glGetShaderiv@
CONST	SEGMENT
??_C@_0O@JBDFPDMG@glGetShaderiv@ DB 'glGetShaderiv', 00H ; `string'
CONST	ENDS
;	COMDAT ??_C@_0BE@DHGHAJFL@glGetProgramInfoLog@
CONST	SEGMENT
??_C@_0BE@DHGHAJFL@glGetProgramInfoLog@ DB 'glGetProgramInfoLog', 00H ; `string'
CONST	ENDS
;	COMDAT ??_C@_0P@FMMDFLCO@glGetProgramiv@
CONST	SEGMENT
??_C@_0P@FMMDFLCO@glGetProgramiv@ DB 'glGetProgramiv', 00H ; `string'
CONST	ENDS
;	COMDAT ??_C@_0BE@BEPGJDMM@glGetAttribLocation@
CONST	SEGMENT
??_C@_0BE@BEPGJDMM@glGetAttribLocation@ DB 'glGetAttribLocation', 00H ; `string'
CONST	ENDS
;	COMDAT ??_C@_0BF@GHMDGFEM@glGetAttachedShaders@
CONST	SEGMENT
??_C@_0BF@GHMDGFEM@glGetAttachedShaders@ DB 'glGetAttachedShaders', 00H ; `string'
CONST	ENDS
;	COMDAT ??_C@_0BD@NIMHLLKN@glGetActiveUniform@
CONST	SEGMENT
??_C@_0BD@NIMHLLKN@glGetActiveUniform@ DB 'glGetActiveUniform', 00H ; `string'
CONST	ENDS
;	COMDAT ??_C@_0BC@MBALAOHF@glGetActiveAttrib@
CONST	SEGMENT
??_C@_0BC@MBALAOHF@glGetActiveAttrib@ DB 'glGetActiveAttrib', 00H ; `string'
CONST	ENDS
;	COMDAT ??_C@_0BK@EHBAHNHE@glEnableVertexAttribArray@
CONST	SEGMENT
??_C@_0BK@EHBAHNHE@glEnableVertexAttribArray@ DB 'glEnableVertexAttribArr'
	DB	'ay', 00H					; `string'
CONST	ENDS
;	COMDAT ??_C@_0BL@NKHLOFFF@glDisableVertexAttribArray@
CONST	SEGMENT
??_C@_0BL@NKHLOFFF@glDisableVertexAttribArray@ DB 'glDisableVertexAttribA'
	DB	'rray', 00H					; `string'
CONST	ENDS
;	COMDAT ??_C@_0P@DJFJFCJL@glDetachShader@
CONST	SEGMENT
??_C@_0P@DJFJFCJL@glDetachShader@ DB 'glDetachShader', 00H ; `string'
CONST	ENDS
;	COMDAT ??_C@_0P@HHCDONAG@glDeleteShader@
CONST	SEGMENT
??_C@_0P@HHCDONAG@glDeleteShader@ DB 'glDeleteShader', 00H ; `string'
CONST	ENDS
;	COMDAT ??_C@_0BA@NKGCDOPO@glDeleteProgram@
CONST	SEGMENT
??_C@_0BA@NKGCDOPO@glDeleteProgram@ DB 'glDeleteProgram', 00H ; `string'
CONST	ENDS
;	COMDAT ??_C@_0P@HGHBNC@glCreateShader@
CONST	SEGMENT
??_C@_0P@HGHBNC@glCreateShader@ DB 'glCreateShader', 00H ; `string'
CONST	ENDS
;	COMDAT ??_C@_0BA@FLKLHNKP@glCreateProgram@
CONST	SEGMENT
??_C@_0BA@FLKLHNKP@glCreateProgram@ DB 'glCreateProgram', 00H ; `string'
CONST	ENDS
;	COMDAT ??_C@_0BA@DGIEGONF@glCompileShader@
CONST	SEGMENT
??_C@_0BA@DGIEGONF@glCompileShader@ DB 'glCompileShader', 00H ; `string'
CONST	ENDS
;	COMDAT ??_C@_0BF@MHKEFIHM@glBindAttribLocation@
CONST	SEGMENT
??_C@_0BF@MHKEFIHM@glBindAttribLocation@ DB 'glBindAttribLocation', 00H ; `string'
CONST	ENDS
;	COMDAT ??_C@_0P@LDMLEABL@glAttachShader@
CONST	SEGMENT
??_C@_0P@LDMLEABL@glAttachShader@ DB 'glAttachShader', 00H ; `string'
CONST	ENDS
;	COMDAT ??_C@_0BG@MMKPIEJI@glStencilMaskSeparate@
CONST	SEGMENT
??_C@_0BG@MMKPIEJI@glStencilMaskSeparate@ DB 'glStencilMaskSeparate', 00H ; `string'
CONST	ENDS
;	COMDAT ??_C@_0BG@FCMNCEIA@glStencilFuncSeparate@
CONST	SEGMENT
??_C@_0BG@FCMNCEIA@glStencilFuncSeparate@ DB 'glStencilFuncSeparate', 00H ; `string'
CONST	ENDS
;	COMDAT ??_C@_0BE@GAPLDNGF@glStencilOpSeparate@
CONST	SEGMENT
??_C@_0BE@GAPLDNGF@glStencilOpSeparate@ DB 'glStencilOpSeparate', 00H ; `string'
CONST	ENDS
;	COMDAT ??_C@_0O@COHJKDBH@glDrawBuffers@
CONST	SEGMENT
??_C@_0O@COHJKDBH@glDrawBuffers@ DB 'glDrawBuffers', 00H ; `string'
CONST	ENDS
;	COMDAT ??_C@_0BI@JNHDNJAG@glBlendEquationSeparate@
CONST	SEGMENT
??_C@_0BI@JNHDNJAG@glBlendEquationSeparate@ DB 'glBlendEquationSeparate', 00H ; `string'
CONST	ENDS
;	COMDAT ??_C@_0BE@KNJEIFMC@glGetBufferPointerv@
CONST	SEGMENT
??_C@_0BE@KNJEIFMC@glGetBufferPointerv@ DB 'glGetBufferPointerv', 00H ; `string'
CONST	ENDS
;	COMDAT ??_C@_0BH@BMIEIFJP@glGetBufferParameteriv@
CONST	SEGMENT
??_C@_0BH@BMIEIFJP@glGetBufferParameteriv@ DB 'glGetBufferParameteriv', 00H ; `string'
CONST	ENDS
;	COMDAT ??_C@_0O@OFGHBLEO@glUnmapBuffer@
CONST	SEGMENT
??_C@_0O@OFGHBLEO@glUnmapBuffer@ DB 'glUnmapBuffer', 00H ; `string'
CONST	ENDS
;	COMDAT ??_C@_0M@NNHDPACA@glMapBuffer@
CONST	SEGMENT
??_C@_0M@NNHDPACA@glMapBuffer@ DB 'glMapBuffer', 00H	; `string'
CONST	ENDS
;	COMDAT ??_C@_0BD@PNDAHMBO@glGetBufferSubData@
CONST	SEGMENT
??_C@_0BD@PNDAHMBO@glGetBufferSubData@ DB 'glGetBufferSubData', 00H ; `string'
CONST	ENDS
;	COMDAT ??_C@_0BA@GAJMDBBN@glBufferSubData@
CONST	SEGMENT
??_C@_0BA@GAJMDBBN@glBufferSubData@ DB 'glBufferSubData', 00H ; `string'
CONST	ENDS
;	COMDAT ??_C@_0N@JHHJMABP@glBufferData@
CONST	SEGMENT
??_C@_0N@JHHJMABP@glBufferData@ DB 'glBufferData', 00H	; `string'
CONST	ENDS
;	COMDAT ??_C@_0L@KFPDMKNG@glIsBuffer@
CONST	SEGMENT
??_C@_0L@KFPDMKNG@glIsBuffer@ DB 'glIsBuffer', 00H	; `string'
CONST	ENDS
;	COMDAT ??_C@_0N@LAOHBIBA@glGenBuffers@
CONST	SEGMENT
??_C@_0N@LAOHBIBA@glGenBuffers@ DB 'glGenBuffers', 00H	; `string'
CONST	ENDS
;	COMDAT ??_C@_0BA@DMNLADIO@glDeleteBuffers@
CONST	SEGMENT
??_C@_0BA@DMNLADIO@glDeleteBuffers@ DB 'glDeleteBuffers', 00H ; `string'
CONST	ENDS
;	COMDAT ??_C@_0N@BONEPPLO@glBindBuffer@
CONST	SEGMENT
??_C@_0N@BONEPPLO@glBindBuffer@ DB 'glBindBuffer', 00H	; `string'
CONST	ENDS
;	COMDAT ??_C@_0BE@MNBBKJ@glGetQueryObjectuiv@
CONST	SEGMENT
??_C@_0BE@MNBBKJ@glGetQueryObjectuiv@ DB 'glGetQueryObjectuiv', 00H ; `string'
CONST	ENDS
;	COMDAT ??_C@_0BD@KMBBCJID@glGetQueryObjectiv@
CONST	SEGMENT
??_C@_0BD@KMBBCJID@glGetQueryObjectiv@ DB 'glGetQueryObjectiv', 00H ; `string'
CONST	ENDS
;	COMDAT ??_C@_0N@BPACPFCI@glGetQueryiv@
CONST	SEGMENT
??_C@_0N@BPACPFCI@glGetQueryiv@ DB 'glGetQueryiv', 00H	; `string'
CONST	ENDS
;	COMDAT ??_C@_0L@FLEBHIDM@glEndQuery@
CONST	SEGMENT
??_C@_0L@FLEBHIDM@glEndQuery@ DB 'glEndQuery', 00H	; `string'
CONST	ENDS
;	COMDAT ??_C@_0N@GIAGIGPA@glBeginQuery@
CONST	SEGMENT
??_C@_0N@GIAGIGPA@glBeginQuery@ DB 'glBeginQuery', 00H	; `string'
CONST	ENDS
;	COMDAT ??_C@_09CNNLCEBN@glIsQuery@
CONST	SEGMENT
??_C@_09CNNLCEBN@glIsQuery@ DB 'glIsQuery', 00H		; `string'
CONST	ENDS
;	COMDAT ??_C@_0BA@IOKEHMOH@glDeleteQueries@
CONST	SEGMENT
??_C@_0BA@IOKEHMOH@glDeleteQueries@ DB 'glDeleteQueries', 00H ; `string'
CONST	ENDS
;	COMDAT ??_C@_0N@CJIGHHJ@glGenQueries@
CONST	SEGMENT
??_C@_0N@CJIGHHJ@glGenQueries@ DB 'glGenQueries', 00H	; `string'
CONST	ENDS
;	COMDAT ??_C@_0BA@PFHILPAN@glBlendEquation@
CONST	SEGMENT
??_C@_0BA@PFHILPAN@glBlendEquation@ DB 'glBlendEquation', 00H ; `string'
CONST	ENDS
;	COMDAT ??_C@_0N@PKBMFJDK@glBlendColor@
CONST	SEGMENT
??_C@_0N@PKBMFJDK@glBlendColor@ DB 'glBlendColor', 00H	; `string'
CONST	ENDS
;	COMDAT ??_C@_0BD@LDFNOKAC@glPointParameteriv@
CONST	SEGMENT
??_C@_0BD@LDFNOKAC@glPointParameteriv@ DB 'glPointParameteriv', 00H ; `string'
CONST	ENDS
;	COMDAT ??_C@_0BC@ICPGPIPB@glPointParameteri@
CONST	SEGMENT
??_C@_0BC@ICPGPIPB@glPointParameteri@ DB 'glPointParameteri', 00H ; `string'
CONST	ENDS
;	COMDAT ??_C@_0BD@LIABKNDP@glPointParameterfv@
CONST	SEGMENT
??_C@_0BD@LIABKNDP@glPointParameterfv@ DB 'glPointParameterfv', 00H ; `string'
CONST	ENDS
;	COMDAT ??_C@_0BC@FGOOEDO@glPointParameterf@
CONST	SEGMENT
??_C@_0BC@FGOOEDO@glPointParameterf@ DB 'glPointParameterf', 00H ; `string'
CONST	ENDS
;	COMDAT ??_C@_0BE@MPDFJJLL@glMultiDrawElements@
CONST	SEGMENT
??_C@_0BE@MPDFJJLL@glMultiDrawElements@ DB 'glMultiDrawElements', 00H ; `string'
CONST	ENDS
;	COMDAT ??_C@_0BC@IBABPJFA@glMultiDrawArrays@
CONST	SEGMENT
??_C@_0BC@IBABPJFA@glMultiDrawArrays@ DB 'glMultiDrawArrays', 00H ; `string'
CONST	ENDS
;	COMDAT ??_C@_0BE@LLLCIIOO@glBlendFuncSeparate@
CONST	SEGMENT
??_C@_0BE@LLLCIIOO@glBlendFuncSeparate@ DB 'glBlendFuncSeparate', 00H ; `string'
CONST	ENDS
;	COMDAT ??_C@_0BI@MPANLPPL@glGetCompressedTexImage@
CONST	SEGMENT
??_C@_0BI@MPANLPPL@glGetCompressedTexImage@ DB 'glGetCompressedTexImage', 00H ; `string'
CONST	ENDS
;	COMDAT ??_C@_0BK@ECBIPHJO@glCompressedTexSubImage1D@
CONST	SEGMENT
??_C@_0BK@ECBIPHJO@glCompressedTexSubImage1D@ DB 'glCompressedTexSubImage'
	DB	'1D', 00H					; `string'
CONST	ENDS
;	COMDAT ??_C@_0BK@EAFOEJMH@glCompressedTexSubImage2D@
CONST	SEGMENT
??_C@_0BK@EAFOEJMH@glCompressedTexSubImage2D@ DB 'glCompressedTexSubImage'
	DB	'2D', 00H					; `string'
CONST	ENDS
;	COMDAT ??_C@_0BK@EBJMCDPA@glCompressedTexSubImage3D@
CONST	SEGMENT
??_C@_0BK@EBJMCDPA@glCompressedTexSubImage3D@ DB 'glCompressedTexSubImage'
	DB	'3D', 00H					; `string'
CONST	ENDS
;	COMDAT ??_C@_0BH@GFPJBEAB@glCompressedTexImage1D@
CONST	SEGMENT
??_C@_0BH@GFPJBEAB@glCompressedTexImage1D@ DB 'glCompressedTexImage1D', 00H ; `string'
CONST	ENDS
;	COMDAT ??_C@_0BH@GHLPKKFI@glCompressedTexImage2D@
CONST	SEGMENT
??_C@_0BH@GHLPKKFI@glCompressedTexImage2D@ DB 'glCompressedTexImage2D', 00H ; `string'
CONST	ENDS
;	COMDAT ??_C@_0BH@GGHNMAGP@glCompressedTexImage3D@
CONST	SEGMENT
??_C@_0BH@GGHNMAGP@glCompressedTexImage3D@ DB 'glCompressedTexImage3D', 00H ; `string'
CONST	ENDS
;	COMDAT ??_C@_0BB@BJGIPMOA@glSampleCoverage@
CONST	SEGMENT
??_C@_0BB@BJGIPMOA@glSampleCoverage@ DB 'glSampleCoverage', 00H ; `string'
CONST	ENDS
;	COMDAT ??_C@_0BA@KOBBIKOF@glActiveTexture@
CONST	SEGMENT
??_C@_0BA@KOBBIKOF@glActiveTexture@ DB 'glActiveTexture', 00H ; `string'
CONST	ENDS
;	COMDAT ??_C@_0BE@PJFGNMAG@glCopyTexSubImage3D@
CONST	SEGMENT
??_C@_0BE@PJFGNMAG@glCopyTexSubImage3D@ DB 'glCopyTexSubImage3D', 00H ; `string'
CONST	ENDS
;	COMDAT ??_C@_0BA@NGGKPOPN@glTexSubImage3D@
CONST	SEGMENT
??_C@_0BA@NGGKPOPN@glTexSubImage3D@ DB 'glTexSubImage3D', 00H ; `string'
CONST	ENDS
;	COMDAT ??_C@_0N@JAEIBBBF@glTexImage3D@
CONST	SEGMENT
??_C@_0N@JAEIBBBF@glTexImage3D@ DB 'glTexImage3D', 00H	; `string'
CONST	ENDS
;	COMDAT ??_C@_0BE@IHNAGJGJ@glDrawRangeElements@
CONST	SEGMENT
??_C@_0BE@IHNAGJGJ@glDrawRangeElements@ DB 'glDrawRangeElements', 00H ; `string'
CONST	ENDS
;	COMDAT ??_C@_0M@NJHAEPDN@glIsTexture@
CONST	SEGMENT
??_C@_0M@NJHAEPDN@glIsTexture@ DB 'glIsTexture', 00H	; `string'
CONST	ENDS
;	COMDAT ??_C@_0O@LLMANLNK@glGenTextures@
CONST	SEGMENT
??_C@_0O@LLMANLNK@glGenTextures@ DB 'glGenTextures', 00H ; `string'
CONST	ENDS
;	COMDAT ??_C@_0BB@KMPLFJIC@glDeleteTextures@
CONST	SEGMENT
??_C@_0BB@KMPLFJIC@glDeleteTextures@ DB 'glDeleteTextures', 00H ; `string'
CONST	ENDS
;	COMDAT ??_C@_0O@JKKCIBGC@glBindTexture@
CONST	SEGMENT
??_C@_0O@JKKCIBGC@glBindTexture@ DB 'glBindTexture', 00H ; `string'
CONST	ENDS
;	COMDAT ??_C@_0BA@NHKIJEMK@glTexSubImage2D@
CONST	SEGMENT
??_C@_0BA@NHKIJEMK@glTexSubImage2D@ DB 'glTexSubImage2D', 00H ; `string'
CONST	ENDS
;	COMDAT ??_C@_0BA@NFOOCKJD@glTexSubImage1D@
CONST	SEGMENT
??_C@_0BA@NFOOCKJD@glTexSubImage1D@ DB 'glTexSubImage1D', 00H ; `string'
CONST	ENDS
;	COMDAT ??_C@_0BE@PIJELGDB@glCopyTexSubImage2D@
CONST	SEGMENT
??_C@_0BE@PIJELGDB@glCopyTexSubImage2D@ DB 'glCopyTexSubImage2D', 00H ; `string'
CONST	ENDS
;	COMDAT ??_C@_0BE@PKNCAIGI@glCopyTexSubImage1D@
CONST	SEGMENT
??_C@_0BE@PKNCAIGI@glCopyTexSubImage1D@ DB 'glCopyTexSubImage1D', 00H ; `string'
CONST	ENDS
;	COMDAT ??_C@_0BB@MGAFKJKC@glCopyTexImage2D@
CONST	SEGMENT
??_C@_0BB@MGAFKJKC@glCopyTexImage2D@ DB 'glCopyTexImage2D', 00H ; `string'
CONST	ENDS
;	COMDAT ??_C@_0BB@MEEDBHPL@glCopyTexImage1D@
CONST	SEGMENT
??_C@_0BB@MEEDBHPL@glCopyTexImage1D@ DB 'glCopyTexImage1D', 00H ; `string'
CONST	ENDS
;	COMDAT ??_C@_0BA@FFBJGNC@glPolygonOffset@
CONST	SEGMENT
??_C@_0BA@FFBJGNC@glPolygonOffset@ DB 'glPolygonOffset', 00H ; `string'
CONST	ENDS
;	COMDAT ??_C@_0P@MENFIFGE@glDrawElements@
CONST	SEGMENT
??_C@_0P@MENFIFGE@glDrawElements@ DB 'glDrawElements', 00H ; `string'
CONST	ENDS
;	COMDAT ??_C@_0N@CMNPPOHA@glDrawArrays@
CONST	SEGMENT
??_C@_0N@CMNPPOHA@glDrawArrays@ DB 'glDrawArrays', 00H	; `string'
CONST	ENDS
;	COMDAT ??_C@_0L@KBLIPDFH@glViewport@
CONST	SEGMENT
??_C@_0L@KBLIPDFH@glViewport@ DB 'glViewport', 00H	; `string'
CONST	ENDS
;	COMDAT ??_C@_0N@PEBDIKOA@glDepthRange@
CONST	SEGMENT
??_C@_0N@PEBDIKOA@glDepthRange@ DB 'glDepthRange', 00H	; `string'
CONST	ENDS
;	COMDAT ??_C@_0M@INHMIHKC@glIsEnabled@
CONST	SEGMENT
??_C@_0M@INHMIHKC@glIsEnabled@ DB 'glIsEnabled', 00H	; `string'
CONST	ENDS
;	COMDAT ??_C@_0BJ@GLJHCPGI@glGetTexLevelParameteriv@
CONST	SEGMENT
??_C@_0BJ@GLJHCPGI@glGetTexLevelParameteriv@ DB 'glGetTexLevelParameteriv'
	DB	00H						; `string'
CONST	ENDS
;	COMDAT ??_C@_0BJ@GAMLGIFF@glGetTexLevelParameterfv@
CONST	SEGMENT
??_C@_0BJ@GAMLGIFF@glGetTexLevelParameterfv@ DB 'glGetTexLevelParameterfv'
	DB	00H						; `string'
CONST	ENDS
;	COMDAT ??_C@_0BE@DGCNLNPP@glGetTexParameteriv@
CONST	SEGMENT
??_C@_0BE@DGCNLNPP@glGetTexParameteriv@ DB 'glGetTexParameteriv', 00H ; `string'
CONST	ENDS
;	COMDAT ??_C@_0BE@DNHBPKMC@glGetTexParameterfv@
CONST	SEGMENT
??_C@_0BE@DNHBPKMC@glGetTexParameterfv@ DB 'glGetTexParameterfv', 00H ; `string'
CONST	ENDS
;	COMDAT ??_C@_0O@DOIIJLAD@glGetTexImage@
CONST	SEGMENT
??_C@_0O@DOIIJLAD@glGetTexImage@ DB 'glGetTexImage', 00H ; `string'
CONST	ENDS
;	COMDAT ??_C@_0M@OPOBFDCB@glGetString@
CONST	SEGMENT
??_C@_0M@OPOBFDCB@glGetString@ DB 'glGetString', 00H	; `string'
CONST	ENDS
;	COMDAT ??_C@_0O@DHHDCCLF@glGetIntegerv@
CONST	SEGMENT
??_C@_0O@DHHDCCLF@glGetIntegerv@ DB 'glGetIntegerv', 00H ; `string'
CONST	ENDS
;	COMDAT ??_C@_0M@CKCOBONE@glGetFloatv@
CONST	SEGMENT
??_C@_0M@CKCOBONE@glGetFloatv@ DB 'glGetFloatv', 00H	; `string'
CONST	ENDS
;	COMDAT ??_C@_0L@FPKAMKHB@glGetError@
CONST	SEGMENT
??_C@_0L@FPKAMKHB@glGetError@ DB 'glGetError', 00H	; `string'
CONST	ENDS
;	COMDAT ??_C@_0N@OFBMMCDH@glGetDoublev@
CONST	SEGMENT
??_C@_0N@OFBMMCDH@glGetDoublev@ DB 'glGetDoublev', 00H	; `string'
CONST	ENDS
;	COMDAT ??_C@_0O@NLMELLCJ@glGetBooleanv@
CONST	SEGMENT
??_C@_0O@NLMELLCJ@glGetBooleanv@ DB 'glGetBooleanv', 00H ; `string'
CONST	ENDS
;	COMDAT ??_C@_0N@CKFNNHOO@glReadPixels@
CONST	SEGMENT
??_C@_0N@CKFNNHOO@glReadPixels@ DB 'glReadPixels', 00H	; `string'
CONST	ENDS
;	COMDAT ??_C@_0N@HFKHBECK@glReadBuffer@
CONST	SEGMENT
??_C@_0N@HFKHBECK@glReadBuffer@ DB 'glReadBuffer', 00H	; `string'
CONST	ENDS
;	COMDAT ??_C@_0O@JCCIGLOF@glPixelStorei@
CONST	SEGMENT
??_C@_0O@JCCIGLOF@glPixelStorei@ DB 'glPixelStorei', 00H ; `string'
CONST	ENDS
;	COMDAT ??_C@_0O@BFLAHHCK@glPixelStoref@
CONST	SEGMENT
??_C@_0O@BFLAHHCK@glPixelStoref@ DB 'glPixelStoref', 00H ; `string'
CONST	ENDS
;	COMDAT ??_C@_0M@NEJABAEP@glDepthFunc@
CONST	SEGMENT
??_C@_0M@NEJABAEP@glDepthFunc@ DB 'glDepthFunc', 00H	; `string'
CONST	ENDS
;	COMDAT ??_C@_0M@BILBNGF@glStencilOp@
CONST	SEGMENT
??_C@_0M@BILBNGF@glStencilOp@ DB 'glStencilOp', 00H	; `string'
CONST	ENDS
;	COMDAT ??_C@_0O@ENNLLOLN@glStencilFunc@
CONST	SEGMENT
??_C@_0O@ENNLLOLN@glStencilFunc@ DB 'glStencilFunc', 00H ; `string'
CONST	ENDS
;	COMDAT ??_C@_09GKGMNAKG@glLogicOp@
CONST	SEGMENT
??_C@_09GKGMNAKG@glLogicOp@ DB 'glLogicOp', 00H		; `string'
CONST	ENDS
;	COMDAT ??_C@_0M@PFBKOKOH@glBlendFunc@
CONST	SEGMENT
??_C@_0M@PFBKOKOH@glBlendFunc@ DB 'glBlendFunc', 00H	; `string'
CONST	ENDS
;	COMDAT ??_C@_07COFELLJA@glFlush@
CONST	SEGMENT
??_C@_07COFELLJA@glFlush@ DB 'glFlush', 00H		; `string'
CONST	ENDS
;	COMDAT ??_C@_08DFCPOKBK@glFinish@
CONST	SEGMENT
??_C@_08DFCPOKBK@glFinish@ DB 'glFinish', 00H		; `string'
CONST	ENDS
;	COMDAT ??_C@_08OOEHEKOP@glEnable@
CONST	SEGMENT
??_C@_08OOEHEKOP@glEnable@ DB 'glEnable', 00H		; `string'
CONST	ENDS
;	COMDAT ??_C@_09MHGMIMKN@glDisable@
CONST	SEGMENT
??_C@_09MHGMIMKN@glDisable@ DB 'glDisable', 00H		; `string'
CONST	ENDS
;	COMDAT ??_C@_0M@KABMFLLN@glDepthMask@
CONST	SEGMENT
??_C@_0M@KABMFLLN@glDepthMask@ DB 'glDepthMask', 00H	; `string'
CONST	ENDS
;	COMDAT ??_C@_0M@DLGOAHPH@glColorMask@
CONST	SEGMENT
??_C@_0M@DLGOAHPH@glColorMask@ DB 'glColorMask', 00H	; `string'
CONST	ENDS
;	COMDAT ??_C@_0O@DJFHPFEP@glStencilMask@
CONST	SEGMENT
??_C@_0O@DJFHPFEP@glStencilMask@ DB 'glStencilMask', 00H ; `string'
CONST	ENDS
;	COMDAT ??_C@_0N@LJIELNG@glClearDepth@
CONST	SEGMENT
??_C@_0N@LJIELNG@glClearDepth@ DB 'glClearDepth', 00H	; `string'
CONST	ENDS
;	COMDAT ??_C@_0P@KBLPBBFP@glClearStencil@
CONST	SEGMENT
??_C@_0P@KBLPBBFP@glClearStencil@ DB 'glClearStencil', 00H ; `string'
CONST	ENDS
;	COMDAT ??_C@_0N@OGLMDNKC@glClearColor@
CONST	SEGMENT
??_C@_0N@OGLMDNKC@glClearColor@ DB 'glClearColor', 00H	; `string'
CONST	ENDS
;	COMDAT ??_C@_07IBAPPAHJ@glClear@
CONST	SEGMENT
??_C@_07IBAPPAHJ@glClear@ DB 'glClear', 00H		; `string'
CONST	ENDS
;	COMDAT ??_C@_0N@EKCLGPL@glDrawBuffer@
CONST	SEGMENT
??_C@_0N@EKCLGPL@glDrawBuffer@ DB 'glDrawBuffer', 00H	; `string'
CONST	ENDS
;	COMDAT ??_C@_0N@JBIKHLCC@glTexImage2D@
CONST	SEGMENT
??_C@_0N@JBIKHLCC@glTexImage2D@ DB 'glTexImage2D', 00H	; `string'
CONST	ENDS
;	COMDAT ??_C@_0N@JDMMMFHL@glTexImage1D@
CONST	SEGMENT
??_C@_0N@JDMMMFHL@glTexImage1D@ DB 'glTexImage1D', 00H	; `string'
CONST	ENDS
;	COMDAT ??_C@_0BB@KPLJEAAI@glTexParameteriv@
CONST	SEGMENT
??_C@_0BB@KPLJEAAI@glTexParameteriv@ DB 'glTexParameteriv', 00H ; `string'
CONST	ENDS
;	COMDAT ??_C@_0BA@KDNJAKA@glTexParameteri@
CONST	SEGMENT
??_C@_0BA@KDNJAKA@glTexParameteri@ DB 'glTexParameteri', 00H ; `string'
CONST	ENDS
;	COMDAT ??_C@_0BB@KEOFAHDF@glTexParameterfv@
CONST	SEGMENT
??_C@_0BB@KEOFAHDF@glTexParameterfv@ DB 'glTexParameterfv', 00H ; `string'
CONST	ENDS
;	COMDAT ??_C@_0BA@INKFIMGP@glTexParameterf@
CONST	SEGMENT
??_C@_0BA@INKFIMGP@glTexParameterf@ DB 'glTexParameterf', 00H ; `string'
CONST	ENDS
;	COMDAT ??_C@_09ECGPAEPL@glScissor@
CONST	SEGMENT
??_C@_09ECGPAEPL@glScissor@ DB 'glScissor', 00H		; `string'
CONST	ENDS
;	COMDAT ??_C@_0O@DKMNBFMB@glPolygonMode@
CONST	SEGMENT
??_C@_0O@DKMNBFMB@glPolygonMode@ DB 'glPolygonMode', 00H ; `string'
CONST	ENDS
;	COMDAT ??_C@_0M@EEAPMMNM@glPointSize@
CONST	SEGMENT
??_C@_0M@EEAPMMNM@glPointSize@ DB 'glPointSize', 00H	; `string'
CONST	ENDS
;	COMDAT ??_C@_0M@CFLGNFPG@glLineWidth@
CONST	SEGMENT
??_C@_0M@CFLGNFPG@glLineWidth@ DB 'glLineWidth', 00H	; `string'
CONST	ENDS
;	COMDAT ??_C@_06HEADGMBC@glHint@
CONST	SEGMENT
??_C@_06HEADGMBC@glHint@ DB 'glHint', 00H		; `string'
CONST	ENDS
;	COMDAT ??_C@_0M@ILBMDJDA@glFrontFace@
CONST	SEGMENT
??_C@_0M@ILBMDJDA@glFrontFace@ DB 'glFrontFace', 00H	; `string'
CONST	ENDS
;	COMDAT ??_C@_0L@BAPBLHME@glCullFace@
CONST	SEGMENT
??_C@_0L@BAPBLHME@glCullFace@ DB 'glCullFace', 00H	; `string'
CONST	ENDS
;	COMDAT ??_C@_0BC@FFKMKEGM@wglGetProcAddress@
CONST	SEGMENT
??_C@_0BC@FFKMKEGM@wglGetProcAddress@ DB 'wglGetProcAddress', 00H ; `string'
CONST	ENDS
;	COMDAT ??_C@_1BK@LCODAJLO@?$AAo?$AAp?$AAe?$AAn?$AAg?$AAl?$AA3?$AA2?$AA?4?$AAd?$AAl?$AAl@
CONST	SEGMENT
??_C@_1BK@LCODAJLO@?$AAo?$AAp?$AAe?$AAn?$AAg?$AAl?$AA3?$AA2?$AA?4?$AAd?$AAl?$AAl@ DB 'o'
	DB	00H, 'p', 00H, 'e', 00H, 'n', 00H, 'g', 00H, 'l', 00H, '3', 00H
	DB	'2', 00H, '.', 00H, 'd', 00H, 'l', 00H, 'l', 00H, 00H, 00H ; `string'
CONST	ENDS
;	COMDAT voltbl
voltbl	SEGMENT
_volmd	DW	018H
	DW	01a0H
voltbl	ENDS
;	COMDAT xdata
xdata	SEGMENT
$unwind$find_coreGLSC2 DD 025041f19H
	DD	0109230eH
	DD	050020018H
	DD	imagerel __GSHandlerCheck
	DD	0b0H
xdata	ENDS
;	COMDAT xdata
xdata	SEGMENT
$unwind$find_extensionsGLSC2 DD 025030b01H
	DD	0b206230bH
	DD	05002H
xdata	ENDS
;	COMDAT xdata
xdata	SEGMENT
$unwind$load_GL_SC_VERSION_2_0 DD 025030f01H
	DD	0b20a230fH
	DD	05006H
xdata	ENDS
;	COMDAT voltbl
voltbl	SEGMENT
_volmd	DW	018H
	DW	023cH
voltbl	ENDS
;	COMDAT xdata
xdata	SEGMENT
$unwind$find_coreGLES2 DD 025041f19H
	DD	0109230eH
	DD	050020018H
	DD	imagerel __GSHandlerCheck
	DD	0b0H
xdata	ENDS
;	COMDAT xdata
xdata	SEGMENT
$unwind$find_extensionsGLES2 DD 025030b01H
	DD	0b206230bH
	DD	05002H
xdata	ENDS
;	COMDAT xdata
xdata	SEGMENT
$unwind$load_GL_ES_VERSION_3_2 DD 025030f01H
	DD	0b20a230fH
	DD	05006H
xdata	ENDS
;	COMDAT xdata
xdata	SEGMENT
$unwind$load_GL_ES_VERSION_3_1 DD 025030f01H
	DD	0b20a230fH
	DD	05006H
xdata	ENDS
;	COMDAT xdata
xdata	SEGMENT
$unwind$load_GL_ES_VERSION_3_0 DD 025030f01H
	DD	0b20a230fH
	DD	05006H
xdata	ENDS
;	COMDAT xdata
xdata	SEGMENT
$unwind$load_GL_ES_VERSION_2_0 DD 025030f01H
	DD	0b20a230fH
	DD	05006H
xdata	ENDS
;	COMDAT voltbl
voltbl	SEGMENT
_volmd	DW	018H
	DW	01a0H
voltbl	ENDS
;	COMDAT xdata
xdata	SEGMENT
$unwind$find_coreGLES1 DD 025041f19H
	DD	0109230eH
	DD	050020018H
	DD	imagerel __GSHandlerCheck
	DD	0b0H
xdata	ENDS
;	COMDAT xdata
xdata	SEGMENT
$unwind$find_extensionsGLES1 DD 025030b01H
	DD	0b206230bH
	DD	05002H
xdata	ENDS
;	COMDAT xdata
xdata	SEGMENT
$unwind$load_GL_VERSION_ES_CM_1_0 DD 025030f01H
	DD	0b20a230fH
	DD	05006H
xdata	ENDS
;	COMDAT voltbl
voltbl	SEGMENT
_volmd	DW	018H
	DW	0548H
voltbl	ENDS
;	COMDAT xdata
xdata	SEGMENT
$unwind$find_coreGL DD 025041f19H
	DD	0109230eH
	DD	050020018H
	DD	imagerel __GSHandlerCheck
	DD	0b0H
xdata	ENDS
;	COMDAT xdata
xdata	SEGMENT
$unwind$find_extensionsGL DD 025030b01H
	DD	0b206230bH
	DD	05002H
xdata	ENDS
;	COMDAT xdata
xdata	SEGMENT
$unwind$load_GL_VERSION_4_6 DD 025030f01H
	DD	0b20a230fH
	DD	05006H
xdata	ENDS
;	COMDAT xdata
xdata	SEGMENT
$unwind$load_GL_VERSION_4_5 DD 025030f01H
	DD	0b20a230fH
	DD	05006H
xdata	ENDS
;	COMDAT xdata
xdata	SEGMENT
$unwind$load_GL_VERSION_4_4 DD 025030f01H
	DD	0b20a230fH
	DD	05006H
xdata	ENDS
;	COMDAT xdata
xdata	SEGMENT
$unwind$load_GL_VERSION_4_3 DD 025030f01H
	DD	0b20a230fH
	DD	05006H
xdata	ENDS
;	COMDAT xdata
xdata	SEGMENT
$unwind$load_GL_VERSION_4_2 DD 025030f01H
	DD	0b20a230fH
	DD	05006H
xdata	ENDS
;	COMDAT xdata
xdata	SEGMENT
$unwind$load_GL_VERSION_4_1 DD 025030f01H
	DD	0b20a230fH
	DD	05006H
xdata	ENDS
;	COMDAT xdata
xdata	SEGMENT
$unwind$load_GL_VERSION_4_0 DD 025030f01H
	DD	0b20a230fH
	DD	05006H
xdata	ENDS
;	COMDAT xdata
xdata	SEGMENT
$unwind$load_GL_VERSION_3_3 DD 025030f01H
	DD	0b20a230fH
	DD	05006H
xdata	ENDS
;	COMDAT xdata
xdata	SEGMENT
$unwind$load_GL_VERSION_3_2 DD 025030f01H
	DD	0b20a230fH
	DD	05006H
xdata	ENDS
;	COMDAT xdata
xdata	SEGMENT
$unwind$load_GL_VERSION_3_1 DD 025030f01H
	DD	0b20a230fH
	DD	05006H
xdata	ENDS
;	COMDAT xdata
xdata	SEGMENT
$unwind$load_GL_VERSION_3_0 DD 025030f01H
	DD	0b20a230fH
	DD	05006H
xdata	ENDS
;	COMDAT xdata
xdata	SEGMENT
$unwind$load_GL_VERSION_2_1 DD 025030f01H
	DD	0b20a230fH
	DD	05006H
xdata	ENDS
;	COMDAT xdata
xdata	SEGMENT
$unwind$load_GL_VERSION_2_0 DD 025030f01H
	DD	0b20a230fH
	DD	05006H
xdata	ENDS
;	COMDAT xdata
xdata	SEGMENT
$unwind$load_GL_VERSION_1_5 DD 025030f01H
	DD	0b20a230fH
	DD	05006H
xdata	ENDS
;	COMDAT xdata
xdata	SEGMENT
$unwind$load_GL_VERSION_1_4 DD 025030f01H
	DD	0b20a230fH
	DD	05006H
xdata	ENDS
;	COMDAT xdata
xdata	SEGMENT
$unwind$load_GL_VERSION_1_3 DD 025030f01H
	DD	0b20a230fH
	DD	05006H
xdata	ENDS
;	COMDAT xdata
xdata	SEGMENT
$unwind$load_GL_VERSION_1_2 DD 025030f01H
	DD	0b20a230fH
	DD	05006H
xdata	ENDS
;	COMDAT xdata
xdata	SEGMENT
$unwind$load_GL_VERSION_1_1 DD 025030f01H
	DD	0b20a230fH
	DD	05006H
xdata	ENDS
;	COMDAT xdata
xdata	SEGMENT
$unwind$load_GL_VERSION_1_0 DD 025030f01H
	DD	0b20a230fH
	DD	05006H
xdata	ENDS
;	COMDAT xdata
xdata	SEGMENT
$unwind$free_exts DD 025030b01H
	DD	0d206230bH
	DD	05002H
xdata	ENDS
;	COMDAT xdata
xdata	SEGMENT
$unwind$get_exts DD 025061001H
	DD	010b2310H
	DD	070040012H
	DD	050026003H
xdata	ENDS
;	COMDAT xdata
xdata	SEGMENT
$unwind$close_gl DD 025030b01H
	DD	0b206230bH
	DD	05002H
xdata	ENDS
;	COMDAT xdata
xdata	SEGMENT
$unwind$open_gl DD 025030b01H
	DD	0d206230bH
	DD	05002H
xdata	ENDS
;	COMDAT xdata
xdata	SEGMENT
$unwind$get_proc DD 025030f01H
	DD	0d20a230fH
	DD	05006H
xdata	ENDS
;	COMDAT xdata
xdata	SEGMENT
$unwind$gladLoadGLSC2Loader DD 025030f01H
	DD	0d20a230fH
	DD	05006H
xdata	ENDS
;	COMDAT xdata
xdata	SEGMENT
$unwind$gladLoadGLES2Loader DD 025030f01H
	DD	0d20a230fH
	DD	05006H
xdata	ENDS
;	COMDAT xdata
xdata	SEGMENT
$unwind$gladLoadGLES1Loader DD 025030f01H
	DD	0d20a230fH
	DD	05006H
xdata	ENDS
;	COMDAT xdata
xdata	SEGMENT
$unwind$gladLoadGLLoader DD 025030f01H
	DD	0d20a230fH
	DD	05006H
xdata	ENDS
;	COMDAT xdata
xdata	SEGMENT
$unwind$gladLoadGL DD 025030b01H
	DD	0d206230bH
	DD	05002H
xdata	ENDS
;	COMDAT voltbl
voltbl	SEGMENT
_volmd	DB	02bH
	DB	065H
voltbl	ENDS
;	COMDAT xdata
xdata	SEGMENT
$unwind$sscanf_s DD 025032f19H
	DD	0f21c2321H
	DD	05015H
	DD	imagerel __GSHandlerCheck
	DD	070H
xdata	ENDS
;	COMDAT xdata
xdata	SEGMENT
$unwind$vsscanf_s DD 025031901H
	DD	0b2142319H
	DD	05010H
xdata	ENDS
;	COMDAT xdata
xdata	SEGMENT
$unwind$_vsscanf_s_l DD 035031e01H
	DD	0d219331eH
	DD	05015H
xdata	ENDS
;	COMDAT xdata
xdata	SEGMENT
$unwind$__local_stdio_scanf_options DD 025030b01H
	DD	0b206230bH
	DD	05002H
xdata	ENDS
; Function compile flags: /Odt
;	COMDAT __JustMyCode_Default
_TEXT	SEGMENT
__JustMyCode_Default PROC				; COMDAT
  00000	c2 00 00	 ret	 0
__JustMyCode_Default ENDP
_TEXT	ENDS
; Function compile flags: /Odtp /ZI
; File D:\Programmer\GLenv\glad.c
;	COMDAT find_coreGLSC2
_TEXT	SEGMENT
i$ = 0
major$ = 4
minor$ = 8
version$ = 16
prefixes$ = 24
length$1 = 56
tv133 = 128
tv93 = 128
tv134 = 136
__$ArrayPad$ = 144
find_coreGLSC2 PROC					; COMDAT

; 2694 : static void find_coreGLSC2(void) {

  00000	40 55		 push	 rbp
  00002	48 81 ec c0 00
	00 00		 sub	 rsp, 192		; 000000c0H
  00009	48 8d 6c 24 20	 lea	 rbp, QWORD PTR [rsp+32]
  0000e	48 8b 05 00 00
	00 00		 mov	 rax, QWORD PTR __security_cookie
  00015	48 33 c5	 xor	 rax, rbp
  00018	48 89 85 90 00
	00 00		 mov	 QWORD PTR __$ArrayPad$[rbp], rax
  0001f	48 8d 0d 00 00
	00 00		 lea	 rcx, OFFSET FLAT:__2B68C239_glad@c
  00026	e8 00 00 00 00	 call	 __CheckForDebuggerJustMyCode

; 2695 : 
; 2696 :     /* Thank you @elmindreda
; 2697 :      * https://github.com/elmindreda/greg/blob/master/templates/greg.c.in#L176
; 2698 :      * https://github.com/glfw/glfw/blob/master/src/context.c#L36
; 2699 :      */
; 2700 :     int i, major, minor;
; 2701 : 
; 2702 :     const char* version;
; 2703 :     const char* prefixes[] = {

  0002b	48 8d 05 00 00
	00 00		 lea	 rax, OFFSET FLAT:??_C@_0O@ENGHJHNB@OpenGL?5ES?9CM?5@
  00032	48 89 45 18	 mov	 QWORD PTR prefixes$[rbp], rax
  00036	48 8d 05 00 00
	00 00		 lea	 rax, OFFSET FLAT:??_C@_0O@EMKFPNOG@OpenGL?5ES?9CL?5@
  0003d	48 89 45 20	 mov	 QWORD PTR prefixes$[rbp+8], rax
  00041	48 8d 05 00 00
	00 00		 lea	 rax, OFFSET FLAT:??_C@_0L@JLFHOCGA@OpenGL?5ES?5@
  00048	48 89 45 28	 mov	 QWORD PTR prefixes$[rbp+16], rax
  0004c	48 c7 45 30 00
	00 00 00	 mov	 QWORD PTR prefixes$[rbp+24], 0

; 2704 :         "OpenGL ES-CM ",
; 2705 :         "OpenGL ES-CL ",
; 2706 :         "OpenGL ES ",
; 2707 :         NULL
; 2708 :     };
; 2709 : 
; 2710 :     version = (const char*)glGetString(GL_VERSION);

  00054	b9 02 1f 00 00	 mov	 ecx, 7938		; 00001f02H
  00059	ff 15 00 00 00
	00		 call	 QWORD PTR glad_glGetString
  0005f	48 89 45 10	 mov	 QWORD PTR version$[rbp], rax

; 2711 :     if (!version) return;

  00063	48 83 7d 10 00	 cmp	 QWORD PTR version$[rbp], 0
  00068	75 05		 jne	 SHORT $LN5@find_coreG
  0006a	e9 31 01 00 00	 jmp	 $LN1@find_coreG
$LN5@find_coreG:

; 2712 : 
; 2713 :     for (i = 0; prefixes[i]; i++) {

  0006f	c7 45 00 00 00
	00 00		 mov	 DWORD PTR i$[rbp], 0
  00076	eb 08		 jmp	 SHORT $LN4@find_coreG
$LN2@find_coreG:
  00078	8b 45 00	 mov	 eax, DWORD PTR i$[rbp]
  0007b	ff c0		 inc	 eax
  0007d	89 45 00	 mov	 DWORD PTR i$[rbp], eax
$LN4@find_coreG:
  00080	48 63 45 00	 movsxd	 rax, DWORD PTR i$[rbp]
  00084	48 83 7c c5 18
	00		 cmp	 QWORD PTR prefixes$[rbp+rax*8], 0
  0008a	74 75		 je	 SHORT $LN3@find_coreG

; 2714 :         const size_t length = strlen(prefixes[i]);

  0008c	48 63 45 00	 movsxd	 rax, DWORD PTR i$[rbp]
  00090	48 8b 44 c5 18	 mov	 rax, QWORD PTR prefixes$[rbp+rax*8]
  00095	48 89 85 80 00
	00 00		 mov	 QWORD PTR tv133[rbp], rax
  0009c	48 c7 85 88 00
	00 00 ff ff ff
	ff		 mov	 QWORD PTR tv134[rbp], -1
$LL13@find_coreG:
  000a7	48 ff 85 88 00
	00 00		 inc	 QWORD PTR tv134[rbp]
  000ae	48 8b 85 80 00
	00 00		 mov	 rax, QWORD PTR tv133[rbp]
  000b5	48 8b 8d 88 00
	00 00		 mov	 rcx, QWORD PTR tv134[rbp]
  000bc	80 3c 08 00	 cmp	 BYTE PTR [rax+rcx], 0
  000c0	75 e5		 jne	 SHORT $LL13@find_coreG
  000c2	48 8b 85 88 00
	00 00		 mov	 rax, QWORD PTR tv134[rbp]
  000c9	48 89 45 38	 mov	 QWORD PTR length$1[rbp], rax

; 2715 :         if (strncmp(version, prefixes[i], length) == 0) {

  000cd	48 63 45 00	 movsxd	 rax, DWORD PTR i$[rbp]
  000d1	4c 8b 45 38	 mov	 r8, QWORD PTR length$1[rbp]
  000d5	48 8b 54 c5 18	 mov	 rdx, QWORD PTR prefixes$[rbp+rax*8]
  000da	48 8b 4d 10	 mov	 rcx, QWORD PTR version$[rbp]
  000de	ff 15 00 00 00
	00		 call	 QWORD PTR __imp_strncmp
  000e4	85 c0		 test	 eax, eax
  000e6	75 14		 jne	 SHORT $LN6@find_coreG

; 2716 :             version += length;

  000e8	48 8b 45 38	 mov	 rax, QWORD PTR length$1[rbp]
  000ec	48 8b 4d 10	 mov	 rcx, QWORD PTR version$[rbp]
  000f0	48 03 c8	 add	 rcx, rax
  000f3	48 8b c1	 mov	 rax, rcx
  000f6	48 89 45 10	 mov	 QWORD PTR version$[rbp], rax

; 2717 :             break;

  000fa	eb 05		 jmp	 SHORT $LN3@find_coreG
$LN6@find_coreG:

; 2718 :         }
; 2719 :     }

  000fc	e9 77 ff ff ff	 jmp	 $LN2@find_coreG
$LN3@find_coreG:

; 2720 : 
; 2721 :     /* PR #18 */
; 2722 : #ifdef _MSC_VER
; 2723 :     sscanf_s(version, "%d.%d", &major, &minor);

  00101	4c 8d 4d 08	 lea	 r9, QWORD PTR minor$[rbp]
  00105	4c 8d 45 04	 lea	 r8, QWORD PTR major$[rbp]
  00109	48 8d 15 00 00
	00 00		 lea	 rdx, OFFSET FLAT:??_C@_05KBEOJPB@?$CFd?4?$CFd@
  00110	48 8b 4d 10	 mov	 rcx, QWORD PTR version$[rbp]
  00114	e8 00 00 00 00	 call	 sscanf_s

; 2724 : #else
; 2725 :     sscanf(version, "%d.%d", &major, &minor);
; 2726 : #endif
; 2727 : 
; 2728 :     GLVersion.major = major; GLVersion.minor = minor;

  00119	8b 45 04	 mov	 eax, DWORD PTR major$[rbp]
  0011c	89 05 00 00 00
	00		 mov	 DWORD PTR GLVersion, eax
  00122	8b 45 08	 mov	 eax, DWORD PTR minor$[rbp]
  00125	89 05 04 00 00
	00		 mov	 DWORD PTR GLVersion+4, eax

; 2729 :     max_loaded_major = major; max_loaded_minor = minor;

  0012b	8b 45 04	 mov	 eax, DWORD PTR major$[rbp]
  0012e	89 05 00 00 00
	00		 mov	 DWORD PTR max_loaded_major, eax
  00134	8b 45 08	 mov	 eax, DWORD PTR minor$[rbp]
  00137	89 05 00 00 00
	00		 mov	 DWORD PTR max_loaded_minor, eax

; 2730 :     GLAD_GL_SC_VERSION_2_0 = (major == 2 && minor >= 0) || major > 2;

  0013d	83 7d 04 02	 cmp	 DWORD PTR major$[rbp], 2
  00141	75 06		 jne	 SHORT $LN10@find_coreG
  00143	83 7d 08 00	 cmp	 DWORD PTR minor$[rbp], 0
  00147	7d 12		 jge	 SHORT $LN11@find_coreG
$LN10@find_coreG:
  00149	83 7d 04 02	 cmp	 DWORD PTR major$[rbp], 2
  0014d	7f 0c		 jg	 SHORT $LN11@find_coreG
  0014f	c7 85 80 00 00
	00 00 00 00 00	 mov	 DWORD PTR tv93[rbp], 0
  00159	eb 0a		 jmp	 SHORT $LN12@find_coreG
$LN11@find_coreG:
  0015b	c7 85 80 00 00
	00 01 00 00 00	 mov	 DWORD PTR tv93[rbp], 1
$LN12@find_coreG:
  00165	8b 85 80 00 00
	00		 mov	 eax, DWORD PTR tv93[rbp]
  0016b	89 05 00 00 00
	00		 mov	 DWORD PTR GLAD_GL_SC_VERSION_2_0, eax

; 2731 :     if (GLVersion.major > 2 || (GLVersion.major >= 2 && GLVersion.minor >= 0)) {

  00171	83 3d 00 00 00
	00 02		 cmp	 DWORD PTR GLVersion, 2
  00178	7f 12		 jg	 SHORT $LN8@find_coreG
  0017a	83 3d 00 00 00
	00 02		 cmp	 DWORD PTR GLVersion, 2
  00181	7c 1d		 jl	 SHORT $LN7@find_coreG
  00183	83 3d 04 00 00
	00 00		 cmp	 DWORD PTR GLVersion+4, 0
  0018a	7c 14		 jl	 SHORT $LN7@find_coreG
$LN8@find_coreG:

; 2732 :         max_loaded_major = 2;

  0018c	c7 05 00 00 00
	00 02 00 00 00	 mov	 DWORD PTR max_loaded_major, 2

; 2733 :         max_loaded_minor = 0;

  00196	c7 05 00 00 00
	00 00 00 00 00	 mov	 DWORD PTR max_loaded_minor, 0
$LN7@find_coreG:
$LN1@find_coreG:

; 2734 :     }
; 2735 : }

  001a0	48 8b 8d 90 00
	00 00		 mov	 rcx, QWORD PTR __$ArrayPad$[rbp]
  001a7	48 33 cd	 xor	 rcx, rbp
  001aa	e8 00 00 00 00	 call	 __security_check_cookie
  001af	48 8d a5 a0 00
	00 00		 lea	 rsp, QWORD PTR [rbp+160]
  001b6	5d		 pop	 rbp
  001b7	c3		 ret	 0
find_coreGLSC2 ENDP
_TEXT	ENDS
; Function compile flags: /Odtp /ZI
; File D:\Programmer\GLenv\glad.c
