; Listing generated by Microsoft (R) Optimizing Compiler Version 19.37.32822.0 

include listing.inc

INCLUDELIB MSVCRT
INCLUDELIB OLDNAMES

PUBLIC	GLVersion
PUBLIC	GLAD_GL_VERSION_1_0
PUBLIC	glad_glCullFace
PUBLIC	glad_glFrontFace
PUBLIC	glad_glHint
PUBLIC	glad_glLineWidth
PUBLIC	glad_glPointSize
PUBLIC	glad_glPolygonMode
PUBLIC	glad_glScissor
PUBLIC	glad_glTexParameterf
PUBLIC	glad_glTexParameterfv
PUBLIC	glad_glTexParameteri
PUBLIC	glad_glTexParameteriv
PUBLIC	glad_glTexImage1D
PUBLIC	glad_glTexImage2D
PUBLIC	glad_glDrawBuffer
PUBLIC	glad_glClear
PUBLIC	glad_glClearColor
PUBLIC	glad_glClearStencil
PUBLIC	glad_glClearDepth
PUBLIC	glad_glStencilMask
PUBLIC	glad_glColorMask
PUBLIC	glad_glDepthMask
PUBLIC	glad_glDisable
PUBLIC	glad_glEnable
PUBLIC	glad_glFinish
PUBLIC	glad_glFlush
PUBLIC	glad_glBlendFunc
PUBLIC	glad_glLogicOp
PUBLIC	glad_glStencilFunc
PUBLIC	glad_glStencilOp
PUBLIC	glad_glDepthFunc
PUBLIC	glad_glPixelStoref
PUBLIC	glad_glPixelStorei
PUBLIC	glad_glReadBuffer
PUBLIC	glad_glReadPixels
PUBLIC	glad_glGetBooleanv
PUBLIC	glad_glGetDoublev
PUBLIC	glad_glGetError
PUBLIC	glad_glGetFloatv
PUBLIC	glad_glGetIntegerv
PUBLIC	glad_glGetString
PUBLIC	glad_glGetTexImage
PUBLIC	glad_glGetTexParameterfv
PUBLIC	glad_glGetTexParameteriv
PUBLIC	glad_glGetTexLevelParameterfv
PUBLIC	glad_glGetTexLevelParameteriv
PUBLIC	glad_glIsEnabled
PUBLIC	glad_glDepthRange
PUBLIC	glad_glViewport
PUBLIC	GLAD_GL_VERSION_1_1
PUBLIC	glad_glDrawArrays
PUBLIC	glad_glDrawElements
PUBLIC	glad_glPolygonOffset
PUBLIC	glad_glCopyTexImage1D
PUBLIC	glad_glCopyTexImage2D
PUBLIC	glad_glCopyTexSubImage1D
PUBLIC	glad_glCopyTexSubImage2D
PUBLIC	glad_glTexSubImage1D
PUBLIC	glad_glTexSubImage2D
PUBLIC	glad_glBindTexture
PUBLIC	glad_glDeleteTextures
PUBLIC	glad_glGenTextures
PUBLIC	glad_glIsTexture
PUBLIC	GLAD_GL_VERSION_1_2
PUBLIC	glad_glDrawRangeElements
PUBLIC	glad_glTexImage3D
PUBLIC	glad_glTexSubImage3D
PUBLIC	glad_glCopyTexSubImage3D
PUBLIC	GLAD_GL_VERSION_1_3
PUBLIC	glad_glActiveTexture
PUBLIC	glad_glSampleCoverage
PUBLIC	glad_glCompressedTexImage3D
PUBLIC	glad_glCompressedTexImage2D
PUBLIC	glad_glCompressedTexImage1D
PUBLIC	glad_glCompressedTexSubImage3D
PUBLIC	glad_glCompressedTexSubImage2D
PUBLIC	glad_glCompressedTexSubImage1D
PUBLIC	glad_glGetCompressedTexImage
PUBLIC	GLAD_GL_VERSION_1_4
PUBLIC	glad_glBlendFuncSeparate
PUBLIC	glad_glMultiDrawArrays
PUBLIC	glad_glMultiDrawElements
PUBLIC	glad_glPointParameterf
PUBLIC	glad_glPointParameterfv
PUBLIC	glad_glPointParameteri
PUBLIC	glad_glPointParameteriv
PUBLIC	glad_glBlendColor
PUBLIC	glad_glBlendEquation
PUBLIC	GLAD_GL_VERSION_1_5
PUBLIC	glad_glGenQueries
PUBLIC	glad_glDeleteQueries
PUBLIC	glad_glIsQuery
PUBLIC	glad_glBeginQuery
PUBLIC	glad_glEndQuery
PUBLIC	glad_glGetQueryiv
PUBLIC	glad_glGetQueryObjectiv
PUBLIC	glad_glGetQueryObjectuiv
PUBLIC	glad_glBindBuffer
PUBLIC	glad_glDeleteBuffers
PUBLIC	glad_glGenBuffers
PUBLIC	glad_glIsBuffer
PUBLIC	glad_glBufferData
PUBLIC	glad_glBufferSubData
PUBLIC	glad_glGetBufferSubData
PUBLIC	glad_glMapBuffer
PUBLIC	glad_glUnmapBuffer
PUBLIC	glad_glGetBufferParameteriv
PUBLIC	glad_glGetBufferPointerv
PUBLIC	GLAD_GL_VERSION_2_0
PUBLIC	glad_glBlendEquationSeparate
PUBLIC	glad_glDrawBuffers
PUBLIC	glad_glStencilOpSeparate
PUBLIC	glad_glStencilFuncSeparate
PUBLIC	glad_glStencilMaskSeparate
PUBLIC	glad_glAttachShader
PUBLIC	glad_glBindAttribLocation
PUBLIC	glad_glCompileShader
PUBLIC	glad_glCreateProgram
PUBLIC	glad_glCreateShader
PUBLIC	glad_glDeleteProgram
PUBLIC	glad_glDeleteShader
PUBLIC	glad_glDetachShader
PUBLIC	glad_glDisableVertexAttribArray
PUBLIC	glad_glEnableVertexAttribArray
PUBLIC	glad_glGetActiveAttrib
PUBLIC	glad_glGetActiveUniform
PUBLIC	glad_glGetAttachedShaders
PUBLIC	glad_glGetAttribLocation
PUBLIC	glad_glGetProgramiv
PUBLIC	glad_glGetProgramInfoLog
PUBLIC	glad_glGetShaderiv
PUBLIC	glad_glGetShaderInfoLog
PUBLIC	glad_glGetShaderSource
PUBLIC	glad_glGetUniformLocation
PUBLIC	glad_glGetUniformfv
PUBLIC	glad_glGetUniformiv
PUBLIC	glad_glGetVertexAttribdv
PUBLIC	glad_glGetVertexAttribfv
PUBLIC	glad_glGetVertexAttribiv
PUBLIC	glad_glGetVertexAttribPointerv
PUBLIC	glad_glIsProgram
PUBLIC	glad_glIsShader
PUBLIC	glad_glLinkProgram
PUBLIC	glad_glShaderSource
PUBLIC	glad_glUseProgram
PUBLIC	glad_glUniform1f
PUBLIC	glad_glUniform2f
PUBLIC	glad_glUniform3f
PUBLIC	glad_glUniform4f
PUBLIC	glad_glUniform1i
PUBLIC	glad_glUniform2i
PUBLIC	glad_glUniform3i
PUBLIC	glad_glUniform4i
PUBLIC	glad_glUniform1fv
PUBLIC	glad_glUniform2fv
PUBLIC	glad_glUniform3fv
PUBLIC	glad_glUniform4fv
PUBLIC	glad_glUniform1iv
PUBLIC	glad_glUniform2iv
PUBLIC	glad_glUniform3iv
PUBLIC	glad_glUniform4iv
PUBLIC	glad_glUniformMatrix2fv
PUBLIC	glad_glUniformMatrix3fv
PUBLIC	glad_glUniformMatrix4fv
PUBLIC	glad_glValidateProgram
PUBLIC	glad_glVertexAttrib1d
PUBLIC	glad_glVertexAttrib1dv
PUBLIC	glad_glVertexAttrib1f
PUBLIC	glad_glVertexAttrib1fv
PUBLIC	glad_glVertexAttrib1s
PUBLIC	glad_glVertexAttrib1sv
PUBLIC	glad_glVertexAttrib2d
PUBLIC	glad_glVertexAttrib2dv
PUBLIC	glad_glVertexAttrib2f
PUBLIC	glad_glVertexAttrib2fv
PUBLIC	glad_glVertexAttrib2s
PUBLIC	glad_glVertexAttrib2sv
PUBLIC	glad_glVertexAttrib3d
PUBLIC	glad_glVertexAttrib3dv
PUBLIC	glad_glVertexAttrib3f
PUBLIC	glad_glVertexAttrib3fv
PUBLIC	glad_glVertexAttrib3s
PUBLIC	glad_glVertexAttrib3sv
PUBLIC	glad_glVertexAttrib4Nbv
PUBLIC	glad_glVertexAttrib4Niv
PUBLIC	glad_glVertexAttrib4Nsv
PUBLIC	glad_glVertexAttrib4Nub
PUBLIC	glad_glVertexAttrib4Nubv
PUBLIC	glad_glVertexAttrib4Nuiv
PUBLIC	glad_glVertexAttrib4Nusv
PUBLIC	glad_glVertexAttrib4bv
PUBLIC	glad_glVertexAttrib4d
PUBLIC	glad_glVertexAttrib4dv
PUBLIC	glad_glVertexAttrib4f
PUBLIC	glad_glVertexAttrib4fv
PUBLIC	glad_glVertexAttrib4iv
PUBLIC	glad_glVertexAttrib4s
PUBLIC	glad_glVertexAttrib4sv
PUBLIC	glad_glVertexAttrib4ubv
PUBLIC	glad_glVertexAttrib4uiv
PUBLIC	glad_glVertexAttrib4usv
PUBLIC	glad_glVertexAttribPointer
PUBLIC	GLAD_GL_VERSION_2_1
PUBLIC	glad_glUniformMatrix2x3fv
PUBLIC	glad_glUniformMatrix3x2fv
PUBLIC	glad_glUniformMatrix2x4fv
PUBLIC	glad_glUniformMatrix4x2fv
PUBLIC	glad_glUniformMatrix3x4fv
PUBLIC	glad_glUniformMatrix4x3fv
PUBLIC	GLAD_GL_VERSION_3_0
PUBLIC	glad_glColorMaski
PUBLIC	glad_glGetBooleani_v
PUBLIC	glad_glGetIntegeri_v
PUBLIC	glad_glEnablei
PUBLIC	glad_glDisablei
PUBLIC	glad_glIsEnabledi
PUBLIC	glad_glBeginTransformFeedback
PUBLIC	glad_glEndTransformFeedback
PUBLIC	glad_glBindBufferRange
PUBLIC	glad_glBindBufferBase
PUBLIC	glad_glTransformFeedbackVaryings
PUBLIC	glad_glGetTransformFeedbackVarying
PUBLIC	glad_glClampColor
PUBLIC	glad_glBeginConditionalRender
PUBLIC	glad_glEndConditionalRender
PUBLIC	glad_glVertexAttribIPointer
PUBLIC	glad_glGetVertexAttribIiv
PUBLIC	glad_glGetVertexAttribIuiv
PUBLIC	glad_glVertexAttribI1i
PUBLIC	glad_glVertexAttribI2i
PUBLIC	glad_glVertexAttribI3i
PUBLIC	glad_glVertexAttribI4i
PUBLIC	glad_glVertexAttribI1ui
PUBLIC	glad_glVertexAttribI2ui
PUBLIC	glad_glVertexAttribI3ui
PUBLIC	glad_glVertexAttribI4ui
PUBLIC	glad_glVertexAttribI1iv
PUBLIC	glad_glVertexAttribI2iv
PUBLIC	glad_glVertexAttribI3iv
PUBLIC	glad_glVertexAttribI4iv
PUBLIC	glad_glVertexAttribI1uiv
PUBLIC	glad_glVertexAttribI2uiv
PUBLIC	glad_glVertexAttribI3uiv
PUBLIC	glad_glVertexAttribI4uiv
PUBLIC	glad_glVertexAttribI4bv
PUBLIC	glad_glVertexAttribI4sv
PUBLIC	glad_glVertexAttribI4ubv
PUBLIC	glad_glVertexAttribI4usv
PUBLIC	glad_glGetUniformuiv
PUBLIC	glad_glBindFragDataLocation
PUBLIC	glad_glGetFragDataLocation
PUBLIC	glad_glUniform1ui
PUBLIC	glad_glUniform2ui
PUBLIC	glad_glUniform3ui
PUBLIC	glad_glUniform4ui
PUBLIC	glad_glUniform1uiv
PUBLIC	glad_glUniform2uiv
PUBLIC	glad_glUniform3uiv
PUBLIC	glad_glUniform4uiv
PUBLIC	glad_glTexParameterIiv
PUBLIC	glad_glTexParameterIuiv
PUBLIC	glad_glGetTexParameterIiv
PUBLIC	glad_glGetTexParameterIuiv
PUBLIC	glad_glClearBufferiv
PUBLIC	glad_glClearBufferuiv
PUBLIC	glad_glClearBufferfv
PUBLIC	glad_glClearBufferfi
PUBLIC	glad_glGetStringi
PUBLIC	glad_glIsRenderbuffer
PUBLIC	glad_glBindRenderbuffer
PUBLIC	glad_glDeleteRenderbuffers
PUBLIC	glad_glGenRenderbuffers
PUBLIC	glad_glRenderbufferStorage
PUBLIC	glad_glGetRenderbufferParameteriv
PUBLIC	glad_glIsFramebuffer
PUBLIC	glad_glBindFramebuffer
PUBLIC	glad_glDeleteFramebuffers
PUBLIC	glad_glGenFramebuffers
PUBLIC	glad_glCheckFramebufferStatus
PUBLIC	glad_glFramebufferTexture1D
PUBLIC	glad_glFramebufferTexture2D
PUBLIC	glad_glFramebufferTexture3D
PUBLIC	glad_glFramebufferRenderbuffer
PUBLIC	glad_glGetFramebufferAttachmentParameteriv
PUBLIC	glad_glGenerateMipmap
PUBLIC	glad_glBlitFramebuffer
PUBLIC	glad_glRenderbufferStorageMultisample
PUBLIC	glad_glFramebufferTextureLayer
PUBLIC	glad_glMapBufferRange
PUBLIC	glad_glFlushMappedBufferRange
PUBLIC	glad_glBindVertexArray
PUBLIC	glad_glDeleteVertexArrays
PUBLIC	glad_glGenVertexArrays
PUBLIC	glad_glIsVertexArray
PUBLIC	GLAD_GL_VERSION_3_1
PUBLIC	glad_glDrawArraysInstanced
PUBLIC	glad_glDrawElementsInstanced
PUBLIC	glad_glTexBuffer
PUBLIC	glad_glPrimitiveRestartIndex
PUBLIC	glad_glCopyBufferSubData
PUBLIC	glad_glGetUniformIndices
PUBLIC	glad_glGetActiveUniformsiv
PUBLIC	glad_glGetActiveUniformName
PUBLIC	glad_glGetUniformBlockIndex
PUBLIC	glad_glGetActiveUniformBlockiv
PUBLIC	glad_glGetActiveUniformBlockName
PUBLIC	glad_glUniformBlockBinding
PUBLIC	GLAD_GL_VERSION_3_2
PUBLIC	glad_glDrawElementsBaseVertex
PUBLIC	glad_glDrawRangeElementsBaseVertex
PUBLIC	glad_glDrawElementsInstancedBaseVertex
PUBLIC	glad_glMultiDrawElementsBaseVertex
PUBLIC	glad_glProvokingVertex
PUBLIC	glad_glFenceSync
PUBLIC	glad_glIsSync
PUBLIC	glad_glDeleteSync
PUBLIC	glad_glClientWaitSync
PUBLIC	glad_glWaitSync
PUBLIC	glad_glGetInteger64v
PUBLIC	glad_glGetSynciv
PUBLIC	glad_glGetInteger64i_v
PUBLIC	glad_glGetBufferParameteri64v
PUBLIC	glad_glFramebufferTexture
PUBLIC	glad_glTexImage2DMultisample
PUBLIC	glad_glTexImage3DMultisample
PUBLIC	glad_glGetMultisamplefv
PUBLIC	glad_glSampleMaski
PUBLIC	GLAD_GL_VERSION_3_3
PUBLIC	glad_glBindFragDataLocationIndexed
PUBLIC	glad_glGetFragDataIndex
PUBLIC	glad_glGenSamplers
PUBLIC	glad_glDeleteSamplers
PUBLIC	glad_glIsSampler
PUBLIC	glad_glBindSampler
PUBLIC	glad_glSamplerParameteri
PUBLIC	glad_glSamplerParameteriv
PUBLIC	glad_glSamplerParameterf
PUBLIC	glad_glSamplerParameterfv
PUBLIC	glad_glSamplerParameterIiv
PUBLIC	glad_glSamplerParameterIuiv
PUBLIC	glad_glGetSamplerParameteriv
PUBLIC	glad_glGetSamplerParameterIiv
PUBLIC	glad_glGetSamplerParameterfv
PUBLIC	glad_glGetSamplerParameterIuiv
PUBLIC	glad_glQueryCounter
PUBLIC	glad_glGetQueryObjecti64v
PUBLIC	glad_glGetQueryObjectui64v
PUBLIC	glad_glVertexAttribDivisor
PUBLIC	glad_glVertexAttribP1ui
PUBLIC	glad_glVertexAttribP1uiv
PUBLIC	glad_glVertexAttribP2ui
PUBLIC	glad_glVertexAttribP2uiv
PUBLIC	glad_glVertexAttribP3ui
PUBLIC	glad_glVertexAttribP3uiv
PUBLIC	glad_glVertexAttribP4ui
PUBLIC	glad_glVertexAttribP4uiv
PUBLIC	glad_glVertexP2ui
PUBLIC	glad_glVertexP2uiv
PUBLIC	glad_glVertexP3ui
PUBLIC	glad_glVertexP3uiv
PUBLIC	glad_glVertexP4ui
PUBLIC	glad_glVertexP4uiv
PUBLIC	glad_glTexCoordP1ui
PUBLIC	glad_glTexCoordP1uiv
PUBLIC	glad_glTexCoordP2ui
PUBLIC	glad_glTexCoordP2uiv
PUBLIC	glad_glTexCoordP3ui
PUBLIC	glad_glTexCoordP3uiv
PUBLIC	glad_glTexCoordP4ui
PUBLIC	glad_glTexCoordP4uiv
PUBLIC	glad_glMultiTexCoordP1ui
PUBLIC	glad_glMultiTexCoordP1uiv
PUBLIC	glad_glMultiTexCoordP2ui
PUBLIC	glad_glMultiTexCoordP2uiv
PUBLIC	glad_glMultiTexCoordP3ui
PUBLIC	glad_glMultiTexCoordP3uiv
PUBLIC	glad_glMultiTexCoordP4ui
PUBLIC	glad_glMultiTexCoordP4uiv
PUBLIC	glad_glNormalP3ui
PUBLIC	glad_glNormalP3uiv
PUBLIC	glad_glColorP3ui
PUBLIC	glad_glColorP3uiv
PUBLIC	glad_glColorP4ui
PUBLIC	glad_glColorP4uiv
PUBLIC	glad_glSecondaryColorP3ui
PUBLIC	glad_glSecondaryColorP3uiv
PUBLIC	GLAD_GL_VERSION_4_0
PUBLIC	glad_glMinSampleShading
PUBLIC	glad_glBlendEquationi
PUBLIC	glad_glBlendEquationSeparatei
PUBLIC	glad_glBlendFunci
PUBLIC	glad_glBlendFuncSeparatei
PUBLIC	glad_glDrawArraysIndirect
PUBLIC	glad_glDrawElementsIndirect
PUBLIC	glad_glUniform1d
PUBLIC	glad_glUniform2d
PUBLIC	glad_glUniform3d
PUBLIC	glad_glUniform4d
PUBLIC	glad_glUniform1dv
PUBLIC	glad_glUniform2dv
PUBLIC	glad_glUniform3dv
PUBLIC	glad_glUniform4dv
PUBLIC	glad_glUniformMatrix2dv
PUBLIC	glad_glUniformMatrix3dv
PUBLIC	glad_glUniformMatrix4dv
PUBLIC	glad_glUniformMatrix2x3dv
PUBLIC	glad_glUniformMatrix2x4dv
PUBLIC	glad_glUniformMatrix3x2dv
PUBLIC	glad_glUniformMatrix3x4dv
PUBLIC	glad_glUniformMatrix4x2dv
PUBLIC	glad_glUniformMatrix4x3dv
PUBLIC	glad_glGetUniformdv
PUBLIC	glad_glGetSubroutineUniformLocation
PUBLIC	glad_glGetSubroutineIndex
PUBLIC	glad_glGetActiveSubroutineUniformiv
PUBLIC	glad_glGetActiveSubroutineUniformName
PUBLIC	glad_glGetActiveSubroutineName
PUBLIC	glad_glUniformSubroutinesuiv
PUBLIC	glad_glGetUniformSubroutineuiv
PUBLIC	glad_glGetProgramStageiv
PUBLIC	glad_glPatchParameteri
PUBLIC	glad_glPatchParameterfv
PUBLIC	glad_glBindTransformFeedback
PUBLIC	glad_glDeleteTransformFeedbacks
PUBLIC	glad_glGenTransformFeedbacks
PUBLIC	glad_glIsTransformFeedback
PUBLIC	glad_glPauseTransformFeedback
PUBLIC	glad_glResumeTransformFeedback
PUBLIC	glad_glDrawTransformFeedback
PUBLIC	glad_glDrawTransformFeedbackStream
PUBLIC	glad_glBeginQueryIndexed
PUBLIC	glad_glEndQueryIndexed
PUBLIC	glad_glGetQueryIndexediv
PUBLIC	GLAD_GL_VERSION_4_1
PUBLIC	glad_glReleaseShaderCompiler
PUBLIC	glad_glShaderBinary
PUBLIC	glad_glGetShaderPrecisionFormat
PUBLIC	glad_glDepthRangef
PUBLIC	glad_glClearDepthf
PUBLIC	glad_glGetProgramBinary
PUBLIC	glad_glProgramBinary
PUBLIC	glad_glProgramParameteri
PUBLIC	glad_glUseProgramStages
PUBLIC	glad_glActiveShaderProgram
PUBLIC	glad_glCreateShaderProgramv
PUBLIC	glad_glBindProgramPipeline
PUBLIC	glad_glDeleteProgramPipelines
PUBLIC	glad_glGenProgramPipelines
PUBLIC	glad_glIsProgramPipeline
PUBLIC	glad_glGetProgramPipelineiv
PUBLIC	glad_glProgramUniform1i
PUBLIC	glad_glProgramUniform1iv
PUBLIC	glad_glProgramUniform1f
PUBLIC	glad_glProgramUniform1fv
PUBLIC	glad_glProgramUniform1d
PUBLIC	glad_glProgramUniform1dv
PUBLIC	glad_glProgramUniform1ui
PUBLIC	glad_glProgramUniform1uiv
PUBLIC	glad_glProgramUniform2i
PUBLIC	glad_glProgramUniform2iv
PUBLIC	glad_glProgramUniform2f
PUBLIC	glad_glProgramUniform2fv
PUBLIC	glad_glProgramUniform2d
PUBLIC	glad_glProgramUniform2dv
PUBLIC	glad_glProgramUniform2ui
PUBLIC	glad_glProgramUniform2uiv
PUBLIC	glad_glProgramUniform3i
PUBLIC	glad_glProgramUniform3iv
PUBLIC	glad_glProgramUniform3f
PUBLIC	glad_glProgramUniform3fv
PUBLIC	glad_glProgramUniform3d
PUBLIC	glad_glProgramUniform3dv
PUBLIC	glad_glProgramUniform3ui
PUBLIC	glad_glProgramUniform3uiv
PUBLIC	glad_glProgramUniform4i
PUBLIC	glad_glProgramUniform4iv
PUBLIC	glad_glProgramUniform4f
PUBLIC	glad_glProgramUniform4fv
PUBLIC	glad_glProgramUniform4d
PUBLIC	glad_glProgramUniform4dv
PUBLIC	glad_glProgramUniform4ui
PUBLIC	glad_glProgramUniform4uiv
PUBLIC	glad_glProgramUniformMatrix2fv
PUBLIC	glad_glProgramUniformMatrix3fv
PUBLIC	glad_glProgramUniformMatrix4fv
PUBLIC	glad_glProgramUniformMatrix2dv
PUBLIC	glad_glProgramUniformMatrix3dv
PUBLIC	glad_glProgramUniformMatrix4dv
PUBLIC	glad_glProgramUniformMatrix2x3fv
PUBLIC	glad_glProgramUniformMatrix3x2fv
PUBLIC	glad_glProgramUniformMatrix2x4fv
PUBLIC	glad_glProgramUniformMatrix4x2fv
PUBLIC	glad_glProgramUniformMatrix3x4fv
PUBLIC	glad_glProgramUniformMatrix4x3fv
PUBLIC	glad_glProgramUniformMatrix2x3dv
PUBLIC	glad_glProgramUniformMatrix3x2dv
PUBLIC	glad_glProgramUniformMatrix2x4dv
PUBLIC	glad_glProgramUniformMatrix4x2dv
PUBLIC	glad_glProgramUniformMatrix3x4dv
PUBLIC	glad_glProgramUniformMatrix4x3dv
PUBLIC	glad_glValidateProgramPipeline
PUBLIC	glad_glGetProgramPipelineInfoLog
PUBLIC	glad_glVertexAttribL1d
PUBLIC	glad_glVertexAttribL2d
PUBLIC	glad_glVertexAttribL3d
PUBLIC	glad_glVertexAttribL4d
PUBLIC	glad_glVertexAttribL1dv
PUBLIC	glad_glVertexAttribL2dv
PUBLIC	glad_glVertexAttribL3dv
PUBLIC	glad_glVertexAttribL4dv
PUBLIC	glad_glVertexAttribLPointer
PUBLIC	glad_glGetVertexAttribLdv
PUBLIC	glad_glViewportArrayv
PUBLIC	glad_glViewportIndexedf
PUBLIC	glad_glViewportIndexedfv
PUBLIC	glad_glScissorArrayv
PUBLIC	glad_glScissorIndexed
PUBLIC	glad_glScissorIndexedv
PUBLIC	glad_glDepthRangeArrayv
PUBLIC	glad_glDepthRangeIndexed
PUBLIC	glad_glGetFloati_v
PUBLIC	glad_glGetDoublei_v
PUBLIC	GLAD_GL_VERSION_4_2
PUBLIC	glad_glDrawArraysInstancedBaseInstance
PUBLIC	glad_glDrawElementsInstancedBaseInstance
PUBLIC	glad_glDrawElementsInstancedBaseVertexBaseInstance
PUBLIC	glad_glGetInternalformativ
PUBLIC	glad_glGetActiveAtomicCounterBufferiv
PUBLIC	glad_glBindImageTexture
PUBLIC	glad_glMemoryBarrier
PUBLIC	glad_glTexStorage1D
PUBLIC	glad_glTexStorage2D
PUBLIC	glad_glTexStorage3D
PUBLIC	glad_glDrawTransformFeedbackInstanced
PUBLIC	glad_glDrawTransformFeedbackStreamInstanced
PUBLIC	GLAD_GL_VERSION_4_3
PUBLIC	glad_glClearBufferData
PUBLIC	glad_glClearBufferSubData
PUBLIC	glad_glDispatchCompute
PUBLIC	glad_glDispatchComputeIndirect
PUBLIC	glad_glCopyImageSubData
PUBLIC	glad_glFramebufferParameteri
PUBLIC	glad_glGetFramebufferParameteriv
PUBLIC	glad_glGetInternalformati64v
PUBLIC	glad_glInvalidateTexSubImage
PUBLIC	glad_glInvalidateTexImage
PUBLIC	glad_glInvalidateBufferSubData
PUBLIC	glad_glInvalidateBufferData
PUBLIC	glad_glInvalidateFramebuffer
PUBLIC	glad_glInvalidateSubFramebuffer
PUBLIC	glad_glMultiDrawArraysIndirect
PUBLIC	glad_glMultiDrawElementsIndirect
PUBLIC	glad_glGetProgramInterfaceiv
PUBLIC	glad_glGetProgramResourceIndex
PUBLIC	glad_glGetProgramResourceName
PUBLIC	glad_glGetProgramResourceiv
PUBLIC	glad_glGetProgramResourceLocation
PUBLIC	glad_glGetProgramResourceLocationIndex
PUBLIC	glad_glShaderStorageBlockBinding
PUBLIC	glad_glTexBufferRange
PUBLIC	glad_glTexStorage2DMultisample
PUBLIC	glad_glTexStorage3DMultisample
PUBLIC	glad_glTextureView
PUBLIC	glad_glBindVertexBuffer
PUBLIC	glad_glVertexAttribFormat
PUBLIC	glad_glVertexAttribIFormat
PUBLIC	glad_glVertexAttribLFormat
PUBLIC	glad_glVertexAttribBinding
PUBLIC	glad_glVertexBindingDivisor
PUBLIC	glad_glDebugMessageControl
PUBLIC	glad_glDebugMessageInsert
PUBLIC	glad_glDebugMessageCallback
PUBLIC	glad_glGetDebugMessageLog
PUBLIC	glad_glPushDebugGroup
PUBLIC	glad_glPopDebugGroup
PUBLIC	glad_glObjectLabel
PUBLIC	glad_glGetObjectLabel
PUBLIC	glad_glObjectPtrLabel
PUBLIC	glad_glGetObjectPtrLabel
PUBLIC	glad_glGetPointerv
PUBLIC	GLAD_GL_VERSION_4_4
PUBLIC	glad_glBufferStorage
PUBLIC	glad_glClearTexImage
PUBLIC	glad_glClearTexSubImage
PUBLIC	glad_glBindBuffersBase
PUBLIC	glad_glBindBuffersRange
PUBLIC	glad_glBindTextures
PUBLIC	glad_glBindSamplers
PUBLIC	glad_glBindImageTextures
PUBLIC	glad_glBindVertexBuffers
PUBLIC	GLAD_GL_VERSION_4_5
PUBLIC	glad_glClipControl
PUBLIC	glad_glCreateTransformFeedbacks
PUBLIC	glad_glTransformFeedbackBufferBase
PUBLIC	glad_glTransformFeedbackBufferRange
PUBLIC	glad_glGetTransformFeedbackiv
PUBLIC	glad_glGetTransformFeedbacki_v
PUBLIC	glad_glGetTransformFeedbacki64_v
PUBLIC	glad_glCreateBuffers
PUBLIC	glad_glNamedBufferStorage
PUBLIC	glad_glNamedBufferData
PUBLIC	glad_glNamedBufferSubData
PUBLIC	glad_glCopyNamedBufferSubData
PUBLIC	glad_glClearNamedBufferData
PUBLIC	glad_glClearNamedBufferSubData
PUBLIC	glad_glMapNamedBuffer
PUBLIC	glad_glMapNamedBufferRange
PUBLIC	glad_glUnmapNamedBuffer
PUBLIC	glad_glFlushMappedNamedBufferRange
PUBLIC	glad_glGetNamedBufferParameteriv
PUBLIC	glad_glGetNamedBufferParameteri64v
PUBLIC	glad_glGetNamedBufferPointerv
PUBLIC	glad_glGetNamedBufferSubData
PUBLIC	glad_glCreateFramebuffers
PUBLIC	glad_glNamedFramebufferRenderbuffer
PUBLIC	glad_glNamedFramebufferParameteri
PUBLIC	glad_glNamedFramebufferTexture
PUBLIC	glad_glNamedFramebufferTextureLayer
PUBLIC	glad_glNamedFramebufferDrawBuffer
PUBLIC	glad_glNamedFramebufferDrawBuffers
PUBLIC	glad_glNamedFramebufferReadBuffer
PUBLIC	glad_glInvalidateNamedFramebufferData
PUBLIC	glad_glInvalidateNamedFramebufferSubData
PUBLIC	glad_glClearNamedFramebufferiv
PUBLIC	glad_glClearNamedFramebufferuiv
PUBLIC	glad_glClearNamedFramebufferfv
PUBLIC	glad_glClearNamedFramebufferfi
PUBLIC	glad_glBlitNamedFramebuffer
PUBLIC	glad_glCheckNamedFramebufferStatus
PUBLIC	glad_glGetNamedFramebufferParameteriv
PUBLIC	glad_glGetNamedFramebufferAttachmentParameteriv
PUBLIC	glad_glCreateRenderbuffers
PUBLIC	glad_glNamedRenderbufferStorage
PUBLIC	glad_glNamedRenderbufferStorageMultisample
PUBLIC	glad_glGetNamedRenderbufferParameteriv
PUBLIC	glad_glCreateTextures
PUBLIC	glad_glTextureBuffer
PUBLIC	glad_glTextureBufferRange
PUBLIC	glad_glTextureStorage1D
PUBLIC	glad_glTextureStorage2D
PUBLIC	glad_glTextureStorage3D
PUBLIC	glad_glTextureStorage2DMultisample
PUBLIC	glad_glTextureStorage3DMultisample
PUBLIC	glad_glTextureSubImage1D
PUBLIC	glad_glTextureSubImage2D
PUBLIC	glad_glTextureSubImage3D
PUBLIC	glad_glCompressedTextureSubImage1D
PUBLIC	glad_glCompressedTextureSubImage2D
PUBLIC	glad_glCompressedTextureSubImage3D
PUBLIC	glad_glCopyTextureSubImage1D
PUBLIC	glad_glCopyTextureSubImage2D
PUBLIC	glad_glCopyTextureSubImage3D
PUBLIC	glad_glTextureParameterf
PUBLIC	glad_glTextureParameterfv
PUBLIC	glad_glTextureParameteri
PUBLIC	glad_glTextureParameterIiv
PUBLIC	glad_glTextureParameterIuiv
PUBLIC	glad_glTextureParameteriv
PUBLIC	glad_glGenerateTextureMipmap
PUBLIC	glad_glBindTextureUnit
PUBLIC	glad_glGetTextureImage
PUBLIC	glad_glGetCompressedTextureImage
PUBLIC	glad_glGetTextureLevelParameterfv
PUBLIC	glad_glGetTextureLevelParameteriv
PUBLIC	glad_glGetTextureParameterfv
PUBLIC	glad_glGetTextureParameterIiv
PUBLIC	glad_glGetTextureParameterIuiv
PUBLIC	glad_glGetTextureParameteriv
PUBLIC	glad_glCreateVertexArrays
PUBLIC	glad_glDisableVertexArrayAttrib
PUBLIC	glad_glEnableVertexArrayAttrib
PUBLIC	glad_glVertexArrayElementBuffer
PUBLIC	glad_glVertexArrayVertexBuffer
PUBLIC	glad_glVertexArrayVertexBuffers
PUBLIC	glad_glVertexArrayAttribBinding
PUBLIC	glad_glVertexArrayAttribFormat
PUBLIC	glad_glVertexArrayAttribIFormat
PUBLIC	glad_glVertexArrayAttribLFormat
PUBLIC	glad_glVertexArrayBindingDivisor
PUBLIC	glad_glGetVertexArrayiv
PUBLIC	glad_glGetVertexArrayIndexediv
PUBLIC	glad_glGetVertexArrayIndexed64iv
PUBLIC	glad_glCreateSamplers
PUBLIC	glad_glCreateProgramPipelines
PUBLIC	glad_glCreateQueries
PUBLIC	glad_glGetQueryBufferObjecti64v
PUBLIC	glad_glGetQueryBufferObjectiv
PUBLIC	glad_glGetQueryBufferObjectui64v
PUBLIC	glad_glGetQueryBufferObjectuiv
PUBLIC	glad_glMemoryBarrierByRegion
PUBLIC	glad_glGetTextureSubImage
PUBLIC	glad_glGetCompressedTextureSubImage
PUBLIC	glad_glGetGraphicsResetStatus
PUBLIC	glad_glGetnCompressedTexImage
PUBLIC	glad_glGetnTexImage
PUBLIC	glad_glGetnUniformdv
PUBLIC	glad_glGetnUniformfv
PUBLIC	glad_glGetnUniformiv
PUBLIC	glad_glGetnUniformuiv
PUBLIC	glad_glReadnPixels
PUBLIC	glad_glGetnMapdv
PUBLIC	glad_glGetnMapfv
PUBLIC	glad_glGetnMapiv
PUBLIC	glad_glGetnPixelMapfv
PUBLIC	glad_glGetnPixelMapuiv
PUBLIC	glad_glGetnPixelMapusv
PUBLIC	glad_glGetnPolygonStipple
PUBLIC	glad_glGetnColorTable
PUBLIC	glad_glGetnConvolutionFilter
PUBLIC	glad_glGetnSeparableFilter
PUBLIC	glad_glGetnHistogram
PUBLIC	glad_glGetnMinmax
PUBLIC	glad_glTextureBarrier
PUBLIC	GLAD_GL_VERSION_4_6
PUBLIC	glad_glSpecializeShader
PUBLIC	glad_glMultiDrawArraysIndirectCount
PUBLIC	glad_glMultiDrawElementsIndirectCount
PUBLIC	glad_glPolygonOffsetClamp
PUBLIC	GLAD_GL_VERSION_ES_CM_1_0
PUBLIC	glad_glAlphaFunc
PUBLIC	glad_glClipPlanef
PUBLIC	glad_glColor4f
PUBLIC	glad_glFogf
PUBLIC	glad_glFogfv
PUBLIC	glad_glFrustumf
PUBLIC	glad_glGetClipPlanef
PUBLIC	glad_glGetLightfv
PUBLIC	glad_glGetMaterialfv
PUBLIC	glad_glGetTexEnvfv
PUBLIC	glad_glLightModelf
PUBLIC	glad_glLightModelfv
PUBLIC	glad_glLightf
PUBLIC	glad_glLightfv
PUBLIC	glad_glLoadMatrixf
PUBLIC	glad_glMaterialf
PUBLIC	glad_glMaterialfv
PUBLIC	glad_glMultMatrixf
PUBLIC	glad_glMultiTexCoord4f
PUBLIC	glad_glNormal3f
PUBLIC	glad_glOrthof
PUBLIC	glad_glRotatef
PUBLIC	glad_glScalef
PUBLIC	glad_glTexEnvf
PUBLIC	glad_glTexEnvfv
PUBLIC	glad_glTranslatef
PUBLIC	glad_glAlphaFuncx
PUBLIC	glad_glClearColorx
PUBLIC	glad_glClearDepthx
PUBLIC	glad_glClientActiveTexture
PUBLIC	glad_glClipPlanex
PUBLIC	glad_glColor4ub
PUBLIC	glad_glColor4x
PUBLIC	glad_glColorPointer
PUBLIC	glad_glDepthRangex
PUBLIC	glad_glDisableClientState
PUBLIC	glad_glEnableClientState
PUBLIC	glad_glFogx
PUBLIC	glad_glFogxv
PUBLIC	glad_glFrustumx
PUBLIC	glad_glGetClipPlanex
PUBLIC	glad_glGetFixedv
PUBLIC	glad_glGetLightxv
PUBLIC	glad_glGetMaterialxv
PUBLIC	glad_glGetTexEnviv
PUBLIC	glad_glGetTexEnvxv
PUBLIC	glad_glGetTexParameterxv
PUBLIC	glad_glLightModelx
PUBLIC	glad_glLightModelxv
PUBLIC	glad_glLightx
PUBLIC	glad_glLightxv
PUBLIC	glad_glLineWidthx
PUBLIC	glad_glLoadIdentity
PUBLIC	glad_glLoadMatrixx
PUBLIC	glad_glMaterialx
PUBLIC	glad_glMaterialxv
PUBLIC	glad_glMatrixMode
PUBLIC	glad_glMultMatrixx
PUBLIC	glad_glMultiTexCoord4x
PUBLIC	glad_glNormal3x
PUBLIC	glad_glNormalPointer
PUBLIC	glad_glOrthox
PUBLIC	glad_glPointParameterx
PUBLIC	glad_glPointParameterxv
PUBLIC	glad_glPointSizex
PUBLIC	glad_glPolygonOffsetx
PUBLIC	glad_glPopMatrix
PUBLIC	glad_glPushMatrix
PUBLIC	glad_glRotatex
PUBLIC	glad_glSampleCoveragex
PUBLIC	glad_glScalex
PUBLIC	glad_glShadeModel
PUBLIC	glad_glTexCoordPointer
PUBLIC	glad_glTexEnvi
PUBLIC	glad_glTexEnvx
PUBLIC	glad_glTexEnviv
PUBLIC	glad_glTexEnvxv
PUBLIC	glad_glTexParameterx
PUBLIC	glad_glTexParameterxv
PUBLIC	glad_glTranslatex
PUBLIC	glad_glVertexPointer
PUBLIC	GLAD_GL_ES_VERSION_2_0
PUBLIC	GLAD_GL_ES_VERSION_3_0
PUBLIC	GLAD_GL_ES_VERSION_3_1
PUBLIC	GLAD_GL_ES_VERSION_3_2
PUBLIC	glad_glBlendBarrier
PUBLIC	glad_glPrimitiveBoundingBox
PUBLIC	GLAD_GL_SC_VERSION_2_0
_BSS	SEGMENT
GLVersion DQ	01H DUP (?)
GLAD_GL_VERSION_1_0 DD 01H DUP (?)
	ALIGN	8

glad_glCullFace DQ 01H DUP (?)
glad_glFrontFace DQ 01H DUP (?)
glad_glHint DQ	01H DUP (?)
glad_glLineWidth DQ 01H DUP (?)
glad_glPointSize DQ 01H DUP (?)
glad_glPolygonMode DQ 01H DUP (?)
glad_glScissor DQ 01H DUP (?)
glad_glTexParameterf DQ 01H DUP (?)
glad_glTexParameterfv DQ 01H DUP (?)
glad_glTexParameteri DQ 01H DUP (?)
glad_glTexParameteriv DQ 01H DUP (?)
glad_glTexImage1D DQ 01H DUP (?)
glad_glTexImage2D DQ 01H DUP (?)
glad_glDrawBuffer DQ 01H DUP (?)
glad_glClear DQ	01H DUP (?)
glad_glClearColor DQ 01H DUP (?)
glad_glClearStencil DQ 01H DUP (?)
glad_glClearDepth DQ 01H DUP (?)
glad_glStencilMask DQ 01H DUP (?)
glad_glColorMask DQ 01H DUP (?)
glad_glDepthMask DQ 01H DUP (?)
glad_glDisable DQ 01H DUP (?)
glad_glEnable DQ 01H DUP (?)
glad_glFinish DQ 01H DUP (?)
glad_glFlush DQ	01H DUP (?)
glad_glBlendFunc DQ 01H DUP (?)
glad_glLogicOp DQ 01H DUP (?)
glad_glStencilFunc DQ 01H DUP (?)
glad_glStencilOp DQ 01H DUP (?)
glad_glDepthFunc DQ 01H DUP (?)
glad_glPixelStoref DQ 01H DUP (?)
glad_glPixelStorei DQ 01H DUP (?)
glad_glReadBuffer DQ 01H DUP (?)
glad_glReadPixels DQ 01H DUP (?)
glad_glGetBooleanv DQ 01H DUP (?)
glad_glGetDoublev DQ 01H DUP (?)
glad_glGetError DQ 01H DUP (?)
glad_glGetFloatv DQ 01H DUP (?)
glad_glGetIntegerv DQ 01H DUP (?)
glad_glGetString DQ 01H DUP (?)
glad_glGetTexImage DQ 01H DUP (?)
glad_glGetTexParameterfv DQ 01H DUP (?)
glad_glGetTexParameteriv DQ 01H DUP (?)
glad_glGetTexLevelParameterfv DQ 01H DUP (?)
glad_glGetTexLevelParameteriv DQ 01H DUP (?)
glad_glIsEnabled DQ 01H DUP (?)
glad_glDepthRange DQ 01H DUP (?)
glad_glViewport DQ 01H DUP (?)
GLAD_GL_VERSION_1_1 DD 01H DUP (?)
	ALIGN	8

glad_glDrawArrays DQ 01H DUP (?)
glad_glDrawElements DQ 01H DUP (?)
glad_glPolygonOffset DQ 01H DUP (?)
glad_glCopyTexImage1D DQ 01H DUP (?)
glad_glCopyTexImage2D DQ 01H DUP (?)
glad_glCopyTexSubImage1D DQ 01H DUP (?)
glad_glCopyTexSubImage2D DQ 01H DUP (?)
glad_glTexSubImage1D DQ 01H DUP (?)
glad_glTexSubImage2D DQ 01H DUP (?)
glad_glBindTexture DQ 01H DUP (?)
glad_glDeleteTextures DQ 01H DUP (?)
glad_glGenTextures DQ 01H DUP (?)
glad_glIsTexture DQ 01H DUP (?)
GLAD_GL_VERSION_1_2 DD 01H DUP (?)
	ALIGN	8

glad_glDrawRangeElements DQ 01H DUP (?)
glad_glTexImage3D DQ 01H DUP (?)
glad_glTexSubImage3D DQ 01H DUP (?)
glad_glCopyTexSubImage3D DQ 01H DUP (?)
GLAD_GL_VERSION_1_3 DD 01H DUP (?)
	ALIGN	8

glad_glActiveTexture DQ 01H DUP (?)
glad_glSampleCoverage DQ 01H DUP (?)
glad_glCompressedTexImage3D DQ 01H DUP (?)
glad_glCompressedTexImage2D DQ 01H DUP (?)
glad_glCompressedTexImage1D DQ 01H DUP (?)
glad_glCompressedTexSubImage3D DQ 01H DUP (?)
glad_glCompressedTexSubImage2D DQ 01H DUP (?)
glad_glCompressedTexSubImage1D DQ 01H DUP (?)
glad_glGetCompressedTexImage DQ 01H DUP (?)
GLAD_GL_VERSION_1_4 DD 01H DUP (?)
	ALIGN	8

glad_glBlendFuncSeparate DQ 01H DUP (?)
glad_glMultiDrawArrays DQ 01H DUP (?)
glad_glMultiDrawElements DQ 01H DUP (?)
glad_glPointParameterf DQ 01H DUP (?)
glad_glPointParameterfv DQ 01H DUP (?)
glad_glPointParameteri DQ 01H DUP (?)
glad_glPointParameteriv DQ 01H DUP (?)
glad_glBlendColor DQ 01H DUP (?)
glad_glBlendEquation DQ 01H DUP (?)
GLAD_GL_VERSION_1_5 DD 01H DUP (?)
	ALIGN	8

glad_glGenQueries DQ 01H DUP (?)
glad_glDeleteQueries DQ 01H DUP (?)
glad_glIsQuery DQ 01H DUP (?)
glad_glBeginQuery DQ 01H DUP (?)
glad_glEndQuery DQ 01H DUP (?)
glad_glGetQueryiv DQ 01H DUP (?)
glad_glGetQueryObjectiv DQ 01H DUP (?)
glad_glGetQueryObjectuiv DQ 01H DUP (?)
glad_glBindBuffer DQ 01H DUP (?)
glad_glDeleteBuffers DQ 01H DUP (?)
glad_glGenBuffers DQ 01H DUP (?)
glad_glIsBuffer DQ 01H DUP (?)
glad_glBufferData DQ 01H DUP (?)
glad_glBufferSubData DQ 01H DUP (?)
glad_glGetBufferSubData DQ 01H DUP (?)
glad_glMapBuffer DQ 01H DUP (?)
glad_glUnmapBuffer DQ 01H DUP (?)
glad_glGetBufferParameteriv DQ 01H DUP (?)
glad_glGetBufferPointerv DQ 01H DUP (?)
GLAD_GL_VERSION_2_0 DD 01H DUP (?)
	ALIGN	8

glad_glBlendEquationSeparate DQ 01H DUP (?)
glad_glDrawBuffers DQ 01H DUP (?)
glad_glStencilOpSeparate DQ 01H DUP (?)
glad_glStencilFuncSeparate DQ 01H DUP (?)
glad_glStencilMaskSeparate DQ 01H DUP (?)
glad_glAttachShader DQ 01H DUP (?)
glad_glBindAttribLocation DQ 01H DUP (?)
glad_glCompileShader DQ 01H DUP (?)
glad_glCreateProgram DQ 01H DUP (?)
glad_glCreateShader DQ 01H DUP (?)
glad_glDeleteProgram DQ 01H DUP (?)
glad_glDeleteShader DQ 01H DUP (?)
glad_glDetachShader DQ 01H DUP (?)
glad_glDisableVertexAttribArray DQ 01H DUP (?)
glad_glEnableVertexAttribArray DQ 01H DUP (?)
glad_glGetActiveAttrib DQ 01H DUP (?)
glad_glGetActiveUniform DQ 01H DUP (?)
glad_glGetAttachedShaders DQ 01H DUP (?)
glad_glGetAttribLocation DQ 01H DUP (?)
glad_glGetProgramiv DQ 01H DUP (?)
glad_glGetProgramInfoLog DQ 01H DUP (?)
glad_glGetShaderiv DQ 01H DUP (?)
glad_glGetShaderInfoLog DQ 01H DUP (?)
glad_glGetShaderSource DQ 01H DUP (?)
glad_glGetUniformLocation DQ 01H DUP (?)
glad_glGetUniformfv DQ 01H DUP (?)
glad_glGetUniformiv DQ 01H DUP (?)
glad_glGetVertexAttribdv DQ 01H DUP (?)
glad_glGetVertexAttribfv DQ 01H DUP (?)
glad_glGetVertexAttribiv DQ 01H DUP (?)
glad_glGetVertexAttribPointerv DQ 01H DUP (?)
glad_glIsProgram DQ 01H DUP (?)
glad_glIsShader DQ 01H DUP (?)
glad_glLinkProgram DQ 01H DUP (?)
glad_glShaderSource DQ 01H DUP (?)
glad_glUseProgram DQ 01H DUP (?)
glad_glUniform1f DQ 01H DUP (?)
glad_glUniform2f DQ 01H DUP (?)
glad_glUniform3f DQ 01H DUP (?)
glad_glUniform4f DQ 01H DUP (?)
glad_glUniform1i DQ 01H DUP (?)
glad_glUniform2i DQ 01H DUP (?)
glad_glUniform3i DQ 01H DUP (?)
glad_glUniform4i DQ 01H DUP (?)
glad_glUniform1fv DQ 01H DUP (?)
glad_glUniform2fv DQ 01H DUP (?)
glad_glUniform3fv DQ 01H DUP (?)
glad_glUniform4fv DQ 01H DUP (?)
glad_glUniform1iv DQ 01H DUP (?)
glad_glUniform2iv DQ 01H DUP (?)
glad_glUniform3iv DQ 01H DUP (?)
glad_glUniform4iv DQ 01H DUP (?)
glad_glUniformMatrix2fv DQ 01H DUP (?)
glad_glUniformMatrix3fv DQ 01H DUP (?)
glad_glUniformMatrix4fv DQ 01H DUP (?)
glad_glValidateProgram DQ 01H DUP (?)
glad_glVertexAttrib1d DQ 01H DUP (?)
glad_glVertexAttrib1dv DQ 01H DUP (?)
glad_glVertexAttrib1f DQ 01H DUP (?)
glad_glVertexAttrib1fv DQ 01H DUP (?)
glad_glVertexAttrib1s DQ 01H DUP (?)
glad_glVertexAttrib1sv DQ 01H DUP (?)
glad_glVertexAttrib2d DQ 01H DUP (?)
glad_glVertexAttrib2dv DQ 01H DUP (?)
glad_glVertexAttrib2f DQ 01H DUP (?)
glad_glVertexAttrib2fv DQ 01H DUP (?)
glad_glVertexAttrib2s DQ 01H DUP (?)
glad_glVertexAttrib2sv DQ 01H DUP (?)
glad_glVertexAttrib3d DQ 01H DUP (?)
glad_glVertexAttrib3dv DQ 01H DUP (?)
glad_glVertexAttrib3f DQ 01H DUP (?)
glad_glVertexAttrib3fv DQ 01H DUP (?)
glad_glVertexAttrib3s DQ 01H DUP (?)
glad_glVertexAttrib3sv DQ 01H DUP (?)
glad_glVertexAttrib4Nbv DQ 01H DUP (?)
glad_glVertexAttrib4Niv DQ 01H DUP (?)
glad_glVertexAttrib4Nsv DQ 01H DUP (?)
glad_glVertexAttrib4Nub DQ 01H DUP (?)
glad_glVertexAttrib4Nubv DQ 01H DUP (?)
glad_glVertexAttrib4Nuiv DQ 01H DUP (?)
glad_glVertexAttrib4Nusv DQ 01H DUP (?)
glad_glVertexAttrib4bv DQ 01H DUP (?)
glad_glVertexAttrib4d DQ 01H DUP (?)
glad_glVertexAttrib4dv DQ 01H DUP (?)
glad_glVertexAttrib4f DQ 01H DUP (?)
glad_glVertexAttrib4fv DQ 01H DUP (?)
glad_glVertexAttrib4iv DQ 01H DUP (?)
glad_glVertexAttrib4s DQ 01H DUP (?)
glad_glVertexAttrib4sv DQ 01H DUP (?)
glad_glVertexAttrib4ubv DQ 01H DUP (?)
glad_glVertexAttrib4uiv DQ 01H DUP (?)
glad_glVertexAttrib4usv DQ 01H DUP (?)
glad_glVertexAttribPointer DQ 01H DUP (?)
GLAD_GL_VERSION_2_1 DD 01H DUP (?)
	ALIGN	8

glad_glUniformMatrix2x3fv DQ 01H DUP (?)
glad_glUniformMatrix3x2fv DQ 01H DUP (?)
glad_glUniformMatrix2x4fv DQ 01H DUP (?)
glad_glUniformMatrix4x2fv DQ 01H DUP (?)
glad_glUniformMatrix3x4fv DQ 01H DUP (?)
glad_glUniformMatrix4x3fv DQ 01H DUP (?)
GLAD_GL_VERSION_3_0 DD 01H DUP (?)
	ALIGN	8

glad_glColorMaski DQ 01H DUP (?)
glad_glGetBooleani_v DQ 01H DUP (?)
glad_glGetIntegeri_v DQ 01H DUP (?)
glad_glEnablei DQ 01H DUP (?)
glad_glDisablei DQ 01H DUP (?)
glad_glIsEnabledi DQ 01H DUP (?)
glad_glBeginTransformFeedback DQ 01H DUP (?)
glad_glEndTransformFeedback DQ 01H DUP (?)
glad_glBindBufferRange DQ 01H DUP (?)
glad_glBindBufferBase DQ 01H DUP (?)
glad_glTransformFeedbackVaryings DQ 01H DUP (?)
glad_glGetTransformFeedbackVarying DQ 01H DUP (?)
glad_glClampColor DQ 01H DUP (?)
glad_glBeginConditionalRender DQ 01H DUP (?)
glad_glEndConditionalRender DQ 01H DUP (?)
glad_glVertexAttribIPointer DQ 01H DUP (?)
glad_glGetVertexAttribIiv DQ 01H DUP (?)
glad_glGetVertexAttribIuiv DQ 01H DUP (?)
glad_glVertexAttribI1i DQ 01H DUP (?)
glad_glVertexAttribI2i DQ 01H DUP (?)
glad_glVertexAttribI3i DQ 01H DUP (?)
glad_glVertexAttribI4i DQ 01H DUP (?)
glad_glVertexAttribI1ui DQ 01H DUP (?)
glad_glVertexAttribI2ui DQ 01H DUP (?)
glad_glVertexAttribI3ui DQ 01H DUP (?)
glad_glVertexAttribI4ui DQ 01H DUP (?)
glad_glVertexAttribI1iv DQ 01H DUP (?)
glad_glVertexAttribI2iv DQ 01H DUP (?)
glad_glVertexAttribI3iv DQ 01H DUP (?)
glad_glVertexAttribI4iv DQ 01H DUP (?)
glad_glVertexAttribI1uiv DQ 01H DUP (?)
glad_glVertexAttribI2uiv DQ 01H DUP (?)
glad_glVertexAttribI3uiv DQ 01H DUP (?)
glad_glVertexAttribI4uiv DQ 01H DUP (?)
glad_glVertexAttribI4bv DQ 01H DUP (?)
glad_glVertexAttribI4sv DQ 01H DUP (?)
glad_glVertexAttribI4ubv DQ 01H DUP (?)
glad_glVertexAttribI4usv DQ 01H DUP (?)
glad_glGetUniformuiv DQ 01H DUP (?)
glad_glBindFragDataLocation DQ 01H DUP (?)
glad_glGetFragDataLocation DQ 01H DUP (?)
glad_glUniform1ui DQ 01H DUP (?)
glad_glUniform2ui DQ 01H DUP (?)
glad_glUniform3ui DQ 01H DUP (?)
glad_glUniform4ui DQ 01H DUP (?)
glad_glUniform1uiv DQ 01H DUP (?)
glad_glUniform2uiv DQ 01H DUP (?)
glad_glUniform3uiv DQ 01H DUP (?)
glad_glUniform4uiv DQ 01H DUP (?)
glad_glTexParameterIiv DQ 01H DUP (?)
glad_glTexParameterIuiv DQ 01H DUP (?)
glad_glGetTexParameterIiv DQ 01H DUP (?)
glad_glGetTexParameterIuiv DQ 01H DUP (?)
glad_glClearBufferiv DQ 01H DUP (?)
glad_glClearBufferuiv DQ 01H DUP (?)
glad_glClearBufferfv DQ 01H DUP (?)
glad_glClearBufferfi DQ 01H DUP (?)
glad_glGetStringi DQ 01H DUP (?)
glad_glIsRenderbuffer DQ 01H DUP (?)
glad_glBindRenderbuffer DQ 01H DUP (?)
glad_glDeleteRenderbuffers DQ 01H DUP (?)
glad_glGenRenderbuffers DQ 01H DUP (?)
glad_glRenderbufferStorage DQ 01H DUP (?)
glad_glGetRenderbufferParameteriv DQ 01H DUP (?)
glad_glIsFramebuffer DQ 01H DUP (?)
glad_glBindFramebuffer DQ 01H DUP (?)
glad_glDeleteFramebuffers DQ 01H DUP (?)
glad_glGenFramebuffers DQ 01H DUP (?)
glad_glCheckFramebufferStatus DQ 01H DUP (?)
glad_glFramebufferTexture1D DQ 01H DUP (?)
glad_glFramebufferTexture2D DQ 01H DUP (?)
glad_glFramebufferTexture3D DQ 01H DUP (?)
glad_glFramebufferRenderbuffer DQ 01H DUP (?)
glad_glGetFramebufferAttachmentParameteriv DQ 01H DUP (?)
glad_glGenerateMipmap DQ 01H DUP (?)
glad_glBlitFramebuffer DQ 01H DUP (?)
glad_glRenderbufferStorageMultisample DQ 01H DUP (?)
glad_glFramebufferTextureLayer DQ 01H DUP (?)
glad_glMapBufferRange DQ 01H DUP (?)
glad_glFlushMappedBufferRange DQ 01H DUP (?)
glad_glBindVertexArray DQ 01H DUP (?)
glad_glDeleteVertexArrays DQ 01H DUP (?)
glad_glGenVertexArrays DQ 01H DUP (?)
glad_glIsVertexArray DQ 01H DUP (?)
GLAD_GL_VERSION_3_1 DD 01H DUP (?)
	ALIGN	8

glad_glDrawArraysInstanced DQ 01H DUP (?)
glad_glDrawElementsInstanced DQ 01H DUP (?)
glad_glTexBuffer DQ 01H DUP (?)
glad_glPrimitiveRestartIndex DQ 01H DUP (?)
glad_glCopyBufferSubData DQ 01H DUP (?)
glad_glGetUniformIndices DQ 01H DUP (?)
glad_glGetActiveUniformsiv DQ 01H DUP (?)
glad_glGetActiveUniformName DQ 01H DUP (?)
glad_glGetUniformBlockIndex DQ 01H DUP (?)
glad_glGetActiveUniformBlockiv DQ 01H DUP (?)
glad_glGetActiveUniformBlockName DQ 01H DUP (?)
glad_glUniformBlockBinding DQ 01H DUP (?)
GLAD_GL_VERSION_3_2 DD 01H DUP (?)
	ALIGN	8

glad_glDrawElementsBaseVertex DQ 01H DUP (?)
glad_glDrawRangeElementsBaseVertex DQ 01H DUP (?)
glad_glDrawElementsInstancedBaseVertex DQ 01H DUP (?)
glad_glMultiDrawElementsBaseVertex DQ 01H DUP (?)
glad_glProvokingVertex DQ 01H DUP (?)
glad_glFenceSync DQ 01H DUP (?)
glad_glIsSync DQ 01H DUP (?)
glad_glDeleteSync DQ 01H DUP (?)
glad_glClientWaitSync DQ 01H DUP (?)
glad_glWaitSync DQ 01H DUP (?)
glad_glGetInteger64v DQ 01H DUP (?)
glad_glGetSynciv DQ 01H DUP (?)
glad_glGetInteger64i_v DQ 01H DUP (?)
glad_glGetBufferParameteri64v DQ 01H DUP (?)
glad_glFramebufferTexture DQ 01H DUP (?)
glad_glTexImage2DMultisample DQ 01H DUP (?)
glad_glTexImage3DMultisample DQ 01H DUP (?)
glad_glGetMultisamplefv DQ 01H DUP (?)
glad_glSampleMaski DQ 01H DUP (?)
GLAD_GL_VERSION_3_3 DD 01H DUP (?)
	ALIGN	8

glad_glBindFragDataLocationIndexed DQ 01H DUP (?)
glad_glGetFragDataIndex DQ 01H DUP (?)
glad_glGenSamplers DQ 01H DUP (?)
glad_glDeleteSamplers DQ 01H DUP (?)
glad_glIsSampler DQ 01H DUP (?)
glad_glBindSampler DQ 01H DUP (?)
glad_glSamplerParameteri DQ 01H DUP (?)
glad_glSamplerParameteriv DQ 01H DUP (?)
glad_glSamplerParameterf DQ 01H DUP (?)
glad_glSamplerParameterfv DQ 01H DUP (?)
glad_glSamplerParameterIiv DQ 01H DUP (?)
glad_glSamplerParameterIuiv DQ 01H DUP (?)
glad_glGetSamplerParameteriv DQ 01H DUP (?)
glad_glGetSamplerParameterIiv DQ 01H DUP (?)
glad_glGetSamplerParameterfv DQ 01H DUP (?)
glad_glGetSamplerParameterIuiv DQ 01H DUP (?)
glad_glQueryCounter DQ 01H DUP (?)
glad_glGetQueryObjecti64v DQ 01H DUP (?)
glad_glGetQueryObjectui64v DQ 01H DUP (?)
glad_glVertexAttribDivisor DQ 01H DUP (?)
glad_glVertexAttribP1ui DQ 01H DUP (?)
glad_glVertexAttribP1uiv DQ 01H DUP (?)
glad_glVertexAttribP2ui DQ 01H DUP (?)
glad_glVertexAttribP2uiv DQ 01H DUP (?)
glad_glVertexAttribP3ui DQ 01H DUP (?)
glad_glVertexAttribP3uiv DQ 01H DUP (?)
glad_glVertexAttribP4ui DQ 01H DUP (?)
glad_glVertexAttribP4uiv DQ 01H DUP (?)
glad_glVertexP2ui DQ 01H DUP (?)
glad_glVertexP2uiv DQ 01H DUP (?)
glad_glVertexP3ui DQ 01H DUP (?)
glad_glVertexP3uiv DQ 01H DUP (?)
glad_glVertexP4ui DQ 01H DUP (?)
glad_glVertexP4uiv DQ 01H DUP (?)
glad_glTexCoordP1ui DQ 01H DUP (?)
glad_glTexCoordP1uiv DQ 01H DUP (?)
glad_glTexCoordP2ui DQ 01H DUP (?)
glad_glTexCoordP2uiv DQ 01H DUP (?)
glad_glTexCoordP3ui DQ 01H DUP (?)
glad_glTexCoordP3uiv DQ 01H DUP (?)
glad_glTexCoordP4ui DQ 01H DUP (?)
glad_glTexCoordP4uiv DQ 01H DUP (?)
glad_glMultiTexCoordP1ui DQ 01H DUP (?)
glad_glMultiTexCoordP1uiv DQ 01H DUP (?)
glad_glMultiTexCoordP2ui DQ 01H DUP (?)
glad_glMultiTexCoordP2uiv DQ 01H DUP (?)
glad_glMultiTexCoordP3ui DQ 01H DUP (?)
glad_glMultiTexCoordP3uiv DQ 01H DUP (?)
glad_glMultiTexCoordP4ui DQ 01H DUP (?)
glad_glMultiTexCoordP4uiv DQ 01H DUP (?)
glad_glNormalP3ui DQ 01H DUP (?)
glad_glNormalP3uiv DQ 01H DUP (?)
glad_glColorP3ui DQ 01H DUP (?)
glad_glColorP3uiv DQ 01H DUP (?)
glad_glColorP4ui DQ 01H DUP (?)
glad_glColorP4uiv DQ 01H DUP (?)
glad_glSecondaryColorP3ui DQ 01H DUP (?)
glad_glSecondaryColorP3uiv DQ 01H DUP (?)
GLAD_GL_VERSION_4_0 DD 01H DUP (?)
	ALIGN	8

glad_glMinSampleShading DQ 01H DUP (?)
glad_glBlendEquationi DQ 01H DUP (?)
glad_glBlendEquationSeparatei DQ 01H DUP (?)
glad_glBlendFunci DQ 01H DUP (?)
glad_glBlendFuncSeparatei DQ 01H DUP (?)
glad_glDrawArraysIndirect DQ 01H DUP (?)
glad_glDrawElementsIndirect DQ 01H DUP (?)
glad_glUniform1d DQ 01H DUP (?)
glad_glUniform2d DQ 01H DUP (?)
glad_glUniform3d DQ 01H DUP (?)
glad_glUniform4d DQ 01H DUP (?)
glad_glUniform1dv DQ 01H DUP (?)
glad_glUniform2dv DQ 01H DUP (?)
glad_glUniform3dv DQ 01H DUP (?)
glad_glUniform4dv DQ 01H DUP (?)
glad_glUniformMatrix2dv DQ 01H DUP (?)
glad_glUniformMatrix3dv DQ 01H DUP (?)
glad_glUniformMatrix4dv DQ 01H DUP (?)
glad_glUniformMatrix2x3dv DQ 01H DUP (?)
glad_glUniformMatrix2x4dv DQ 01H DUP (?)
glad_glUniformMatrix3x2dv DQ 01H DUP (?)
glad_glUniformMatrix3x4dv DQ 01H DUP (?)
glad_glUniformMatrix4x2dv DQ 01H DUP (?)
glad_glUniformMatrix4x3dv DQ 01H DUP (?)
glad_glGetUniformdv DQ 01H DUP (?)
glad_glGetSubroutineUniformLocation DQ 01H DUP (?)
glad_glGetSubroutineIndex DQ 01H DUP (?)
glad_glGetActiveSubroutineUniformiv DQ 01H DUP (?)
glad_glGetActiveSubroutineUniformName DQ 01H DUP (?)
glad_glGetActiveSubroutineName DQ 01H DUP (?)
glad_glUniformSubroutinesuiv DQ 01H DUP (?)
glad_glGetUniformSubroutineuiv DQ 01H DUP (?)
glad_glGetProgramStageiv DQ 01H DUP (?)
glad_glPatchParameteri DQ 01H DUP (?)
glad_glPatchParameterfv DQ 01H DUP (?)
glad_glBindTransformFeedback DQ 01H DUP (?)
glad_glDeleteTransformFeedbacks DQ 01H DUP (?)
glad_glGenTransformFeedbacks DQ 01H DUP (?)
glad_glIsTransformFeedback DQ 01H DUP (?)
glad_glPauseTransformFeedback DQ 01H DUP (?)
glad_glResumeTransformFeedback DQ 01H DUP (?)
glad_glDrawTransformFeedback DQ 01H DUP (?)
glad_glDrawTransformFeedbackStream DQ 01H DUP (?)
glad_glBeginQueryIndexed DQ 01H DUP (?)
glad_glEndQueryIndexed DQ 01H DUP (?)
glad_glGetQueryIndexediv DQ 01H DUP (?)
GLAD_GL_VERSION_4_1 DD 01H DUP (?)
	ALIGN	8

glad_glReleaseShaderCompiler DQ 01H DUP (?)
glad_glShaderBinary DQ 01H DUP (?)
glad_glGetShaderPrecisionFormat DQ 01H DUP (?)
glad_glDepthRangef DQ 01H DUP (?)
glad_glClearDepthf DQ 01H DUP (?)
glad_glGetProgramBinary DQ 01H DUP (?)
glad_glProgramBinary DQ 01H DUP (?)
glad_glProgramParameteri DQ 01H DUP (?)
glad_glUseProgramStages DQ 01H DUP (?)
glad_glActiveShaderProgram DQ 01H DUP (?)
glad_glCreateShaderProgramv DQ 01H DUP (?)
glad_glBindProgramPipeline DQ 01H DUP (?)
glad_glDeleteProgramPipelines DQ 01H DUP (?)
glad_glGenProgramPipelines DQ 01H DUP (?)
glad_glIsProgramPipeline DQ 01H DUP (?)
glad_glGetProgramPipelineiv DQ 01H DUP (?)
glad_glProgramUniform1i DQ 01H DUP (?)
glad_glProgramUniform1iv DQ 01H DUP (?)
glad_glProgramUniform1f DQ 01H DUP (?)
glad_glProgramUniform1fv DQ 01H DUP (?)
glad_glProgramUniform1d DQ 01H DUP (?)
glad_glProgramUniform1dv DQ 01H DUP (?)
glad_glProgramUniform1ui DQ 01H DUP (?)
glad_glProgramUniform1uiv DQ 01H DUP (?)
glad_glProgramUniform2i DQ 01H DUP (?)
glad_glProgramUniform2iv DQ 01H DUP (?)
glad_glProgramUniform2f DQ 01H DUP (?)
glad_glProgramUniform2fv DQ 01H DUP (?)
glad_glProgramUniform2d DQ 01H DUP (?)
glad_glProgramUniform2dv DQ 01H DUP (?)
glad_glProgramUniform2ui DQ 01H DUP (?)
glad_glProgramUniform2uiv DQ 01H DUP (?)
glad_glProgramUniform3i DQ 01H DUP (?)
glad_glProgramUniform3iv DQ 01H DUP (?)
glad_glProgramUniform3f DQ 01H DUP (?)
glad_glProgramUniform3fv DQ 01H DUP (?)
glad_glProgramUniform3d DQ 01H DUP (?)
glad_glProgramUniform3dv DQ 01H DUP (?)
glad_glProgramUniform3ui DQ 01H DUP (?)
glad_glProgramUniform3uiv DQ 01H DUP (?)
glad_glProgramUniform4i DQ 01H DUP (?)
glad_glProgramUniform4iv DQ 01H DUP (?)
glad_glProgramUniform4f DQ 01H DUP (?)
glad_glProgramUniform4fv DQ 01H DUP (?)
glad_glProgramUniform4d DQ 01H DUP (?)
glad_glProgramUniform4dv DQ 01H DUP (?)
glad_glProgramUniform4ui DQ 01H DUP (?)
glad_glProgramUniform4uiv DQ 01H DUP (?)
glad_glProgramUniformMatrix2fv DQ 01H DUP (?)
glad_glProgramUniformMatrix3fv DQ 01H DUP (?)
glad_glProgramUniformMatrix4fv DQ 01H DUP (?)
glad_glProgramUniformMatrix2dv DQ 01H DUP (?)
glad_glProgramUniformMatrix3dv DQ 01H DUP (?)
glad_glProgramUniformMatrix4dv DQ 01H DUP (?)
glad_glProgramUniformMatrix2x3fv DQ 01H DUP (?)
glad_glProgramUniformMatrix3x2fv DQ 01H DUP (?)
glad_glProgramUniformMatrix2x4fv DQ 01H DUP (?)
glad_glProgramUniformMatrix4x2fv DQ 01H DUP (?)
glad_glProgramUniformMatrix3x4fv DQ 01H DUP (?)
glad_glProgramUniformMatrix4x3fv DQ 01H DUP (?)
glad_glProgramUniformMatrix2x3dv DQ 01H DUP (?)
glad_glProgramUniformMatrix3x2dv DQ 01H DUP (?)
glad_glProgramUniformMatrix2x4dv DQ 01H DUP (?)
glad_glProgramUniformMatrix4x2dv DQ 01H DUP (?)
glad_glProgramUniformMatrix3x4dv DQ 01H DUP (?)
glad_glProgramUniformMatrix4x3dv DQ 01H DUP (?)
glad_glValidateProgramPipeline DQ 01H DUP (?)
glad_glGetProgramPipelineInfoLog DQ 01H DUP (?)
glad_glVertexAttribL1d DQ 01H DUP (?)
glad_glVertexAttribL2d DQ 01H DUP (?)
glad_glVertexAttribL3d DQ 01H DUP (?)
glad_glVertexAttribL4d DQ 01H DUP (?)
glad_glVertexAttribL1dv DQ 01H DUP (?)
glad_glVertexAttribL2dv DQ 01H DUP (?)
glad_glVertexAttribL3dv DQ 01H DUP (?)
glad_glVertexAttribL4dv DQ 01H DUP (?)
glad_glVertexAttribLPointer DQ 01H DUP (?)
glad_glGetVertexAttribLdv DQ 01H DUP (?)
glad_glViewportArrayv DQ 01H DUP (?)
glad_glViewportIndexedf DQ 01H DUP (?)
glad_glViewportIndexedfv DQ 01H DUP (?)
glad_glScissorArrayv DQ 01H DUP (?)
glad_glScissorIndexed DQ 01H DUP (?)
glad_glScissorIndexedv DQ 01H DUP (?)
glad_glDepthRangeArrayv DQ 01H DUP (?)
glad_glDepthRangeIndexed DQ 01H DUP (?)
glad_glGetFloati_v DQ 01H DUP (?)
glad_glGetDoublei_v DQ 01H DUP (?)
GLAD_GL_VERSION_4_2 DD 01H DUP (?)
	ALIGN	8

glad_glDrawArraysInstancedBaseInstance DQ 01H DUP (?)
glad_glDrawElementsInstancedBaseInstance DQ 01H DUP (?)
glad_glDrawElementsInstancedBaseVertexBaseInstance DQ 01H DUP (?)
glad_glGetInternalformativ DQ 01H DUP (?)
glad_glGetActiveAtomicCounterBufferiv DQ 01H DUP (?)
glad_glBindImageTexture DQ 01H DUP (?)
glad_glMemoryBarrier DQ 01H DUP (?)
glad_glTexStorage1D DQ 01H DUP (?)
glad_glTexStorage2D DQ 01H DUP (?)
glad_glTexStorage3D DQ 01H DUP (?)
glad_glDrawTransformFeedbackInstanced DQ 01H DUP (?)
glad_glDrawTransformFeedbackStreamInstanced DQ 01H DUP (?)
GLAD_GL_VERSION_4_3 DD 01H DUP (?)
	ALIGN	8

glad_glClearBufferData DQ 01H DUP (?)
glad_glClearBufferSubData DQ 01H DUP (?)
glad_glDispatchCompute DQ 01H DUP (?)
glad_glDispatchComputeIndirect DQ 01H DUP (?)
glad_glCopyImageSubData DQ 01H DUP (?)
glad_glFramebufferParameteri DQ 01H DUP (?)
glad_glGetFramebufferParameteriv DQ 01H DUP (?)
glad_glGetInternalformati64v DQ 01H DUP (?)
glad_glInvalidateTexSubImage DQ 01H DUP (?)
glad_glInvalidateTexImage DQ 01H DUP (?)
glad_glInvalidateBufferSubData DQ 01H DUP (?)
glad_glInvalidateBufferData DQ 01H DUP (?)
glad_glInvalidateFramebuffer DQ 01H DUP (?)
glad_glInvalidateSubFramebuffer DQ 01H DUP (?)
glad_glMultiDrawArraysIndirect DQ 01H DUP (?)
glad_glMultiDrawElementsIndirect DQ 01H DUP (?)
glad_glGetProgramInterfaceiv DQ 01H DUP (?)
glad_glGetProgramResourceIndex DQ 01H DUP (?)
glad_glGetProgramResourceName DQ 01H DUP (?)
glad_glGetProgramResourceiv DQ 01H DUP (?)
glad_glGetProgramResourceLocation DQ 01H DUP (?)
glad_glGetProgramResourceLocationIndex DQ 01H DUP (?)
glad_glShaderStorageBlockBinding DQ 01H DUP (?)
glad_glTexBufferRange DQ 01H DUP (?)
glad_glTexStorage2DMultisample DQ 01H DUP (?)
glad_glTexStorage3DMultisample DQ 01H DUP (?)
glad_glTextureView DQ 01H DUP (?)
glad_glBindVertexBuffer DQ 01H DUP (?)
glad_glVertexAttribFormat DQ 01H DUP (?)
glad_glVertexAttribIFormat DQ 01H DUP (?)
glad_glVertexAttribLFormat DQ 01H DUP (?)
glad_glVertexAttribBinding DQ 01H DUP (?)
glad_glVertexBindingDivisor DQ 01H DUP (?)
glad_glDebugMessageControl DQ 01H DUP (?)
glad_glDebugMessageInsert DQ 01H DUP (?)
glad_glDebugMessageCallback DQ 01H DUP (?)
glad_glGetDebugMessageLog DQ 01H DUP (?)
glad_glPushDebugGroup DQ 01H DUP (?)
glad_glPopDebugGroup DQ 01H DUP (?)
glad_glObjectLabel DQ 01H DUP (?)
glad_glGetObjectLabel DQ 01H DUP (?)
glad_glObjectPtrLabel DQ 01H DUP (?)
glad_glGetObjectPtrLabel DQ 01H DUP (?)
glad_glGetPointerv DQ 01H DUP (?)
GLAD_GL_VERSION_4_4 DD 01H DUP (?)
	ALIGN	8

glad_glBufferStorage DQ 01H DUP (?)
glad_glClearTexImage DQ 01H DUP (?)
glad_glClearTexSubImage DQ 01H DUP (?)
glad_glBindBuffersBase DQ 01H DUP (?)
glad_glBindBuffersRange DQ 01H DUP (?)
glad_glBindTextures DQ 01H DUP (?)
glad_glBindSamplers DQ 01H DUP (?)
glad_glBindImageTextures DQ 01H DUP (?)
glad_glBindVertexBuffers DQ 01H DUP (?)
GLAD_GL_VERSION_4_5 DD 01H DUP (?)
	ALIGN	8

glad_glClipControl DQ 01H DUP (?)
glad_glCreateTransformFeedbacks DQ 01H DUP (?)
glad_glTransformFeedbackBufferBase DQ 01H DUP (?)
glad_glTransformFeedbackBufferRange DQ 01H DUP (?)
glad_glGetTransformFeedbackiv DQ 01H DUP (?)
glad_glGetTransformFeedbacki_v DQ 01H DUP (?)
glad_glGetTransformFeedbacki64_v DQ 01H DUP (?)
glad_glCreateBuffers DQ 01H DUP (?)
glad_glNamedBufferStorage DQ 01H DUP (?)
glad_glNamedBufferData DQ 01H DUP (?)
glad_glNamedBufferSubData DQ 01H DUP (?)
glad_glCopyNamedBufferSubData DQ 01H DUP (?)
glad_glClearNamedBufferData DQ 01H DUP (?)
glad_glClearNamedBufferSubData DQ 01H DUP (?)
glad_glMapNamedBuffer DQ 01H DUP (?)
glad_glMapNamedBufferRange DQ 01H DUP (?)
glad_glUnmapNamedBuffer DQ 01H DUP (?)
glad_glFlushMappedNamedBufferRange DQ 01H DUP (?)
glad_glGetNamedBufferParameteriv DQ 01H DUP (?)
glad_glGetNamedBufferParameteri64v DQ 01H DUP (?)
glad_glGetNamedBufferPointerv DQ 01H DUP (?)
glad_glGetNamedBufferSubData DQ 01H DUP (?)
glad_glCreateFramebuffers DQ 01H DUP (?)
glad_glNamedFramebufferRenderbuffer DQ 01H DUP (?)
glad_glNamedFramebufferParameteri DQ 01H DUP (?)
glad_glNamedFramebufferTexture DQ 01H DUP (?)
glad_glNamedFramebufferTextureLayer DQ 01H DUP (?)
glad_glNamedFramebufferDrawBuffer DQ 01H DUP (?)
glad_glNamedFramebufferDrawBuffers DQ 01H DUP (?)
glad_glNamedFramebufferReadBuffer DQ 01H DUP (?)
glad_glInvalidateNamedFramebufferData DQ 01H DUP (?)
glad_glInvalidateNamedFramebufferSubData DQ 01H DUP (?)
glad_glClearNamedFramebufferiv DQ 01H DUP (?)
glad_glClearNamedFramebufferuiv DQ 01H DUP (?)
glad_glClearNamedFramebufferfv DQ 01H DUP (?)
glad_glClearNamedFramebufferfi DQ 01H DUP (?)
glad_glBlitNamedFramebuffer DQ 01H DUP (?)
glad_glCheckNamedFramebufferStatus DQ 01H DUP (?)
glad_glGetNamedFramebufferParameteriv DQ 01H DUP (?)
glad_glGetNamedFramebufferAttachmentParameteriv DQ 01H DUP (?)
glad_glCreateRenderbuffers DQ 01H DUP (?)
glad_glNamedRenderbufferStorage DQ 01H DUP (?)
glad_glNamedRenderbufferStorageMultisample DQ 01H DUP (?)
glad_glGetNamedRenderbufferParameteriv DQ 01H DUP (?)
glad_glCreateTextures DQ 01H DUP (?)
glad_glTextureBuffer DQ 01H DUP (?)
glad_glTextureBufferRange DQ 01H DUP (?)
glad_glTextureStorage1D DQ 01H DUP (?)
glad_glTextureStorage2D DQ 01H DUP (?)
glad_glTextureStorage3D DQ 01H DUP (?)
glad_glTextureStorage2DMultisample DQ 01H DUP (?)
glad_glTextureStorage3DMultisample DQ 01H DUP (?)
glad_glTextureSubImage1D DQ 01H DUP (?)
glad_glTextureSubImage2D DQ 01H DUP (?)
glad_glTextureSubImage3D DQ 01H DUP (?)
glad_glCompressedTextureSubImage1D DQ 01H DUP (?)
glad_glCompressedTextureSubImage2D DQ 01H DUP (?)
glad_glCompressedTextureSubImage3D DQ 01H DUP (?)
glad_glCopyTextureSubImage1D DQ 01H DUP (?)
glad_glCopyTextureSubImage2D DQ 01H DUP (?)
glad_glCopyTextureSubImage3D DQ 01H DUP (?)
glad_glTextureParameterf DQ 01H DUP (?)
glad_glTextureParameterfv DQ 01H DUP (?)
glad_glTextureParameteri DQ 01H DUP (?)
glad_glTextureParameterIiv DQ 01H DUP (?)
glad_glTextureParameterIuiv DQ 01H DUP (?)
glad_glTextureParameteriv DQ 01H DUP (?)
glad_glGenerateTextureMipmap DQ 01H DUP (?)
glad_glBindTextureUnit DQ 01H DUP (?)
glad_glGetTextureImage DQ 01H DUP (?)
glad_glGetCompressedTextureImage DQ 01H DUP (?)
glad_glGetTextureLevelParameterfv DQ 01H DUP (?)
glad_glGetTextureLevelParameteriv DQ 01H DUP (?)
glad_glGetTextureParameterfv DQ 01H DUP (?)
glad_glGetTextureParameterIiv DQ 01H DUP (?)
glad_glGetTextureParameterIuiv DQ 01H DUP (?)
glad_glGetTextureParameteriv DQ 01H DUP (?)
glad_glCreateVertexArrays DQ 01H DUP (?)
glad_glDisableVertexArrayAttrib DQ 01H DUP (?)
glad_glEnableVertexArrayAttrib DQ 01H DUP (?)
glad_glVertexArrayElementBuffer DQ 01H DUP (?)
glad_glVertexArrayVertexBuffer DQ 01H DUP (?)
glad_glVertexArrayVertexBuffers DQ 01H DUP (?)
glad_glVertexArrayAttribBinding DQ 01H DUP (?)
glad_glVertexArrayAttribFormat DQ 01H DUP (?)
glad_glVertexArrayAttribIFormat DQ 01H DUP (?)
glad_glVertexArrayAttribLFormat DQ 01H DUP (?)
glad_glVertexArrayBindingDivisor DQ 01H DUP (?)
glad_glGetVertexArrayiv DQ 01H DUP (?)
glad_glGetVertexArrayIndexediv DQ 01H DUP (?)
glad_glGetVertexArrayIndexed64iv DQ 01H DUP (?)
glad_glCreateSamplers DQ 01H DUP (?)
glad_glCreateProgramPipelines DQ 01H DUP (?)
glad_glCreateQueries DQ 01H DUP (?)
glad_glGetQueryBufferObjecti64v DQ 01H DUP (?)
glad_glGetQueryBufferObjectiv DQ 01H DUP (?)
glad_glGetQueryBufferObjectui64v DQ 01H DUP (?)
glad_glGetQueryBufferObjectuiv DQ 01H DUP (?)
glad_glMemoryBarrierByRegion DQ 01H DUP (?)
glad_glGetTextureSubImage DQ 01H DUP (?)
glad_glGetCompressedTextureSubImage DQ 01H DUP (?)
glad_glGetGraphicsResetStatus DQ 01H DUP (?)
glad_glGetnCompressedTexImage DQ 01H DUP (?)
glad_glGetnTexImage DQ 01H DUP (?)
glad_glGetnUniformdv DQ 01H DUP (?)
glad_glGetnUniformfv DQ 01H DUP (?)
glad_glGetnUniformiv DQ 01H DUP (?)
glad_glGetnUniformuiv DQ 01H DUP (?)
glad_glReadnPixels DQ 01H DUP (?)
glad_glGetnMapdv DQ 01H DUP (?)
glad_glGetnMapfv DQ 01H DUP (?)
glad_glGetnMapiv DQ 01H DUP (?)
glad_glGetnPixelMapfv DQ 01H DUP (?)
glad_glGetnPixelMapuiv DQ 01H DUP (?)
glad_glGetnPixelMapusv DQ 01H DUP (?)
glad_glGetnPolygonStipple DQ 01H DUP (?)
glad_glGetnColorTable DQ 01H DUP (?)
glad_glGetnConvolutionFilter DQ 01H DUP (?)
glad_glGetnSeparableFilter DQ 01H DUP (?)
glad_glGetnHistogram DQ 01H DUP (?)
glad_glGetnMinmax DQ 01H DUP (?)
glad_glTextureBarrier DQ 01H DUP (?)
GLAD_GL_VERSION_4_6 DD 01H DUP (?)
	ALIGN	8

glad_glSpecializeShader DQ 01H DUP (?)
glad_glMultiDrawArraysIndirectCount DQ 01H DUP (?)
glad_glMultiDrawElementsIndirectCount DQ 01H DUP (?)
glad_glPolygonOffsetClamp DQ 01H DUP (?)
GLAD_GL_VERSION_ES_CM_1_0 DD 01H DUP (?)
	ALIGN	8

glad_glAlphaFunc DQ 01H DUP (?)
glad_glClipPlanef DQ 01H DUP (?)
glad_glColor4f DQ 01H DUP (?)
glad_glFogf DQ	01H DUP (?)
glad_glFogfv DQ	01H DUP (?)
glad_glFrustumf DQ 01H DUP (?)
glad_glGetClipPlanef DQ 01H DUP (?)
glad_glGetLightfv DQ 01H DUP (?)
glad_glGetMaterialfv DQ 01H DUP (?)
glad_glGetTexEnvfv DQ 01H DUP (?)
glad_glLightModelf DQ 01H DUP (?)
glad_glLightModelfv DQ 01H DUP (?)
glad_glLightf DQ 01H DUP (?)
glad_glLightfv DQ 01H DUP (?)
glad_glLoadMatrixf DQ 01H DUP (?)
glad_glMaterialf DQ 01H DUP (?)
glad_glMaterialfv DQ 01H DUP (?)
glad_glMultMatrixf DQ 01H DUP (?)
glad_glMultiTexCoord4f DQ 01H DUP (?)
glad_glNormal3f DQ 01H DUP (?)
glad_glOrthof DQ 01H DUP (?)
glad_glRotatef DQ 01H DUP (?)
glad_glScalef DQ 01H DUP (?)
glad_glTexEnvf DQ 01H DUP (?)
glad_glTexEnvfv DQ 01H DUP (?)
glad_glTranslatef DQ 01H DUP (?)
glad_glAlphaFuncx DQ 01H DUP (?)
glad_glClearColorx DQ 01H DUP (?)
glad_glClearDepthx DQ 01H DUP (?)
glad_glClientActiveTexture DQ 01H DUP (?)
glad_glClipPlanex DQ 01H DUP (?)
glad_glColor4ub DQ 01H DUP (?)
glad_glColor4x DQ 01H DUP (?)
glad_glColorPointer DQ 01H DUP (?)
glad_glDepthRangex DQ 01H DUP (?)
glad_glDisableClientState DQ 01H DUP (?)
glad_glEnableClientState DQ 01H DUP (?)
glad_glFogx DQ	01H DUP (?)
glad_glFogxv DQ	01H DUP (?)
glad_glFrustumx DQ 01H DUP (?)
glad_glGetClipPlanex DQ 01H DUP (?)
glad_glGetFixedv DQ 01H DUP (?)
glad_glGetLightxv DQ 01H DUP (?)
glad_glGetMaterialxv DQ 01H DUP (?)
glad_glGetTexEnviv DQ 01H DUP (?)
glad_glGetTexEnvxv DQ 01H DUP (?)
glad_glGetTexParameterxv DQ 01H DUP (?)
glad_glLightModelx DQ 01H DUP (?)
glad_glLightModelxv DQ 01H DUP (?)
glad_glLightx DQ 01H DUP (?)
glad_glLightxv DQ 01H DUP (?)
glad_glLineWidthx DQ 01H DUP (?)
glad_glLoadIdentity DQ 01H DUP (?)
glad_glLoadMatrixx DQ 01H DUP (?)
glad_glMaterialx DQ 01H DUP (?)
glad_glMaterialxv DQ 01H DUP (?)
glad_glMatrixMode DQ 01H DUP (?)
glad_glMultMatrixx DQ 01H DUP (?)
glad_glMultiTexCoord4x DQ 01H DUP (?)
glad_glNormal3x DQ 01H DUP (?)
glad_glNormalPointer DQ 01H DUP (?)
glad_glOrthox DQ 01H DUP (?)
glad_glPointParameterx DQ 01H DUP (?)
glad_glPointParameterxv DQ 01H DUP (?)
glad_glPointSizex DQ 01H DUP (?)
glad_glPolygonOffsetx DQ 01H DUP (?)
glad_glPopMatrix DQ 01H DUP (?)
glad_glPushMatrix DQ 01H DUP (?)
glad_glRotatex DQ 01H DUP (?)
glad_glSampleCoveragex DQ 01H DUP (?)
glad_glScalex DQ 01H DUP (?)
glad_glShadeModel DQ 01H DUP (?)
glad_glTexCoordPointer DQ 01H DUP (?)
glad_glTexEnvi DQ 01H DUP (?)
glad_glTexEnvx DQ 01H DUP (?)
glad_glTexEnviv DQ 01H DUP (?)
glad_glTexEnvxv DQ 01H DUP (?)
glad_glTexParameterx DQ 01H DUP (?)
glad_glTexParameterxv DQ 01H DUP (?)
glad_glTranslatex DQ 01H DUP (?)
glad_glVertexPointer DQ 01H DUP (?)
GLAD_GL_ES_VERSION_2_0 DD 01H DUP (?)
GLAD_GL_ES_VERSION_3_0 DD 01H DUP (?)
GLAD_GL_ES_VERSION_3_1 DD 01H DUP (?)
GLAD_GL_ES_VERSION_3_2 DD 01H DUP (?)
glad_glBlendBarrier DQ 01H DUP (?)
glad_glPrimitiveBoundingBox DQ 01H DUP (?)
GLAD_GL_SC_VERSION_2_0 DD 01H DUP (?)
_BSS	ENDS
msvcjmc	SEGMENT
__9C03CD75_concurrencysal@h DB 01H
__CA64BAF1_sal@h DB 01H
__95655E73_vadefs@h DB 01H
__1D560A45_vcruntime@h DB 01H
__1B0272D9_corecrt@h DB 01H
__44420885_corecrt_stdio_config@h DB 01H
__AB601D8D_corecrt_wstdio@h DB 01H
__C1EC35D3_stdio@h DB 01H
__45DED006_corecrt_malloc@h DB 01H
__13F5961F_stddef@h DB 01H
__FD6DBD68_corecrt_search@h DB 01H
__E2E33A61_corecrt_wstdlib@h DB 01H
__531E1E2A_limits@h DB 01H
__6E5ACABA_stdlib@h DB 01H
__61CC25A1_errno@h DB 01H
__7061C667_vcruntime_string@h DB 01H
__E4C945B4_corecrt_memcpy_s@h DB 01H
__8EAFF484_corecrt_memory@h DB 01H
__6490AEC5_corecrt_wstring@h DB 01H
__E8295E1E_string@h DB 01H
__ED683015_stdint@h DB 01H
__0E1B4EC4_khrplatform@h DB 01H
__CCB3A311_glad@h DB 01H
__0ED14FEE_winpackagefamily@h DB 01H
__F92EF742_winapifamily@h DB 01H
__22E515EB_sdkddkver@h DB 01H
__F214EFBF_excpt@h DB 01H
__D9B78EDA_stdarg@h DB 01H
__29F49F40_specstrings_undef@h DB 01H
__D0F42932_specstrings_strict@h DB 01H
__F00405FD_sdv_driverspecs@h DB 01H
__173E09CA_driverspecs@h DB 01H
__9A452361_specstrings@h DB 01H
__74484FB3_corecrt_wctype@h DB 01H
__1EC467ED_ctype@h DB 01H
__98517906_kernelspecs@h DB 01H
__D3497022_basetsd@h DB 01H
__7FCB5136_guiddef@h DB 01H
__FF8A9E11_pshpack4@h DB 01H
__D5438902_poppack@h DB 01H
__FB07E2A3_pshpack2@h DB 01H
__F6906775_pshpack8@h DB 01H
__F9415CFA_pshpack1@h DB 01H
__E58C6F1C_apiset@h DB 01H
__A5C52262_ktmtypes@h DB 01H
__FBBA8F9D_winnt@h DB 01H
__A32D3D2C_minwindef@h DB 01H
__7D798299_windef@h DB 01H
__9AE108E9_apisetcconv@h DB 01H
__9CE53D2C_minwinbase@h DB 01H
__5D0AA210_apiquery2@h DB 01H
__4DD4E726_processenv@h DB 01H
__3575CC96_fileapi@h DB 01H
__8EA220E6_fileapifromapp@h DB 01H
__BF9B31FE_debugapi@h DB 01H
__C3AFE134_utilapiset@h DB 01H
__76F69E51_handleapi@h DB 01H
__7E63D784_errhandlingapi@h DB 01H
__FFA7003C_fibersapi@h DB 01H
__8971CECF_namedpipeapi@h DB 01H
__46C9D8A6_profileapi@h DB 01H
__98D4F0A3_heapapi@h DB 01H
__50EF2A88_ioapiset@h DB 01H
__92EA1464_synchapi@h DB 01H
__A53D8AED_interlockedapi@h DB 01H
__B506CAAF_processthreadsapi@h DB 01H
__FF735694_sysinfoapi@h DB 01H
__29589789_memoryapi@h DB 01H
__E9C7A663_enclaveapi@h DB 01H
__D035F9F7_threadpoollegacyapiset@h DB 01H
__C899130C_threadpoolapiset@h DB 01H
__E0441EE7_jobapi@h DB 01H
__CEF86838_jobapi2@h DB 01H
__35AC6B9A_wow64apiset@h DB 01H
__C8AE41A5_libloaderapi@h DB 01H
__CC9E232D_securitybaseapi@h DB 01H
__C9D0C9B8_namespaceapi@h DB 01H
__30FF9CAD_systemtopologyapi@h DB 01H
__4D358795_processtopologyapi@h DB 01H
__40446D10_securityappcontainer@h DB 01H
__3A952EDF_realtimeapiset@h DB 01H
__F4865F4B_winerror@h DB 01H
__53C1BD93_timezoneapi@h DB 01H
__1FFBEDBF_winbase@h DB 01H
__43D3FA34_wingdi@h DB 01H
__D24A7391_tvout@h DB 01H
__7713A6C8_winuser@h DB 01H
__0B345F71_datetimeapi@h DB 01H
__9AC6960C_winnls@h DB 01H
__973A40A8_stringapiset@h DB 01H
__CC46FEE2_wincontypes@h DB 01H
__97D70BE1_consoleapi@h DB 01H
__27EC5E18_consoleapi2@h DB 01H
__262E342F_consoleapi3@h DB 01H
__641DCD70_wincon@h DB 01H
__5A96C7A7_verrsrc@h DB 01H
__B69C6FF2_winver@h DB 01H
__7AEB8C37_reason@h DB 01H
__59F1A8A9_winreg@h DB 01H
__EE0E2B7F_wnnc@h DB 01H
__DCDB7054_winnetwk@h DB 01H
__EDC72EEB_cderr@h DB 01H
__95F9199D_dde@h DB 01H
__66427627_ddeml@h DB 01H
__957C29A0_dlgs@h DB 01H
__12EA15AF_lzexpand@h DB 01H
__62131F15_mmsyscom@h DB 01H
__47E68D49_mciapi@h DB 01H
__5D7DD356_mmiscapi@h DB 01H
__7223D2EF_mmiscapi2@h DB 01H
__A330DBB3_playsoundapi@h DB 01H
__601B366F_mmeapi@h DB 01H
__1134ADD5_timeapi@h DB 01H
__93F2265A_joystickapi@h DB 01H
__DF6EB4E3_mmsystem@h DB 01H
__BD641FCB_nb30@h DB 01H
__DF8704F0_rpcdcep@h DB 01H
__5C6CA7BB_rpcdce@h DB 01H
__853533C4_rpcnsi@h DB 01H
__2D2406C3_rpcnterr@h DB 01H
__64521D71_rpcasync@h DB 01H
__AADCBA08_rpc@h DB 01H
__19E26CFF_shellapi@h DB 01H
__1E9F31D3_winperf@h DB 01H
__832A4112_inaddr@h DB 01H
__32C6F875_winsock@h DB 01H
__7953A3F8_bcrypt@h DB 01H
__E4169492_ncrypt@h DB 01H
__AF3DDDC3_dpapi@h DB 01H
__D1E23BF2_wincrypt@h DB 01H
__82AB4779_winefs@h DB 01H
__1FE431C9_rpcnsip@h DB 01H
__2B741F2D_rpcsal@h DB 01H
__92623256_rpcndr@h DB 01H
__9C18532E_wtypesbase@h DB 01H
__EA2E1D6D_wtypes@h DB 01H
__7DDD9F45_winioctl@h DB 01H
__E550A843_winsmcrd@h DB 01H
__9809C1BA_winscard@h DB 01H
__EA174FA4_prsht@h DB 01H
__0E1BD114_winspool@h DB 01H
__30B1AFDA_unknwnbase@h DB 01H
__328C1996_objidlbase@h DB 01H
__C4E06B6A_cguid@h DB 01H
__434718C5_combaseapi@h DB 01H
__DE6FDEF1_unknwn@h DB 01H
__CCE0BACC_objidl@h DB 01H
__8C7011E5_oaidl@h DB 01H
__2E0B7863_propidlbase@h DB 01H
__BF4CF2EC_coml2api@h DB 01H
__6D897344_oleidl@h DB 01H
__1129FC2C_servprov@h DB 01H
__757952E4_msxml@h DB 01H
__B1191D53_urlmon@h DB 01H
__404D1A47_propidl@h DB 01H
__A1C63593_objbase@h DB 01H
__C1B0A9CB_oleauto@h DB 01H
__24EAF61F_ole2@h DB 01H
__2B1843DA_commdlg@h DB 01H
__81DDEDE3_stralign@h DB 01H
__2134D1B4_winsvc@h DB 01H
__11C07376_mcx@h DB 01H
__577CE3E7_ime_cmodes@h DB 01H
__1E72C31E_imm@h DB 01H
__E15BF856_windows@h DB 01H
__2B68C239_glad@c DB 01H
msvcjmc	ENDS
PUBLIC	__local_stdio_scanf_options
PUBLIC	_vsscanf_s_l
PUBLIC	vsscanf_s
PUBLIC	sscanf_s
PUBLIC	gladLoadGL
PUBLIC	gladLoadGLLoader
PUBLIC	gladLoadGLES1Loader
PUBLIC	gladLoadGLES2Loader
PUBLIC	gladLoadGLSC2Loader
PUBLIC	__JustMyCode_Default
PUBLIC	??_C@_1BK@LCODAJLO@?$AAo?$AAp?$AAe?$AAn?$AAg?$AAl?$AA3?$AA2?$AA?4?$AAd?$AAl?$AAl@ ; `string'
PUBLIC	??_C@_0BC@FFKMKEGM@wglGetProcAddress@		; `string'
PUBLIC	??_C@_0L@BAPBLHME@glCullFace@			; `string'
PUBLIC	??_C@_0M@ILBMDJDA@glFrontFace@			; `string'
PUBLIC	??_C@_06HEADGMBC@glHint@			; `string'
PUBLIC	??_C@_0M@CFLGNFPG@glLineWidth@			; `string'
PUBLIC	??_C@_0M@EEAPMMNM@glPointSize@			; `string'
PUBLIC	??_C@_0O@DKMNBFMB@glPolygonMode@		; `string'
PUBLIC	??_C@_09ECGPAEPL@glScissor@			; `string'
PUBLIC	??_C@_0BA@INKFIMGP@glTexParameterf@		; `string'
PUBLIC	??_C@_0BB@KEOFAHDF@glTexParameterfv@		; `string'
PUBLIC	??_C@_0BA@KDNJAKA@glTexParameteri@		; `string'
PUBLIC	??_C@_0BB@KPLJEAAI@glTexParameteriv@		; `string'
PUBLIC	??_C@_0N@JDMMMFHL@glTexImage1D@			; `string'
PUBLIC	??_C@_0N@JBIKHLCC@glTexImage2D@			; `string'
PUBLIC	??_C@_0N@EKCLGPL@glDrawBuffer@			; `string'
PUBLIC	??_C@_07IBAPPAHJ@glClear@			; `string'
PUBLIC	??_C@_0N@OGLMDNKC@glClearColor@			; `string'
PUBLIC	??_C@_0P@KBLPBBFP@glClearStencil@		; `string'
PUBLIC	??_C@_0N@LJIELNG@glClearDepth@			; `string'
PUBLIC	??_C@_0O@DJFHPFEP@glStencilMask@		; `string'
PUBLIC	??_C@_0M@DLGOAHPH@glColorMask@			; `string'
PUBLIC	??_C@_0M@KABMFLLN@glDepthMask@			; `string'
PUBLIC	??_C@_09MHGMIMKN@glDisable@			; `string'
PUBLIC	??_C@_08OOEHEKOP@glEnable@			; `string'
PUBLIC	??_C@_08DFCPOKBK@glFinish@			; `string'
PUBLIC	??_C@_07COFELLJA@glFlush@			; `string'
PUBLIC	??_C@_0M@PFBKOKOH@glBlendFunc@			; `string'
PUBLIC	??_C@_09GKGMNAKG@glLogicOp@			; `string'
PUBLIC	??_C@_0O@ENNLLOLN@glStencilFunc@		; `string'
PUBLIC	??_C@_0M@BILBNGF@glStencilOp@			; `string'
PUBLIC	??_C@_0M@NEJABAEP@glDepthFunc@			; `string'
PUBLIC	??_C@_0O@BFLAHHCK@glPixelStoref@		; `string'
PUBLIC	??_C@_0O@JCCIGLOF@glPixelStorei@		; `string'
PUBLIC	??_C@_0N@HFKHBECK@glReadBuffer@			; `string'
PUBLIC	??_C@_0N@CKFNNHOO@glReadPixels@			; `string'
PUBLIC	??_C@_0O@NLMELLCJ@glGetBooleanv@		; `string'
PUBLIC	??_C@_0N@OFBMMCDH@glGetDoublev@			; `string'
PUBLIC	??_C@_0L@FPKAMKHB@glGetError@			; `string'
PUBLIC	??_C@_0M@CKCOBONE@glGetFloatv@			; `string'
PUBLIC	??_C@_0O@DHHDCCLF@glGetIntegerv@		; `string'
PUBLIC	??_C@_0M@OPOBFDCB@glGetString@			; `string'
PUBLIC	??_C@_0O@DOIIJLAD@glGetTexImage@		; `string'
PUBLIC	??_C@_0BE@DNHBPKMC@glGetTexParameterfv@		; `string'
PUBLIC	??_C@_0BE@DGCNLNPP@glGetTexParameteriv@		; `string'
PUBLIC	??_C@_0BJ@GAMLGIFF@glGetTexLevelParameterfv@	; `string'
PUBLIC	??_C@_0BJ@GLJHCPGI@glGetTexLevelParameteriv@	; `string'
PUBLIC	??_C@_0M@INHMIHKC@glIsEnabled@			; `string'
PUBLIC	??_C@_0N@PEBDIKOA@glDepthRange@			; `string'
PUBLIC	??_C@_0L@KBLIPDFH@glViewport@			; `string'
PUBLIC	??_C@_0N@CMNPPOHA@glDrawArrays@			; `string'
PUBLIC	??_C@_0P@MENFIFGE@glDrawElements@		; `string'
PUBLIC	??_C@_0BA@FFBJGNC@glPolygonOffset@		; `string'
PUBLIC	??_C@_0BB@MEEDBHPL@glCopyTexImage1D@		; `string'
PUBLIC	??_C@_0BB@MGAFKJKC@glCopyTexImage2D@		; `string'
PUBLIC	??_C@_0BE@PKNCAIGI@glCopyTexSubImage1D@		; `string'
PUBLIC	??_C@_0BE@PIJELGDB@glCopyTexSubImage2D@		; `string'
PUBLIC	??_C@_0BA@NFOOCKJD@glTexSubImage1D@		; `string'
PUBLIC	??_C@_0BA@NHKIJEMK@glTexSubImage2D@		; `string'
PUBLIC	??_C@_0O@JKKCIBGC@glBindTexture@		; `string'
PUBLIC	??_C@_0BB@KMPLFJIC@glDeleteTextures@		; `string'
PUBLIC	??_C@_0O@LLMANLNK@glGenTextures@		; `string'
PUBLIC	??_C@_0M@NJHAEPDN@glIsTexture@			; `string'
PUBLIC	??_C@_0BE@IHNAGJGJ@glDrawRangeElements@		; `string'
PUBLIC	??_C@_0N@JAEIBBBF@glTexImage3D@			; `string'
PUBLIC	??_C@_0BA@NGGKPOPN@glTexSubImage3D@		; `string'
PUBLIC	??_C@_0BE@PJFGNMAG@glCopyTexSubImage3D@		; `string'
PUBLIC	??_C@_0BA@KOBBIKOF@glActiveTexture@		; `string'
PUBLIC	??_C@_0BB@BJGIPMOA@glSampleCoverage@		; `string'
PUBLIC	??_C@_0BH@GGHNMAGP@glCompressedTexImage3D@	; `string'
PUBLIC	??_C@_0BH@GHLPKKFI@glCompressedTexImage2D@	; `string'
PUBLIC	??_C@_0BH@GFPJBEAB@glCompressedTexImage1D@	; `string'
PUBLIC	??_C@_0BK@EBJMCDPA@glCompressedTexSubImage3D@	; `string'
PUBLIC	??_C@_0BK@EAFOEJMH@glCompressedTexSubImage2D@	; `string'
PUBLIC	??_C@_0BK@ECBIPHJO@glCompressedTexSubImage1D@	; `string'
PUBLIC	??_C@_0BI@MPANLPPL@glGetCompressedTexImage@	; `string'
PUBLIC	??_C@_0BE@LLLCIIOO@glBlendFuncSeparate@		; `string'
PUBLIC	??_C@_0BC@IBABPJFA@glMultiDrawArrays@		; `string'
PUBLIC	??_C@_0BE@MPDFJJLL@glMultiDrawElements@		; `string'
PUBLIC	??_C@_0BC@FGOOEDO@glPointParameterf@		; `string'
PUBLIC	??_C@_0BD@LIABKNDP@glPointParameterfv@		; `string'
PUBLIC	??_C@_0BC@ICPGPIPB@glPointParameteri@		; `string'
PUBLIC	??_C@_0BD@LDFNOKAC@glPointParameteriv@		; `string'
PUBLIC	??_C@_0N@PKBMFJDK@glBlendColor@			; `string'
PUBLIC	??_C@_0BA@PFHILPAN@glBlendEquation@		; `string'
PUBLIC	??_C@_0N@CJIGHHJ@glGenQueries@			; `string'
PUBLIC	??_C@_0BA@IOKEHMOH@glDeleteQueries@		; `string'
PUBLIC	??_C@_09CNNLCEBN@glIsQuery@			; `string'
PUBLIC	??_C@_0N@GIAGIGPA@glBeginQuery@			; `string'
PUBLIC	??_C@_0L@FLEBHIDM@glEndQuery@			; `string'
PUBLIC	??_C@_0N@BPACPFCI@glGetQueryiv@			; `string'
PUBLIC	??_C@_0BD@KMBBCJID@glGetQueryObjectiv@		; `string'
PUBLIC	??_C@_0BE@MNBBKJ@glGetQueryObjectuiv@		; `string'
PUBLIC	??_C@_0N@BONEPPLO@glBindBuffer@			; `string'
PUBLIC	??_C@_0BA@DMNLADIO@glDeleteBuffers@		; `string'
PUBLIC	??_C@_0N@LAOHBIBA@glGenBuffers@			; `string'
PUBLIC	??_C@_0L@KFPDMKNG@glIsBuffer@			; `string'
PUBLIC	??_C@_0N@JHHJMABP@glBufferData@			; `string'
PUBLIC	??_C@_0BA@GAJMDBBN@glBufferSubData@		; `string'
PUBLIC	??_C@_0BD@PNDAHMBO@glGetBufferSubData@		; `string'
PUBLIC	??_C@_0M@NNHDPACA@glMapBuffer@			; `string'
PUBLIC	??_C@_0O@OFGHBLEO@glUnmapBuffer@		; `string'
PUBLIC	??_C@_0BH@BMIEIFJP@glGetBufferParameteriv@	; `string'
PUBLIC	??_C@_0BE@KNJEIFMC@glGetBufferPointerv@		; `string'
PUBLIC	??_C@_0BI@JNHDNJAG@glBlendEquationSeparate@	; `string'
PUBLIC	??_C@_0O@COHJKDBH@glDrawBuffers@		; `string'
PUBLIC	??_C@_0BE@GAPLDNGF@glStencilOpSeparate@		; `string'
PUBLIC	??_C@_0BG@FCMNCEIA@glStencilFuncSeparate@	; `string'
PUBLIC	??_C@_0BG@MMKPIEJI@glStencilMaskSeparate@	; `string'
PUBLIC	??_C@_0P@LDMLEABL@glAttachShader@		; `string'
PUBLIC	??_C@_0BF@MHKEFIHM@glBindAttribLocation@	; `string'
PUBLIC	??_C@_0BA@DGIEGONF@glCompileShader@		; `string'
PUBLIC	??_C@_0BA@FLKLHNKP@glCreateProgram@		; `string'
PUBLIC	??_C@_0P@HGHBNC@glCreateShader@			; `string'
PUBLIC	??_C@_0BA@NKGCDOPO@glDeleteProgram@		; `string'
PUBLIC	??_C@_0P@HHCDONAG@glDeleteShader@		; `string'
PUBLIC	??_C@_0P@DJFJFCJL@glDetachShader@		; `string'
PUBLIC	??_C@_0BL@NKHLOFFF@glDisableVertexAttribArray@	; `string'
PUBLIC	??_C@_0BK@EHBAHNHE@glEnableVertexAttribArray@	; `string'
PUBLIC	??_C@_0BC@MBALAOHF@glGetActiveAttrib@		; `string'
PUBLIC	??_C@_0BD@NIMHLLKN@glGetActiveUniform@		; `string'
PUBLIC	??_C@_0BF@GHMDGFEM@glGetAttachedShaders@	; `string'
PUBLIC	??_C@_0BE@BEPGJDMM@glGetAttribLocation@		; `string'
PUBLIC	??_C@_0P@FMMDFLCO@glGetProgramiv@		; `string'
PUBLIC	??_C@_0BE@DHGHAJFL@glGetProgramInfoLog@		; `string'
PUBLIC	??_C@_0O@JBDFPDMG@glGetShaderiv@		; `string'
PUBLIC	??_C@_0BD@GIABBCMO@glGetShaderInfoLog@		; `string'
PUBLIC	??_C@_0BC@ELEIFJEL@glGetShaderSource@		; `string'
PUBLIC	??_C@_0BF@KIOPGICP@glGetUniformLocation@	; `string'
PUBLIC	??_C@_0P@DFCJIBG@glGetUniformfv@		; `string'
PUBLIC	??_C@_0P@IAONPCL@glGetUniformiv@		; `string'
PUBLIC	??_C@_0BE@HDPMJMIN@glGetVertexAttribdv@		; `string'
PUBLIC	??_C@_0BE@HAHIEIOD@glGetVertexAttribfv@		; `string'
PUBLIC	??_C@_0BE@HLCEAPNO@glGetVertexAttribiv@		; `string'
PUBLIC	??_C@_0BK@DOJMENLD@glGetVertexAttribPointerv@	; `string'
PUBLIC	??_C@_0M@INLOJDGO@glIsProgram@			; `string'
PUBLIC	??_C@_0L@MDDLFIHC@glIsShader@			; `string'
PUBLIC	??_C@_0O@PIOEEBPO@glLinkProgram@		; `string'
PUBLIC	??_C@_0P@DFHCPFMO@glShaderSource@		; `string'
PUBLIC	??_C@_0N@ICBDHBI@glUseProgram@			; `string'
PUBLIC	??_C@_0M@MLICAPOF@glUniform1f@			; `string'
PUBLIC	??_C@_0M@MJMELBLM@glUniform2f@			; `string'
PUBLIC	??_C@_0M@MIAGNLIL@glUniform3f@			; `string'
PUBLIC	??_C@_0M@MNEJMNAO@glUniform4f@			; `string'
PUBLIC	??_C@_0M@EMBKBDCK@glUniform1i@			; `string'
PUBLIC	??_C@_0M@EOFMKNHD@glUniform2i@			; `string'
PUBLIC	??_C@_0M@EPJOMHEE@glUniform3i@			; `string'
PUBLIC	??_C@_0M@EKNBNBMB@glUniform4i@			; `string'
PUBLIC	??_C@_0N@KJMOEKII@glUniform1fv@			; `string'
PUBLIC	??_C@_0N@LLHLOFGG@glUniform2fv@			; `string'
PUBLIC	??_C@_0N@DMHICAD@glUniform3fv@			; `string'
PUBLIC	??_C@_0N@JOBALKLK@glUniform4fv@			; `string'
PUBLIC	??_C@_0N@KCJCANLF@glUniform1iv@			; `string'
PUBLIC	??_C@_0N@LACHKCFL@glUniform2iv@			; `string'
PUBLIC	??_C@_0N@IJLMFDO@glUniform3iv@			; `string'
PUBLIC	??_C@_0N@JFEMPNIH@glUniform4iv@			; `string'
PUBLIC	??_C@_0BD@JIBJELHD@glUniformMatrix2fv@		; `string'
PUBLIC	??_C@_0BD@CAKFCMBG@glUniformMatrix3fv@		; `string'
PUBLIC	??_C@_0BD@LNHCBEKP@glUniformMatrix4fv@		; `string'
PUBLIC	??_C@_0BC@MAPGDLJK@glValidateProgram@		; `string'
PUBLIC	??_C@_0BB@PIOLPNPC@glVertexAttrib1d@		; `string'
PUBLIC	??_C@_0BC@CKCOKGLN@glVertexAttrib1dv@		; `string'
PUBLIC	??_C@_0BB@MKNNJPHA@glVertexAttrib1f@		; `string'
PUBLIC	??_C@_0BC@CJKKHCND@glVertexAttrib1fv@		; `string'
PUBLIC	??_C@_0BB@PNGIHJGE@glVertexAttrib1s@		; `string'
PUBLIC	??_C@_0BC@DDEHBDEI@glVertexAttrib1sv@		; `string'
PUBLIC	??_C@_0BB@PKKNEDKL@glVertexAttrib2d@		; `string'
PUBLIC	??_C@_0BC@DIJLAJFD@glVertexAttrib2dv@		; `string'
PUBLIC	??_C@_0BB@MIJLCBCJ@glVertexAttrib2f@		; `string'
PUBLIC	??_C@_0BC@DLBPNNDN@glVertexAttrib2fv@		; `string'
PUBLIC	??_C@_0BB@PPCOMHDN@glVertexAttrib2s@		; `string'
PUBLIC	??_C@_0BC@CBPCLMKG@glVertexAttrib2sv@		; `string'
PUBLIC	??_C@_0BB@PLGPCJJM@glVertexAttrib3d@		; `string'
PUBLIC	??_C@_0BC@IACHGODG@glVertexAttrib3dv@		; `string'
PUBLIC	??_C@_0BB@MJFJELBO@glVertexAttrib3f@		; `string'
PUBLIC	??_C@_0BC@IDKDLKFI@glVertexAttrib3fv@		; `string'
PUBLIC	??_C@_0BB@POOMKNAK@glVertexAttrib3s@		; `string'
PUBLIC	??_C@_0BC@JJEONLMD@glVertexAttrib3sv@		; `string'
PUBLIC	??_C@_0BD@NANPPEGB@glVertexAttrib4Nbv@		; `string'
PUBLIC	??_C@_0BD@NMIKBLIA@glVertexAttrib4Niv@		; `string'
PUBLIC	??_C@_0BD@MNDLDNCG@glVertexAttrib4Nsv@		; `string'
PUBLIC	??_C@_0BD@OHBIJGMB@glVertexAttrib4Nub@		; `string'
PUBLIC	??_C@_0BE@JFOBDEMA@glVertexAttrib4Nubv@		; `string'
PUBLIC	??_C@_0BE@JJLENLCB@glVertexAttrib4Nuiv@		; `string'
PUBLIC	??_C@_0BE@IIAFPNIH@glVertexAttrib4Nusv@		; `string'
PUBLIC	??_C@_0BC@BJHNCKDN@glVertexAttrib4bv@		; `string'
PUBLIC	??_C@_0BB@POCADPBJ@glVertexAttrib4d@		; `string'
PUBLIC	??_C@_0BC@BNPAFGIP@glVertexAttrib4dv@		; `string'
PUBLIC	??_C@_0BB@MMBGFNJL@glVertexAttrib4f@		; `string'
PUBLIC	??_C@_0BC@BOHEICOB@glVertexAttrib4fv@		; `string'
PUBLIC	??_C@_0BC@BFCIMFNM@glVertexAttrib4iv@		; `string'
PUBLIC	??_C@_0BB@PLKDLLIP@glVertexAttrib4s@		; `string'
PUBLIC	??_C@_0BC@EJJODHK@glVertexAttrib4sv@		; `string'
PUBLIC	??_C@_0BD@PHPFILMB@glVertexAttrib4ubv@		; `string'
PUBLIC	??_C@_0BD@PLKAGECA@glVertexAttrib4uiv@		; `string'
PUBLIC	??_C@_0BD@OKBBECIG@glVertexAttrib4usv@		; `string'
PUBLIC	??_C@_0BG@JPNNNPKG@glVertexAttribPointer@	; `string'
PUBLIC	??_C@_0BF@KDDJMCDK@glUniformMatrix2x3fv@	; `string'
PUBLIC	??_C@_0BF@NANJHGPK@glUniformMatrix3x2fv@	; `string'
PUBLIC	??_C@_0BF@DOOOPKID@glUniformMatrix2x4fv@	; `string'
PUBLIC	??_C@_0BF@MNNMEGEC@glUniformMatrix4x2fv@	; `string'
PUBLIC	??_C@_0BF@PFLCCJCG@glUniformMatrix3x4fv@	; `string'
PUBLIC	??_C@_0BF@HFGACBCH@glUniformMatrix4x3fv@	; `string'
PUBLIC	??_C@_0N@JHNNNJFG@glColorMaski@			; `string'
PUBLIC	??_C@_0BA@OAKNOBP@glGetBooleani_v@		; `string'
PUBLIC	??_C@_0BA@FKCNNMFO@glGetIntegeri_v@		; `string'
PUBLIC	??_C@_09IEGEGIEN@glEnablei@			; `string'
PUBLIC	??_C@_0L@BMJPGDDH@glDisablei@			; `string'
PUBLIC	??_C@_0N@IMGKGOKN@glIsEnabledi@			; `string'
PUBLIC	??_C@_0BJ@FHJKOECC@glBeginTransformFeedback@	; `string'
PUBLIC	??_C@_0BH@LCFLNNBH@glEndTransformFeedback@	; `string'
PUBLIC	??_C@_0BC@EEMMCHMB@glBindBufferRange@		; `string'
PUBLIC	??_C@_0BB@LDPKOCJI@glBindBufferBase@		; `string'
PUBLIC	??_C@_0BM@IJFAKBEF@glTransformFeedbackVaryings@	; `string'
PUBLIC	??_C@_0BO@ODFLPNG@glGetTransformFeedbackVarying@ ; `string'
PUBLIC	??_C@_0N@HLGAGIMI@glClampColor@			; `string'
PUBLIC	??_C@_0BJ@EHEPIEPF@glBeginConditionalRender@	; `string'
PUBLIC	??_C@_0BH@KCIOLNMA@glEndConditionalRender@	; `string'
PUBLIC	??_C@_0BH@NLOEHKCD@glVertexAttribIPointer@	; `string'
PUBLIC	??_C@_0BF@KPDNEONP@glGetVertexAttribIiv@	; `string'
PUBLIC	??_C@_0BG@GCBDCABB@glGetVertexAttribIuiv@	; `string'
PUBLIC	??_C@_0BC@CDIIMMAL@glVertexAttribI1i@		; `string'
PUBLIC	??_C@_0BC@CBMOHCFC@glVertexAttribI2i@		; `string'
PUBLIC	??_C@_0BC@CAAMBIGF@glVertexAttribI3i@		; `string'
PUBLIC	??_C@_0BC@CFEDAOOA@glVertexAttribI4i@		; `string'
PUBLIC	??_C@_0BD@DGPCNLLO@glVertexAttribI1ui@		; `string'
PUBLIC	??_C@_0BD@CEEHHEFA@glVertexAttribI2ui@		; `string'
PUBLIC	??_C@_0BD@JMPLBDDF@glVertexAttribI3ui@		; `string'
PUBLIC	??_C@_0BD@BCMCLIM@glVertexAttribI4ui@		; `string'
PUBLIC	??_C@_0BD@OOJEIPDE@glVertexAttribI1iv@		; `string'
PUBLIC	??_C@_0BD@PMCBCANK@glVertexAttribI2iv@		; `string'
PUBLIC	??_C@_0BD@EEJNEHLP@glVertexAttribI3iv@		; `string'
PUBLIC	??_C@_0BD@NJEKHPAG@glVertexAttribI4iv@		; `string'
PUBLIC	??_C@_0BE@FFIKLCCA@glVertexAttribI1uiv@		; `string'
PUBLIC	??_C@_0BE@BCCKMIPA@glVertexAttribI2uiv@		; `string'
PUBLIC	??_C@_0BE@CPEKOBEA@glVertexAttribI3uiv@		; `string'
PUBLIC	??_C@_0BE@JNGKDNFA@glVertexAttribI4uiv@		; `string'
PUBLIC	??_C@_0BD@NFBPJAOH@glVertexAttribI4bv@		; `string'
PUBLIC	??_C@_0BD@MIPLFJKA@glVertexAttribI4sv@		; `string'
PUBLIC	??_C@_0BE@JBDPNCLB@glVertexAttribI4ubv@		; `string'
PUBLIC	??_C@_0BE@IMNLBLPG@glVertexAttribI4usv@		; `string'
PUBLIC	??_C@_0BA@NIGECFIF@glGetUniformuiv@		; `string'
PUBLIC	??_C@_0BH@DLJLAGBA@glBindFragDataLocation@	; `string'
PUBLIC	??_C@_0BG@NDOIGAMC@glGetFragDataLocation@	; `string'
PUBLIC	??_C@_0N@HKPEFJDP@glUniform1ui@			; `string'
PUBLIC	??_C@_0N@GIEBPGNB@glUniform2ui@			; `string'
PUBLIC	??_C@_0N@NAPNJBLE@glUniform3ui@			; `string'
PUBLIC	??_C@_0N@ENCKKJAN@glUniform4ui@			; `string'
PUBLIC	??_C@_0O@MPHJAHBE@glUniform1uiv@		; `string'
PUBLIC	??_C@_0O@IINJHNME@glUniform2uiv@		; `string'
PUBLIC	??_C@_0O@LFLJFEHE@glUniform3uiv@		; `string'
PUBLIC	??_C@_0O@HJJIIGE@glUniform4uiv@			; `string'
PUBLIC	??_C@_0BC@MAFJKEHB@glTexParameterIiv@		; `string'
PUBLIC	??_C@_0BD@FDBCMKBE@glTexParameterIuiv@		; `string'
PUBLIC	??_C@_0BF@ODBJFHDD@glGetTexParameterIiv@	; `string'
PUBLIC	??_C@_0BG@MLODKKFL@glGetTexParameterIuiv@	; `string'
PUBLIC	??_C@_0BA@CGCJAEIN@glClearBufferiv@		; `string'
PUBLIC	??_C@_0BB@OHPPAEID@glClearBufferuiv@		; `string'
PUBLIC	??_C@_0BA@CNHFEDLA@glClearBufferfv@		; `string'
PUBLIC	??_C@_0BA@OACPENCO@glClearBufferfi@		; `string'
PUBLIC	??_C@_0N@PILJCBOD@glGetStringi@			; `string'
PUBLIC	??_C@_0BB@DGGHKKOH@glIsRenderbuffer@		; `string'
PUBLIC	??_C@_0BD@EPOPJGFA@glBindRenderbuffer@		; `string'
PUBLIC	??_C@_0BG@KKOKEJDE@glDeleteRenderbuffers@	; `string'
PUBLIC	??_C@_0BD@MIGEDNGJ@glGenRenderbuffers@		; `string'
PUBLIC	??_C@_0BG@EOIILGMJ@glRenderbufferStorage@	; `string'
PUBLIC	??_C@_0BN@FGKAECKO@glGetRenderbufferParameteriv@ ; `string'
PUBLIC	??_C@_0BA@FGBIJCNH@glIsFramebuffer@		; `string'
PUBLIC	??_C@_0BC@CJMIBNO@glBindFramebuffer@		; `string'
PUBLIC	??_C@_0BF@DJNJENP@glDeleteFramebuffers@		; `string'
PUBLIC	??_C@_0BC@FAPEBGID@glGenFramebuffers@		; `string'
PUBLIC	??_C@_0BJ@GIOLHEAD@glCheckFramebufferStatus@	; `string'
PUBLIC	??_C@_0BH@JAMDNNBM@glFramebufferTexture1D@	; `string'
PUBLIC	??_C@_0BH@JCIFGDEF@glFramebufferTexture2D@	; `string'
PUBLIC	??_C@_0BH@JDEHAJHC@glFramebufferTexture3D@	; `string'
PUBLIC	??_C@_0BK@OJDINAOA@glFramebufferRenderbuffer@	; `string'
PUBLIC	??_C@_0CG@KLDGJEON@glGetFramebufferAttachmentParam@ ; `string'
PUBLIC	??_C@_0BB@BHNIMGDM@glGenerateMipmap@		; `string'
PUBLIC	??_C@_0BC@OANBDDEP@glBlitFramebuffer@		; `string'
PUBLIC	??_C@_0CB@HNONLGJE@glRenderbufferStorageMultisampl@ ; `string'
PUBLIC	??_C@_0BK@NIHIDBBO@glFramebufferTextureLayer@	; `string'
PUBLIC	??_C@_0BB@EOHJGBIO@glMapBufferRange@		; `string'
PUBLIC	??_C@_0BJ@NCDMGHKF@glFlushMappedBufferRange@	; `string'
PUBLIC	??_C@_0BC@LHBAHFAN@glBindVertexArray@		; `string'
PUBLIC	??_C@_0BF@BMPCJLEF@glDeleteVertexArrays@	; `string'
PUBLIC	??_C@_0BC@EPJLBJBJ@glGenVertexArrays@		; `string'
PUBLIC	??_C@_0BA@ODJEGGAE@glIsVertexArray@		; `string'
PUBLIC	??_C@_0BG@HIOFINAN@glDrawArraysInstanced@	; `string'
PUBLIC	??_C@_0BI@CGJENFBH@glDrawElementsInstanced@	; `string'
PUBLIC	??_C@_0M@IIMBBALL@glTexBuffer@			; `string'
PUBLIC	??_C@_0BI@LJDLNGAF@glPrimitiveRestartIndex@	; `string'
PUBLIC	??_C@_0BE@EPKABDOG@glCopyBufferSubData@		; `string'
PUBLIC	??_C@_0BE@MDPMIDEE@glGetUniformIndices@		; `string'
PUBLIC	??_C@_0BG@JEHIMPCG@glGetActiveUniformsiv@	; `string'
PUBLIC	??_C@_0BH@EGGFHKJJ@glGetActiveUniformName@	; `string'
PUBLIC	??_C@_0BH@CBDIMHHE@glGetUniformBlockIndex@	; `string'
PUBLIC	??_C@_0BK@DMHOPJGL@glGetActiveUniformBlockiv@	; `string'
PUBLIC	??_C@_0BM@KEMCJPAJ@glGetActiveUniformBlockName@	; `string'
PUBLIC	??_C@_0BG@BOLEKKCP@glUniformBlockBinding@	; `string'
PUBLIC	??_C@_0BJ@LFMMIAHA@glDrawElementsBaseVertex@	; `string'
PUBLIC	??_C@_0BO@KBDDBILP@glDrawRangeElementsBaseVertex@ ; `string'
PUBLIC	??_C@_0CC@KLOIIKNA@glDrawElementsInstancedBaseVert@ ; `string'
PUBLIC	??_C@_0BO@NAPFJEEK@glMultiDrawElementsBaseVertex@ ; `string'
PUBLIC	??_C@_0BC@ECOAPEBI@glProvokingVertex@		; `string'
PUBLIC	??_C@_0M@EFGFPFLP@glFenceSync@			; `string'
PUBLIC	??_C@_08JPIIHJEO@glIsSync@			; `string'
PUBLIC	??_C@_0N@PIFDNDFG@glDeleteSync@			; `string'
PUBLIC	??_C@_0BB@KDMPGJAC@glClientWaitSync@		; `string'
PUBLIC	??_C@_0L@MHLOGHGO@glWaitSync@			; `string'
PUBLIC	??_C@_0BA@INMBOHGL@glGetInteger64v@		; `string'
PUBLIC	??_C@_0M@MPEEOPIN@glGetSynciv@			; `string'
PUBLIC	??_C@_0BC@KOJILIEC@glGetInteger64i_v@		; `string'
PUBLIC	??_C@_0BJ@KKBIDGPP@glGetBufferParameteri64v@	; `string'
PUBLIC	??_C@_0BF@ENLMLILA@glFramebufferTexture@	; `string'
PUBLIC	??_C@_0BI@FHDFLFA@glTexImage2DMultisample@	; `string'
PUBLIC	??_C@_0BI@JIHMLKCG@glTexImage3DMultisample@	; `string'
PUBLIC	??_C@_0BD@DHLIMGN@glGetMultisamplefv@		; `string'
PUBLIC	??_C@_0O@JNHBCHMB@glSampleMaski@		; `string'
PUBLIC	??_C@_0BO@POJBGCGG@glBindFragDataLocationIndexed@ ; `string'
PUBLIC	??_C@_0BD@COCJFEOH@glGetFragDataIndex@		; `string'
PUBLIC	??_C@_0O@EMMLGGLG@glGenSamplers@		; `string'
PUBLIC	??_C@_0BB@FLPAOEOO@glDeleteSamplers@		; `string'
PUBLIC	??_C@_0M@LAJKHOKJ@glIsSampler@			; `string'
PUBLIC	??_C@_0O@PDEILAPG@glBindSampler@		; `string'
PUBLIC	??_C@_0BE@KBCBMPJO@glSamplerParameteri@		; `string'
PUBLIC	??_C@_0BF@GOHDEBPM@glSamplerParameteriv@	; `string'
PUBLIC	??_C@_0BE@CGLJNDFB@glSamplerParameterf@		; `string'
PUBLIC	??_C@_0BF@GFCPAGMB@glSamplerParameterfv@	; `string'
PUBLIC	??_C@_0BG@HKEIFIHF@glSamplerParameterIiv@	; `string'
PUBLIC	??_C@_0BH@FEMFBPPB@glSamplerParameterIuiv@	; `string'
PUBLIC	??_C@_0BI@FECAOLJP@glGetSamplerParameteriv@	; `string'
PUBLIC	??_C@_0BJ@KOMJDLDN@glGetSamplerParameterIiv@	; `string'
PUBLIC	??_C@_0BI@FPHMKMKC@glGetSamplerParameterfv@	; `string'
PUBLIC	??_C@_0BK@CMBGFHDA@glGetSamplerParameterIuiv@	; `string'
PUBLIC	??_C@_0P@KALICDIM@glQueryCounter@		; `string'
PUBLIC	??_C@_0BF@JDAPDEPE@glGetQueryObjecti64v@	; `string'
PUBLIC	??_C@_0BG@NEGGOMJO@glGetQueryObjectui64v@	; `string'
PUBLIC	??_C@_0BG@NEBMAEHM@glVertexAttribDivisor@	; `string'
PUBLIC	??_C@_0BD@FLACCOEN@glVertexAttribP1ui@		; `string'
PUBLIC	??_C@_0BE@HBFDOBHD@glVertexAttribP1uiv@		; `string'
PUBLIC	??_C@_0BD@EJLHIBKD@glVertexAttribP2ui@		; `string'
PUBLIC	??_C@_0BE@DGPDJLKD@glVertexAttribP2uiv@		; `string'
PUBLIC	??_C@_0BD@PBALOGMG@glVertexAttribP3ui@		; `string'
PUBLIC	??_C@_0BE@LJDLCBD@glVertexAttribP3uiv@		; `string'
PUBLIC	??_C@_0BD@GMNMNOHP@glVertexAttribP4ui@		; `string'
PUBLIC	??_C@_0BE@LJLDGOAD@glVertexAttribP4uiv@		; `string'
PUBLIC	??_C@_0N@EFBCIBMC@glVertexP2ui@			; `string'
PUBLIC	??_C@_0O@MEKGPGN@glVertexP2uiv@			; `string'
PUBLIC	??_C@_0N@PNKOOGKH@glVertexP3ui@			; `string'
PUBLIC	??_C@_0O@DBCKEGNN@glVertexP3uiv@		; `string'
PUBLIC	??_C@_0N@GAHJNOBO@glVertexP4ui@			; `string'
PUBLIC	??_C@_0O@IDAKJKMN@glVertexP4uiv@		; `string'
PUBLIC	??_C@_0P@OLJHLLHJ@glTexCoordP1ui@		; `string'
PUBLIC	??_C@_0BA@FAFHIAFD@glTexCoordP1uiv@		; `string'
PUBLIC	??_C@_0P@PJCCBEJH@glTexCoordP2ui@		; `string'
PUBLIC	??_C@_0BA@BHPHPKID@glTexCoordP2uiv@		; `string'
PUBLIC	??_C@_0P@EBJOHDPC@glTexCoordP3ui@		; `string'
PUBLIC	??_C@_0BA@CKJHNDDD@glTexCoordP3uiv@		; `string'
PUBLIC	??_C@_0P@NMEJELEL@glTexCoordP4ui@		; `string'
PUBLIC	??_C@_0BA@JILHAPCD@glTexCoordP4uiv@		; `string'
PUBLIC	??_C@_0BE@OAHHKHKG@glMultiTexCoordP1ui@		; `string'
PUBLIC	??_C@_0BF@EGDAKPAK@glMultiTexCoordP1uiv@	; `string'
PUBLIC	??_C@_0BE@PCMCAIEI@glMultiTexCoordP2ui@		; `string'
PUBLIC	??_C@_0BF@BJANFNK@glMultiTexCoordP2uiv@		; `string'
PUBLIC	??_C@_0BE@EKHOGPCN@glMultiTexCoordP3ui@		; `string'
PUBLIC	??_C@_0BF@DMPAPMGK@glMultiTexCoordP3uiv@	; `string'
PUBLIC	??_C@_0BE@NHKJFHJE@glMultiTexCoordP4ui@		; `string'
PUBLIC	??_C@_0BF@IONACAHK@glMultiTexCoordP4uiv@	; `string'
PUBLIC	??_C@_0N@PBEFBNHO@glNormalP3ui@			; `string'
PUBLIC	??_C@_0O@MOCJMHFG@glNormalP3uiv@		; `string'
PUBLIC	??_C@_0M@PEKBINNN@glColorP3ui@			; `string'
PUBLIC	??_C@_0N@IBPDNBJE@glColorP3uiv@			; `string'
PUBLIC	??_C@_0M@GJHGLFGE@glColorP4ui@			; `string'
PUBLIC	??_C@_0N@DDNDANIE@glColorP4uiv@			; `string'
PUBLIC	??_C@_0BF@PDDGBPKP@glSecondaryColorP3ui@	; `string'
PUBLIC	??_C@_0BG@DPPPFGBG@glSecondaryColorP3uiv@	; `string'
PUBLIC	??_C@_0BD@EDGCEBP@glMinSampleShading@		; `string'
PUBLIC	??_C@_0BB@MKHLNEOM@glBlendEquationi@		; `string'
PUBLIC	??_C@_0BJ@FNMBAGAC@glBlendEquationSeparatei@	; `string'
PUBLIC	??_C@_0N@IKKELNNP@glBlendFunci@			; `string'
PUBLIC	??_C@_0BF@PDDGKNBJ@glBlendFuncSeparatei@	; `string'
PUBLIC	??_C@_0BF@BGDCPAEP@glDrawArraysIndirect@	; `string'
PUBLIC	??_C@_0BH@LJJDOEDH@glDrawElementsIndirect@	; `string'
PUBLIC	??_C@_0M@PJLEGNGH@glUniform1d@			; `string'
PUBLIC	??_C@_0M@PLPCNDDO@glUniform2d@			; `string'
PUBLIC	??_C@_0M@PKDALJAJ@glUniform3d@			; `string'
PUBLIC	??_C@_0M@PPHPKPIM@glUniform4d@			; `string'
PUBLIC	??_C@_0N@KKEKJOOG@glUniform1dv@			; `string'
PUBLIC	??_C@_0N@LIPPDBAI@glUniform2dv@			; `string'
PUBLIC	??_C@_0N@EDFGGN@glUniform3dv@			; `string'
PUBLIC	??_C@_0N@JNJEGONE@glUniform4dv@			; `string'
PUBLIC	??_C@_0BD@JLJNJPBN@glUniformMatrix2dv@		; `string'
PUBLIC	??_C@_0BD@CDCBPIHI@glUniformMatrix3dv@		; `string'
PUBLIC	??_C@_0BD@LOPGMAMB@glUniformMatrix4dv@		; `string'
PUBLIC	??_C@_0BF@KALNBGFE@glUniformMatrix2x3dv@	; `string'
PUBLIC	??_C@_0BF@DNGKCOON@glUniformMatrix2x4dv@	; `string'
PUBLIC	??_C@_0BF@NDFNKCJE@glUniformMatrix3x2dv@	; `string'
PUBLIC	??_C@_0BF@PGDGPNEI@glUniformMatrix3x4dv@	; `string'
PUBLIC	??_C@_0BF@MOFIJCCM@glUniformMatrix4x2dv@	; `string'
PUBLIC	??_C@_0BF@HGOEPFEJ@glUniformMatrix4x3dv@	; `string'
PUBLIC	??_C@_0P@NGEMHI@glGetUniformdv@			; `string'
PUBLIC	??_C@_0BP@IBIPLDOA@glGetSubroutineUniformLocation@ ; `string'
PUBLIC	??_C@_0BF@ONDIGCJG@glGetSubroutineIndex@	; `string'
PUBLIC	??_C@_0BP@FAPFAJFP@glGetActiveSubroutineUniformiv@ ; `string'
PUBLIC	??_C@_0CB@KCFFPCGJ@glGetActiveSubroutineUniformNam@ ; `string'
PUBLIC	??_C@_0BK@JPHEACLL@glGetActiveSubroutineName@	; `string'
PUBLIC	??_C@_0BI@CDPOBBHI@glUniformSubroutinesuiv@	; `string'
PUBLIC	??_C@_0BK@BLMOFAGJ@glGetUniformSubroutineuiv@	; `string'
PUBLIC	??_C@_0BE@LOKJCDFH@glGetProgramStageiv@		; `string'
PUBLIC	??_C@_0BC@PAPDGMLA@glPatchParameteri@		; `string'
PUBLIC	??_C@_0BD@LJKINJKN@glPatchParameterfv@		; `string'
PUBLIC	??_C@_0BI@BPJKLMIG@glBindTransformFeedback@	; `string'
PUBLIC	??_C@_0BL@DIGEBFBK@glDeleteTransformFeedbacks@	; `string'
PUBLIC	??_C@_0BI@KANKBGAE@glGenTransformFeedbacks@	; `string'
PUBLIC	??_C@_0BG@BGFLKHBM@glIsTransformFeedback@	; `string'
PUBLIC	??_C@_0BJ@FFNLKBCB@glPauseTransformFeedback@	; `string'
PUBLIC	??_C@_0BK@JMHONFHF@glResumeTransformFeedback@	; `string'
PUBLIC	??_C@_0BI@LEOILCPN@glDrawTransformFeedback@	; `string'
PUBLIC	??_C@_0BO@IGLFNCDG@glDrawTransformFeedbackStream@ ; `string'
PUBLIC	??_C@_0BE@BDKPJDEE@glBeginQueryIndexed@		; `string'
PUBLIC	??_C@_0BC@DPMHMNME@glEndQueryIndexed@		; `string'
PUBLIC	??_C@_0BE@CCFJPMFI@glGetQueryIndexediv@		; `string'
PUBLIC	??_C@_0BI@HGKABJPJ@glReleaseShaderCompiler@	; `string'
PUBLIC	??_C@_0P@IMINELFB@glShaderBinary@		; `string'
PUBLIC	??_C@_0BL@MLAOOHPD@glGetShaderPrecisionFormat@	; `string'
PUBLIC	??_C@_0O@JDFJDNND@glDepthRangef@		; `string'
PUBLIC	??_C@_0O@FMBMCDIL@glClearDepthf@		; `string'
PUBLIC	??_C@_0BD@JBCEHKON@glGetProgramBinary@		; `string'
PUBLIC	??_C@_0BA@MIIDHOO@glProgramBinary@		; `string'
PUBLIC	??_C@_0BE@EELDBEME@glProgramParameteri@		; `string'
PUBLIC	??_C@_0BD@CADKHDMH@glUseProgramStages@		; `string'
PUBLIC	??_C@_0BG@IAIOGMEB@glActiveShaderProgram@	; `string'
PUBLIC	??_C@_0BH@BOJGDFJN@glCreateShaderProgramv@	; `string'
PUBLIC	??_C@_0BG@GLPOKNCG@glBindProgramPipeline@	; `string'
PUBLIC	??_C@_0BJ@CHBGABHE@glDeleteProgramPipelines@	; `string'
PUBLIC	??_C@_0BG@CCBKOCA@glGenProgramPipelines@	; `string'
PUBLIC	??_C@_0BE@DLHPDHCH@glIsProgramPipeline@		; `string'
PUBLIC	??_C@_0BH@DNOPNJMO@glGetProgramPipelineiv@	; `string'
PUBLIC	??_C@_0BD@COCLMGIM@glProgramUniform1i@		; `string'
PUBLIC	??_C@_0BE@JNEFDKLN@glProgramUniform1iv@		; `string'
PUBLIC	??_C@_0BD@KJLDNKED@glProgramUniform1f@		; `string'
PUBLIC	??_C@_0BE@JGBJHNIA@glProgramUniform1fv@		; `string'
PUBLIC	??_C@_0BD@JLIFLIMB@glProgramUniform1d@		; `string'
PUBLIC	??_C@_0BE@JFJNKJOO@glProgramUniform1dv@		; `string'
PUBLIC	??_C@_0BE@EFCDGODH@glProgramUniform1ui@		; `string'
PUBLIC	??_C@_0BF@MBJNFIBB@glProgramUniform1uiv@	; `string'
PUBLIC	??_C@_0BD@CMGNHINF@glProgramUniform2i@		; `string'
PUBLIC	??_C@_0BE@IPPAJFFD@glProgramUniform2iv@		; `string'
PUBLIC	??_C@_0BD@KLPFGEBK@glProgramUniform2f@		; `string'
PUBLIC	??_C@_0BE@IEKMNCGO@glProgramUniform2fv@		; `string'
PUBLIC	??_C@_0BD@JJMDAGJI@glProgramUniform2d@		; `string'
PUBLIC	??_C@_0BE@IHCIAGAA@glProgramUniform2dv@		; `string'
PUBLIC	??_C@_0BE@FHJGMBNJ@glProgramUniform2ui@		; `string'
PUBLIC	??_C@_0BF@IGDNCCMB@glProgramUniform2uiv@	; `string'
PUBLIC	??_C@_0BD@CNKPBCOC@glProgramUniform3i@		; `string'
PUBLIC	??_C@_0BE@DHEMPCDG@glProgramUniform3iv@		; `string'
PUBLIC	??_C@_0BD@KKDHAOCN@glProgramUniform3f@		; `string'
PUBLIC	??_C@_0BE@DMBALFAL@glProgramUniform3fv@		; `string'
PUBLIC	??_C@_0BD@JIABGMKP@glProgramUniform3d@		; `string'
PUBLIC	??_C@_0BE@DPJEGBGF@glProgramUniform3dv@		; `string'
PUBLIC	??_C@_0BE@OPCKKGLM@glProgramUniform3ui@		; `string'
PUBLIC	??_C@_0BF@LLFNALHB@glProgramUniform3uiv@	; `string'
PUBLIC	??_C@_0BD@CIOAAEGH@glProgramUniform4i@		; `string'
PUBLIC	??_C@_0BE@KKJLMKIP@glProgramUniform4iv@		; `string'
PUBLIC	??_C@_0BD@KPHIBIKI@glProgramUniform4f@		; `string'
PUBLIC	??_C@_0BE@KBMHINLC@glProgramUniform4fv@		; `string'
PUBLIC	??_C@_0BD@JNEOHKCK@glProgramUniform4d@		; `string'
PUBLIC	??_C@_0BE@KCEDFJNM@glProgramUniform4dv@		; `string'
PUBLIC	??_C@_0BE@HCPNJOAF@glProgramUniform4ui@		; `string'
PUBLIC	??_C@_0BF@JHNNHGB@glProgramUniform4uiv@		; `string'
PUBLIC	??_C@_0BK@PDPPIOAF@glProgramUniformMatrix2fv@	; `string'
PUBLIC	??_C@_0BK@ELEDOJGA@glProgramUniformMatrix3fv@	; `string'
PUBLIC	??_C@_0BK@NGJENBNJ@glProgramUniformMatrix4fv@	; `string'
PUBLIC	??_C@_0BK@PAHLFKGL@glProgramUniformMatrix2dv@	; `string'
PUBLIC	??_C@_0BK@EIMHDNAO@glProgramUniformMatrix3dv@	; `string'
PUBLIC	??_C@_0BK@NFBAAFLH@glProgramUniformMatrix4dv@	; `string'
PUBLIC	??_C@_0BM@DBFCEBJD@glProgramUniformMatrix2x3fv@	; `string'
PUBLIC	??_C@_0BM@ECLCPFFD@glProgramUniformMatrix3x2fv@	; `string'
PUBLIC	??_C@_0BM@KMIFHJCK@glProgramUniformMatrix2x4fv@	; `string'
PUBLIC	??_C@_0BM@FPLHMFOL@glProgramUniformMatrix4x2fv@	; `string'
PUBLIC	??_C@_0BM@GHNJKKIP@glProgramUniformMatrix3x4fv@	; `string'
PUBLIC	??_C@_0BM@OHALKCIO@glProgramUniformMatrix4x3fv@	; `string'
PUBLIC	??_C@_0BM@DCNGJFPN@glProgramUniformMatrix2x3dv@	; `string'
PUBLIC	??_C@_0BM@EBDGCBDN@glProgramUniformMatrix3x2dv@	; `string'
PUBLIC	??_C@_0BM@KPABKNEE@glProgramUniformMatrix2x4dv@	; `string'
PUBLIC	??_C@_0BM@FMDDBBIF@glProgramUniformMatrix4x2dv@	; `string'
PUBLIC	??_C@_0BM@GEFNHOOB@glProgramUniformMatrix3x4dv@	; `string'
PUBLIC	??_C@_0BM@OEIPHGOA@glProgramUniformMatrix4x3dv@	; `string'
PUBLIC	??_C@_0BK@HHHCKEGH@glValidateProgramPipeline@	; `string'
PUBLIC	??_C@_0BM@BFFCFFFG@glGetProgramPipelineInfoLog@	; `string'
PUBLIC	??_C@_0BC@KBPIECHE@glVertexAttribL1d@		; `string'
PUBLIC	??_C@_0BC@KDLOPMCN@glVertexAttribL2d@		; `string'
PUBLIC	??_C@_0BC@KCHMJGBK@glVertexAttribL3d@		; `string'
PUBLIC	??_C@_0BC@KHDDIAJP@glVertexAttribL4d@		; `string'
PUBLIC	??_C@_0BD@COKMJDBH@glVertexAttribL1dv@		; `string'
PUBLIC	??_C@_0BD@DMBJDMPJ@glVertexAttribL2dv@		; `string'
PUBLIC	??_C@_0BD@IEKFFLJM@glVertexAttribL3dv@		; `string'
PUBLIC	??_C@_0BD@BJHCGDCF@glVertexAttribL4dv@		; `string'
PUBLIC	??_C@_0BH@JBHDDPGM@glVertexAttribLPointer@	; `string'
PUBLIC	??_C@_0BF@JADLCNLO@glGetVertexAttribLdv@	; `string'
PUBLIC	??_C@_0BB@JIDIDPIB@glViewportArrayv@		; `string'
PUBLIC	??_C@_0BD@JIBIAPIN@glViewportIndexedf@		; `string'
PUBLIC	??_C@_0BE@OKPEDJOC@glViewportIndexedfv@		; `string'
PUBLIC	??_C@_0BA@BMNFINIA@glScissorArrayv@		; `string'
PUBLIC	??_C@_0BB@BJHNCIAL@glScissorIndexed@		; `string'
PUBLIC	??_C@_0BC@OOKOHKNA@glScissorIndexedv@		; `string'
PUBLIC	??_C@_0BD@JLCIOMKN@glDepthRangeArrayv@		; `string'
PUBLIC	??_C@_0BE@FMCFIJBP@glDepthRangeIndexed@		; `string'
PUBLIC	??_C@_0O@JKEOHGC@glGetFloati_v@			; `string'
PUBLIC	??_C@_0P@PDJCBGIA@glGetDoublei_v@		; `string'
PUBLIC	??_C@_0CC@FBJBJHCN@glDrawArraysInstancedBaseInstan@ ; `string'
PUBLIC	??_C@_0CE@NGNINKJD@glDrawElementsInstancedBaseInst@ ; `string'
PUBLIC	??_C@_0CO@GCMNEAOA@glDrawElementsInstancedBaseVert@ ; `string'
PUBLIC	??_C@_0BG@BAOCDJPF@glGetInternalformativ@	; `string'
PUBLIC	??_C@_0CB@CEHFMJFN@glGetActiveAtomicCounterBufferi@ ; `string'
PUBLIC	??_C@_0BD@GAKEPNGD@glBindImageTexture@		; `string'
PUBLIC	??_C@_0BA@HIHPNLBJ@glMemoryBarrier@		; `string'
PUBLIC	??_C@_0P@LCLGPEBO@glTexStorage1D@		; `string'
PUBLIC	??_C@_0P@LAPAEKEH@glTexStorage2D@		; `string'
PUBLIC	??_C@_0P@LBDCCAHA@glTexStorage3D@		; `string'
PUBLIC	??_C@_0CB@NDMLCEF@glDrawTransformFeedbackInstance@ ; `string'
PUBLIC	??_C@_0CH@OMPFKBLK@glDrawTransformFeedbackStreamIn@ ; `string'
PUBLIC	??_C@_0BC@FCMBBKMP@glClearBufferData@		; `string'
PUBLIC	??_C@_0BF@FDHIBCMD@glClearBufferSubData@	; `string'
PUBLIC	??_C@_0BC@DKKFFIGC@glDispatchCompute@		; `string'
PUBLIC	??_C@_0BK@EJMOGMMI@glDispatchComputeIndirect@	; `string'
PUBLIC	??_C@_0BD@BNCHOBBL@glCopyImageSubData@		; `string'
PUBLIC	??_C@_0BI@MLACHGDK@glFramebufferParameteri@	; `string'
PUBLIC	??_C@_0BM@BFEEFCMK@glGetFramebufferParameteriv@	; `string'
PUBLIC	??_C@_0BI@PHNNEGBD@glGetInternalformati64v@	; `string'
PUBLIC	??_C@_0BI@FJDKFLGL@glInvalidateTexSubImage@	; `string'
PUBLIC	??_C@_0BF@KHIECPKG@glInvalidateTexImage@	; `string'
PUBLIC	??_C@_0BK@HOHOHNAC@glInvalidateBufferSubData@	; `string'
PUBLIC	??_C@_0BH@OGIFIBHA@glInvalidateBufferData@	; `string'
PUBLIC	??_C@_0BI@OAJPOHIP@glInvalidateFramebuffer@	; `string'
PUBLIC	??_C@_0BL@IHGLAPPE@glInvalidateSubFramebuffer@	; `string'
PUBLIC	??_C@_0BK@IKGAIKOP@glMultiDrawArraysIndirect@	; `string'
PUBLIC	??_C@_0BM@KHEEFMKO@glMultiDrawElementsIndirect@	; `string'
PUBLIC	??_C@_0BI@ICGPDPK@glGetProgramInterfaceiv@	; `string'
PUBLIC	??_C@_0BK@DBDCONKB@glGetProgramResourceIndex@	; `string'
PUBLIC	??_C@_0BJ@OHCPEAGJ@glGetProgramResourceName@	; `string'
PUBLIC	??_C@_0BH@LEDFEPHI@glGetProgramResourceiv@	; `string'
PUBLIC	??_C@_0BN@BIJNENLC@glGetProgramResourceLocation@ ; `string'
PUBLIC	??_C@_0CC@GHECGAIH@glGetProgramResourceLocationInd@ ; `string'
PUBLIC	??_C@_0BM@GDDCNIBO@glShaderStorageBlockBinding@	; `string'
PUBLIC	??_C@_0BB@DPMGLFNI@glTexBufferRange@		; `string'
PUBLIC	??_C@_0BK@PDJAKDKP@glTexStorage2DMultisample@	; `string'
PUBLIC	??_C@_0BK@GOJPECNJ@glTexStorage3DMultisample@	; `string'
PUBLIC	??_C@_0O@BNFDGIMP@glTextureView@		; `string'
PUBLIC	??_C@_0BD@FCGJAOHG@glBindVertexBuffer@		; `string'
PUBLIC	??_C@_0BF@JEIPPBFE@glVertexAttribFormat@	; `string'
PUBLIC	??_C@_0BG@KJAHAHDI@glVertexAttribIFormat@	; `string'
PUBLIC	??_C@_0BG@OBOHAJFM@glVertexAttribLFormat@	; `string'
PUBLIC	??_C@_0BG@MLFHCGE@glVertexAttribBinding@	; `string'
PUBLIC	??_C@_0BH@GNGCLGOI@glVertexBindingDivisor@	; `string'
PUBLIC	??_C@_0BG@MNBDCEEP@glDebugMessageControl@	; `string'
PUBLIC	??_C@_0BF@DGOJNFDO@glDebugMessageInsert@	; `string'
PUBLIC	??_C@_0BH@IGFENJCI@glDebugMessageCallback@	; `string'
PUBLIC	??_C@_0BF@FGBMJKND@glGetDebugMessageLog@	; `string'
PUBLIC	??_C@_0BB@DEFFBEGJ@glPushDebugGroup@		; `string'
PUBLIC	??_C@_0BA@PMJBDENK@glPopDebugGroup@		; `string'
PUBLIC	??_C@_0O@EFJDECDM@glObjectLabel@		; `string'
PUBLIC	??_C@_0BB@MOEDHKDB@glGetObjectLabel@		; `string'
PUBLIC	??_C@_0BB@FBABGDIL@glObjectPtrLabel@		; `string'
PUBLIC	??_C@_0BE@MIJFJOHM@glGetObjectPtrLabel@		; `string'
PUBLIC	??_C@_0O@LADEDGJO@glGetPointerv@		; `string'
PUBLIC	??_C@_0BA@COBILMHM@glBufferStorage@		; `string'
PUBLIC	??_C@_0BA@FNPOIBAF@glClearTexImage@		; `string'
PUBLIC	??_C@_0BD@CFALBON@glClearTexSubImage@		; `string'
PUBLIC	??_C@_0BC@ENBBLPHM@glBindBuffersBase@		; `string'
PUBLIC	??_C@_0BD@ODFFOKPN@glBindBuffersRange@		; `string'
PUBLIC	??_C@_0P@KHDEIIMA@glBindTextures@		; `string'
PUBLIC	??_C@_0P@FADPDFKM@glBindSamplers@		; `string'
PUBLIC	??_C@_0BE@NAMJLOCK@glBindImageTextures@		; `string'
PUBLIC	??_C@_0BE@LNCGJHDC@glBindVertexBuffers@		; `string'
PUBLIC	??_C@_0O@DMMKFMGC@glClipControl@		; `string'
PUBLIC	??_C@_0BL@HPCMJLAK@glCreateTransformFeedbacks@	; `string'
PUBLIC	??_C@_0BO@EGLKNJFA@glTransformFeedbackBufferBase@ ; `string'
PUBLIC	??_C@_0BP@NBIGCNHI@glTransformFeedbackBufferRange@ ; `string'
PUBLIC	??_C@_0BJ@OFMLPMDO@glGetTransformFeedbackiv@	; `string'
PUBLIC	??_C@_0BK@IPHNHFEI@glGetTransformFeedbacki_v@	; `string'
PUBLIC	??_C@_0BM@KDHFPNLE@glGetTransformFeedbacki64_v@	; `string'
PUBLIC	??_C@_0BA@LNBCEANP@glCreateBuffers@		; `string'
PUBLIC	??_C@_0BF@INMFIINC@glNamedBufferStorage@	; `string'
PUBLIC	??_C@_0BC@LHEABGCG@glNamedBufferData@		; `string'
PUBLIC	??_C@_0BF@MDEBAFLD@glNamedBufferSubData@	; `string'
PUBLIC	??_C@_0BJ@MJPDCHND@glCopyNamedBufferSubData@	; `string'
PUBLIC	??_C@_0BH@KJMLMCB@glClearNamedBufferData@	; `string'
PUBLIC	??_C@_0BK@BNIDNJBH@glClearNamedBufferSubData@	; `string'
PUBLIC	??_C@_0BB@JLMCGIDB@glMapNamedBuffer@		; `string'
PUBLIC	??_C@_0BG@JLCGKFD@glMapNamedBufferRange@	; `string'
PUBLIC	??_C@_0BD@LAAONAHD@glUnmapNamedBuffer@		; `string'
PUBLIC	??_C@_0BO@DBGNKBKH@glFlushMappedNamedBufferRange@ ; `string'
PUBLIC	??_C@_0BM@KFAGBFPK@glGetNamedBufferParameteriv@	; `string'
PUBLIC	??_C@_0BO@ECJNIDNL@glGetNamedBufferParameteri64v@ ; `string'
PUBLIC	??_C@_0BJ@NBEMEIKG@glGetNamedBufferPointerv@	; `string'
PUBLIC	??_C@_0BI@PJBCKPNA@glGetNamedBufferSubData@	; `string'
PUBLIC	??_C@_0BF@DDKJIBLC@glCreateFramebuffers@	; `string'
PUBLIC	??_C@_0BP@MGCPNBGC@glNamedFramebufferRenderbuffer@ ; `string'
PUBLIC	??_C@_0BN@LBMOOIHC@glNamedFramebufferParameteri@ ; `string'
PUBLIC	??_C@_0BK@PNJJLPPI@glNamedFramebufferTexture@	; `string'
PUBLIC	??_C@_0BP@PHGPDAJM@glNamedFramebufferTextureLayer@ ; `string'
PUBLIC	??_C@_0BN@MOAIHNEF@glNamedFramebufferDrawBuffer@ ; `string'
PUBLIC	??_C@_0BO@CGKJHFH@glNamedFramebufferDrawBuffers@ ; `string'
PUBLIC	??_C@_0BN@LPANNPJE@glNamedFramebufferReadBuffer@ ; `string'
PUBLIC	??_C@_0CB@OGGNKJIL@glInvalidateNamedFramebufferDat@ ; `string'
PUBLIC	??_C@_0CE@DEGDCFND@glInvalidateNamedFramebufferSub@ ; `string'
PUBLIC	??_C@_0BK@NPOLJJAK@glClearNamedFramebufferiv@	; `string'
PUBLIC	??_C@_0BL@JENKNAJN@glClearNamedFramebufferuiv@	; `string'
PUBLIC	??_C@_0BK@NELHNODH@glClearNamedFramebufferfv@	; `string'
PUBLIC	??_C@_0BK@BJONNAKJ@glClearNamedFramebufferfi@	; `string'
PUBLIC	??_C@_0BH@FNFDNHAI@glBlitNamedFramebuffer@	; `string'
PUBLIC	??_C@_0BO@LMABFPGK@glCheckNamedFramebufferStatus@ ; `string'
PUBLIC	??_C@_0CB@COGAJBEM@glGetNamedFramebufferParameteri@ ; `string'
PUBLIC	??_C@_0CL@BGDPEPCC@glGetNamedFramebufferAttachment@ ; `string'
PUBLIC	??_C@_0BG@JJNJGAME@glCreateRenderbuffers@	; `string'
PUBLIC	??_C@_0BL@DGDPFKGM@glNamedRenderbufferStorage@	; `string'
PUBLIC	??_C@_0CG@IDKJGKBA@glNamedRenderbufferStorageMulti@ ; `string'
PUBLIC	??_C@_0CC@FCEAEAHI@glGetNamedRenderbufferParameter@ ; `string'
PUBLIC	??_C@_0BB@LABGPBKD@glCreateTextures@		; `string'
PUBLIC	??_C@_0BA@BEJOBNBA@glTextureBuffer@		; `string'
PUBLIC	??_C@_0BF@HAEPGPBJ@glTextureBufferRange@	; `string'
PUBLIC	??_C@_0BD@CJOBHECL@glTextureStorage1D@		; `string'
PUBLIC	??_C@_0BD@CLKHMKHC@glTextureStorage2D@		; `string'
PUBLIC	??_C@_0BD@CKGFKAEF@glTextureStorage3D@		; `string'
PUBLIC	??_C@_0BO@CIHBMJOI@glTextureStorage2DMultisample@ ; `string'
PUBLIC	??_C@_0BO@LFHOCIJO@glTextureStorage3DMultisample@ ; `string'
PUBLIC	??_C@_0BE@IDMGLJDA@glTextureSubImage1D@		; `string'
PUBLIC	??_C@_0BE@IBIAAHGJ@glTextureSubImage2D@		; `string'
PUBLIC	??_C@_0BE@IAECGNFO@glTextureSubImage3D@		; `string'
PUBLIC	??_C@_0BO@NIHAIHFC@glCompressedTextureSubImage1D@ ; `string'
PUBLIC	??_C@_0BO@NKDGDJAL@glCompressedTextureSubImage2D@ ; `string'
PUBLIC	??_C@_0BO@NLPEFDDM@glCompressedTextureSubImage3D@ ; `string'
PUBLIC	??_C@_0BI@DBEKPOLO@glCopyTextureSubImage1D@	; `string'
PUBLIC	??_C@_0BI@DDAMEAOH@glCopyTextureSubImage2D@	; `string'
PUBLIC	??_C@_0BI@DCMOCKNA@glCopyTextureSubImage3D@	; `string'
PUBLIC	??_C@_0BE@NLINBPMM@glTextureParameterf@		; `string'
PUBLIC	??_C@_0BF@OLGMNNPE@glTextureParameterfv@	; `string'
PUBLIC	??_C@_0BE@FMBFADAD@glTextureParameteri@		; `string'
PUBLIC	??_C@_0BG@CMHFNPIN@glTextureParameterIiv@	; `string'
PUBLIC	??_C@_0BH@OHPFFIFI@glTextureParameterIuiv@	; `string'
PUBLIC	??_C@_0BF@OADAJKMJ@glTextureParameteriv@	; `string'
PUBLIC	??_C@_0BI@JJPLGFEG@glGenerateTextureMipmap@	; `string'
PUBLIC	??_C@_0BC@NKGMGGNI@glBindTextureUnit@		; `string'
PUBLIC	??_C@_0BC@PJDCJNIH@glGetTextureImage@		; `string'
PUBLIC	??_C@_0BM@JOKODHH@glGetCompressedTextureImage@	; `string'
PUBLIC	??_C@_0BN@HMEFKCC@glGetTextureLevelParameterfv@	; `string'
PUBLIC	??_C@_0BN@MJIBNBP@glGetTextureLevelParameteriv@	; `string'
PUBLIC	??_C@_0BI@NBDPHHJH@glGetTextureParameterfv@	; `string'
PUBLIC	??_C@_0BJ@PIPELMMF@glGetTextureParameterIiv@	; `string'
PUBLIC	??_C@_0BK@JPCGBAJJ@glGetTextureParameterIuiv@	; `string'
PUBLIC	??_C@_0BI@NKGDDAKK@glGetTextureParameteriv@	; `string'
PUBLIC	??_C@_0BF@CMMGIOCI@glCreateVertexArrays@	; `string'
PUBLIC	??_C@_0BL@FEKBMKFD@glDisableVertexArrayAttrib@	; `string'
PUBLIC	??_C@_0BK@MJMKFCHC@glEnableVertexArrayAttrib@	; `string'
PUBLIC	??_C@_0BL@GGCAPDMO@glVertexArrayElementBuffer@	; `string'
PUBLIC	??_C@_0BK@BIEMNHGJ@glVertexArrayVertexBuffer@	; `string'
PUBLIC	??_C@_0BL@DAGELPBO@glVertexArrayVertexBuffers@	; `string'
PUBLIC	??_C@_0BL@DJHJAEGB@glVertexArrayAttribBinding@	; `string'
PUBLIC	??_C@_0BK@ONFBAOHM@glVertexArrayAttribFormat@	; `string'
PUBLIC	??_C@_0BL@JMMLHBDN@glVertexArrayAttribIFormat@	; `string'
PUBLIC	??_C@_0BL@NECLHPFJ@glVertexArrayAttribLFormat@	; `string'
PUBLIC	??_C@_0BM@BNDNIOBB@glVertexArrayBindingDivisor@	; `string'
PUBLIC	??_C@_0BD@CPJNCJFG@glGetVertexArrayiv@		; `string'
PUBLIC	??_C@_0BK@FIIPMDBK@glGetVertexArrayIndexediv@	; `string'
PUBLIC	??_C@_0BM@HHNNHCN@glGetVertexArrayIndexed64iv@	; `string'
PUBLIC	??_C@_0BB@EHBNEMMP@glCreateSamplers@		; `string'
PUBLIC	??_C@_0BJ@GJEEIMGK@glCreateProgramPipelines@	; `string'
PUBLIC	??_C@_0BA@PGNDPLG@glCreateQueries@		; `string'
PUBLIC	??_C@_0BL@KFECDHBF@glGetQueryBufferObjecti64v@	; `string'
PUBLIC	??_C@_0BJ@OBIFNHGB@glGetQueryBufferObjectiv@	; `string'
PUBLIC	??_C@_0BM@DFNHDHD@glGetQueryBufferObjectui64v@	; `string'
PUBLIC	??_C@_0BK@EOIEAGAD@glGetQueryBufferObjectuiv@	; `string'
PUBLIC	??_C@_0BI@IDCHHHAI@glMemoryBarrierByRegion@	; `string'
PUBLIC	??_C@_0BF@JEEEKNGB@glGetTextureSubImage@	; `string'
PUBLIC	??_C@_0BP@BIDENANP@glGetCompressedTextureSubImage@ ; `string'
PUBLIC	??_C@_0BJ@ILPAOCDN@glGetGraphicsResetStatus@	; `string'
PUBLIC	??_C@_0BJ@HLNIHAOG@glGetnCompressedTexImage@	; `string'
PUBLIC	??_C@_0P@FBKOCLCM@glGetnTexImage@		; `string'
PUBLIC	??_C@_0BA@KLGIFHJB@glGetnUniformdv@		; `string'
PUBLIC	??_C@_0BA@KIOMIDPP@glGetnUniformfv@		; `string'
PUBLIC	??_C@_0BA@KDLAMEMC@glGetnUniformiv@		; `string'
PUBLIC	??_C@_0BB@BBJMBEC@glGetnUniformuiv@		; `string'
PUBLIC	??_C@_0O@NELODAJJ@glReadnPixels@		; `string'
PUBLIC	??_C@_0M@FBDPJCFH@glGetnMapdv@			; `string'
PUBLIC	??_C@_0M@FCLLEGDJ@glGetnMapfv@			; `string'
PUBLIC	??_C@_0M@FJOHABAE@glGetnMapiv@			; `string'
PUBLIC	??_C@_0BB@JKBANCED@glGetnPixelMapfv@		; `string'
PUBLIC	??_C@_0BC@MDPMMCLE@glGetnPixelMapuiv@		; `string'
PUBLIC	??_C@_0BC@NCENOEBC@glGetnPixelMapusv@		; `string'
PUBLIC	??_C@_0BF@NBHIHHJA@glGetnPolygonStipple@	; `string'
PUBLIC	??_C@_0BB@EFKGOAOL@glGetnColorTable@		; `string'
PUBLIC	??_C@_0BI@GBFNHONB@glGetnConvolutionFilter@	; `string'
PUBLIC	??_C@_0BG@LBKKJBFC@glGetnSeparableFilter@	; `string'
PUBLIC	??_C@_0BA@POEMGEO@glGetnHistogram@		; `string'
PUBLIC	??_C@_0N@EFFKFJMK@glGetnMinmax@			; `string'
PUBLIC	??_C@_0BB@MNKDFGFC@glTextureBarrier@		; `string'
PUBLIC	??_C@_0BD@LNCLLNDI@glSpecializeShader@		; `string'
PUBLIC	??_C@_0BP@GGIOCPJI@glMultiDrawArraysIndirectCount@ ; `string'
PUBLIC	??_C@_0CB@BPEMAMPH@glMultiDrawElementsIndirectCoun@ ; `string'
PUBLIC	??_C@_0BF@ECLDHBOO@glPolygonOffsetClamp@	; `string'
PUBLIC	??_C@_0O@ENGHJHNB@OpenGL?5ES?9CM?5@		; `string'
PUBLIC	??_C@_0O@EMKFPNOG@OpenGL?5ES?9CL?5@		; `string'
PUBLIC	??_C@_0L@JLFHOCGA@OpenGL?5ES?5@			; `string'
PUBLIC	??_C@_05KBEOJPB@?$CFd?4?$CFd@			; `string'
PUBLIC	??_C@_0M@BJGLMKCC@glAlphaFunc@			; `string'
PUBLIC	??_C@_0N@CIEBEEDM@glClipPlanef@			; `string'
PUBLIC	??_C@_09PKFCMFPF@glColor4f@			; `string'
PUBLIC	??_C@_06JJHNMGPD@glFogf@			; `string'
PUBLIC	??_C@_07FNEIAABA@glFogfv@			; `string'
PUBLIC	??_C@_0L@HFEMMHCG@glFrustumf@			; `string'
PUBLIC	??_C@_0BA@EGMBKDGG@glGetClipPlanef@		; `string'
PUBLIC	??_C@_0N@MGGMJGKA@glGetLightfv@			; `string'
PUBLIC	??_C@_0BA@GCPPEEDM@glGetMaterialfv@		; `string'
PUBLIC	??_C@_0O@KDAJGFCL@glGetTexEnvfv@		; `string'
PUBLIC	??_C@_0O@HPCJLAII@glLightModelf@		; `string'
PUBLIC	??_C@_0P@JKHJPMNC@glLightModelfv@		; `string'
PUBLIC	??_C@_08LPDPILEL@glLightf@			; `string'
PUBLIC	??_C@_09JINEHJOD@glLightfv@			; `string'
PUBLIC	??_C@_0O@DJGBMGEI@glLoadMatrixf@		; `string'
PUBLIC	??_C@_0M@HANOIKMC@glMaterialf@			; `string'
PUBLIC	??_C@_0N@MHPKDGG@glMaterialfv@			; `string'
PUBLIC	??_C@_0O@LHKDNPKJ@glMultMatrixf@		; `string'
PUBLIC	??_C@_0BC@LDICFFJG@glMultiTexCoord4f@		; `string'
PUBLIC	??_C@_0L@DGGCBPPM@glNormal3f@			; `string'
PUBLIC	??_C@_08NAPFMCEN@glOrthof@			; `string'
PUBLIC	??_C@_09FCODNBIM@glRotatef@			; `string'
PUBLIC	??_C@_08JCPEOPLK@glScalef@			; `string'
PUBLIC	??_C@_09FCLLGECI@glTexEnvf@			; `string'
PUBLIC	??_C@_0L@EMICMNOO@glTexEnvfv@			; `string'
PUBLIC	??_C@_0N@IFPDDBNE@glTranslatef@			; `string'
PUBLIC	??_C@_0N@DCJPNJNA@glAlphaFuncx@			; `string'
PUBLIC	??_C@_0O@NPNIINAH@glClearColorx@		; `string'
PUBLIC	??_C@_0O@IIFNBMFE@glClearDepthx@		; `string'
PUBLIC	??_C@_0BG@EGKOMLFO@glClientActiveTexture@	; `string'
PUBLIC	??_C@_0N@PMAAHLOD@glClipPlanex@			; `string'
PUBLIC	??_C@_0L@IEIGEAFK@glColor4ub@			; `string'
PUBLIC	??_C@_09COBDPKCK@glColor4x@			; `string'
PUBLIC	??_C@_0P@DPKEGLKI@glColorPointer@		; `string'
PUBLIC	??_C@_0O@EHBIACAM@glDepthRangex@		; `string'
PUBLIC	??_C@_0BF@LJDHBNBP@glDisableClientState@	; `string'
PUBLIC	??_C@_0BE@KECPKGNE@glEnableClientState@		; `string'
PUBLIC	??_C@_06ENDMPJCM@glFogx@			; `string'
PUBLIC	??_C@_07ELPAIOGK@glFogxv@			; `string'
PUBLIC	??_C@_0L@KBANPIPJ@glFrustumx@			; `string'
PUBLIC	??_C@_0BA@JCIAJMLJ@glGetClipPlanex@		; `string'
PUBLIC	??_C@_0M@DLGHPANC@glGetFixedv@			; `string'
PUBLIC	??_C@_0N@NANEBINK@glGetLightxv@			; `string'
PUBLIC	??_C@_0BA@HEEHMKEG@glGetMaterialxv@		; `string'
PUBLIC	??_C@_0O@KIFFCCBG@glGetTexEnviv@		; `string'
PUBLIC	??_C@_0O@LFLBOLFB@glGetTexEnvxv@		; `string'
PUBLIC	??_C@_0BE@CLMJHELI@glGetTexParameterxv@		; `string'
PUBLIC	??_C@_0O@KLGIIPFH@glLightModelx@		; `string'
PUBLIC	??_C@_0P@IMMBHCKI@glLightModelxv@		; `string'
PUBLIC	??_C@_08GLHOLEJE@glLightx@			; `string'
PUBLIC	??_C@_09IOGMPHJJ@glLightxv@			; `string'
PUBLIC	??_C@_0N@LDBNBCAC@glLineWidthx@			; `string'
PUBLIC	??_C@_0P@EJAFHEPO@glLoadIdentity@		; `string'
PUBLIC	??_C@_0O@ONCAPJJH@glLoadMatrixx@		; `string'
PUBLIC	??_C@_0M@KEJPLFBN@glMaterialx@			; `string'
PUBLIC	??_C@_0N@BKMHCNBM@glMaterialxv@			; `string'
PUBLIC	??_C@_0N@KDLNHKEJ@glMatrixMode@			; `string'
PUBLIC	??_C@_0O@GDOCOAHG@glMultMatrixx@		; `string'
PUBLIC	??_C@_0BC@GHMDGKEJ@glMultiTexCoord4x@		; `string'
PUBLIC	??_C@_0L@OCCDCACD@glNormal3x@			; `string'
PUBLIC	??_C@_0BA@DCLMCEOP@glNormalPointer@		; `string'
PUBLIC	??_C@_08ELEPNJC@glOrthox@			; `string'
PUBLIC	??_C@_0BC@NBCPNLOB@glPointParameterx@		; `string'
PUBLIC	??_C@_0BD@KOLJCDEF@glPointParameterxv@		; `string'
PUBLIC	??_C@_0N@GIMHGCMN@glPointSizex@			; `string'
PUBLIC	??_C@_0BB@IPDOBBJA@glPolygonOffsetx@		; `string'
PUBLIC	??_C@_0M@JPEAAEEK@glPopMatrix@			; `string'
PUBLIC	??_C@_0N@IHFNHGBL@glPushMatrix@			; `string'
PUBLIC	??_C@_09IGKCOOFD@glRotatex@			; `string'
PUBLIC	??_C@_0BC@EHPFHJHK@glSampleCoveragex@		; `string'
PUBLIC	??_C@_08EGLFNAGF@glScalex@			; `string'
PUBLIC	??_C@_0N@NALMFHKN@glShadeModel@			; `string'
PUBLIC	??_C@_0BC@DAOMILMO@glTexCoordPointer@		; `string'
PUBLIC	??_C@_09NFCDHIOH@glTexEnvi@			; `string'
PUBLIC	??_C@_09IGPKFLPH@glTexEnvx@			; `string'
PUBLIC	??_C@_0L@EHNOIKND@glTexEnviv@			; `string'
PUBLIC	??_C@_0L@FKDKEDJE@glTexEnvxv@			; `string'
PUBLIC	??_C@_0BA@FJOELDLA@glTexParameterx@		; `string'
PUBLIC	??_C@_0BB@LCFNIJEP@glTexParameterxv@		; `string'
PUBLIC	??_C@_0N@FBLCAOAL@glTranslatex@			; `string'
PUBLIC	??_C@_0BA@HAHECJNK@glVertexPointer@		; `string'
PUBLIC	??_C@_0P@NOCKEEAP@glBlendBarrier@		; `string'
PUBLIC	??_C@_0BH@DBMDBNBL@glPrimitiveBoundingBox@	; `string'
EXTRN	__imp___stdio_common_vsscanf:PROC
EXTRN	__imp_free:PROC
EXTRN	__imp_malloc:PROC
EXTRN	__imp_strncmp:PROC
EXTRN	__imp_FreeLibrary:PROC
EXTRN	__imp_GetProcAddress:PROC
EXTRN	__imp_LoadLibraryW:PROC
EXTRN	__CheckForDebuggerJustMyCode:PROC
EXTRN	__GSHandlerCheck:PROC
EXTRN	__security_check_cookie:PROC
EXTRN	__security_cookie:QWORD
_DATA	SEGMENT
COMM	?_OptionsStorage@?1??__local_stdio_scanf_options@@9@9:QWORD							; `__local_stdio_scanf_options'::`2'::_OptionsStorage
_DATA	ENDS
_BSS	SEGMENT
	ALIGN	8

libGL	DQ	01H DUP (?)
gladGetProcAddressPtr DQ 01H DUP (?)
max_loaded_major DD 01H DUP (?)
max_loaded_minor DD 01H DUP (?)
exts	DQ	01H DUP (?)
num_exts_i DD	01H DUP (?)
	ALIGN	8

exts_i	DQ	01H DUP (?)
_BSS	ENDS
;	COMDAT pdata
pdata	SEGMENT
$pdata$__local_stdio_scanf_options DD imagerel $LN3
	DD	imagerel $LN3+36
	DD	imagerel $unwind$__local_stdio_scanf_options
pdata	ENDS
;	COMDAT pdata
pdata	SEGMENT
$pdata$_vsscanf_s_l DD imagerel $LN3
	DD	imagerel $LN3+102
	DD	imagerel $unwind$_vsscanf_s_l
pdata	ENDS
;	COMDAT pdata
pdata	SEGMENT
$pdata$vsscanf_s DD imagerel $LN3
	DD	imagerel $LN3+63
	DD	imagerel $unwind$vsscanf_s
pdata	ENDS
;	COMDAT pdata
pdata	SEGMENT
$pdata$sscanf_s DD imagerel $LN3
	DD	imagerel $LN3+119
	DD	imagerel $unwind$sscanf_s
pdata	ENDS
;	COMDAT pdata
pdata	SEGMENT
$pdata$gladLoadGL DD imagerel $LN4
	DD	imagerel $LN4+68
	DD	imagerel $unwind$gladLoadGL
pdata	ENDS
;	COMDAT pdata
pdata	SEGMENT
$pdata$gladLoadGLLoader DD imagerel $LN8
	DD	imagerel $LN8+336
	DD	imagerel $unwind$gladLoadGLLoader
pdata	ENDS
;	COMDAT pdata
pdata	SEGMENT
$pdata$gladLoadGLES1Loader DD imagerel $LN8
	DD	imagerel $LN8+168
	DD	imagerel $unwind$gladLoadGLES1Loader
pdata	ENDS
;	COMDAT pdata
pdata	SEGMENT
$pdata$gladLoadGLES2Loader DD imagerel $LN8
	DD	imagerel $LN8+195
	DD	imagerel $unwind$gladLoadGLES2Loader
pdata	ENDS
;	COMDAT pdata
pdata	SEGMENT
$pdata$gladLoadGLSC2Loader DD imagerel $LN8
	DD	imagerel $LN8+168
	DD	imagerel $unwind$gladLoadGLSC2Loader
pdata	ENDS
;	COMDAT pdata
pdata	SEGMENT
$pdata$get_proc DD imagerel get_proc
	DD	imagerel get_proc+111
	DD	imagerel $unwind$get_proc
pdata	ENDS
;	COMDAT pdata
pdata	SEGMENT
$pdata$open_gl DD imagerel open_gl
	DD	imagerel open_gl+127
	DD	imagerel $unwind$open_gl
pdata	ENDS
;	COMDAT pdata
pdata	SEGMENT
$pdata$close_gl DD imagerel close_gl
	DD	imagerel close_gl+63
	DD	imagerel $unwind$close_gl
pdata	ENDS
;	COMDAT pdata
pdata	SEGMENT
$pdata$get_exts DD imagerel get_exts
	DD	imagerel get_exts+339
	DD	imagerel $unwind$get_exts
pdata	ENDS
;	COMDAT pdata
pdata	SEGMENT
$pdata$free_exts DD imagerel free_exts
	DD	imagerel free_exts+114
	DD	imagerel $unwind$free_exts
pdata	ENDS
;	COMDAT pdata
pdata	SEGMENT
$pdata$load_GL_VERSION_1_0 DD imagerel load_GL_VERSION_1_0
	DD	imagerel load_GL_VERSION_1_0+863
	DD	imagerel $unwind$load_GL_VERSION_1_0
pdata	ENDS
;	COMDAT pdata
pdata	SEGMENT
$pdata$load_GL_VERSION_1_1 DD imagerel load_GL_VERSION_1_1
	DD	imagerel load_GL_VERSION_1_1+268
	DD	imagerel $unwind$load_GL_VERSION_1_1
pdata	ENDS
;	COMDAT pdata
pdata	SEGMENT
$pdata$load_GL_VERSION_1_2 DD imagerel load_GL_VERSION_1_2
	DD	imagerel load_GL_VERSION_1_2+112
	DD	imagerel $unwind$load_GL_VERSION_1_2
pdata	ENDS
;	COMDAT pdata
pdata	SEGMENT
$pdata$load_GL_VERSION_1_3 DD imagerel load_GL_VERSION_1_3
	DD	imagerel load_GL_VERSION_1_3+200
	DD	imagerel $unwind$load_GL_VERSION_1_3
pdata	ENDS
;	COMDAT pdata
pdata	SEGMENT
$pdata$load_GL_VERSION_1_4 DD imagerel load_GL_VERSION_1_4
	DD	imagerel load_GL_VERSION_1_4+200
	DD	imagerel $unwind$load_GL_VERSION_1_4
pdata	ENDS
;	COMDAT pdata
pdata	SEGMENT
$pdata$load_GL_VERSION_1_5 DD imagerel load_GL_VERSION_1_5
	DD	imagerel load_GL_VERSION_1_5+370
	DD	imagerel $unwind$load_GL_VERSION_1_5
pdata	ENDS
;	COMDAT pdata
pdata	SEGMENT
$pdata$load_GL_VERSION_2_0 DD imagerel load_GL_VERSION_2_0
	DD	imagerel load_GL_VERSION_2_0+1628
	DD	imagerel $unwind$load_GL_VERSION_2_0
pdata	ENDS
;	COMDAT pdata
pdata	SEGMENT
$pdata$load_GL_VERSION_2_1 DD imagerel load_GL_VERSION_2_1
	DD	imagerel load_GL_VERSION_2_1+146
	DD	imagerel $unwind$load_GL_VERSION_2_1
pdata	ENDS
;	COMDAT pdata
pdata	SEGMENT
$pdata$load_GL_VERSION_3_0 DD imagerel load_GL_VERSION_3_0
	DD	imagerel load_GL_VERSION_3_0+1475
	DD	imagerel $unwind$load_GL_VERSION_3_0
pdata	ENDS
;	COMDAT pdata
pdata	SEGMENT
$pdata$load_GL_VERSION_3_1 DD imagerel load_GL_VERSION_3_1
	DD	imagerel load_GL_VERSION_3_1+302
	DD	imagerel $unwind$load_GL_VERSION_3_1
pdata	ENDS
;	COMDAT pdata
pdata	SEGMENT
$pdata$load_GL_VERSION_3_2 DD imagerel load_GL_VERSION_3_2
	DD	imagerel load_GL_VERSION_3_2+370
	DD	imagerel $unwind$load_GL_VERSION_3_2
pdata	ENDS
;	COMDAT pdata
pdata	SEGMENT
$pdata$load_GL_VERSION_3_3 DD imagerel load_GL_VERSION_3_3
	DD	imagerel load_GL_VERSION_3_3+1033
	DD	imagerel $unwind$load_GL_VERSION_3_3
pdata	ENDS
;	COMDAT pdata
pdata	SEGMENT
$pdata$load_GL_VERSION_4_0 DD imagerel load_GL_VERSION_4_0
	DD	imagerel load_GL_VERSION_4_0+829
	DD	imagerel $unwind$load_GL_VERSION_4_0
pdata	ENDS
;	COMDAT pdata
pdata	SEGMENT
$pdata$load_GL_VERSION_4_1 DD imagerel load_GL_VERSION_4_1
	DD	imagerel load_GL_VERSION_4_1+1560
	DD	imagerel $unwind$load_GL_VERSION_4_1
pdata	ENDS
;	COMDAT pdata
pdata	SEGMENT
$pdata$load_GL_VERSION_4_2 DD imagerel load_GL_VERSION_4_2
	DD	imagerel load_GL_VERSION_4_2+251
	DD	imagerel $unwind$load_GL_VERSION_4_2
pdata	ENDS
;	COMDAT pdata
pdata	SEGMENT
$pdata$load_GL_VERSION_4_3 DD imagerel load_GL_VERSION_4_3
	DD	imagerel load_GL_VERSION_4_3+795
	DD	imagerel $unwind$load_GL_VERSION_4_3
pdata	ENDS
;	COMDAT pdata
pdata	SEGMENT
$pdata$load_GL_VERSION_4_4 DD imagerel load_GL_VERSION_4_4
	DD	imagerel load_GL_VERSION_4_4+200
	DD	imagerel $unwind$load_GL_VERSION_4_4
pdata	ENDS
;	COMDAT pdata
pdata	SEGMENT
$pdata$load_GL_VERSION_4_5 DD imagerel load_GL_VERSION_4_5
	DD	imagerel load_GL_VERSION_4_5+2121
	DD	imagerel $unwind$load_GL_VERSION_4_5
pdata	ENDS
;	COMDAT pdata
pdata	SEGMENT
$pdata$load_GL_VERSION_4_6 DD imagerel load_GL_VERSION_4_6
	DD	imagerel load_GL_VERSION_4_6+112
	DD	imagerel $unwind$load_GL_VERSION_4_6
pdata	ENDS
;	COMDAT pdata
pdata	SEGMENT
$pdata$find_extensionsGL DD imagerel find_extensionsGL
	DD	imagerel find_extensionsGL+52
	DD	imagerel $unwind$find_extensionsGL
pdata	ENDS
;	COMDAT pdata
pdata	SEGMENT
$pdata$find_coreGL DD imagerel find_coreGL
	DD	imagerel find_coreGL+1376
	DD	imagerel $unwind$find_coreGL
pdata	ENDS
;	COMDAT pdata
pdata	SEGMENT
$pdata$load_GL_VERSION_ES_CM_1_0 DD imagerel load_GL_VERSION_ES_CM_1_0
	DD	imagerel load_GL_VERSION_ES_CM_1_0+2495
	DD	imagerel $unwind$load_GL_VERSION_ES_CM_1_0
pdata	ENDS
;	COMDAT pdata
pdata	SEGMENT
$pdata$find_extensionsGLES1 DD imagerel find_extensionsGLES1
	DD	imagerel find_extensionsGLES1+52
	DD	imagerel $unwind$find_extensionsGLES1
pdata	ENDS
;	COMDAT pdata
pdata	SEGMENT
$pdata$find_coreGLES1 DD imagerel find_coreGLES1
	DD	imagerel find_coreGLES1+440
	DD	imagerel $unwind$find_coreGLES1
pdata	ENDS
;	COMDAT pdata
pdata	SEGMENT
$pdata$load_GL_ES_VERSION_2_0 DD imagerel load_GL_ES_VERSION_2_0
	DD	imagerel load_GL_ES_VERSION_2_0+2461
	DD	imagerel $unwind$load_GL_ES_VERSION_2_0
pdata	ENDS
;	COMDAT pdata
pdata	SEGMENT
$pdata$load_GL_ES_VERSION_3_0 DD imagerel load_GL_ES_VERSION_3_0
	DD	imagerel load_GL_ES_VERSION_3_0+1815
	DD	imagerel $unwind$load_GL_ES_VERSION_3_0
pdata	ENDS
;	COMDAT pdata
pdata	SEGMENT
$pdata$load_GL_ES_VERSION_3_1 DD imagerel load_GL_ES_VERSION_3_1
	DD	imagerel load_GL_ES_VERSION_3_1+1203
	DD	imagerel $unwind$load_GL_ES_VERSION_3_1
pdata	ENDS
;	COMDAT pdata
pdata	SEGMENT
$pdata$load_GL_ES_VERSION_3_2 DD imagerel load_GL_ES_VERSION_3_2
	DD	imagerel load_GL_ES_VERSION_3_2+795
	DD	imagerel $unwind$load_GL_ES_VERSION_3_2
pdata	ENDS
;	COMDAT pdata
pdata	SEGMENT
$pdata$find_extensionsGLES2 DD imagerel find_extensionsGLES2
	DD	imagerel find_extensionsGLES2+52
	DD	imagerel $unwind$find_extensionsGLES2
pdata	ENDS
;	COMDAT pdata
pdata	SEGMENT
$pdata$find_coreGLES2 DD imagerel find_coreGLES2
	DD	imagerel find_coreGLES2+596
	DD	imagerel $unwind$find_coreGLES2
pdata	ENDS
;	COMDAT pdata
pdata	SEGMENT
$pdata$load_GL_SC_VERSION_2_0 DD imagerel load_GL_SC_VERSION_2_0
	DD	imagerel load_GL_SC_VERSION_2_0+1934
	DD	imagerel $unwind$load_GL_SC_VERSION_2_0
pdata	ENDS
;	COMDAT pdata
pdata	SEGMENT
$pdata$find_extensionsGLSC2 DD imagerel find_extensionsGLSC2
	DD	imagerel find_extensionsGLSC2+52
	DD	imagerel $unwind$find_extensionsGLSC2
pdata	ENDS
;	COMDAT pdata
pdata	SEGMENT
$pdata$find_coreGLSC2 DD imagerel find_coreGLSC2
	DD	imagerel find_coreGLSC2+440
	DD	imagerel $unwind$find_coreGLSC2
pdata	ENDS
;	COMDAT ??_C@_0BH@DBMDBNBL@glPrimitiveBoundingBox@
CONST	SEGMENT
??_C@_0BH@DBMDBNBL@glPrimitiveBoundingBox@ DB 'glPrimitiveBoundingBox', 00H ; `string'
CONST	ENDS
;	COMDAT ??_C@_0P@NOCKEEAP@glBlendBarrier@
CONST	SEGMENT
??_C@_0P@NOCKEEAP@glBlendBarrier@ DB 'glBlendBarrier', 00H ; `string'
CONST	ENDS
;	COMDAT ??_C@_0BA@HAHECJNK@glVertexPointer@
CONST	SEGMENT
??_C@_0BA@HAHECJNK@glVertexPointer@ DB 'glVertexPointer', 00H ; `string'
CONST	ENDS
;	COMDAT ??_C@_0N@FBLCAOAL@glTranslatex@
CONST	SEGMENT
??_C@_0N@FBLCAOAL@glTranslatex@ DB 'glTranslatex', 00H	; `string'
CONST	ENDS
;	COMDAT ??_C@_0BB@LCFNIJEP@glTexParameterxv@
CONST	SEGMENT
??_C@_0BB@LCFNIJEP@glTexParameterxv@ DB 'glTexParameterxv', 00H ; `string'
CONST	ENDS
;	COMDAT ??_C@_0BA@FJOELDLA@glTexParameterx@
CONST	SEGMENT
??_C@_0BA@FJOELDLA@glTexParameterx@ DB 'glTexParameterx', 00H ; `string'
CONST	ENDS
;	COMDAT ??_C@_0L@FKDKEDJE@glTexEnvxv@
CONST	SEGMENT
??_C@_0L@FKDKEDJE@glTexEnvxv@ DB 'glTexEnvxv', 00H	; `string'
CONST	ENDS
;	COMDAT ??_C@_0L@EHNOIKND@glTexEnviv@
CONST	SEGMENT
??_C@_0L@EHNOIKND@glTexEnviv@ DB 'glTexEnviv', 00H	; `string'
CONST	ENDS
;	COMDAT ??_C@_09IGPKFLPH@glTexEnvx@
CONST	SEGMENT
??_C@_09IGPKFLPH@glTexEnvx@ DB 'glTexEnvx', 00H		; `string'
CONST	ENDS
;	COMDAT ??_C@_09NFCDHIOH@glTexEnvi@
CONST	SEGMENT
??_C@_09NFCDHIOH@glTexEnvi@ DB 'glTexEnvi', 00H		; `string'
CONST	ENDS
;	COMDAT ??_C@_0BC@DAOMILMO@glTexCoordPointer@
CONST	SEGMENT
??_C@_0BC@DAOMILMO@glTexCoordPointer@ DB 'glTexCoordPointer', 00H ; `string'
CONST	ENDS
;	COMDAT ??_C@_0N@NALMFHKN@glShadeModel@
CONST	SEGMENT
??_C@_0N@NALMFHKN@glShadeModel@ DB 'glShadeModel', 00H	; `string'
CONST	ENDS
;	COMDAT ??_C@_08EGLFNAGF@glScalex@
CONST	SEGMENT
??_C@_08EGLFNAGF@glScalex@ DB 'glScalex', 00H		; `string'
CONST	ENDS
;	COMDAT ??_C@_0BC@EHPFHJHK@glSampleCoveragex@
CONST	SEGMENT
??_C@_0BC@EHPFHJHK@glSampleCoveragex@ DB 'glSampleCoveragex', 00H ; `string'
CONST	ENDS
;	COMDAT ??_C@_09IGKCOOFD@glRotatex@
CONST	SEGMENT
??_C@_09IGKCOOFD@glRotatex@ DB 'glRotatex', 00H		; `string'
CONST	ENDS
;	COMDAT ??_C@_0N@IHFNHGBL@glPushMatrix@
CONST	SEGMENT
??_C@_0N@IHFNHGBL@glPushMatrix@ DB 'glPushMatrix', 00H	; `string'
CONST	ENDS
;	COMDAT ??_C@_0M@JPEAAEEK@glPopMatrix@
CONST	SEGMENT
??_C@_0M@JPEAAEEK@glPopMatrix@ DB 'glPopMatrix', 00H	; `string'
CONST	ENDS
;	COMDAT ??_C@_0BB@IPDOBBJA@glPolygonOffsetx@
CONST	SEGMENT
??_C@_0BB@IPDOBBJA@glPolygonOffsetx@ DB 'glPolygonOffsetx', 00H ; `string'
CONST	ENDS
;	COMDAT ??_C@_0N@GIMHGCMN@glPointSizex@
CONST	SEGMENT
??_C@_0N@GIMHGCMN@glPointSizex@ DB 'glPointSizex', 00H	; `string'
CONST	ENDS
;	COMDAT ??_C@_0BD@KOLJCDEF@glPointParameterxv@
CONST	SEGMENT
??_C@_0BD@KOLJCDEF@glPointParameterxv@ DB 'glPointParameterxv', 00H ; `string'
CONST	ENDS
;	COMDAT ??_C@_0BC@NBCPNLOB@glPointParameterx@
CONST	SEGMENT
??_C@_0BC@NBCPNLOB@glPointParameterx@ DB 'glPointParameterx', 00H ; `string'
CONST	ENDS
;	COMDAT ??_C@_08ELEPNJC@glOrthox@
CONST	SEGMENT
??_C@_08ELEPNJC@glOrthox@ DB 'glOrthox', 00H		; `string'
CONST	ENDS
;	COMDAT ??_C@_0BA@DCLMCEOP@glNormalPointer@
CONST	SEGMENT
??_C@_0BA@DCLMCEOP@glNormalPointer@ DB 'glNormalPointer', 00H ; `string'
CONST	ENDS
;	COMDAT ??_C@_0L@OCCDCACD@glNormal3x@
CONST	SEGMENT
??_C@_0L@OCCDCACD@glNormal3x@ DB 'glNormal3x', 00H	; `string'
CONST	ENDS
;	COMDAT ??_C@_0BC@GHMDGKEJ@glMultiTexCoord4x@
CONST	SEGMENT
??_C@_0BC@GHMDGKEJ@glMultiTexCoord4x@ DB 'glMultiTexCoord4x', 00H ; `string'
CONST	ENDS
;	COMDAT ??_C@_0O@GDOCOAHG@glMultMatrixx@
CONST	SEGMENT
??_C@_0O@GDOCOAHG@glMultMatrixx@ DB 'glMultMatrixx', 00H ; `string'
CONST	ENDS
;	COMDAT ??_C@_0N@KDLNHKEJ@glMatrixMode@
CONST	SEGMENT
??_C@_0N@KDLNHKEJ@glMatrixMode@ DB 'glMatrixMode', 00H	; `string'
CONST	ENDS
;	COMDAT ??_C@_0N@BKMHCNBM@glMaterialxv@
CONST	SEGMENT
??_C@_0N@BKMHCNBM@glMaterialxv@ DB 'glMaterialxv', 00H	; `string'
CONST	ENDS
;	COMDAT ??_C@_0M@KEJPLFBN@glMaterialx@
CONST	SEGMENT
??_C@_0M@KEJPLFBN@glMaterialx@ DB 'glMaterialx', 00H	; `string'
CONST	ENDS
;	COMDAT ??_C@_0O@ONCAPJJH@glLoadMatrixx@
CONST	SEGMENT
??_C@_0O@ONCAPJJH@glLoadMatrixx@ DB 'glLoadMatrixx', 00H ; `string'
CONST	ENDS
;	COMDAT ??_C@_0P@EJAFHEPO@glLoadIdentity@
CONST	SEGMENT
??_C@_0P@EJAFHEPO@glLoadIdentity@ DB 'glLoadIdentity', 00H ; `string'
CONST	ENDS
;	COMDAT ??_C@_0N@LDBNBCAC@glLineWidthx@
CONST	SEGMENT
??_C@_0N@LDBNBCAC@glLineWidthx@ DB 'glLineWidthx', 00H	; `string'
CONST	ENDS
;	COMDAT ??_C@_09IOGMPHJJ@glLightxv@
CONST	SEGMENT
??_C@_09IOGMPHJJ@glLightxv@ DB 'glLightxv', 00H		; `string'
CONST	ENDS
;	COMDAT ??_C@_08GLHOLEJE@glLightx@
CONST	SEGMENT
??_C@_08GLHOLEJE@glLightx@ DB 'glLightx', 00H		; `string'
CONST	ENDS
;	COMDAT ??_C@_0P@IMMBHCKI@glLightModelxv@
CONST	SEGMENT
??_C@_0P@IMMBHCKI@glLightModelxv@ DB 'glLightModelxv', 00H ; `string'
CONST	ENDS
;	COMDAT ??_C@_0O@KLGIIPFH@glLightModelx@
CONST	SEGMENT
??_C@_0O@KLGIIPFH@glLightModelx@ DB 'glLightModelx', 00H ; `string'
CONST	ENDS
;	COMDAT ??_C@_0BE@CLMJHELI@glGetTexParameterxv@
CONST	SEGMENT
??_C@_0BE@CLMJHELI@glGetTexParameterxv@ DB 'glGetTexParameterxv', 00H ; `string'
CONST	ENDS
;	COMDAT ??_C@_0O@LFLBOLFB@glGetTexEnvxv@
CONST	SEGMENT
??_C@_0O@LFLBOLFB@glGetTexEnvxv@ DB 'glGetTexEnvxv', 00H ; `string'
CONST	ENDS
;	COMDAT ??_C@_0O@KIFFCCBG@glGetTexEnviv@
CONST	SEGMENT
??_C@_0O@KIFFCCBG@glGetTexEnviv@ DB 'glGetTexEnviv', 00H ; `string'
CONST	ENDS
;	COMDAT ??_C@_0BA@HEEHMKEG@glGetMaterialxv@
CONST	SEGMENT
??_C@_0BA@HEEHMKEG@glGetMaterialxv@ DB 'glGetMaterialxv', 00H ; `string'
CONST	ENDS
;	COMDAT ??_C@_0N@NANEBINK@glGetLightxv@
CONST	SEGMENT
??_C@_0N@NANEBINK@glGetLightxv@ DB 'glGetLightxv', 00H	; `string'
CONST	ENDS
;	COMDAT ??_C@_0M@DLGHPANC@glGetFixedv@
CONST	SEGMENT
??_C@_0M@DLGHPANC@glGetFixedv@ DB 'glGetFixedv', 00H	; `string'
CONST	ENDS
;	COMDAT ??_C@_0BA@JCIAJMLJ@glGetClipPlanex@
CONST	SEGMENT
??_C@_0BA@JCIAJMLJ@glGetClipPlanex@ DB 'glGetClipPlanex', 00H ; `string'
CONST	ENDS
;	COMDAT ??_C@_0L@KBANPIPJ@glFrustumx@
CONST	SEGMENT
??_C@_0L@KBANPIPJ@glFrustumx@ DB 'glFrustumx', 00H	; `string'
CONST	ENDS
;	COMDAT ??_C@_07ELPAIOGK@glFogxv@
CONST	SEGMENT
??_C@_07ELPAIOGK@glFogxv@ DB 'glFogxv', 00H		; `string'
CONST	ENDS
;	COMDAT ??_C@_06ENDMPJCM@glFogx@
CONST	SEGMENT
??_C@_06ENDMPJCM@glFogx@ DB 'glFogx', 00H		; `string'
CONST	ENDS
;	COMDAT ??_C@_0BE@KECPKGNE@glEnableClientState@
CONST	SEGMENT
??_C@_0BE@KECPKGNE@glEnableClientState@ DB 'glEnableClientState', 00H ; `string'
CONST	ENDS
;	COMDAT ??_C@_0BF@LJDHBNBP@glDisableClientState@
CONST	SEGMENT
??_C@_0BF@LJDHBNBP@glDisableClientState@ DB 'glDisableClientState', 00H ; `string'
CONST	ENDS
;	COMDAT ??_C@_0O@EHBIACAM@glDepthRangex@
CONST	SEGMENT
??_C@_0O@EHBIACAM@glDepthRangex@ DB 'glDepthRangex', 00H ; `string'
CONST	ENDS
;	COMDAT ??_C@_0P@DPKEGLKI@glColorPointer@
CONST	SEGMENT
??_C@_0P@DPKEGLKI@glColorPointer@ DB 'glColorPointer', 00H ; `string'
CONST	ENDS
;	COMDAT ??_C@_09COBDPKCK@glColor4x@
CONST	SEGMENT
??_C@_09COBDPKCK@glColor4x@ DB 'glColor4x', 00H		; `string'
CONST	ENDS
;	COMDAT ??_C@_0L@IEIGEAFK@glColor4ub@
CONST	SEGMENT
??_C@_0L@IEIGEAFK@glColor4ub@ DB 'glColor4ub', 00H	; `string'
CONST	ENDS
;	COMDAT ??_C@_0N@PMAAHLOD@glClipPlanex@
CONST	SEGMENT
??_C@_0N@PMAAHLOD@glClipPlanex@ DB 'glClipPlanex', 00H	; `string'
CONST	ENDS
;	COMDAT ??_C@_0BG@EGKOMLFO@glClientActiveTexture@
CONST	SEGMENT
??_C@_0BG@EGKOMLFO@glClientActiveTexture@ DB 'glClientActiveTexture', 00H ; `string'
CONST	ENDS
;	COMDAT ??_C@_0O@IIFNBMFE@glClearDepthx@
CONST	SEGMENT
??_C@_0O@IIFNBMFE@glClearDepthx@ DB 'glClearDepthx', 00H ; `string'
CONST	ENDS
;	COMDAT ??_C@_0O@NPNIINAH@glClearColorx@
CONST	SEGMENT
??_C@_0O@NPNIINAH@glClearColorx@ DB 'glClearColorx', 00H ; `string'
CONST	ENDS
;	COMDAT ??_C@_0N@DCJPNJNA@glAlphaFuncx@
CONST	SEGMENT
??_C@_0N@DCJPNJNA@glAlphaFuncx@ DB 'glAlphaFuncx', 00H	; `string'
CONST	ENDS
;	COMDAT ??_C@_0N@IFPDDBNE@glTranslatef@
CONST	SEGMENT
??_C@_0N@IFPDDBNE@glTranslatef@ DB 'glTranslatef', 00H	; `string'
CONST	ENDS
;	COMDAT ??_C@_0L@EMICMNOO@glTexEnvfv@
CONST	SEGMENT
??_C@_0L@EMICMNOO@glTexEnvfv@ DB 'glTexEnvfv', 00H	; `string'
CONST	ENDS
;	COMDAT ??_C@_09FCLLGECI@glTexEnvf@
CONST	SEGMENT
??_C@_09FCLLGECI@glTexEnvf@ DB 'glTexEnvf', 00H		; `string'
CONST	ENDS
;	COMDAT ??_C@_08JCPEOPLK@glScalef@
CONST	SEGMENT
??_C@_08JCPEOPLK@glScalef@ DB 'glScalef', 00H		; `string'
CONST	ENDS
;	COMDAT ??_C@_09FCODNBIM@glRotatef@
CONST	SEGMENT
??_C@_09FCODNBIM@glRotatef@ DB 'glRotatef', 00H		; `string'
CONST	ENDS
;	COMDAT ??_C@_08NAPFMCEN@glOrthof@
CONST	SEGMENT
??_C@_08NAPFMCEN@glOrthof@ DB 'glOrthof', 00H		; `string'
CONST	ENDS
;	COMDAT ??_C@_0L@DGGCBPPM@glNormal3f@
CONST	SEGMENT
??_C@_0L@DGGCBPPM@glNormal3f@ DB 'glNormal3f', 00H	; `string'
CONST	ENDS
;	COMDAT ??_C@_0BC@LDICFFJG@glMultiTexCoord4f@
CONST	SEGMENT
??_C@_0BC@LDICFFJG@glMultiTexCoord4f@ DB 'glMultiTexCoord4f', 00H ; `string'
CONST	ENDS
;	COMDAT ??_C@_0O@LHKDNPKJ@glMultMatrixf@
CONST	SEGMENT
??_C@_0O@LHKDNPKJ@glMultMatrixf@ DB 'glMultMatrixf', 00H ; `string'
CONST	ENDS
;	COMDAT ??_C@_0N@MHPKDGG@glMaterialfv@
CONST	SEGMENT
??_C@_0N@MHPKDGG@glMaterialfv@ DB 'glMaterialfv', 00H	; `string'
CONST	ENDS
;	COMDAT ??_C@_0M@HANOIKMC@glMaterialf@
CONST	SEGMENT
??_C@_0M@HANOIKMC@glMaterialf@ DB 'glMaterialf', 00H	; `string'
CONST	ENDS
;	COMDAT ??_C@_0O@DJGBMGEI@glLoadMatrixf@
CONST	SEGMENT
??_C@_0O@DJGBMGEI@glLoadMatrixf@ DB 'glLoadMatrixf', 00H ; `string'
CONST	ENDS
;	COMDAT ??_C@_09JINEHJOD@glLightfv@
CONST	SEGMENT
??_C@_09JINEHJOD@glLightfv@ DB 'glLightfv', 00H		; `string'
CONST	ENDS
;	COMDAT ??_C@_08LPDPILEL@glLightf@
CONST	SEGMENT
??_C@_08LPDPILEL@glLightf@ DB 'glLightf', 00H		; `string'
CONST	ENDS
;	COMDAT ??_C@_0P@JKHJPMNC@glLightModelfv@
CONST	SEGMENT
??_C@_0P@JKHJPMNC@glLightModelfv@ DB 'glLightModelfv', 00H ; `string'
CONST	ENDS
;	COMDAT ??_C@_0O@HPCJLAII@glLightModelf@
CONST	SEGMENT
??_C@_0O@HPCJLAII@glLightModelf@ DB 'glLightModelf', 00H ; `string'
CONST	ENDS
;	COMDAT ??_C@_0O@KDAJGFCL@glGetTexEnvfv@
CONST	SEGMENT
??_C@_0O@KDAJGFCL@glGetTexEnvfv@ DB 'glGetTexEnvfv', 00H ; `string'
CONST	ENDS
;	COMDAT ??_C@_0BA@GCPPEEDM@glGetMaterialfv@
CONST	SEGMENT
??_C@_0BA@GCPPEEDM@glGetMaterialfv@ DB 'glGetMaterialfv', 00H ; `string'
CONST	ENDS
;	COMDAT ??_C@_0N@MGGMJGKA@glGetLightfv@
CONST	SEGMENT
??_C@_0N@MGGMJGKA@glGetLightfv@ DB 'glGetLightfv', 00H	; `string'
CONST	ENDS
;	COMDAT ??_C@_0BA@EGMBKDGG@glGetClipPlanef@
CONST	SEGMENT
??_C@_0BA@EGMBKDGG@glGetClipPlanef@ DB 'glGetClipPlanef', 00H ; `string'
CONST	ENDS
;	COMDAT ??_C@_0L@HFEMMHCG@glFrustumf@
CONST	SEGMENT
??_C@_0L@HFEMMHCG@glFrustumf@ DB 'glFrustumf', 00H	; `string'
CONST	ENDS
;	COMDAT ??_C@_07FNEIAABA@glFogfv@
CONST	SEGMENT
??_C@_07FNEIAABA@glFogfv@ DB 'glFogfv', 00H		; `string'
CONST	ENDS
;	COMDAT ??_C@_06JJHNMGPD@glFogf@
CONST	SEGMENT
??_C@_06JJHNMGPD@glFogf@ DB 'glFogf', 00H		; `string'
CONST	ENDS
;	COMDAT ??_C@_09PKFCMFPF@glColor4f@
CONST	SEGMENT
??_C@_09PKFCMFPF@glColor4f@ DB 'glColor4f', 00H		; `string'
CONST	ENDS
;	COMDAT ??_C@_0N@CIEBEEDM@glClipPlanef@
CONST	SEGMENT
??_C@_0N@CIEBEEDM@glClipPlanef@ DB 'glClipPlanef', 00H	; `string'
CONST	ENDS
;	COMDAT ??_C@_0M@BJGLMKCC@glAlphaFunc@
CONST	SEGMENT
??_C@_0M@BJGLMKCC@glAlphaFunc@ DB 'glAlphaFunc', 00H	; `string'
CONST	ENDS
;	COMDAT ??_C@_05KBEOJPB@?$CFd?4?$CFd@
CONST	SEGMENT
??_C@_05KBEOJPB@?$CFd?4?$CFd@ DB '%d.%d', 00H		; `string'
CONST	ENDS
;	COMDAT ??_C@_0L@JLFHOCGA@OpenGL?5ES?5@
CONST	SEGMENT
??_C@_0L@JLFHOCGA@OpenGL?5ES?5@ DB 'OpenGL ES ', 00H	; `string'
CONST	ENDS
;	COMDAT ??_C@_0O@EMKFPNOG@OpenGL?5ES?9CL?5@
CONST	SEGMENT
??_C@_0O@EMKFPNOG@OpenGL?5ES?9CL?5@ DB 'OpenGL ES-CL ', 00H ; `string'
CONST	ENDS
;	COMDAT ??_C@_0O@ENGHJHNB@OpenGL?5ES?9CM?5@
CONST	SEGMENT
??_C@_0O@ENGHJHNB@OpenGL?5ES?9CM?5@ DB 'OpenGL ES-CM ', 00H ; `string'
CONST	ENDS
;	COMDAT ??_C@_0BF@ECLDHBOO@glPolygonOffsetClamp@
CONST	SEGMENT
??_C@_0BF@ECLDHBOO@glPolygonOffsetClamp@ DB 'glPolygonOffsetClamp', 00H ; `string'
CONST	ENDS
;	COMDAT ??_C@_0CB@BPEMAMPH@glMultiDrawElementsIndirectCoun@
CONST	SEGMENT
??_C@_0CB@BPEMAMPH@glMultiDrawElementsIndirectCoun@ DB 'glMultiDrawElemen'
	DB	'tsIndirectCount', 00H			; `string'
CONST	ENDS
;	COMDAT ??_C@_0BP@GGIOCPJI@glMultiDrawArraysIndirectCount@
CONST	SEGMENT
??_C@_0BP@GGIOCPJI@glMultiDrawArraysIndirectCount@ DB 'glMultiDrawArraysI'
	DB	'ndirectCount', 00H				; `string'
CONST	ENDS
;	COMDAT ??_C@_0BD@LNCLLNDI@glSpecializeShader@
CONST	SEGMENT
??_C@_0BD@LNCLLNDI@glSpecializeShader@ DB 'glSpecializeShader', 00H ; `string'
CONST	ENDS
;	COMDAT ??_C@_0BB@MNKDFGFC@glTextureBarrier@
CONST	SEGMENT
??_C@_0BB@MNKDFGFC@glTextureBarrier@ DB 'glTextureBarrier', 00H ; `string'
CONST	ENDS
;	COMDAT ??_C@_0N@EFFKFJMK@glGetnMinmax@
CONST	SEGMENT
??_C@_0N@EFFKFJMK@glGetnMinmax@ DB 'glGetnMinmax', 00H	; `string'
CONST	ENDS
;	COMDAT ??_C@_0BA@POEMGEO@glGetnHistogram@
CONST	SEGMENT
??_C@_0BA@POEMGEO@glGetnHistogram@ DB 'glGetnHistogram', 00H ; `string'
CONST	ENDS
;	COMDAT ??_C@_0BG@LBKKJBFC@glGetnSeparableFilter@
CONST	SEGMENT
??_C@_0BG@LBKKJBFC@glGetnSeparableFilter@ DB 'glGetnSeparableFilter', 00H ; `string'
CONST	ENDS
;	COMDAT ??_C@_0BI@GBFNHONB@glGetnConvolutionFilter@
CONST	SEGMENT
??_C@_0BI@GBFNHONB@glGetnConvolutionFilter@ DB 'glGetnConvolutionFilter', 00H ; `string'
CONST	ENDS
;	COMDAT ??_C@_0BB@EFKGOAOL@glGetnColorTable@
CONST	SEGMENT
??_C@_0BB@EFKGOAOL@glGetnColorTable@ DB 'glGetnColorTable', 00H ; `string'
CONST	ENDS
;	COMDAT ??_C@_0BF@NBHIHHJA@glGetnPolygonStipple@
CONST	SEGMENT
??_C@_0BF@NBHIHHJA@glGetnPolygonStipple@ DB 'glGetnPolygonStipple', 00H ; `string'
CONST	ENDS
;	COMDAT ??_C@_0BC@NCENOEBC@glGetnPixelMapusv@
CONST	SEGMENT
??_C@_0BC@NCENOEBC@glGetnPixelMapusv@ DB 'glGetnPixelMapusv', 00H ; `string'
CONST	ENDS
;	COMDAT ??_C@_0BC@MDPMMCLE@glGetnPixelMapuiv@
CONST	SEGMENT
??_C@_0BC@MDPMMCLE@glGetnPixelMapuiv@ DB 'glGetnPixelMapuiv', 00H ; `string'
CONST	ENDS
;	COMDAT ??_C@_0BB@JKBANCED@glGetnPixelMapfv@
CONST	SEGMENT
??_C@_0BB@JKBANCED@glGetnPixelMapfv@ DB 'glGetnPixelMapfv', 00H ; `string'
CONST	ENDS
;	COMDAT ??_C@_0M@FJOHABAE@glGetnMapiv@
CONST	SEGMENT
??_C@_0M@FJOHABAE@glGetnMapiv@ DB 'glGetnMapiv', 00H	; `string'
CONST	ENDS
;	COMDAT ??_C@_0M@FCLLEGDJ@glGetnMapfv@
CONST	SEGMENT
??_C@_0M@FCLLEGDJ@glGetnMapfv@ DB 'glGetnMapfv', 00H	; `string'
CONST	ENDS
;	COMDAT ??_C@_0M@FBDPJCFH@glGetnMapdv@
CONST	SEGMENT
??_C@_0M@FBDPJCFH@glGetnMapdv@ DB 'glGetnMapdv', 00H	; `string'
CONST	ENDS
;	COMDAT ??_C@_0O@NELODAJJ@glReadnPixels@
CONST	SEGMENT
??_C@_0O@NELODAJJ@glReadnPixels@ DB 'glReadnPixels', 00H ; `string'
CONST	ENDS
;	COMDAT ??_C@_0BB@BBJMBEC@glGetnUniformuiv@
CONST	SEGMENT
??_C@_0BB@BBJMBEC@glGetnUniformuiv@ DB 'glGetnUniformuiv', 00H ; `string'
CONST	ENDS
;	COMDAT ??_C@_0BA@KDLAMEMC@glGetnUniformiv@
CONST	SEGMENT
??_C@_0BA@KDLAMEMC@glGetnUniformiv@ DB 'glGetnUniformiv', 00H ; `string'
CONST	ENDS
;	COMDAT ??_C@_0BA@KIOMIDPP@glGetnUniformfv@
CONST	SEGMENT
??_C@_0BA@KIOMIDPP@glGetnUniformfv@ DB 'glGetnUniformfv', 00H ; `string'
CONST	ENDS
;	COMDAT ??_C@_0BA@KLGIFHJB@glGetnUniformdv@
CONST	SEGMENT
??_C@_0BA@KLGIFHJB@glGetnUniformdv@ DB 'glGetnUniformdv', 00H ; `string'
CONST	ENDS
;	COMDAT ??_C@_0P@FBKOCLCM@glGetnTexImage@
CONST	SEGMENT
??_C@_0P@FBKOCLCM@glGetnTexImage@ DB 'glGetnTexImage', 00H ; `string'
CONST	ENDS
;	COMDAT ??_C@_0BJ@HLNIHAOG@glGetnCompressedTexImage@
CONST	SEGMENT
??_C@_0BJ@HLNIHAOG@glGetnCompressedTexImage@ DB 'glGetnCompressedTexImage'
	DB	00H						; `string'
CONST	ENDS
;	COMDAT ??_C@_0BJ@ILPAOCDN@glGetGraphicsResetStatus@
CONST	SEGMENT
??_C@_0BJ@ILPAOCDN@glGetGraphicsResetStatus@ DB 'glGetGraphicsResetStatus'
	DB	00H						; `string'
CONST	ENDS
;	COMDAT ??_C@_0BP@BIDENANP@glGetCompressedTextureSubImage@
CONST	SEGMENT
??_C@_0BP@BIDENANP@glGetCompressedTextureSubImage@ DB 'glGetCompressedTex'
	DB	'tureSubImage', 00H				; `string'
CONST	ENDS
;	COMDAT ??_C@_0BF@JEEEKNGB@glGetTextureSubImage@
CONST	SEGMENT
??_C@_0BF@JEEEKNGB@glGetTextureSubImage@ DB 'glGetTextureSubImage', 00H ; `string'
CONST	ENDS
;	COMDAT ??_C@_0BI@IDCHHHAI@glMemoryBarrierByRegion@
CONST	SEGMENT
??_C@_0BI@IDCHHHAI@glMemoryBarrierByRegion@ DB 'glMemoryBarrierByRegion', 00H ; `string'
CONST	ENDS
;	COMDAT ??_C@_0BK@EOIEAGAD@glGetQueryBufferObjectuiv@
CONST	SEGMENT
??_C@_0BK@EOIEAGAD@glGetQueryBufferObjectuiv@ DB 'glGetQueryBufferObjectu'
	DB	'iv', 00H					; `string'
CONST	ENDS
;	COMDAT ??_C@_0BM@DFNHDHD@glGetQueryBufferObjectui64v@
CONST	SEGMENT
??_C@_0BM@DFNHDHD@glGetQueryBufferObjectui64v@ DB 'glGetQueryBufferObject'
	DB	'ui64v', 00H					; `string'
CONST	ENDS
;	COMDAT ??_C@_0BJ@OBIFNHGB@glGetQueryBufferObjectiv@
CONST	SEGMENT
??_C@_0BJ@OBIFNHGB@glGetQueryBufferObjectiv@ DB 'glGetQueryBufferObjectiv'
	DB	00H						; `string'
CONST	ENDS
;	COMDAT ??_C@_0BL@KFECDHBF@glGetQueryBufferObjecti64v@
CONST	SEGMENT
??_C@_0BL@KFECDHBF@glGetQueryBufferObjecti64v@ DB 'glGetQueryBufferObject'
	DB	'i64v', 00H					; `string'
CONST	ENDS
;	COMDAT ??_C@_0BA@PGNDPLG@glCreateQueries@
CONST	SEGMENT
??_C@_0BA@PGNDPLG@glCreateQueries@ DB 'glCreateQueries', 00H ; `string'
CONST	ENDS
;	COMDAT ??_C@_0BJ@GJEEIMGK@glCreateProgramPipelines@
CONST	SEGMENT
??_C@_0BJ@GJEEIMGK@glCreateProgramPipelines@ DB 'glCreateProgramPipelines'
	DB	00H						; `string'
CONST	ENDS
;	COMDAT ??_C@_0BB@EHBNEMMP@glCreateSamplers@
CONST	SEGMENT
??_C@_0BB@EHBNEMMP@glCreateSamplers@ DB 'glCreateSamplers', 00H ; `string'
CONST	ENDS
;	COMDAT ??_C@_0BM@HHNNHCN@glGetVertexArrayIndexed64iv@
CONST	SEGMENT
??_C@_0BM@HHNNHCN@glGetVertexArrayIndexed64iv@ DB 'glGetVertexArrayIndexe'
	DB	'd64iv', 00H					; `string'
CONST	ENDS
;	COMDAT ??_C@_0BK@FIIPMDBK@glGetVertexArrayIndexediv@
CONST	SEGMENT
??_C@_0BK@FIIPMDBK@glGetVertexArrayIndexediv@ DB 'glGetVertexArrayIndexed'
	DB	'iv', 00H					; `string'
CONST	ENDS
;	COMDAT ??_C@_0BD@CPJNCJFG@glGetVertexArrayiv@
CONST	SEGMENT
??_C@_0BD@CPJNCJFG@glGetVertexArrayiv@ DB 'glGetVertexArrayiv', 00H ; `string'
CONST	ENDS
;	COMDAT ??_C@_0BM@BNDNIOBB@glVertexArrayBindingDivisor@
CONST	SEGMENT
??_C@_0BM@BNDNIOBB@glVertexArrayBindingDivisor@ DB 'glVertexArrayBindingD'
	DB	'ivisor', 00H				; `string'
CONST	ENDS
;	COMDAT ??_C@_0BL@NECLHPFJ@glVertexArrayAttribLFormat@
CONST	SEGMENT
??_C@_0BL@NECLHPFJ@glVertexArrayAttribLFormat@ DB 'glVertexArrayAttribLFo'
	DB	'rmat', 00H					; `string'
CONST	ENDS
;	COMDAT ??_C@_0BL@JMMLHBDN@glVertexArrayAttribIFormat@
CONST	SEGMENT
??_C@_0BL@JMMLHBDN@glVertexArrayAttribIFormat@ DB 'glVertexArrayAttribIFo'
	DB	'rmat', 00H					; `string'
CONST	ENDS
;	COMDAT ??_C@_0BK@ONFBAOHM@glVertexArrayAttribFormat@
CONST	SEGMENT
??_C@_0BK@ONFBAOHM@glVertexArrayAttribFormat@ DB 'glVertexArrayAttribForm'
	DB	'at', 00H					; `string'
CONST	ENDS
;	COMDAT ??_C@_0BL@DJHJAEGB@glVertexArrayAttribBinding@
CONST	SEGMENT
??_C@_0BL@DJHJAEGB@glVertexArrayAttribBinding@ DB 'glVertexArrayAttribBin'
	DB	'ding', 00H					; `string'
CONST	ENDS
;	COMDAT ??_C@_0BL@DAGELPBO@glVertexArrayVertexBuffers@
CONST	SEGMENT
??_C@_0BL@DAGELPBO@glVertexArrayVertexBuffers@ DB 'glVertexArrayVertexBuf'
	DB	'fers', 00H					; `string'
CONST	ENDS
;	COMDAT ??_C@_0BK@BIEMNHGJ@glVertexArrayVertexBuffer@
CONST	SEGMENT
??_C@_0BK@BIEMNHGJ@glVertexArrayVertexBuffer@ DB 'glVertexArrayVertexBuff'
	DB	'er', 00H					; `string'
CONST	ENDS
;	COMDAT ??_C@_0BL@GGCAPDMO@glVertexArrayElementBuffer@
CONST	SEGMENT
??_C@_0BL@GGCAPDMO@glVertexArrayElementBuffer@ DB 'glVertexArrayElementBu'
	DB	'ffer', 00H					; `string'
CONST	ENDS
;	COMDAT ??_C@_0BK@MJMKFCHC@glEnableVertexArrayAttrib@
CONST	SEGMENT
??_C@_0BK@MJMKFCHC@glEnableVertexArrayAttrib@ DB 'glEnableVertexArrayAttr'
	DB	'ib', 00H					; `string'
CONST	ENDS
;	COMDAT ??_C@_0BL@FEKBMKFD@glDisableVertexArrayAttrib@
CONST	SEGMENT
??_C@_0BL@FEKBMKFD@glDisableVertexArrayAttrib@ DB 'glDisableVertexArrayAt'
	DB	'trib', 00H					; `string'
CONST	ENDS
;	COMDAT ??_C@_0BF@CMMGIOCI@glCreateVertexArrays@
CONST	SEGMENT
??_C@_0BF@CMMGIOCI@glCreateVertexArrays@ DB 'glCreateVertexArrays', 00H ; `string'
CONST	ENDS
;	COMDAT ??_C@_0BI@NKGDDAKK@glGetTextureParameteriv@
CONST	SEGMENT
??_C@_0BI@NKGDDAKK@glGetTextureParameteriv@ DB 'glGetTextureParameteriv', 00H ; `string'
CONST	ENDS
;	COMDAT ??_C@_0BK@JPCGBAJJ@glGetTextureParameterIuiv@
CONST	SEGMENT
??_C@_0BK@JPCGBAJJ@glGetTextureParameterIuiv@ DB 'glGetTextureParameterIu'
	DB	'iv', 00H					; `string'
CONST	ENDS
;	COMDAT ??_C@_0BJ@PIPELMMF@glGetTextureParameterIiv@
CONST	SEGMENT
??_C@_0BJ@PIPELMMF@glGetTextureParameterIiv@ DB 'glGetTextureParameterIiv'
	DB	00H						; `string'
CONST	ENDS
;	COMDAT ??_C@_0BI@NBDPHHJH@glGetTextureParameterfv@
CONST	SEGMENT
??_C@_0BI@NBDPHHJH@glGetTextureParameterfv@ DB 'glGetTextureParameterfv', 00H ; `string'
CONST	ENDS
;	COMDAT ??_C@_0BN@MJIBNBP@glGetTextureLevelParameteriv@
CONST	SEGMENT
??_C@_0BN@MJIBNBP@glGetTextureLevelParameteriv@ DB 'glGetTextureLevelPara'
	DB	'meteriv', 00H				; `string'
CONST	ENDS
;	COMDAT ??_C@_0BN@HMEFKCC@glGetTextureLevelParameterfv@
CONST	SEGMENT
??_C@_0BN@HMEFKCC@glGetTextureLevelParameterfv@ DB 'glGetTextureLevelPara'
	DB	'meterfv', 00H				; `string'
CONST	ENDS
;	COMDAT ??_C@_0BM@JOKODHH@glGetCompressedTextureImage@
CONST	SEGMENT
??_C@_0BM@JOKODHH@glGetCompressedTextureImage@ DB 'glGetCompressedTexture'
	DB	'Image', 00H					; `string'
CONST	ENDS
;	COMDAT ??_C@_0BC@PJDCJNIH@glGetTextureImage@
CONST	SEGMENT
??_C@_0BC@PJDCJNIH@glGetTextureImage@ DB 'glGetTextureImage', 00H ; `string'
CONST	ENDS
;	COMDAT ??_C@_0BC@NKGMGGNI@glBindTextureUnit@
CONST	SEGMENT
??_C@_0BC@NKGMGGNI@glBindTextureUnit@ DB 'glBindTextureUnit', 00H ; `string'
CONST	ENDS
;	COMDAT ??_C@_0BI@JJPLGFEG@glGenerateTextureMipmap@
CONST	SEGMENT
??_C@_0BI@JJPLGFEG@glGenerateTextureMipmap@ DB 'glGenerateTextureMipmap', 00H ; `string'
CONST	ENDS
;	COMDAT ??_C@_0BF@OADAJKMJ@glTextureParameteriv@
CONST	SEGMENT
??_C@_0BF@OADAJKMJ@glTextureParameteriv@ DB 'glTextureParameteriv', 00H ; `string'
CONST	ENDS
;	COMDAT ??_C@_0BH@OHPFFIFI@glTextureParameterIuiv@
CONST	SEGMENT
??_C@_0BH@OHPFFIFI@glTextureParameterIuiv@ DB 'glTextureParameterIuiv', 00H ; `string'
CONST	ENDS
;	COMDAT ??_C@_0BG@CMHFNPIN@glTextureParameterIiv@
CONST	SEGMENT
??_C@_0BG@CMHFNPIN@glTextureParameterIiv@ DB 'glTextureParameterIiv', 00H ; `string'
CONST	ENDS
;	COMDAT ??_C@_0BE@FMBFADAD@glTextureParameteri@
CONST	SEGMENT
??_C@_0BE@FMBFADAD@glTextureParameteri@ DB 'glTextureParameteri', 00H ; `string'
CONST	ENDS
;	COMDAT ??_C@_0BF@OLGMNNPE@glTextureParameterfv@
CONST	SEGMENT
??_C@_0BF@OLGMNNPE@glTextureParameterfv@ DB 'glTextureParameterfv', 00H ; `string'
CONST	ENDS
;	COMDAT ??_C@_0BE@NLINBPMM@glTextureParameterf@
CONST	SEGMENT
??_C@_0BE@NLINBPMM@glTextureParameterf@ DB 'glTextureParameterf', 00H ; `string'
CONST	ENDS
;	COMDAT ??_C@_0BI@DCMOCKNA@glCopyTextureSubImage3D@
CONST	SEGMENT
??_C@_0BI@DCMOCKNA@glCopyTextureSubImage3D@ DB 'glCopyTextureSubImage3D', 00H ; `string'
CONST	ENDS
;	COMDAT ??_C@_0BI@DDAMEAOH@glCopyTextureSubImage2D@
CONST	SEGMENT
??_C@_0BI@DDAMEAOH@glCopyTextureSubImage2D@ DB 'glCopyTextureSubImage2D', 00H ; `string'
CONST	ENDS
;	COMDAT ??_C@_0BI@DBEKPOLO@glCopyTextureSubImage1D@
CONST	SEGMENT
??_C@_0BI@DBEKPOLO@glCopyTextureSubImage1D@ DB 'glCopyTextureSubImage1D', 00H ; `string'
CONST	ENDS
;	COMDAT ??_C@_0BO@NLPEFDDM@glCompressedTextureSubImage3D@
CONST	SEGMENT
??_C@_0BO@NLPEFDDM@glCompressedTextureSubImage3D@ DB 'glCompressedTexture'
	DB	'SubImage3D', 00H				; `string'
CONST	ENDS
;	COMDAT ??_C@_0BO@NKDGDJAL@glCompressedTextureSubImage2D@
CONST	SEGMENT
??_C@_0BO@NKDGDJAL@glCompressedTextureSubImage2D@ DB 'glCompressedTexture'
	DB	'SubImage2D', 00H				; `string'
CONST	ENDS
;	COMDAT ??_C@_0BO@NIHAIHFC@glCompressedTextureSubImage1D@
CONST	SEGMENT
??_C@_0BO@NIHAIHFC@glCompressedTextureSubImage1D@ DB 'glCompressedTexture'
	DB	'SubImage1D', 00H				; `string'
CONST	ENDS
;	COMDAT ??_C@_0BE@IAECGNFO@glTextureSubImage3D@
CONST	SEGMENT
??_C@_0BE@IAECGNFO@glTextureSubImage3D@ DB 'glTextureSubImage3D', 00H ; `string'
CONST	ENDS
;	COMDAT ??_C@_0BE@IBIAAHGJ@glTextureSubImage2D@
CONST	SEGMENT
??_C@_0BE@IBIAAHGJ@glTextureSubImage2D@ DB 'glTextureSubImage2D', 00H ; `string'
CONST	ENDS
;	COMDAT ??_C@_0BE@IDMGLJDA@glTextureSubImage1D@
CONST	SEGMENT
??_C@_0BE@IDMGLJDA@glTextureSubImage1D@ DB 'glTextureSubImage1D', 00H ; `string'
CONST	ENDS
;	COMDAT ??_C@_0BO@LFHOCIJO@glTextureStorage3DMultisample@
CONST	SEGMENT
??_C@_0BO@LFHOCIJO@glTextureStorage3DMultisample@ DB 'glTextureStorage3DM'
	DB	'ultisample', 00H				; `string'
CONST	ENDS
;	COMDAT ??_C@_0BO@CIHBMJOI@glTextureStorage2DMultisample@
CONST	SEGMENT
??_C@_0BO@CIHBMJOI@glTextureStorage2DMultisample@ DB 'glTextureStorage2DM'
	DB	'ultisample', 00H				; `string'
CONST	ENDS
;	COMDAT ??_C@_0BD@CKGFKAEF@glTextureStorage3D@
CONST	SEGMENT
??_C@_0BD@CKGFKAEF@glTextureStorage3D@ DB 'glTextureStorage3D', 00H ; `string'
CONST	ENDS
;	COMDAT ??_C@_0BD@CLKHMKHC@glTextureStorage2D@
CONST	SEGMENT
??_C@_0BD@CLKHMKHC@glTextureStorage2D@ DB 'glTextureStorage2D', 00H ; `string'
CONST	ENDS
;	COMDAT ??_C@_0BD@CJOBHECL@glTextureStorage1D@
CONST	SEGMENT
??_C@_0BD@CJOBHECL@glTextureStorage1D@ DB 'glTextureStorage1D', 00H ; `string'
CONST	ENDS
;	COMDAT ??_C@_0BF@HAEPGPBJ@glTextureBufferRange@
CONST	SEGMENT
??_C@_0BF@HAEPGPBJ@glTextureBufferRange@ DB 'glTextureBufferRange', 00H ; `string'
CONST	ENDS
;	COMDAT ??_C@_0BA@BEJOBNBA@glTextureBuffer@
CONST	SEGMENT
??_C@_0BA@BEJOBNBA@glTextureBuffer@ DB 'glTextureBuffer', 00H ; `string'
CONST	ENDS
;	COMDAT ??_C@_0BB@LABGPBKD@glCreateTextures@
CONST	SEGMENT
??_C@_0BB@LABGPBKD@glCreateTextures@ DB 'glCreateTextures', 00H ; `string'
CONST	ENDS
;	COMDAT ??_C@_0CC@FCEAEAHI@glGetNamedRenderbufferParameter@
CONST	SEGMENT
??_C@_0CC@FCEAEAHI@glGetNamedRenderbufferParameter@ DB 'glGetNamedRenderb'
	DB	'ufferParameteriv', 00H			; `string'
CONST	ENDS
;	COMDAT ??_C@_0CG@IDKJGKBA@glNamedRenderbufferStorageMulti@
CONST	SEGMENT
??_C@_0CG@IDKJGKBA@glNamedRenderbufferStorageMulti@ DB 'glNamedRenderbuff'
	DB	'erStorageMultisample', 00H			; `string'
CONST	ENDS
;	COMDAT ??_C@_0BL@DGDPFKGM@glNamedRenderbufferStorage@
CONST	SEGMENT
??_C@_0BL@DGDPFKGM@glNamedRenderbufferStorage@ DB 'glNamedRenderbufferSto'
	DB	'rage', 00H					; `string'
CONST	ENDS
;	COMDAT ??_C@_0BG@JJNJGAME@glCreateRenderbuffers@
CONST	SEGMENT
??_C@_0BG@JJNJGAME@glCreateRenderbuffers@ DB 'glCreateRenderbuffers', 00H ; `string'
CONST	ENDS
;	COMDAT ??_C@_0CL@BGDPEPCC@glGetNamedFramebufferAttachment@
CONST	SEGMENT
??_C@_0CL@BGDPEPCC@glGetNamedFramebufferAttachment@ DB 'glGetNamedFramebu'
	DB	'fferAttachmentParameteriv', 00H		; `string'
CONST	ENDS
;	COMDAT ??_C@_0CB@COGAJBEM@glGetNamedFramebufferParameteri@
CONST	SEGMENT
??_C@_0CB@COGAJBEM@glGetNamedFramebufferParameteri@ DB 'glGetNamedFramebu'
	DB	'fferParameteriv', 00H			; `string'
CONST	ENDS
;	COMDAT ??_C@_0BO@LMABFPGK@glCheckNamedFramebufferStatus@
CONST	SEGMENT
??_C@_0BO@LMABFPGK@glCheckNamedFramebufferStatus@ DB 'glCheckNamedFramebu'
	DB	'fferStatus', 00H				; `string'
CONST	ENDS
;	COMDAT ??_C@_0BH@FNFDNHAI@glBlitNamedFramebuffer@
CONST	SEGMENT
??_C@_0BH@FNFDNHAI@glBlitNamedFramebuffer@ DB 'glBlitNamedFramebuffer', 00H ; `string'
CONST	ENDS
;	COMDAT ??_C@_0BK@BJONNAKJ@glClearNamedFramebufferfi@
CONST	SEGMENT
??_C@_0BK@BJONNAKJ@glClearNamedFramebufferfi@ DB 'glClearNamedFramebuffer'
	DB	'fi', 00H					; `string'
CONST	ENDS
;	COMDAT ??_C@_0BK@NELHNODH@glClearNamedFramebufferfv@
CONST	SEGMENT
??_C@_0BK@NELHNODH@glClearNamedFramebufferfv@ DB 'glClearNamedFramebuffer'
	DB	'fv', 00H					; `string'
CONST	ENDS
;	COMDAT ??_C@_0BL@JENKNAJN@glClearNamedFramebufferuiv@
CONST	SEGMENT
??_C@_0BL@JENKNAJN@glClearNamedFramebufferuiv@ DB 'glClearNamedFramebuffe'
	DB	'ruiv', 00H					; `string'
CONST	ENDS
;	COMDAT ??_C@_0BK@NPOLJJAK@glClearNamedFramebufferiv@
CONST	SEGMENT
??_C@_0BK@NPOLJJAK@glClearNamedFramebufferiv@ DB 'glClearNamedFramebuffer'
	DB	'iv', 00H					; `string'
CONST	ENDS
;	COMDAT ??_C@_0CE@DEGDCFND@glInvalidateNamedFramebufferSub@
CONST	SEGMENT
??_C@_0CE@DEGDCFND@glInvalidateNamedFramebufferSub@ DB 'glInvalidateNamed'
	DB	'FramebufferSubData', 00H			; `string'
CONST	ENDS
;	COMDAT ??_C@_0CB@OGGNKJIL@glInvalidateNamedFramebufferDat@
CONST	SEGMENT
??_C@_0CB@OGGNKJIL@glInvalidateNamedFramebufferDat@ DB 'glInvalidateNamed'
	DB	'FramebufferData', 00H			; `string'
CONST	ENDS
;	COMDAT ??_C@_0BN@LPANNPJE@glNamedFramebufferReadBuffer@
CONST	SEGMENT
??_C@_0BN@LPANNPJE@glNamedFramebufferReadBuffer@ DB 'glNamedFramebufferRe'
	DB	'adBuffer', 00H				; `string'
CONST	ENDS
;	COMDAT ??_C@_0BO@CGKJHFH@glNamedFramebufferDrawBuffers@
CONST	SEGMENT
??_C@_0BO@CGKJHFH@glNamedFramebufferDrawBuffers@ DB 'glNamedFramebufferDr'
	DB	'awBuffers', 00H				; `string'
CONST	ENDS
;	COMDAT ??_C@_0BN@MOAIHNEF@glNamedFramebufferDrawBuffer@
CONST	SEGMENT
??_C@_0BN@MOAIHNEF@glNamedFramebufferDrawBuffer@ DB 'glNamedFramebufferDr'
	DB	'awBuffer', 00H				; `string'
CONST	ENDS
;	COMDAT ??_C@_0BP@PHGPDAJM@glNamedFramebufferTextureLayer@
CONST	SEGMENT
??_C@_0BP@PHGPDAJM@glNamedFramebufferTextureLayer@ DB 'glNamedFramebuffer'
	DB	'TextureLayer', 00H				; `string'
CONST	ENDS
;	COMDAT ??_C@_0BK@PNJJLPPI@glNamedFramebufferTexture@
CONST	SEGMENT
??_C@_0BK@PNJJLPPI@glNamedFramebufferTexture@ DB 'glNamedFramebufferTextu'
	DB	're', 00H					; `string'
CONST	ENDS
;	COMDAT ??_C@_0BN@LBMOOIHC@glNamedFramebufferParameteri@
CONST	SEGMENT
??_C@_0BN@LBMOOIHC@glNamedFramebufferParameteri@ DB 'glNamedFramebufferPa'
	DB	'rameteri', 00H				; `string'
CONST	ENDS
;	COMDAT ??_C@_0BP@MGCPNBGC@glNamedFramebufferRenderbuffer@
CONST	SEGMENT
??_C@_0BP@MGCPNBGC@glNamedFramebufferRenderbuffer@ DB 'glNamedFramebuffer'
	DB	'Renderbuffer', 00H				; `string'
CONST	ENDS
;	COMDAT ??_C@_0BF@DDKJIBLC@glCreateFramebuffers@
CONST	SEGMENT
??_C@_0BF@DDKJIBLC@glCreateFramebuffers@ DB 'glCreateFramebuffers', 00H ; `string'
CONST	ENDS
;	COMDAT ??_C@_0BI@PJBCKPNA@glGetNamedBufferSubData@
CONST	SEGMENT
??_C@_0BI@PJBCKPNA@glGetNamedBufferSubData@ DB 'glGetNamedBufferSubData', 00H ; `string'
CONST	ENDS
;	COMDAT ??_C@_0BJ@NBEMEIKG@glGetNamedBufferPointerv@
CONST	SEGMENT
??_C@_0BJ@NBEMEIKG@glGetNamedBufferPointerv@ DB 'glGetNamedBufferPointerv'
	DB	00H						; `string'
CONST	ENDS
;	COMDAT ??_C@_0BO@ECJNIDNL@glGetNamedBufferParameteri64v@
CONST	SEGMENT
??_C@_0BO@ECJNIDNL@glGetNamedBufferParameteri64v@ DB 'glGetNamedBufferPar'
	DB	'ameteri64v', 00H				; `string'
CONST	ENDS
;	COMDAT ??_C@_0BM@KFAGBFPK@glGetNamedBufferParameteriv@
CONST	SEGMENT
??_C@_0BM@KFAGBFPK@glGetNamedBufferParameteriv@ DB 'glGetNamedBufferParam'
	DB	'eteriv', 00H				; `string'
CONST	ENDS
;	COMDAT ??_C@_0BO@DBGNKBKH@glFlushMappedNamedBufferRange@
CONST	SEGMENT
??_C@_0BO@DBGNKBKH@glFlushMappedNamedBufferRange@ DB 'glFlushMappedNamedB'
	DB	'ufferRange', 00H				; `string'
CONST	ENDS
;	COMDAT ??_C@_0BD@LAAONAHD@glUnmapNamedBuffer@
CONST	SEGMENT
??_C@_0BD@LAAONAHD@glUnmapNamedBuffer@ DB 'glUnmapNamedBuffer', 00H ; `string'
CONST	ENDS
;	COMDAT ??_C@_0BG@JLCGKFD@glMapNamedBufferRange@
CONST	SEGMENT
??_C@_0BG@JLCGKFD@glMapNamedBufferRange@ DB 'glMapNamedBufferRange', 00H ; `string'
CONST	ENDS
;	COMDAT ??_C@_0BB@JLMCGIDB@glMapNamedBuffer@
CONST	SEGMENT
??_C@_0BB@JLMCGIDB@glMapNamedBuffer@ DB 'glMapNamedBuffer', 00H ; `string'
CONST	ENDS
;	COMDAT ??_C@_0BK@BNIDNJBH@glClearNamedBufferSubData@
CONST	SEGMENT
??_C@_0BK@BNIDNJBH@glClearNamedBufferSubData@ DB 'glClearNamedBufferSubDa'
	DB	'ta', 00H					; `string'
CONST	ENDS
;	COMDAT ??_C@_0BH@KJMLMCB@glClearNamedBufferData@
CONST	SEGMENT
??_C@_0BH@KJMLMCB@glClearNamedBufferData@ DB 'glClearNamedBufferData', 00H ; `string'
CONST	ENDS
;	COMDAT ??_C@_0BJ@MJPDCHND@glCopyNamedBufferSubData@
CONST	SEGMENT
??_C@_0BJ@MJPDCHND@glCopyNamedBufferSubData@ DB 'glCopyNamedBufferSubData'
	DB	00H						; `string'
CONST	ENDS
;	COMDAT ??_C@_0BF@MDEBAFLD@glNamedBufferSubData@
CONST	SEGMENT
??_C@_0BF@MDEBAFLD@glNamedBufferSubData@ DB 'glNamedBufferSubData', 00H ; `string'
CONST	ENDS
;	COMDAT ??_C@_0BC@LHEABGCG@glNamedBufferData@
CONST	SEGMENT
??_C@_0BC@LHEABGCG@glNamedBufferData@ DB 'glNamedBufferData', 00H ; `string'
CONST	ENDS
;	COMDAT ??_C@_0BF@INMFIINC@glNamedBufferStorage@
CONST	SEGMENT
??_C@_0BF@INMFIINC@glNamedBufferStorage@ DB 'glNamedBufferStorage', 00H ; `string'
CONST	ENDS
;	COMDAT ??_C@_0BA@LNBCEANP@glCreateBuffers@
CONST	SEGMENT
??_C@_0BA@LNBCEANP@glCreateBuffers@ DB 'glCreateBuffers', 00H ; `string'
CONST	ENDS
;	COMDAT ??_C@_0BM@KDHFPNLE@glGetTransformFeedbacki64_v@
CONST	SEGMENT
??_C@_0BM@KDHFPNLE@glGetTransformFeedbacki64_v@ DB 'glGetTransformFeedbac'
	DB	'ki64_v', 00H				; `string'
CONST	ENDS
;	COMDAT ??_C@_0BK@IPHNHFEI@glGetTransformFeedbacki_v@
CONST	SEGMENT
??_C@_0BK@IPHNHFEI@glGetTransformFeedbacki_v@ DB 'glGetTransformFeedbacki'
	DB	'_v', 00H					; `string'
CONST	ENDS
;	COMDAT ??_C@_0BJ@OFMLPMDO@glGetTransformFeedbackiv@
CONST	SEGMENT
??_C@_0BJ@OFMLPMDO@glGetTransformFeedbackiv@ DB 'glGetTransformFeedbackiv'
	DB	00H						; `string'
CONST	ENDS
;	COMDAT ??_C@_0BP@NBIGCNHI@glTransformFeedbackBufferRange@
CONST	SEGMENT
??_C@_0BP@NBIGCNHI@glTransformFeedbackBufferRange@ DB 'glTransformFeedbac'
	DB	'kBufferRange', 00H				; `string'
CONST	ENDS
;	COMDAT ??_C@_0BO@EGLKNJFA@glTransformFeedbackBufferBase@
CONST	SEGMENT
??_C@_0BO@EGLKNJFA@glTransformFeedbackBufferBase@ DB 'glTransformFeedback'
	DB	'BufferBase', 00H				; `string'
CONST	ENDS
;	COMDAT ??_C@_0BL@HPCMJLAK@glCreateTransformFeedbacks@
CONST	SEGMENT
??_C@_0BL@HPCMJLAK@glCreateTransformFeedbacks@ DB 'glCreateTransformFeedb'
	DB	'acks', 00H					; `string'
CONST	ENDS
;	COMDAT ??_C@_0O@DMMKFMGC@glClipControl@
CONST	SEGMENT
??_C@_0O@DMMKFMGC@glClipControl@ DB 'glClipControl', 00H ; `string'
CONST	ENDS
;	COMDAT ??_C@_0BE@LNCGJHDC@glBindVertexBuffers@
CONST	SEGMENT
??_C@_0BE@LNCGJHDC@glBindVertexBuffers@ DB 'glBindVertexBuffers', 00H ; `string'
CONST	ENDS
;	COMDAT ??_C@_0BE@NAMJLOCK@glBindImageTextures@
CONST	SEGMENT
??_C@_0BE@NAMJLOCK@glBindImageTextures@ DB 'glBindImageTextures', 00H ; `string'
CONST	ENDS
;	COMDAT ??_C@_0P@FADPDFKM@glBindSamplers@
CONST	SEGMENT
??_C@_0P@FADPDFKM@glBindSamplers@ DB 'glBindSamplers', 00H ; `string'
CONST	ENDS
;	COMDAT ??_C@_0P@KHDEIIMA@glBindTextures@
CONST	SEGMENT
??_C@_0P@KHDEIIMA@glBindTextures@ DB 'glBindTextures', 00H ; `string'
CONST	ENDS
;	COMDAT ??_C@_0BD@ODFFOKPN@glBindBuffersRange@
CONST	SEGMENT
??_C@_0BD@ODFFOKPN@glBindBuffersRange@ DB 'glBindBuffersRange', 00H ; `string'
CONST	ENDS
;	COMDAT ??_C@_0BC@ENBBLPHM@glBindBuffersBase@
CONST	SEGMENT
??_C@_0BC@ENBBLPHM@glBindBuffersBase@ DB 'glBindBuffersBase', 00H ; `string'
CONST	ENDS
;	COMDAT ??_C@_0BD@CFALBON@glClearTexSubImage@
CONST	SEGMENT
??_C@_0BD@CFALBON@glClearTexSubImage@ DB 'glClearTexSubImage', 00H ; `string'
CONST	ENDS
;	COMDAT ??_C@_0BA@FNPOIBAF@glClearTexImage@
CONST	SEGMENT
??_C@_0BA@FNPOIBAF@glClearTexImage@ DB 'glClearTexImage', 00H ; `string'
CONST	ENDS
;	COMDAT ??_C@_0BA@COBILMHM@glBufferStorage@
CONST	SEGMENT
??_C@_0BA@COBILMHM@glBufferStorage@ DB 'glBufferStorage', 00H ; `string'
CONST	ENDS
;	COMDAT ??_C@_0O@LADEDGJO@glGetPointerv@
CONST	SEGMENT
??_C@_0O@LADEDGJO@glGetPointerv@ DB 'glGetPointerv', 00H ; `string'
CONST	ENDS
;	COMDAT ??_C@_0BE@MIJFJOHM@glGetObjectPtrLabel@
CONST	SEGMENT
??_C@_0BE@MIJFJOHM@glGetObjectPtrLabel@ DB 'glGetObjectPtrLabel', 00H ; `string'
CONST	ENDS
;	COMDAT ??_C@_0BB@FBABGDIL@glObjectPtrLabel@
CONST	SEGMENT
??_C@_0BB@FBABGDIL@glObjectPtrLabel@ DB 'glObjectPtrLabel', 00H ; `string'
CONST	ENDS
;	COMDAT ??_C@_0BB@MOEDHKDB@glGetObjectLabel@
CONST	SEGMENT
??_C@_0BB@MOEDHKDB@glGetObjectLabel@ DB 'glGetObjectLabel', 00H ; `string'
CONST	ENDS
;	COMDAT ??_C@_0O@EFJDECDM@glObjectLabel@
CONST	SEGMENT
??_C@_0O@EFJDECDM@glObjectLabel@ DB 'glObjectLabel', 00H ; `string'
CONST	ENDS
;	COMDAT ??_C@_0BA@PMJBDENK@glPopDebugGroup@
CONST	SEGMENT
??_C@_0BA@PMJBDENK@glPopDebugGroup@ DB 'glPopDebugGroup', 00H ; `string'
CONST	ENDS
;	COMDAT ??_C@_0BB@DEFFBEGJ@glPushDebugGroup@
CONST	SEGMENT
??_C@_0BB@DEFFBEGJ@glPushDebugGroup@ DB 'glPushDebugGroup', 00H ; `string'
CONST	ENDS
;	COMDAT ??_C@_0BF@FGBMJKND@glGetDebugMessageLog@
CONST	SEGMENT
??_C@_0BF@FGBMJKND@glGetDebugMessageLog@ DB 'glGetDebugMessageLog', 00H ; `string'
CONST	ENDS
;	COMDAT ??_C@_0BH@IGFENJCI@glDebugMessageCallback@
CONST	SEGMENT
??_C@_0BH@IGFENJCI@glDebugMessageCallback@ DB 'glDebugMessageCallback', 00H ; `string'
CONST	ENDS
;	COMDAT ??_C@_0BF@DGOJNFDO@glDebugMessageInsert@
CONST	SEGMENT
??_C@_0BF@DGOJNFDO@glDebugMessageInsert@ DB 'glDebugMessageInsert', 00H ; `string'
CONST	ENDS
;	COMDAT ??_C@_0BG@MNBDCEEP@glDebugMessageControl@
CONST	SEGMENT
??_C@_0BG@MNBDCEEP@glDebugMessageControl@ DB 'glDebugMessageControl', 00H ; `string'
CONST	ENDS
;	COMDAT ??_C@_0BH@GNGCLGOI@glVertexBindingDivisor@
CONST	SEGMENT
??_C@_0BH@GNGCLGOI@glVertexBindingDivisor@ DB 'glVertexBindingDivisor', 00H ; `string'
CONST	ENDS
;	COMDAT ??_C@_0BG@MLFHCGE@glVertexAttribBinding@
CONST	SEGMENT
??_C@_0BG@MLFHCGE@glVertexAttribBinding@ DB 'glVertexAttribBinding', 00H ; `string'
CONST	ENDS
;	COMDAT ??_C@_0BG@OBOHAJFM@glVertexAttribLFormat@
CONST	SEGMENT
??_C@_0BG@OBOHAJFM@glVertexAttribLFormat@ DB 'glVertexAttribLFormat', 00H ; `string'
CONST	ENDS
;	COMDAT ??_C@_0BG@KJAHAHDI@glVertexAttribIFormat@
CONST	SEGMENT
??_C@_0BG@KJAHAHDI@glVertexAttribIFormat@ DB 'glVertexAttribIFormat', 00H ; `string'
CONST	ENDS
;	COMDAT ??_C@_0BF@JEIPPBFE@glVertexAttribFormat@
CONST	SEGMENT
??_C@_0BF@JEIPPBFE@glVertexAttribFormat@ DB 'glVertexAttribFormat', 00H ; `string'
CONST	ENDS
;	COMDAT ??_C@_0BD@FCGJAOHG@glBindVertexBuffer@
CONST	SEGMENT
??_C@_0BD@FCGJAOHG@glBindVertexBuffer@ DB 'glBindVertexBuffer', 00H ; `string'
CONST	ENDS
;	COMDAT ??_C@_0O@BNFDGIMP@glTextureView@
CONST	SEGMENT
??_C@_0O@BNFDGIMP@glTextureView@ DB 'glTextureView', 00H ; `string'
CONST	ENDS
;	COMDAT ??_C@_0BK@GOJPECNJ@glTexStorage3DMultisample@
CONST	SEGMENT
??_C@_0BK@GOJPECNJ@glTexStorage3DMultisample@ DB 'glTexStorage3DMultisamp'
	DB	'le', 00H					; `string'
CONST	ENDS
;	COMDAT ??_C@_0BK@PDJAKDKP@glTexStorage2DMultisample@
CONST	SEGMENT
??_C@_0BK@PDJAKDKP@glTexStorage2DMultisample@ DB 'glTexStorage2DMultisamp'
	DB	'le', 00H					; `string'
CONST	ENDS
;	COMDAT ??_C@_0BB@DPMGLFNI@glTexBufferRange@
CONST	SEGMENT
??_C@_0BB@DPMGLFNI@glTexBufferRange@ DB 'glTexBufferRange', 00H ; `string'
CONST	ENDS
;	COMDAT ??_C@_0BM@GDDCNIBO@glShaderStorageBlockBinding@
CONST	SEGMENT
??_C@_0BM@GDDCNIBO@glShaderStorageBlockBinding@ DB 'glShaderStorageBlockB'
	DB	'inding', 00H				; `string'
CONST	ENDS
;	COMDAT ??_C@_0CC@GHECGAIH@glGetProgramResourceLocationInd@
CONST	SEGMENT
??_C@_0CC@GHECGAIH@glGetProgramResourceLocationInd@ DB 'glGetProgramResou'
	DB	'rceLocationIndex', 00H			; `string'
CONST	ENDS
;	COMDAT ??_C@_0BN@BIJNENLC@glGetProgramResourceLocation@
CONST	SEGMENT
??_C@_0BN@BIJNENLC@glGetProgramResourceLocation@ DB 'glGetProgramResource'
	DB	'Location', 00H				; `string'
CONST	ENDS
;	COMDAT ??_C@_0BH@LEDFEPHI@glGetProgramResourceiv@
CONST	SEGMENT
??_C@_0BH@LEDFEPHI@glGetProgramResourceiv@ DB 'glGetProgramResourceiv', 00H ; `string'
CONST	ENDS
;	COMDAT ??_C@_0BJ@OHCPEAGJ@glGetProgramResourceName@
CONST	SEGMENT
??_C@_0BJ@OHCPEAGJ@glGetProgramResourceName@ DB 'glGetProgramResourceName'
	DB	00H						; `string'
CONST	ENDS
;	COMDAT ??_C@_0BK@DBDCONKB@glGetProgramResourceIndex@
CONST	SEGMENT
??_C@_0BK@DBDCONKB@glGetProgramResourceIndex@ DB 'glGetProgramResourceInd'
	DB	'ex', 00H					; `string'
CONST	ENDS
;	COMDAT ??_C@_0BI@ICGPDPK@glGetProgramInterfaceiv@
CONST	SEGMENT
??_C@_0BI@ICGPDPK@glGetProgramInterfaceiv@ DB 'glGetProgramInterfaceiv', 00H ; `string'
CONST	ENDS
;	COMDAT ??_C@_0BM@KHEEFMKO@glMultiDrawElementsIndirect@
CONST	SEGMENT
??_C@_0BM@KHEEFMKO@glMultiDrawElementsIndirect@ DB 'glMultiDrawElementsIn'
	DB	'direct', 00H				; `string'
CONST	ENDS
;	COMDAT ??_C@_0BK@IKGAIKOP@glMultiDrawArraysIndirect@
CONST	SEGMENT
??_C@_0BK@IKGAIKOP@glMultiDrawArraysIndirect@ DB 'glMultiDrawArraysIndire'
	DB	'ct', 00H					; `string'
CONST	ENDS
;	COMDAT ??_C@_0BL@IHGLAPPE@glInvalidateSubFramebuffer@
CONST	SEGMENT
??_C@_0BL@IHGLAPPE@glInvalidateSubFramebuffer@ DB 'glInvalidateSubFramebu'
	DB	'ffer', 00H					; `string'
CONST	ENDS
;	COMDAT ??_C@_0BI@OAJPOHIP@glInvalidateFramebuffer@
CONST	SEGMENT
??_C@_0BI@OAJPOHIP@glInvalidateFramebuffer@ DB 'glInvalidateFramebuffer', 00H ; `string'
CONST	ENDS
;	COMDAT ??_C@_0BH@OGIFIBHA@glInvalidateBufferData@
CONST	SEGMENT
??_C@_0BH@OGIFIBHA@glInvalidateBufferData@ DB 'glInvalidateBufferData', 00H ; `string'
CONST	ENDS
;	COMDAT ??_C@_0BK@HOHOHNAC@glInvalidateBufferSubData@
CONST	SEGMENT
??_C@_0BK@HOHOHNAC@glInvalidateBufferSubData@ DB 'glInvalidateBufferSubDa'
	DB	'ta', 00H					; `string'
CONST	ENDS
;	COMDAT ??_C@_0BF@KHIECPKG@glInvalidateTexImage@
CONST	SEGMENT
??_C@_0BF@KHIECPKG@glInvalidateTexImage@ DB 'glInvalidateTexImage', 00H ; `string'
CONST	ENDS
;	COMDAT ??_C@_0BI@FJDKFLGL@glInvalidateTexSubImage@
CONST	SEGMENT
??_C@_0BI@FJDKFLGL@glInvalidateTexSubImage@ DB 'glInvalidateTexSubImage', 00H ; `string'
CONST	ENDS
;	COMDAT ??_C@_0BI@PHNNEGBD@glGetInternalformati64v@
CONST	SEGMENT
??_C@_0BI@PHNNEGBD@glGetInternalformati64v@ DB 'glGetInternalformati64v', 00H ; `string'
CONST	ENDS
;	COMDAT ??_C@_0BM@BFEEFCMK@glGetFramebufferParameteriv@
CONST	SEGMENT
??_C@_0BM@BFEEFCMK@glGetFramebufferParameteriv@ DB 'glGetFramebufferParam'
	DB	'eteriv', 00H				; `string'
CONST	ENDS
;	COMDAT ??_C@_0BI@MLACHGDK@glFramebufferParameteri@
CONST	SEGMENT
??_C@_0BI@MLACHGDK@glFramebufferParameteri@ DB 'glFramebufferParameteri', 00H ; `string'
CONST	ENDS
;	COMDAT ??_C@_0BD@BNCHOBBL@glCopyImageSubData@
CONST	SEGMENT
??_C@_0BD@BNCHOBBL@glCopyImageSubData@ DB 'glCopyImageSubData', 00H ; `string'
CONST	ENDS
;	COMDAT ??_C@_0BK@EJMOGMMI@glDispatchComputeIndirect@
CONST	SEGMENT
??_C@_0BK@EJMOGMMI@glDispatchComputeIndirect@ DB 'glDispatchComputeIndire'
	DB	'ct', 00H					; `string'
CONST	ENDS
;	COMDAT ??_C@_0BC@DKKFFIGC@glDispatchCompute@
CONST	SEGMENT
??_C@_0BC@DKKFFIGC@glDispatchCompute@ DB 'glDispatchCompute', 00H ; `string'
CONST	ENDS
;	COMDAT ??_C@_0BF@FDHIBCMD@glClearBufferSubData@
CONST	SEGMENT
??_C@_0BF@FDHIBCMD@glClearBufferSubData@ DB 'glClearBufferSubData', 00H ; `string'
CONST	ENDS
;	COMDAT ??_C@_0BC@FCMBBKMP@glClearBufferData@
CONST	SEGMENT
??_C@_0BC@FCMBBKMP@glClearBufferData@ DB 'glClearBufferData', 00H ; `string'
CONST	ENDS
;	COMDAT ??_C@_0CH@OMPFKBLK@glDrawTransformFeedbackStreamIn@
CONST	SEGMENT
??_C@_0CH@OMPFKBLK@glDrawTransformFeedbackStreamIn@ DB 'glDrawTransformFe'
	DB	'edbackStreamInstanced', 00H			; `string'
CONST	ENDS
;	COMDAT ??_C@_0CB@NDMLCEF@glDrawTransformFeedbackInstance@
CONST	SEGMENT
??_C@_0CB@NDMLCEF@glDrawTransformFeedbackInstance@ DB 'glDrawTransformFee'
	DB	'dbackInstanced', 00H			; `string'
CONST	ENDS
;	COMDAT ??_C@_0P@LBDCCAHA@glTexStorage3D@
CONST	SEGMENT
??_C@_0P@LBDCCAHA@glTexStorage3D@ DB 'glTexStorage3D', 00H ; `string'
CONST	ENDS
;	COMDAT ??_C@_0P@LAPAEKEH@glTexStorage2D@
CONST	SEGMENT
??_C@_0P@LAPAEKEH@glTexStorage2D@ DB 'glTexStorage2D', 00H ; `string'
CONST	ENDS
;	COMDAT ??_C@_0P@LCLGPEBO@glTexStorage1D@
CONST	SEGMENT
??_C@_0P@LCLGPEBO@glTexStorage1D@ DB 'glTexStorage1D', 00H ; `string'
CONST	ENDS
;	COMDAT ??_C@_0BA@HIHPNLBJ@glMemoryBarrier@
CONST	SEGMENT
??_C@_0BA@HIHPNLBJ@glMemoryBarrier@ DB 'glMemoryBarrier', 00H ; `string'
CONST	ENDS
;	COMDAT ??_C@_0BD@GAKEPNGD@glBindImageTexture@
CONST	SEGMENT
??_C@_0BD@GAKEPNGD@glBindImageTexture@ DB 'glBindImageTexture', 00H ; `string'
CONST	ENDS
;	COMDAT ??_C@_0CB@CEHFMJFN@glGetActiveAtomicCounterBufferi@
CONST	SEGMENT
??_C@_0CB@CEHFMJFN@glGetActiveAtomicCounterBufferi@ DB 'glGetActiveAtomic'
	DB	'CounterBufferiv', 00H			; `string'
CONST	ENDS
;	COMDAT ??_C@_0BG@BAOCDJPF@glGetInternalformativ@
CONST	SEGMENT
??_C@_0BG@BAOCDJPF@glGetInternalformativ@ DB 'glGetInternalformativ', 00H ; `string'
CONST	ENDS
;	COMDAT ??_C@_0CO@GCMNEAOA@glDrawElementsInstancedBaseVert@
CONST	SEGMENT
??_C@_0CO@GCMNEAOA@glDrawElementsInstancedBaseVert@ DB 'glDrawElementsIns'
	DB	'tancedBaseVertexBaseInstance', 00H		; `string'
CONST	ENDS
;	COMDAT ??_C@_0CE@NGNINKJD@glDrawElementsInstancedBaseInst@
CONST	SEGMENT
??_C@_0CE@NGNINKJD@glDrawElementsInstancedBaseInst@ DB 'glDrawElementsIns'
	DB	'tancedBaseInstance', 00H			; `string'
CONST	ENDS
;	COMDAT ??_C@_0CC@FBJBJHCN@glDrawArraysInstancedBaseInstan@
CONST	SEGMENT
??_C@_0CC@FBJBJHCN@glDrawArraysInstancedBaseInstan@ DB 'glDrawArraysInsta'
	DB	'ncedBaseInstance', 00H			; `string'
CONST	ENDS
;	COMDAT ??_C@_0P@PDJCBGIA@glGetDoublei_v@
CONST	SEGMENT
??_C@_0P@PDJCBGIA@glGetDoublei_v@ DB 'glGetDoublei_v', 00H ; `string'
CONST	ENDS
;	COMDAT ??_C@_0O@JKEOHGC@glGetFloati_v@
CONST	SEGMENT
??_C@_0O@JKEOHGC@glGetFloati_v@ DB 'glGetFloati_v', 00H	; `string'
CONST	ENDS
;	COMDAT ??_C@_0BE@FMCFIJBP@glDepthRangeIndexed@
CONST	SEGMENT
??_C@_0BE@FMCFIJBP@glDepthRangeIndexed@ DB 'glDepthRangeIndexed', 00H ; `string'
CONST	ENDS
;	COMDAT ??_C@_0BD@JLCIOMKN@glDepthRangeArrayv@
CONST	SEGMENT
??_C@_0BD@JLCIOMKN@glDepthRangeArrayv@ DB 'glDepthRangeArrayv', 00H ; `string'
CONST	ENDS
;	COMDAT ??_C@_0BC@OOKOHKNA@glScissorIndexedv@
CONST	SEGMENT
??_C@_0BC@OOKOHKNA@glScissorIndexedv@ DB 'glScissorIndexedv', 00H ; `string'
CONST	ENDS
;	COMDAT ??_C@_0BB@BJHNCIAL@glScissorIndexed@
CONST	SEGMENT
??_C@_0BB@BJHNCIAL@glScissorIndexed@ DB 'glScissorIndexed', 00H ; `string'
CONST	ENDS
;	COMDAT ??_C@_0BA@BMNFINIA@glScissorArrayv@
CONST	SEGMENT
??_C@_0BA@BMNFINIA@glScissorArrayv@ DB 'glScissorArrayv', 00H ; `string'
CONST	ENDS
;	COMDAT ??_C@_0BE@OKPEDJOC@glViewportIndexedfv@
CONST	SEGMENT
??_C@_0BE@OKPEDJOC@glViewportIndexedfv@ DB 'glViewportIndexedfv', 00H ; `string'
CONST	ENDS
;	COMDAT ??_C@_0BD@JIBIAPIN@glViewportIndexedf@
CONST	SEGMENT
??_C@_0BD@JIBIAPIN@glViewportIndexedf@ DB 'glViewportIndexedf', 00H ; `string'
CONST	ENDS
;	COMDAT ??_C@_0BB@JIDIDPIB@glViewportArrayv@
CONST	SEGMENT
??_C@_0BB@JIDIDPIB@glViewportArrayv@ DB 'glViewportArrayv', 00H ; `string'
CONST	ENDS
;	COMDAT ??_C@_0BF@JADLCNLO@glGetVertexAttribLdv@
CONST	SEGMENT
??_C@_0BF@JADLCNLO@glGetVertexAttribLdv@ DB 'glGetVertexAttribLdv', 00H ; `string'
CONST	ENDS
;	COMDAT ??_C@_0BH@JBHDDPGM@glVertexAttribLPointer@
CONST	SEGMENT
??_C@_0BH@JBHDDPGM@glVertexAttribLPointer@ DB 'glVertexAttribLPointer', 00H ; `string'
CONST	ENDS
;	COMDAT ??_C@_0BD@BJHCGDCF@glVertexAttribL4dv@
CONST	SEGMENT
??_C@_0BD@BJHCGDCF@glVertexAttribL4dv@ DB 'glVertexAttribL4dv', 00H ; `string'
CONST	ENDS
;	COMDAT ??_C@_0BD@IEKFFLJM@glVertexAttribL3dv@
CONST	SEGMENT
??_C@_0BD@IEKFFLJM@glVertexAttribL3dv@ DB 'glVertexAttribL3dv', 00H ; `string'
CONST	ENDS
;	COMDAT ??_C@_0BD@DMBJDMPJ@glVertexAttribL2dv@
CONST	SEGMENT
??_C@_0BD@DMBJDMPJ@glVertexAttribL2dv@ DB 'glVertexAttribL2dv', 00H ; `string'
CONST	ENDS
;	COMDAT ??_C@_0BD@COKMJDBH@glVertexAttribL1dv@
CONST	SEGMENT
??_C@_0BD@COKMJDBH@glVertexAttribL1dv@ DB 'glVertexAttribL1dv', 00H ; `string'
CONST	ENDS
;	COMDAT ??_C@_0BC@KHDDIAJP@glVertexAttribL4d@
CONST	SEGMENT
??_C@_0BC@KHDDIAJP@glVertexAttribL4d@ DB 'glVertexAttribL4d', 00H ; `string'
CONST	ENDS
;	COMDAT ??_C@_0BC@KCHMJGBK@glVertexAttribL3d@
CONST	SEGMENT
??_C@_0BC@KCHMJGBK@glVertexAttribL3d@ DB 'glVertexAttribL3d', 00H ; `string'
CONST	ENDS
;	COMDAT ??_C@_0BC@KDLOPMCN@glVertexAttribL2d@
CONST	SEGMENT
??_C@_0BC@KDLOPMCN@glVertexAttribL2d@ DB 'glVertexAttribL2d', 00H ; `string'
CONST	ENDS
;	COMDAT ??_C@_0BC@KBPIECHE@glVertexAttribL1d@
CONST	SEGMENT
??_C@_0BC@KBPIECHE@glVertexAttribL1d@ DB 'glVertexAttribL1d', 00H ; `string'
CONST	ENDS
;	COMDAT ??_C@_0BM@BFFCFFFG@glGetProgramPipelineInfoLog@
CONST	SEGMENT
??_C@_0BM@BFFCFFFG@glGetProgramPipelineInfoLog@ DB 'glGetProgramPipelineI'
	DB	'nfoLog', 00H				; `string'
CONST	ENDS
;	COMDAT ??_C@_0BK@HHHCKEGH@glValidateProgramPipeline@
CONST	SEGMENT
??_C@_0BK@HHHCKEGH@glValidateProgramPipeline@ DB 'glValidateProgramPipeli'
	DB	'ne', 00H					; `string'
CONST	ENDS
;	COMDAT ??_C@_0BM@OEIPHGOA@glProgramUniformMatrix4x3dv@
CONST	SEGMENT
??_C@_0BM@OEIPHGOA@glProgramUniformMatrix4x3dv@ DB 'glProgramUniformMatri'
	DB	'x4x3dv', 00H				; `string'
CONST	ENDS
;	COMDAT ??_C@_0BM@GEFNHOOB@glProgramUniformMatrix3x4dv@
CONST	SEGMENT
??_C@_0BM@GEFNHOOB@glProgramUniformMatrix3x4dv@ DB 'glProgramUniformMatri'
	DB	'x3x4dv', 00H				; `string'
CONST	ENDS
;	COMDAT ??_C@_0BM@FMDDBBIF@glProgramUniformMatrix4x2dv@
CONST	SEGMENT
??_C@_0BM@FMDDBBIF@glProgramUniformMatrix4x2dv@ DB 'glProgramUniformMatri'
	DB	'x4x2dv', 00H				; `string'
CONST	ENDS
;	COMDAT ??_C@_0BM@KPABKNEE@glProgramUniformMatrix2x4dv@
CONST	SEGMENT
??_C@_0BM@KPABKNEE@glProgramUniformMatrix2x4dv@ DB 'glProgramUniformMatri'
	DB	'x2x4dv', 00H				; `string'
CONST	ENDS
;	COMDAT ??_C@_0BM@EBDGCBDN@glProgramUniformMatrix3x2dv@
CONST	SEGMENT
??_C@_0BM@EBDGCBDN@glProgramUniformMatrix3x2dv@ DB 'glProgramUniformMatri'
	DB	'x3x2dv', 00H				; `string'
CONST	ENDS
;	COMDAT ??_C@_0BM@DCNGJFPN@glProgramUniformMatrix2x3dv@
CONST	SEGMENT
??_C@_0BM@DCNGJFPN@glProgramUniformMatrix2x3dv@ DB 'glProgramUniformMatri'
	DB	'x2x3dv', 00H				; `string'
CONST	ENDS
;	COMDAT ??_C@_0BM@OHALKCIO@glProgramUniformMatrix4x3fv@
CONST	SEGMENT
??_C@_0BM@OHALKCIO@glProgramUniformMatrix4x3fv@ DB 'glProgramUniformMatri'
	DB	'x4x3fv', 00H				; `string'
CONST	ENDS
;	COMDAT ??_C@_0BM@GHNJKKIP@glProgramUniformMatrix3x4fv@
CONST	SEGMENT
??_C@_0BM@GHNJKKIP@glProgramUniformMatrix3x4fv@ DB 'glProgramUniformMatri'
	DB	'x3x4fv', 00H				; `string'
CONST	ENDS
;	COMDAT ??_C@_0BM@FPLHMFOL@glProgramUniformMatrix4x2fv@
CONST	SEGMENT
??_C@_0BM@FPLHMFOL@glProgramUniformMatrix4x2fv@ DB 'glProgramUniformMatri'
	DB	'x4x2fv', 00H				; `string'
CONST	ENDS
;	COMDAT ??_C@_0BM@KMIFHJCK@glProgramUniformMatrix2x4fv@
CONST	SEGMENT
??_C@_0BM@KMIFHJCK@glProgramUniformMatrix2x4fv@ DB 'glProgramUniformMatri'
	DB	'x2x4fv', 00H				; `string'
CONST	ENDS
;	COMDAT ??_C@_0BM@ECLCPFFD@glProgramUniformMatrix3x2fv@
CONST	SEGMENT
??_C@_0BM@ECLCPFFD@glProgramUniformMatrix3x2fv@ DB 'glProgramUniformMatri'
	DB	'x3x2fv', 00H				; `string'
CONST	ENDS
;	COMDAT ??_C@_0BM@DBFCEBJD@glProgramUniformMatrix2x3fv@
CONST	SEGMENT
??_C@_0BM@DBFCEBJD@glProgramUniformMatrix2x3fv@ DB 'glProgramUniformMatri'
	DB	'x2x3fv', 00H				; `string'
CONST	ENDS
;	COMDAT ??_C@_0BK@NFBAAFLH@glProgramUniformMatrix4dv@
CONST	SEGMENT
??_C@_0BK@NFBAAFLH@glProgramUniformMatrix4dv@ DB 'glProgramUniformMatrix4'
	DB	'dv', 00H					; `string'
CONST	ENDS
;	COMDAT ??_C@_0BK@EIMHDNAO@glProgramUniformMatrix3dv@
CONST	SEGMENT
??_C@_0BK@EIMHDNAO@glProgramUniformMatrix3dv@ DB 'glProgramUniformMatrix3'
	DB	'dv', 00H					; `string'
CONST	ENDS
;	COMDAT ??_C@_0BK@PAHLFKGL@glProgramUniformMatrix2dv@
CONST	SEGMENT
??_C@_0BK@PAHLFKGL@glProgramUniformMatrix2dv@ DB 'glProgramUniformMatrix2'
	DB	'dv', 00H					; `string'
CONST	ENDS
;	COMDAT ??_C@_0BK@NGJENBNJ@glProgramUniformMatrix4fv@
CONST	SEGMENT
??_C@_0BK@NGJENBNJ@glProgramUniformMatrix4fv@ DB 'glProgramUniformMatrix4'
	DB	'fv', 00H					; `string'
CONST	ENDS
;	COMDAT ??_C@_0BK@ELEDOJGA@glProgramUniformMatrix3fv@
CONST	SEGMENT
??_C@_0BK@ELEDOJGA@glProgramUniformMatrix3fv@ DB 'glProgramUniformMatrix3'
	DB	'fv', 00H					; `string'
CONST	ENDS
;	COMDAT ??_C@_0BK@PDPPIOAF@glProgramUniformMatrix2fv@
CONST	SEGMENT
??_C@_0BK@PDPPIOAF@glProgramUniformMatrix2fv@ DB 'glProgramUniformMatrix2'
	DB	'fv', 00H					; `string'
CONST	ENDS
;	COMDAT ??_C@_0BF@JHNNHGB@glProgramUniform4uiv@
CONST	SEGMENT
??_C@_0BF@JHNNHGB@glProgramUniform4uiv@ DB 'glProgramUniform4uiv', 00H ; `string'
CONST	ENDS
;	COMDAT ??_C@_0BE@HCPNJOAF@glProgramUniform4ui@
CONST	SEGMENT
??_C@_0BE@HCPNJOAF@glProgramUniform4ui@ DB 'glProgramUniform4ui', 00H ; `string'
CONST	ENDS
;	COMDAT ??_C@_0BE@KCEDFJNM@glProgramUniform4dv@
CONST	SEGMENT
??_C@_0BE@KCEDFJNM@glProgramUniform4dv@ DB 'glProgramUniform4dv', 00H ; `string'
CONST	ENDS
;	COMDAT ??_C@_0BD@JNEOHKCK@glProgramUniform4d@
CONST	SEGMENT
??_C@_0BD@JNEOHKCK@glProgramUniform4d@ DB 'glProgramUniform4d', 00H ; `string'
CONST	ENDS
;	COMDAT ??_C@_0BE@KBMHINLC@glProgramUniform4fv@
CONST	SEGMENT
??_C@_0BE@KBMHINLC@glProgramUniform4fv@ DB 'glProgramUniform4fv', 00H ; `string'
CONST	ENDS
;	COMDAT ??_C@_0BD@KPHIBIKI@glProgramUniform4f@
CONST	SEGMENT
??_C@_0BD@KPHIBIKI@glProgramUniform4f@ DB 'glProgramUniform4f', 00H ; `string'
CONST	ENDS
;	COMDAT ??_C@_0BE@KKJLMKIP@glProgramUniform4iv@
CONST	SEGMENT
??_C@_0BE@KKJLMKIP@glProgramUniform4iv@ DB 'glProgramUniform4iv', 00H ; `string'
CONST	ENDS
;	COMDAT ??_C@_0BD@CIOAAEGH@glProgramUniform4i@
CONST	SEGMENT
??_C@_0BD@CIOAAEGH@glProgramUniform4i@ DB 'glProgramUniform4i', 00H ; `string'
CONST	ENDS
;	COMDAT ??_C@_0BF@LLFNALHB@glProgramUniform3uiv@
CONST	SEGMENT
??_C@_0BF@LLFNALHB@glProgramUniform3uiv@ DB 'glProgramUniform3uiv', 00H ; `string'
CONST	ENDS
;	COMDAT ??_C@_0BE@OPCKKGLM@glProgramUniform3ui@
CONST	SEGMENT
??_C@_0BE@OPCKKGLM@glProgramUniform3ui@ DB 'glProgramUniform3ui', 00H ; `string'
CONST	ENDS
;	COMDAT ??_C@_0BE@DPJEGBGF@glProgramUniform3dv@
CONST	SEGMENT
??_C@_0BE@DPJEGBGF@glProgramUniform3dv@ DB 'glProgramUniform3dv', 00H ; `string'
CONST	ENDS
;	COMDAT ??_C@_0BD@JIABGMKP@glProgramUniform3d@
CONST	SEGMENT
??_C@_0BD@JIABGMKP@glProgramUniform3d@ DB 'glProgramUniform3d', 00H ; `string'
CONST	ENDS
;	COMDAT ??_C@_0BE@DMBALFAL@glProgramUniform3fv@
CONST	SEGMENT
??_C@_0BE@DMBALFAL@glProgramUniform3fv@ DB 'glProgramUniform3fv', 00H ; `string'
CONST	ENDS
;	COMDAT ??_C@_0BD@KKDHAOCN@glProgramUniform3f@
CONST	SEGMENT
??_C@_0BD@KKDHAOCN@glProgramUniform3f@ DB 'glProgramUniform3f', 00H ; `string'
CONST	ENDS
;	COMDAT ??_C@_0BE@DHEMPCDG@glProgramUniform3iv@
CONST	SEGMENT
??_C@_0BE@DHEMPCDG@glProgramUniform3iv@ DB 'glProgramUniform3iv', 00H ; `string'
CONST	ENDS
;	COMDAT ??_C@_0BD@CNKPBCOC@glProgramUniform3i@
CONST	SEGMENT
??_C@_0BD@CNKPBCOC@glProgramUniform3i@ DB 'glProgramUniform3i', 00H ; `string'
CONST	ENDS
;	COMDAT ??_C@_0BF@IGDNCCMB@glProgramUniform2uiv@
CONST	SEGMENT
??_C@_0BF@IGDNCCMB@glProgramUniform2uiv@ DB 'glProgramUniform2uiv', 00H ; `string'
CONST	ENDS
;	COMDAT ??_C@_0BE@FHJGMBNJ@glProgramUniform2ui@
CONST	SEGMENT
??_C@_0BE@FHJGMBNJ@glProgramUniform2ui@ DB 'glProgramUniform2ui', 00H ; `string'
CONST	ENDS
;	COMDAT ??_C@_0BE@IHCIAGAA@glProgramUniform2dv@
CONST	SEGMENT
??_C@_0BE@IHCIAGAA@glProgramUniform2dv@ DB 'glProgramUniform2dv', 00H ; `string'
CONST	ENDS
;	COMDAT ??_C@_0BD@JJMDAGJI@glProgramUniform2d@
CONST	SEGMENT
??_C@_0BD@JJMDAGJI@glProgramUniform2d@ DB 'glProgramUniform2d', 00H ; `string'
CONST	ENDS
;	COMDAT ??_C@_0BE@IEKMNCGO@glProgramUniform2fv@
CONST	SEGMENT
??_C@_0BE@IEKMNCGO@glProgramUniform2fv@ DB 'glProgramUniform2fv', 00H ; `string'
CONST	ENDS
;	COMDAT ??_C@_0BD@KLPFGEBK@glProgramUniform2f@
CONST	SEGMENT
??_C@_0BD@KLPFGEBK@glProgramUniform2f@ DB 'glProgramUniform2f', 00H ; `string'
CONST	ENDS
;	COMDAT ??_C@_0BE@IPPAJFFD@glProgramUniform2iv@
CONST	SEGMENT
??_C@_0BE@IPPAJFFD@glProgramUniform2iv@ DB 'glProgramUniform2iv', 00H ; `string'
CONST	ENDS
;	COMDAT ??_C@_0BD@CMGNHINF@glProgramUniform2i@
CONST	SEGMENT
??_C@_0BD@CMGNHINF@glProgramUniform2i@ DB 'glProgramUniform2i', 00H ; `string'
CONST	ENDS
;	COMDAT ??_C@_0BF@MBJNFIBB@glProgramUniform1uiv@
CONST	SEGMENT
??_C@_0BF@MBJNFIBB@glProgramUniform1uiv@ DB 'glProgramUniform1uiv', 00H ; `string'
CONST	ENDS
;	COMDAT ??_C@_0BE@EFCDGODH@glProgramUniform1ui@
CONST	SEGMENT
??_C@_0BE@EFCDGODH@glProgramUniform1ui@ DB 'glProgramUniform1ui', 00H ; `string'
CONST	ENDS
;	COMDAT ??_C@_0BE@JFJNKJOO@glProgramUniform1dv@
CONST	SEGMENT
??_C@_0BE@JFJNKJOO@glProgramUniform1dv@ DB 'glProgramUniform1dv', 00H ; `string'
CONST	ENDS
;	COMDAT ??_C@_0BD@JLIFLIMB@glProgramUniform1d@
CONST	SEGMENT
??_C@_0BD@JLIFLIMB@glProgramUniform1d@ DB 'glProgramUniform1d', 00H ; `string'
CONST	ENDS
;	COMDAT ??_C@_0BE@JGBJHNIA@glProgramUniform1fv@
CONST	SEGMENT
??_C@_0BE@JGBJHNIA@glProgramUniform1fv@ DB 'glProgramUniform1fv', 00H ; `string'
CONST	ENDS
;	COMDAT ??_C@_0BD@KJLDNKED@glProgramUniform1f@
CONST	SEGMENT
??_C@_0BD@KJLDNKED@glProgramUniform1f@ DB 'glProgramUniform1f', 00H ; `string'
CONST	ENDS
;	COMDAT ??_C@_0BE@JNEFDKLN@glProgramUniform1iv@
CONST	SEGMENT
??_C@_0BE@JNEFDKLN@glProgramUniform1iv@ DB 'glProgramUniform1iv', 00H ; `string'
CONST	ENDS
;	COMDAT ??_C@_0BD@COCLMGIM@glProgramUniform1i@
CONST	SEGMENT
??_C@_0BD@COCLMGIM@glProgramUniform1i@ DB 'glProgramUniform1i', 00H ; `string'
CONST	ENDS
;	COMDAT ??_C@_0BH@DNOPNJMO@glGetProgramPipelineiv@
CONST	SEGMENT
??_C@_0BH@DNOPNJMO@glGetProgramPipelineiv@ DB 'glGetProgramPipelineiv', 00H ; `string'
CONST	ENDS
;	COMDAT ??_C@_0BE@DLHPDHCH@glIsProgramPipeline@
CONST	SEGMENT
??_C@_0BE@DLHPDHCH@glIsProgramPipeline@ DB 'glIsProgramPipeline', 00H ; `string'
CONST	ENDS
;	COMDAT ??_C@_0BG@CCBKOCA@glGenProgramPipelines@
CONST	SEGMENT
??_C@_0BG@CCBKOCA@glGenProgramPipelines@ DB 'glGenProgramPipelines', 00H ; `string'
CONST	ENDS
;	COMDAT ??_C@_0BJ@CHBGABHE@glDeleteProgramPipelines@
CONST	SEGMENT
??_C@_0BJ@CHBGABHE@glDeleteProgramPipelines@ DB 'glDeleteProgramPipelines'
	DB	00H						; `string'
CONST	ENDS
;	COMDAT ??_C@_0BG@GLPOKNCG@glBindProgramPipeline@
CONST	SEGMENT
??_C@_0BG@GLPOKNCG@glBindProgramPipeline@ DB 'glBindProgramPipeline', 00H ; `string'
CONST	ENDS
;	COMDAT ??_C@_0BH@BOJGDFJN@glCreateShaderProgramv@
CONST	SEGMENT
??_C@_0BH@BOJGDFJN@glCreateShaderProgramv@ DB 'glCreateShaderProgramv', 00H ; `string'
CONST	ENDS
;	COMDAT ??_C@_0BG@IAIOGMEB@glActiveShaderProgram@
CONST	SEGMENT
??_C@_0BG@IAIOGMEB@glActiveShaderProgram@ DB 'glActiveShaderProgram', 00H ; `string'
CONST	ENDS
;	COMDAT ??_C@_0BD@CADKHDMH@glUseProgramStages@
CONST	SEGMENT
??_C@_0BD@CADKHDMH@glUseProgramStages@ DB 'glUseProgramStages', 00H ; `string'
CONST	ENDS
;	COMDAT ??_C@_0BE@EELDBEME@glProgramParameteri@
CONST	SEGMENT
??_C@_0BE@EELDBEME@glProgramParameteri@ DB 'glProgramParameteri', 00H ; `string'
CONST	ENDS
;	COMDAT ??_C@_0BA@MIIDHOO@glProgramBinary@
CONST	SEGMENT
??_C@_0BA@MIIDHOO@glProgramBinary@ DB 'glProgramBinary', 00H ; `string'
CONST	ENDS
;	COMDAT ??_C@_0BD@JBCEHKON@glGetProgramBinary@
CONST	SEGMENT
??_C@_0BD@JBCEHKON@glGetProgramBinary@ DB 'glGetProgramBinary', 00H ; `string'
CONST	ENDS
;	COMDAT ??_C@_0O@FMBMCDIL@glClearDepthf@
CONST	SEGMENT
??_C@_0O@FMBMCDIL@glClearDepthf@ DB 'glClearDepthf', 00H ; `string'
CONST	ENDS
;	COMDAT ??_C@_0O@JDFJDNND@glDepthRangef@
CONST	SEGMENT
??_C@_0O@JDFJDNND@glDepthRangef@ DB 'glDepthRangef', 00H ; `string'
CONST	ENDS
;	COMDAT ??_C@_0BL@MLAOOHPD@glGetShaderPrecisionFormat@
CONST	SEGMENT
??_C@_0BL@MLAOOHPD@glGetShaderPrecisionFormat@ DB 'glGetShaderPrecisionFo'
	DB	'rmat', 00H					; `string'
CONST	ENDS
;	COMDAT ??_C@_0P@IMINELFB@glShaderBinary@
CONST	SEGMENT
??_C@_0P@IMINELFB@glShaderBinary@ DB 'glShaderBinary', 00H ; `string'
CONST	ENDS
;	COMDAT ??_C@_0BI@HGKABJPJ@glReleaseShaderCompiler@
CONST	SEGMENT
??_C@_0BI@HGKABJPJ@glReleaseShaderCompiler@ DB 'glReleaseShaderCompiler', 00H ; `string'
CONST	ENDS
;	COMDAT ??_C@_0BE@CCFJPMFI@glGetQueryIndexediv@
CONST	SEGMENT
??_C@_0BE@CCFJPMFI@glGetQueryIndexediv@ DB 'glGetQueryIndexediv', 00H ; `string'
CONST	ENDS
;	COMDAT ??_C@_0BC@DPMHMNME@glEndQueryIndexed@
CONST	SEGMENT
??_C@_0BC@DPMHMNME@glEndQueryIndexed@ DB 'glEndQueryIndexed', 00H ; `string'
CONST	ENDS
;	COMDAT ??_C@_0BE@BDKPJDEE@glBeginQueryIndexed@
CONST	SEGMENT
??_C@_0BE@BDKPJDEE@glBeginQueryIndexed@ DB 'glBeginQueryIndexed', 00H ; `string'
CONST	ENDS
;	COMDAT ??_C@_0BO@IGLFNCDG@glDrawTransformFeedbackStream@
CONST	SEGMENT
??_C@_0BO@IGLFNCDG@glDrawTransformFeedbackStream@ DB 'glDrawTransformFeed'
	DB	'backStream', 00H				; `string'
CONST	ENDS
;	COMDAT ??_C@_0BI@LEOILCPN@glDrawTransformFeedback@
CONST	SEGMENT
??_C@_0BI@LEOILCPN@glDrawTransformFeedback@ DB 'glDrawTransformFeedback', 00H ; `string'
CONST	ENDS
;	COMDAT ??_C@_0BK@JMHONFHF@glResumeTransformFeedback@
CONST	SEGMENT
??_C@_0BK@JMHONFHF@glResumeTransformFeedback@ DB 'glResumeTransformFeedba'
	DB	'ck', 00H					; `string'
CONST	ENDS
;	COMDAT ??_C@_0BJ@FFNLKBCB@glPauseTransformFeedback@
CONST	SEGMENT
??_C@_0BJ@FFNLKBCB@glPauseTransformFeedback@ DB 'glPauseTransformFeedback'
	DB	00H						; `string'
CONST	ENDS
;	COMDAT ??_C@_0BG@BGFLKHBM@glIsTransformFeedback@
CONST	SEGMENT
??_C@_0BG@BGFLKHBM@glIsTransformFeedback@ DB 'glIsTransformFeedback', 00H ; `string'
CONST	ENDS
;	COMDAT ??_C@_0BI@KANKBGAE@glGenTransformFeedbacks@
CONST	SEGMENT
??_C@_0BI@KANKBGAE@glGenTransformFeedbacks@ DB 'glGenTransformFeedbacks', 00H ; `string'
CONST	ENDS
;	COMDAT ??_C@_0BL@DIGEBFBK@glDeleteTransformFeedbacks@
CONST	SEGMENT
??_C@_0BL@DIGEBFBK@glDeleteTransformFeedbacks@ DB 'glDeleteTransformFeedb'
	DB	'acks', 00H					; `string'
CONST	ENDS
;	COMDAT ??_C@_0BI@BPJKLMIG@glBindTransformFeedback@
CONST	SEGMENT
??_C@_0BI@BPJKLMIG@glBindTransformFeedback@ DB 'glBindTransformFeedback', 00H ; `string'
CONST	ENDS
;	COMDAT ??_C@_0BD@LJKINJKN@glPatchParameterfv@
CONST	SEGMENT
??_C@_0BD@LJKINJKN@glPatchParameterfv@ DB 'glPatchParameterfv', 00H ; `string'
CONST	ENDS
;	COMDAT ??_C@_0BC@PAPDGMLA@glPatchParameteri@
CONST	SEGMENT
??_C@_0BC@PAPDGMLA@glPatchParameteri@ DB 'glPatchParameteri', 00H ; `string'
CONST	ENDS
;	COMDAT ??_C@_0BE@LOKJCDFH@glGetProgramStageiv@
CONST	SEGMENT
??_C@_0BE@LOKJCDFH@glGetProgramStageiv@ DB 'glGetProgramStageiv', 00H ; `string'
CONST	ENDS
;	COMDAT ??_C@_0BK@BLMOFAGJ@glGetUniformSubroutineuiv@
CONST	SEGMENT
??_C@_0BK@BLMOFAGJ@glGetUniformSubroutineuiv@ DB 'glGetUniformSubroutineu'
	DB	'iv', 00H					; `string'
CONST	ENDS
;	COMDAT ??_C@_0BI@CDPOBBHI@glUniformSubroutinesuiv@
CONST	SEGMENT
??_C@_0BI@CDPOBBHI@glUniformSubroutinesuiv@ DB 'glUniformSubroutinesuiv', 00H ; `string'
CONST	ENDS
;	COMDAT ??_C@_0BK@JPHEACLL@glGetActiveSubroutineName@
CONST	SEGMENT
??_C@_0BK@JPHEACLL@glGetActiveSubroutineName@ DB 'glGetActiveSubroutineNa'
	DB	'me', 00H					; `string'
CONST	ENDS
;	COMDAT ??_C@_0CB@KCFFPCGJ@glGetActiveSubroutineUniformNam@
CONST	SEGMENT
??_C@_0CB@KCFFPCGJ@glGetActiveSubroutineUniformNam@ DB 'glGetActiveSubrou'
	DB	'tineUniformName', 00H			; `string'
CONST	ENDS
;	COMDAT ??_C@_0BP@FAPFAJFP@glGetActiveSubroutineUniformiv@
CONST	SEGMENT
??_C@_0BP@FAPFAJFP@glGetActiveSubroutineUniformiv@ DB 'glGetActiveSubrout'
	DB	'ineUniformiv', 00H				; `string'
CONST	ENDS
;	COMDAT ??_C@_0BF@ONDIGCJG@glGetSubroutineIndex@
CONST	SEGMENT
??_C@_0BF@ONDIGCJG@glGetSubroutineIndex@ DB 'glGetSubroutineIndex', 00H ; `string'
CONST	ENDS
;	COMDAT ??_C@_0BP@IBIPLDOA@glGetSubroutineUniformLocation@
CONST	SEGMENT
??_C@_0BP@IBIPLDOA@glGetSubroutineUniformLocation@ DB 'glGetSubroutineUni'
	DB	'formLocation', 00H				; `string'
CONST	ENDS
;	COMDAT ??_C@_0P@NGEMHI@glGetUniformdv@
CONST	SEGMENT
??_C@_0P@NGEMHI@glGetUniformdv@ DB 'glGetUniformdv', 00H ; `string'
CONST	ENDS
;	COMDAT ??_C@_0BF@HGOEPFEJ@glUniformMatrix4x3dv@
CONST	SEGMENT
??_C@_0BF@HGOEPFEJ@glUniformMatrix4x3dv@ DB 'glUniformMatrix4x3dv', 00H ; `string'
CONST	ENDS
;	COMDAT ??_C@_0BF@MOFIJCCM@glUniformMatrix4x2dv@
CONST	SEGMENT
??_C@_0BF@MOFIJCCM@glUniformMatrix4x2dv@ DB 'glUniformMatrix4x2dv', 00H ; `string'
CONST	ENDS
;	COMDAT ??_C@_0BF@PGDGPNEI@glUniformMatrix3x4dv@
CONST	SEGMENT
??_C@_0BF@PGDGPNEI@glUniformMatrix3x4dv@ DB 'glUniformMatrix3x4dv', 00H ; `string'
CONST	ENDS
;	COMDAT ??_C@_0BF@NDFNKCJE@glUniformMatrix3x2dv@
CONST	SEGMENT
??_C@_0BF@NDFNKCJE@glUniformMatrix3x2dv@ DB 'glUniformMatrix3x2dv', 00H ; `string'
CONST	ENDS
;	COMDAT ??_C@_0BF@DNGKCOON@glUniformMatrix2x4dv@
CONST	SEGMENT
??_C@_0BF@DNGKCOON@glUniformMatrix2x4dv@ DB 'glUniformMatrix2x4dv', 00H ; `string'
CONST	ENDS
;	COMDAT ??_C@_0BF@KALNBGFE@glUniformMatrix2x3dv@
CONST	SEGMENT
??_C@_0BF@KALNBGFE@glUniformMatrix2x3dv@ DB 'glUniformMatrix2x3dv', 00H ; `string'
CONST	ENDS
;	COMDAT ??_C@_0BD@LOPGMAMB@glUniformMatrix4dv@
CONST	SEGMENT
??_C@_0BD@LOPGMAMB@glUniformMatrix4dv@ DB 'glUniformMatrix4dv', 00H ; `string'
CONST	ENDS
;	COMDAT ??_C@_0BD@CDCBPIHI@glUniformMatrix3dv@
CONST	SEGMENT
??_C@_0BD@CDCBPIHI@glUniformMatrix3dv@ DB 'glUniformMatrix3dv', 00H ; `string'
CONST	ENDS
;	COMDAT ??_C@_0BD@JLJNJPBN@glUniformMatrix2dv@
CONST	SEGMENT
??_C@_0BD@JLJNJPBN@glUniformMatrix2dv@ DB 'glUniformMatrix2dv', 00H ; `string'
CONST	ENDS
;	COMDAT ??_C@_0N@JNJEGONE@glUniform4dv@
CONST	SEGMENT
??_C@_0N@JNJEGONE@glUniform4dv@ DB 'glUniform4dv', 00H	; `string'
CONST	ENDS
;	COMDAT ??_C@_0N@EDFGGN@glUniform3dv@
CONST	SEGMENT
??_C@_0N@EDFGGN@glUniform3dv@ DB 'glUniform3dv', 00H	; `string'
CONST	ENDS
;	COMDAT ??_C@_0N@LIPPDBAI@glUniform2dv@
CONST	SEGMENT
??_C@_0N@LIPPDBAI@glUniform2dv@ DB 'glUniform2dv', 00H	; `string'
CONST	ENDS
;	COMDAT ??_C@_0N@KKEKJOOG@glUniform1dv@
CONST	SEGMENT
??_C@_0N@KKEKJOOG@glUniform1dv@ DB 'glUniform1dv', 00H	; `string'
CONST	ENDS
;	COMDAT ??_C@_0M@PPHPKPIM@glUniform4d@
CONST	SEGMENT
??_C@_0M@PPHPKPIM@glUniform4d@ DB 'glUniform4d', 00H	; `string'
CONST	ENDS
;	COMDAT ??_C@_0M@PKDALJAJ@glUniform3d@
CONST	SEGMENT
??_C@_0M@PKDALJAJ@glUniform3d@ DB 'glUniform3d', 00H	; `string'
CONST	ENDS
;	COMDAT ??_C@_0M@PLPCNDDO@glUniform2d@
CONST	SEGMENT
??_C@_0M@PLPCNDDO@glUniform2d@ DB 'glUniform2d', 00H	; `string'
CONST	ENDS
;	COMDAT ??_C@_0M@PJLEGNGH@glUniform1d@
CONST	SEGMENT
??_C@_0M@PJLEGNGH@glUniform1d@ DB 'glUniform1d', 00H	; `string'
CONST	ENDS
;	COMDAT ??_C@_0BH@LJJDOEDH@glDrawElementsIndirect@
CONST	SEGMENT
??_C@_0BH@LJJDOEDH@glDrawElementsIndirect@ DB 'glDrawElementsIndirect', 00H ; `string'
CONST	ENDS
;	COMDAT ??_C@_0BF@BGDCPAEP@glDrawArraysIndirect@
CONST	SEGMENT
??_C@_0BF@BGDCPAEP@glDrawArraysIndirect@ DB 'glDrawArraysIndirect', 00H ; `string'
CONST	ENDS
;	COMDAT ??_C@_0BF@PDDGKNBJ@glBlendFuncSeparatei@
CONST	SEGMENT
??_C@_0BF@PDDGKNBJ@glBlendFuncSeparatei@ DB 'glBlendFuncSeparatei', 00H ; `string'
CONST	ENDS
;	COMDAT ??_C@_0N@IKKELNNP@glBlendFunci@
CONST	SEGMENT
??_C@_0N@IKKELNNP@glBlendFunci@ DB 'glBlendFunci', 00H	; `string'
CONST	ENDS
;	COMDAT ??_C@_0BJ@FNMBAGAC@glBlendEquationSeparatei@
CONST	SEGMENT
??_C@_0BJ@FNMBAGAC@glBlendEquationSeparatei@ DB 'glBlendEquationSeparatei'
	DB	00H						; `string'
CONST	ENDS
;	COMDAT ??_C@_0BB@MKHLNEOM@glBlendEquationi@
CONST	SEGMENT
??_C@_0BB@MKHLNEOM@glBlendEquationi@ DB 'glBlendEquationi', 00H ; `string'
CONST	ENDS
;	COMDAT ??_C@_0BD@EDGCEBP@glMinSampleShading@
CONST	SEGMENT
??_C@_0BD@EDGCEBP@glMinSampleShading@ DB 'glMinSampleShading', 00H ; `string'
CONST	ENDS
;	COMDAT ??_C@_0BG@DPPPFGBG@glSecondaryColorP3uiv@
CONST	SEGMENT
??_C@_0BG@DPPPFGBG@glSecondaryColorP3uiv@ DB 'glSecondaryColorP3uiv', 00H ; `string'
CONST	ENDS
;	COMDAT ??_C@_0BF@PDDGBPKP@glSecondaryColorP3ui@
CONST	SEGMENT
??_C@_0BF@PDDGBPKP@glSecondaryColorP3ui@ DB 'glSecondaryColorP3ui', 00H ; `string'
CONST	ENDS
;	COMDAT ??_C@_0N@DDNDANIE@glColorP4uiv@
CONST	SEGMENT
??_C@_0N@DDNDANIE@glColorP4uiv@ DB 'glColorP4uiv', 00H	; `string'
CONST	ENDS
;	COMDAT ??_C@_0M@GJHGLFGE@glColorP4ui@
CONST	SEGMENT
??_C@_0M@GJHGLFGE@glColorP4ui@ DB 'glColorP4ui', 00H	; `string'
CONST	ENDS
;	COMDAT ??_C@_0N@IBPDNBJE@glColorP3uiv@
CONST	SEGMENT
??_C@_0N@IBPDNBJE@glColorP3uiv@ DB 'glColorP3uiv', 00H	; `string'
CONST	ENDS
;	COMDAT ??_C@_0M@PEKBINNN@glColorP3ui@
CONST	SEGMENT
??_C@_0M@PEKBINNN@glColorP3ui@ DB 'glColorP3ui', 00H	; `string'
CONST	ENDS
;	COMDAT ??_C@_0O@MOCJMHFG@glNormalP3uiv@
CONST	SEGMENT
??_C@_0O@MOCJMHFG@glNormalP3uiv@ DB 'glNormalP3uiv', 00H ; `string'
CONST	ENDS
;	COMDAT ??_C@_0N@PBEFBNHO@glNormalP3ui@
CONST	SEGMENT
??_C@_0N@PBEFBNHO@glNormalP3ui@ DB 'glNormalP3ui', 00H	; `string'
CONST	ENDS
;	COMDAT ??_C@_0BF@IONACAHK@glMultiTexCoordP4uiv@
CONST	SEGMENT
??_C@_0BF@IONACAHK@glMultiTexCoordP4uiv@ DB 'glMultiTexCoordP4uiv', 00H ; `string'
CONST	ENDS
;	COMDAT ??_C@_0BE@NHKJFHJE@glMultiTexCoordP4ui@
CONST	SEGMENT
??_C@_0BE@NHKJFHJE@glMultiTexCoordP4ui@ DB 'glMultiTexCoordP4ui', 00H ; `string'
CONST	ENDS
;	COMDAT ??_C@_0BF@DMPAPMGK@glMultiTexCoordP3uiv@
CONST	SEGMENT
??_C@_0BF@DMPAPMGK@glMultiTexCoordP3uiv@ DB 'glMultiTexCoordP3uiv', 00H ; `string'
CONST	ENDS
;	COMDAT ??_C@_0BE@EKHOGPCN@glMultiTexCoordP3ui@
CONST	SEGMENT
??_C@_0BE@EKHOGPCN@glMultiTexCoordP3ui@ DB 'glMultiTexCoordP3ui', 00H ; `string'
CONST	ENDS
;	COMDAT ??_C@_0BF@BJANFNK@glMultiTexCoordP2uiv@
CONST	SEGMENT
??_C@_0BF@BJANFNK@glMultiTexCoordP2uiv@ DB 'glMultiTexCoordP2uiv', 00H ; `string'
CONST	ENDS
;	COMDAT ??_C@_0BE@PCMCAIEI@glMultiTexCoordP2ui@
CONST	SEGMENT
??_C@_0BE@PCMCAIEI@glMultiTexCoordP2ui@ DB 'glMultiTexCoordP2ui', 00H ; `string'
CONST	ENDS
;	COMDAT ??_C@_0BF@EGDAKPAK@glMultiTexCoordP1uiv@
CONST	SEGMENT
??_C@_0BF@EGDAKPAK@glMultiTexCoordP1uiv@ DB 'glMultiTexCoordP1uiv', 00H ; `string'
CONST	ENDS
;	COMDAT ??_C@_0BE@OAHHKHKG@glMultiTexCoordP1ui@
CONST	SEGMENT
??_C@_0BE@OAHHKHKG@glMultiTexCoordP1ui@ DB 'glMultiTexCoordP1ui', 00H ; `string'
CONST	ENDS
;	COMDAT ??_C@_0BA@JILHAPCD@glTexCoordP4uiv@
CONST	SEGMENT
??_C@_0BA@JILHAPCD@glTexCoordP4uiv@ DB 'glTexCoordP4uiv', 00H ; `string'
CONST	ENDS
;	COMDAT ??_C@_0P@NMEJELEL@glTexCoordP4ui@
CONST	SEGMENT
??_C@_0P@NMEJELEL@glTexCoordP4ui@ DB 'glTexCoordP4ui', 00H ; `string'
CONST	ENDS
;	COMDAT ??_C@_0BA@CKJHNDDD@glTexCoordP3uiv@
CONST	SEGMENT
??_C@_0BA@CKJHNDDD@glTexCoordP3uiv@ DB 'glTexCoordP3uiv', 00H ; `string'
CONST	ENDS
;	COMDAT ??_C@_0P@EBJOHDPC@glTexCoordP3ui@
CONST	SEGMENT
??_C@_0P@EBJOHDPC@glTexCoordP3ui@ DB 'glTexCoordP3ui', 00H ; `string'
CONST	ENDS
;	COMDAT ??_C@_0BA@BHPHPKID@glTexCoordP2uiv@
CONST	SEGMENT
??_C@_0BA@BHPHPKID@glTexCoordP2uiv@ DB 'glTexCoordP2uiv', 00H ; `string'
CONST	ENDS
;	COMDAT ??_C@_0P@PJCCBEJH@glTexCoordP2ui@
CONST	SEGMENT
??_C@_0P@PJCCBEJH@glTexCoordP2ui@ DB 'glTexCoordP2ui', 00H ; `string'
CONST	ENDS
;	COMDAT ??_C@_0BA@FAFHIAFD@glTexCoordP1uiv@
CONST	SEGMENT
??_C@_0BA@FAFHIAFD@glTexCoordP1uiv@ DB 'glTexCoordP1uiv', 00H ; `string'
CONST	ENDS
;	COMDAT ??_C@_0P@OLJHLLHJ@glTexCoordP1ui@
CONST	SEGMENT
??_C@_0P@OLJHLLHJ@glTexCoordP1ui@ DB 'glTexCoordP1ui', 00H ; `string'
CONST	ENDS
;	COMDAT ??_C@_0O@IDAKJKMN@glVertexP4uiv@
CONST	SEGMENT
??_C@_0O@IDAKJKMN@glVertexP4uiv@ DB 'glVertexP4uiv', 00H ; `string'
CONST	ENDS
;	COMDAT ??_C@_0N@GAHJNOBO@glVertexP4ui@
CONST	SEGMENT
??_C@_0N@GAHJNOBO@glVertexP4ui@ DB 'glVertexP4ui', 00H	; `string'
CONST	ENDS
;	COMDAT ??_C@_0O@DBCKEGNN@glVertexP3uiv@
CONST	SEGMENT
??_C@_0O@DBCKEGNN@glVertexP3uiv@ DB 'glVertexP3uiv', 00H ; `string'
CONST	ENDS
;	COMDAT ??_C@_0N@PNKOOGKH@glVertexP3ui@
CONST	SEGMENT
??_C@_0N@PNKOOGKH@glVertexP3ui@ DB 'glVertexP3ui', 00H	; `string'
CONST	ENDS
;	COMDAT ??_C@_0O@MEKGPGN@glVertexP2uiv@
CONST	SEGMENT
??_C@_0O@MEKGPGN@glVertexP2uiv@ DB 'glVertexP2uiv', 00H	; `string'
CONST	ENDS
;	COMDAT ??_C@_0N@EFBCIBMC@glVertexP2ui@
CONST	SEGMENT
??_C@_0N@EFBCIBMC@glVertexP2ui@ DB 'glVertexP2ui', 00H	; `string'
CONST	ENDS
;	COMDAT ??_C@_0BE@LJLDGOAD@glVertexAttribP4uiv@
CONST	SEGMENT
??_C@_0BE@LJLDGOAD@glVertexAttribP4uiv@ DB 'glVertexAttribP4uiv', 00H ; `string'
CONST	ENDS
;	COMDAT ??_C@_0BD@GMNMNOHP@glVertexAttribP4ui@
CONST	SEGMENT
??_C@_0BD@GMNMNOHP@glVertexAttribP4ui@ DB 'glVertexAttribP4ui', 00H ; `string'
CONST	ENDS
;	COMDAT ??_C@_0BE@LJDLCBD@glVertexAttribP3uiv@
CONST	SEGMENT
??_C@_0BE@LJDLCBD@glVertexAttribP3uiv@ DB 'glVertexAttribP3uiv', 00H ; `string'
CONST	ENDS
;	COMDAT ??_C@_0BD@PBALOGMG@glVertexAttribP3ui@
CONST	SEGMENT
??_C@_0BD@PBALOGMG@glVertexAttribP3ui@ DB 'glVertexAttribP3ui', 00H ; `string'
CONST	ENDS
;	COMDAT ??_C@_0BE@DGPDJLKD@glVertexAttribP2uiv@
CONST	SEGMENT
??_C@_0BE@DGPDJLKD@glVertexAttribP2uiv@ DB 'glVertexAttribP2uiv', 00H ; `string'
CONST	ENDS
;	COMDAT ??_C@_0BD@EJLHIBKD@glVertexAttribP2ui@
CONST	SEGMENT
??_C@_0BD@EJLHIBKD@glVertexAttribP2ui@ DB 'glVertexAttribP2ui', 00H ; `string'
CONST	ENDS
;	COMDAT ??_C@_0BE@HBFDOBHD@glVertexAttribP1uiv@
CONST	SEGMENT
??_C@_0BE@HBFDOBHD@glVertexAttribP1uiv@ DB 'glVertexAttribP1uiv', 00H ; `string'
CONST	ENDS
;	COMDAT ??_C@_0BD@FLACCOEN@glVertexAttribP1ui@
CONST	SEGMENT
??_C@_0BD@FLACCOEN@glVertexAttribP1ui@ DB 'glVertexAttribP1ui', 00H ; `string'
CONST	ENDS
;	COMDAT ??_C@_0BG@NEBMAEHM@glVertexAttribDivisor@
CONST	SEGMENT
??_C@_0BG@NEBMAEHM@glVertexAttribDivisor@ DB 'glVertexAttribDivisor', 00H ; `string'
CONST	ENDS
;	COMDAT ??_C@_0BG@NEGGOMJO@glGetQueryObjectui64v@
CONST	SEGMENT
??_C@_0BG@NEGGOMJO@glGetQueryObjectui64v@ DB 'glGetQueryObjectui64v', 00H ; `string'
CONST	ENDS
;	COMDAT ??_C@_0BF@JDAPDEPE@glGetQueryObjecti64v@
CONST	SEGMENT
??_C@_0BF@JDAPDEPE@glGetQueryObjecti64v@ DB 'glGetQueryObjecti64v', 00H ; `string'
CONST	ENDS
;	COMDAT ??_C@_0P@KALICDIM@glQueryCounter@
CONST	SEGMENT
??_C@_0P@KALICDIM@glQueryCounter@ DB 'glQueryCounter', 00H ; `string'
CONST	ENDS
;	COMDAT ??_C@_0BK@CMBGFHDA@glGetSamplerParameterIuiv@
CONST	SEGMENT
??_C@_0BK@CMBGFHDA@glGetSamplerParameterIuiv@ DB 'glGetSamplerParameterIu'
	DB	'iv', 00H					; `string'
CONST	ENDS
;	COMDAT ??_C@_0BI@FPHMKMKC@glGetSamplerParameterfv@
CONST	SEGMENT
??_C@_0BI@FPHMKMKC@glGetSamplerParameterfv@ DB 'glGetSamplerParameterfv', 00H ; `string'
CONST	ENDS
;	COMDAT ??_C@_0BJ@KOMJDLDN@glGetSamplerParameterIiv@
CONST	SEGMENT
??_C@_0BJ@KOMJDLDN@glGetSamplerParameterIiv@ DB 'glGetSamplerParameterIiv'
	DB	00H						; `string'
CONST	ENDS
;	COMDAT ??_C@_0BI@FECAOLJP@glGetSamplerParameteriv@
CONST	SEGMENT
??_C@_0BI@FECAOLJP@glGetSamplerParameteriv@ DB 'glGetSamplerParameteriv', 00H ; `string'
CONST	ENDS
;	COMDAT ??_C@_0BH@FEMFBPPB@glSamplerParameterIuiv@
CONST	SEGMENT
??_C@_0BH@FEMFBPPB@glSamplerParameterIuiv@ DB 'glSamplerParameterIuiv', 00H ; `string'
CONST	ENDS
;	COMDAT ??_C@_0BG@HKEIFIHF@glSamplerParameterIiv@
CONST	SEGMENT
??_C@_0BG@HKEIFIHF@glSamplerParameterIiv@ DB 'glSamplerParameterIiv', 00H ; `string'
CONST	ENDS
;	COMDAT ??_C@_0BF@GFCPAGMB@glSamplerParameterfv@
CONST	SEGMENT
??_C@_0BF@GFCPAGMB@glSamplerParameterfv@ DB 'glSamplerParameterfv', 00H ; `string'
CONST	ENDS
;	COMDAT ??_C@_0BE@CGLJNDFB@glSamplerParameterf@
CONST	SEGMENT
??_C@_0BE@CGLJNDFB@glSamplerParameterf@ DB 'glSamplerParameterf', 00H ; `string'
CONST	ENDS
;	COMDAT ??_C@_0BF@GOHDEBPM@glSamplerParameteriv@
CONST	SEGMENT
??_C@_0BF@GOHDEBPM@glSamplerParameteriv@ DB 'glSamplerParameteriv', 00H ; `string'
CONST	ENDS
;	COMDAT ??_C@_0BE@KBCBMPJO@glSamplerParameteri@
CONST	SEGMENT
??_C@_0BE@KBCBMPJO@glSamplerParameteri@ DB 'glSamplerParameteri', 00H ; `string'
CONST	ENDS
;	COMDAT ??_C@_0O@PDEILAPG@glBindSampler@
CONST	SEGMENT
??_C@_0O@PDEILAPG@glBindSampler@ DB 'glBindSampler', 00H ; `string'
CONST	ENDS
;	COMDAT ??_C@_0M@LAJKHOKJ@glIsSampler@
CONST	SEGMENT
??_C@_0M@LAJKHOKJ@glIsSampler@ DB 'glIsSampler', 00H	; `string'
CONST	ENDS
;	COMDAT ??_C@_0BB@FLPAOEOO@glDeleteSamplers@
CONST	SEGMENT
??_C@_0BB@FLPAOEOO@glDeleteSamplers@ DB 'glDeleteSamplers', 00H ; `string'
CONST	ENDS
;	COMDAT ??_C@_0O@EMMLGGLG@glGenSamplers@
CONST	SEGMENT
??_C@_0O@EMMLGGLG@glGenSamplers@ DB 'glGenSamplers', 00H ; `string'
CONST	ENDS
;	COMDAT ??_C@_0BD@COCJFEOH@glGetFragDataIndex@
CONST	SEGMENT
??_C@_0BD@COCJFEOH@glGetFragDataIndex@ DB 'glGetFragDataIndex', 00H ; `string'
CONST	ENDS
;	COMDAT ??_C@_0BO@POJBGCGG@glBindFragDataLocationIndexed@
CONST	SEGMENT
??_C@_0BO@POJBGCGG@glBindFragDataLocationIndexed@ DB 'glBindFragDataLocat'
	DB	'ionIndexed', 00H				; `string'
CONST	ENDS
;	COMDAT ??_C@_0O@JNHBCHMB@glSampleMaski@
CONST	SEGMENT
??_C@_0O@JNHBCHMB@glSampleMaski@ DB 'glSampleMaski', 00H ; `string'
CONST	ENDS
;	COMDAT ??_C@_0BD@DHLIMGN@glGetMultisamplefv@
CONST	SEGMENT
??_C@_0BD@DHLIMGN@glGetMultisamplefv@ DB 'glGetMultisamplefv', 00H ; `string'
CONST	ENDS
;	COMDAT ??_C@_0BI@JIHMLKCG@glTexImage3DMultisample@
CONST	SEGMENT
??_C@_0BI@JIHMLKCG@glTexImage3DMultisample@ DB 'glTexImage3DMultisample', 00H ; `string'
CONST	ENDS
;	COMDAT ??_C@_0BI@FHDFLFA@glTexImage2DMultisample@
CONST	SEGMENT
??_C@_0BI@FHDFLFA@glTexImage2DMultisample@ DB 'glTexImage2DMultisample', 00H ; `string'
CONST	ENDS
;	COMDAT ??_C@_0BF@ENLMLILA@glFramebufferTexture@
CONST	SEGMENT
??_C@_0BF@ENLMLILA@glFramebufferTexture@ DB 'glFramebufferTexture', 00H ; `string'
CONST	ENDS
;	COMDAT ??_C@_0BJ@KKBIDGPP@glGetBufferParameteri64v@
CONST	SEGMENT
??_C@_0BJ@KKBIDGPP@glGetBufferParameteri64v@ DB 'glGetBufferParameteri64v'
	DB	00H						; `string'
CONST	ENDS
;	COMDAT ??_C@_0BC@KOJILIEC@glGetInteger64i_v@
CONST	SEGMENT
??_C@_0BC@KOJILIEC@glGetInteger64i_v@ DB 'glGetInteger64i_v', 00H ; `string'
CONST	ENDS
;	COMDAT ??_C@_0M@MPEEOPIN@glGetSynciv@
CONST	SEGMENT
??_C@_0M@MPEEOPIN@glGetSynciv@ DB 'glGetSynciv', 00H	; `string'
CONST	ENDS
;	COMDAT ??_C@_0BA@INMBOHGL@glGetInteger64v@
CONST	SEGMENT
??_C@_0BA@INMBOHGL@glGetInteger64v@ DB 'glGetInteger64v', 00H ; `string'
CONST	ENDS
;	COMDAT ??_C@_0L@MHLOGHGO@glWaitSync@
CONST	SEGMENT
??_C@_0L@MHLOGHGO@glWaitSync@ DB 'glWaitSync', 00H	; `string'
CONST	ENDS
;	COMDAT ??_C@_0BB@KDMPGJAC@glClientWaitSync@
CONST	SEGMENT
??_C@_0BB@KDMPGJAC@glClientWaitSync@ DB 'glClientWaitSync', 00H ; `string'
CONST	ENDS
;	COMDAT ??_C@_0N@PIFDNDFG@glDeleteSync@
CONST	SEGMENT
??_C@_0N@PIFDNDFG@glDeleteSync@ DB 'glDeleteSync', 00H	; `string'
CONST	ENDS
;	COMDAT ??_C@_08JPIIHJEO@glIsSync@
CONST	SEGMENT
??_C@_08JPIIHJEO@glIsSync@ DB 'glIsSync', 00H		; `string'
CONST	ENDS
;	COMDAT ??_C@_0M@EFGFPFLP@glFenceSync@
CONST	SEGMENT
??_C@_0M@EFGFPFLP@glFenceSync@ DB 'glFenceSync', 00H	; `string'
CONST	ENDS
;	COMDAT ??_C@_0BC@ECOAPEBI@glProvokingVertex@
CONST	SEGMENT
??_C@_0BC@ECOAPEBI@glProvokingVertex@ DB 'glProvokingVertex', 00H ; `string'
CONST	ENDS
;	COMDAT ??_C@_0BO@NAPFJEEK@glMultiDrawElementsBaseVertex@
CONST	SEGMENT
??_C@_0BO@NAPFJEEK@glMultiDrawElementsBaseVertex@ DB 'glMultiDrawElements'
	DB	'BaseVertex', 00H				; `string'
CONST	ENDS
;	COMDAT ??_C@_0CC@KLOIIKNA@glDrawElementsInstancedBaseVert@
CONST	SEGMENT
??_C@_0CC@KLOIIKNA@glDrawElementsInstancedBaseVert@ DB 'glDrawElementsIns'
	DB	'tancedBaseVertex', 00H			; `string'
CONST	ENDS
;	COMDAT ??_C@_0BO@KBDDBILP@glDrawRangeElementsBaseVertex@
CONST	SEGMENT
??_C@_0BO@KBDDBILP@glDrawRangeElementsBaseVertex@ DB 'glDrawRangeElements'
	DB	'BaseVertex', 00H				; `string'
CONST	ENDS
;	COMDAT ??_C@_0BJ@LFMMIAHA@glDrawElementsBaseVertex@
CONST	SEGMENT
??_C@_0BJ@LFMMIAHA@glDrawElementsBaseVertex@ DB 'glDrawElementsBaseVertex'
	DB	00H						; `string'
CONST	ENDS
;	COMDAT ??_C@_0BG@BOLEKKCP@glUniformBlockBinding@
CONST	SEGMENT
??_C@_0BG@BOLEKKCP@glUniformBlockBinding@ DB 'glUniformBlockBinding', 00H ; `string'
CONST	ENDS
;	COMDAT ??_C@_0BM@KEMCJPAJ@glGetActiveUniformBlockName@
CONST	SEGMENT
??_C@_0BM@KEMCJPAJ@glGetActiveUniformBlockName@ DB 'glGetActiveUniformBlo'
	DB	'ckName', 00H				; `string'
CONST	ENDS
;	COMDAT ??_C@_0BK@DMHOPJGL@glGetActiveUniformBlockiv@
CONST	SEGMENT
??_C@_0BK@DMHOPJGL@glGetActiveUniformBlockiv@ DB 'glGetActiveUniformBlock'
	DB	'iv', 00H					; `string'
CONST	ENDS
;	COMDAT ??_C@_0BH@CBDIMHHE@glGetUniformBlockIndex@
CONST	SEGMENT
??_C@_0BH@CBDIMHHE@glGetUniformBlockIndex@ DB 'glGetUniformBlockIndex', 00H ; `string'
CONST	ENDS
;	COMDAT ??_C@_0BH@EGGFHKJJ@glGetActiveUniformName@
CONST	SEGMENT
??_C@_0BH@EGGFHKJJ@glGetActiveUniformName@ DB 'glGetActiveUniformName', 00H ; `string'
CONST	ENDS
;	COMDAT ??_C@_0BG@JEHIMPCG@glGetActiveUniformsiv@
CONST	SEGMENT
??_C@_0BG@JEHIMPCG@glGetActiveUniformsiv@ DB 'glGetActiveUniformsiv', 00H ; `string'
CONST	ENDS
;	COMDAT ??_C@_0BE@MDPMIDEE@glGetUniformIndices@
CONST	SEGMENT
??_C@_0BE@MDPMIDEE@glGetUniformIndices@ DB 'glGetUniformIndices', 00H ; `string'
CONST	ENDS
;	COMDAT ??_C@_0BE@EPKABDOG@glCopyBufferSubData@
CONST	SEGMENT
??_C@_0BE@EPKABDOG@glCopyBufferSubData@ DB 'glCopyBufferSubData', 00H ; `string'
CONST	ENDS
;	COMDAT ??_C@_0BI@LJDLNGAF@glPrimitiveRestartIndex@
CONST	SEGMENT
??_C@_0BI@LJDLNGAF@glPrimitiveRestartIndex@ DB 'glPrimitiveRestartIndex', 00H ; `string'
CONST	ENDS
;	COMDAT ??_C@_0M@IIMBBALL@glTexBuffer@
CONST	SEGMENT
??_C@_0M@IIMBBALL@glTexBuffer@ DB 'glTexBuffer', 00H	; `string'
CONST	ENDS
;	COMDAT ??_C@_0BI@CGJENFBH@glDrawElementsInstanced@
CONST	SEGMENT
??_C@_0BI@CGJENFBH@glDrawElementsInstanced@ DB 'glDrawElementsInstanced', 00H ; `string'
CONST	ENDS
;	COMDAT ??_C@_0BG@HIOFINAN@glDrawArraysInstanced@
CONST	SEGMENT
??_C@_0BG@HIOFINAN@glDrawArraysInstanced@ DB 'glDrawArraysInstanced', 00H ; `string'
CONST	ENDS
;	COMDAT ??_C@_0BA@ODJEGGAE@glIsVertexArray@
CONST	SEGMENT
??_C@_0BA@ODJEGGAE@glIsVertexArray@ DB 'glIsVertexArray', 00H ; `string'
CONST	ENDS
;	COMDAT ??_C@_0BC@EPJLBJBJ@glGenVertexArrays@
CONST	SEGMENT
??_C@_0BC@EPJLBJBJ@glGenVertexArrays@ DB 'glGenVertexArrays', 00H ; `string'
CONST	ENDS
;	COMDAT ??_C@_0BF@BMPCJLEF@glDeleteVertexArrays@
CONST	SEGMENT
??_C@_0BF@BMPCJLEF@glDeleteVertexArrays@ DB 'glDeleteVertexArrays', 00H ; `string'
CONST	ENDS
;	COMDAT ??_C@_0BC@LHBAHFAN@glBindVertexArray@
CONST	SEGMENT
??_C@_0BC@LHBAHFAN@glBindVertexArray@ DB 'glBindVertexArray', 00H ; `string'
CONST	ENDS
;	COMDAT ??_C@_0BJ@NCDMGHKF@glFlushMappedBufferRange@
CONST	SEGMENT
??_C@_0BJ@NCDMGHKF@glFlushMappedBufferRange@ DB 'glFlushMappedBufferRange'
	DB	00H						; `string'
CONST	ENDS
;	COMDAT ??_C@_0BB@EOHJGBIO@glMapBufferRange@
CONST	SEGMENT
??_C@_0BB@EOHJGBIO@glMapBufferRange@ DB 'glMapBufferRange', 00H ; `string'
CONST	ENDS
;	COMDAT ??_C@_0BK@NIHIDBBO@glFramebufferTextureLayer@
CONST	SEGMENT
??_C@_0BK@NIHIDBBO@glFramebufferTextureLayer@ DB 'glFramebufferTextureLay'
	DB	'er', 00H					; `string'
CONST	ENDS
;	COMDAT ??_C@_0CB@HNONLGJE@glRenderbufferStorageMultisampl@
CONST	SEGMENT
??_C@_0CB@HNONLGJE@glRenderbufferStorageMultisampl@ DB 'glRenderbufferSto'
	DB	'rageMultisample', 00H			; `string'
CONST	ENDS
;	COMDAT ??_C@_0BC@OANBDDEP@glBlitFramebuffer@
CONST	SEGMENT
??_C@_0BC@OANBDDEP@glBlitFramebuffer@ DB 'glBlitFramebuffer', 00H ; `string'
CONST	ENDS
;	COMDAT ??_C@_0BB@BHNIMGDM@glGenerateMipmap@
CONST	SEGMENT
??_C@_0BB@BHNIMGDM@glGenerateMipmap@ DB 'glGenerateMipmap', 00H ; `string'
CONST	ENDS
;	COMDAT ??_C@_0CG@KLDGJEON@glGetFramebufferAttachmentParam@
CONST	SEGMENT
??_C@_0CG@KLDGJEON@glGetFramebufferAttachmentParam@ DB 'glGetFramebufferA'
	DB	'ttachmentParameteriv', 00H			; `string'
CONST	ENDS
;	COMDAT ??_C@_0BK@OJDINAOA@glFramebufferRenderbuffer@
CONST	SEGMENT
??_C@_0BK@OJDINAOA@glFramebufferRenderbuffer@ DB 'glFramebufferRenderbuff'
	DB	'er', 00H					; `string'
CONST	ENDS
;	COMDAT ??_C@_0BH@JDEHAJHC@glFramebufferTexture3D@
CONST	SEGMENT
??_C@_0BH@JDEHAJHC@glFramebufferTexture3D@ DB 'glFramebufferTexture3D', 00H ; `string'
CONST	ENDS
;	COMDAT ??_C@_0BH@JCIFGDEF@glFramebufferTexture2D@
CONST	SEGMENT
??_C@_0BH@JCIFGDEF@glFramebufferTexture2D@ DB 'glFramebufferTexture2D', 00H ; `string'
CONST	ENDS
;	COMDAT ??_C@_0BH@JAMDNNBM@glFramebufferTexture1D@
CONST	SEGMENT
??_C@_0BH@JAMDNNBM@glFramebufferTexture1D@ DB 'glFramebufferTexture1D', 00H ; `string'
CONST	ENDS
;	COMDAT ??_C@_0BJ@GIOLHEAD@glCheckFramebufferStatus@
CONST	SEGMENT
??_C@_0BJ@GIOLHEAD@glCheckFramebufferStatus@ DB 'glCheckFramebufferStatus'
	DB	00H						; `string'
CONST	ENDS
;	COMDAT ??_C@_0BC@FAPEBGID@glGenFramebuffers@
CONST	SEGMENT
??_C@_0BC@FAPEBGID@glGenFramebuffers@ DB 'glGenFramebuffers', 00H ; `string'
CONST	ENDS
;	COMDAT ??_C@_0BF@DJNJENP@glDeleteFramebuffers@
CONST	SEGMENT
??_C@_0BF@DJNJENP@glDeleteFramebuffers@ DB 'glDeleteFramebuffers', 00H ; `string'
CONST	ENDS
;	COMDAT ??_C@_0BC@CJMIBNO@glBindFramebuffer@
CONST	SEGMENT
??_C@_0BC@CJMIBNO@glBindFramebuffer@ DB 'glBindFramebuffer', 00H ; `string'
CONST	ENDS
;	COMDAT ??_C@_0BA@FGBIJCNH@glIsFramebuffer@
CONST	SEGMENT
??_C@_0BA@FGBIJCNH@glIsFramebuffer@ DB 'glIsFramebuffer', 00H ; `string'
CONST	ENDS
;	COMDAT ??_C@_0BN@FGKAECKO@glGetRenderbufferParameteriv@
CONST	SEGMENT
??_C@_0BN@FGKAECKO@glGetRenderbufferParameteriv@ DB 'glGetRenderbufferPar'
	DB	'ameteriv', 00H				; `string'
CONST	ENDS
;	COMDAT ??_C@_0BG@EOIILGMJ@glRenderbufferStorage@
CONST	SEGMENT
??_C@_0BG@EOIILGMJ@glRenderbufferStorage@ DB 'glRenderbufferStorage', 00H ; `string'
CONST	ENDS
;	COMDAT ??_C@_0BD@MIGEDNGJ@glGenRenderbuffers@
CONST	SEGMENT
??_C@_0BD@MIGEDNGJ@glGenRenderbuffers@ DB 'glGenRenderbuffers', 00H ; `string'
CONST	ENDS
;	COMDAT ??_C@_0BG@KKOKEJDE@glDeleteRenderbuffers@
CONST	SEGMENT
??_C@_0BG@KKOKEJDE@glDeleteRenderbuffers@ DB 'glDeleteRenderbuffers', 00H ; `string'
CONST	ENDS
;	COMDAT ??_C@_0BD@EPOPJGFA@glBindRenderbuffer@
CONST	SEGMENT
??_C@_0BD@EPOPJGFA@glBindRenderbuffer@ DB 'glBindRenderbuffer', 00H ; `string'
CONST	ENDS
;	COMDAT ??_C@_0BB@DGGHKKOH@glIsRenderbuffer@
CONST	SEGMENT
??_C@_0BB@DGGHKKOH@glIsRenderbuffer@ DB 'glIsRenderbuffer', 00H ; `string'
CONST	ENDS
;	COMDAT ??_C@_0N@PILJCBOD@glGetStringi@
CONST	SEGMENT
??_C@_0N@PILJCBOD@glGetStringi@ DB 'glGetStringi', 00H	; `string'
CONST	ENDS
;	COMDAT ??_C@_0BA@OACPENCO@glClearBufferfi@
CONST	SEGMENT
??_C@_0BA@OACPENCO@glClearBufferfi@ DB 'glClearBufferfi', 00H ; `string'
CONST	ENDS
;	COMDAT ??_C@_0BA@CNHFEDLA@glClearBufferfv@
CONST	SEGMENT
??_C@_0BA@CNHFEDLA@glClearBufferfv@ DB 'glClearBufferfv', 00H ; `string'
CONST	ENDS
;	COMDAT ??_C@_0BB@OHPPAEID@glClearBufferuiv@
CONST	SEGMENT
??_C@_0BB@OHPPAEID@glClearBufferuiv@ DB 'glClearBufferuiv', 00H ; `string'
CONST	ENDS
;	COMDAT ??_C@_0BA@CGCJAEIN@glClearBufferiv@
CONST	SEGMENT
??_C@_0BA@CGCJAEIN@glClearBufferiv@ DB 'glClearBufferiv', 00H ; `string'
CONST	ENDS
;	COMDAT ??_C@_0BG@MLODKKFL@glGetTexParameterIuiv@
CONST	SEGMENT
??_C@_0BG@MLODKKFL@glGetTexParameterIuiv@ DB 'glGetTexParameterIuiv', 00H ; `string'
CONST	ENDS
;	COMDAT ??_C@_0BF@ODBJFHDD@glGetTexParameterIiv@
CONST	SEGMENT
??_C@_0BF@ODBJFHDD@glGetTexParameterIiv@ DB 'glGetTexParameterIiv', 00H ; `string'
CONST	ENDS
;	COMDAT ??_C@_0BD@FDBCMKBE@glTexParameterIuiv@
CONST	SEGMENT
??_C@_0BD@FDBCMKBE@glTexParameterIuiv@ DB 'glTexParameterIuiv', 00H ; `string'
CONST	ENDS
;	COMDAT ??_C@_0BC@MAFJKEHB@glTexParameterIiv@
CONST	SEGMENT
??_C@_0BC@MAFJKEHB@glTexParameterIiv@ DB 'glTexParameterIiv', 00H ; `string'
CONST	ENDS
;	COMDAT ??_C@_0O@HJJIIGE@glUniform4uiv@
CONST	SEGMENT
??_C@_0O@HJJIIGE@glUniform4uiv@ DB 'glUniform4uiv', 00H	; `string'
CONST	ENDS
;	COMDAT ??_C@_0O@LFLJFEHE@glUniform3uiv@
CONST	SEGMENT
??_C@_0O@LFLJFEHE@glUniform3uiv@ DB 'glUniform3uiv', 00H ; `string'
CONST	ENDS
;	COMDAT ??_C@_0O@IINJHNME@glUniform2uiv@
CONST	SEGMENT
??_C@_0O@IINJHNME@glUniform2uiv@ DB 'glUniform2uiv', 00H ; `string'
CONST	ENDS
;	COMDAT ??_C@_0O@MPHJAHBE@glUniform1uiv@
CONST	SEGMENT
??_C@_0O@MPHJAHBE@glUniform1uiv@ DB 'glUniform1uiv', 00H ; `string'
CONST	ENDS
;	COMDAT ??_C@_0N@ENCKKJAN@glUniform4ui@
CONST	SEGMENT
??_C@_0N@ENCKKJAN@glUniform4ui@ DB 'glUniform4ui', 00H	; `string'
CONST	ENDS
;	COMDAT ??_C@_0N@NAPNJBLE@glUniform3ui@
CONST	SEGMENT
??_C@_0N@NAPNJBLE@glUniform3ui@ DB 'glUniform3ui', 00H	; `string'
CONST	ENDS
;	COMDAT ??_C@_0N@GIEBPGNB@glUniform2ui@
CONST	SEGMENT
??_C@_0N@GIEBPGNB@glUniform2ui@ DB 'glUniform2ui', 00H	; `string'
CONST	ENDS
;	COMDAT ??_C@_0N@HKPEFJDP@glUniform1ui@
CONST	SEGMENT
??_C@_0N@HKPEFJDP@glUniform1ui@ DB 'glUniform1ui', 00H	; `string'
CONST	ENDS
;	COMDAT ??_C@_0BG@NDOIGAMC@glGetFragDataLocation@
CONST	SEGMENT
??_C@_0BG@NDOIGAMC@glGetFragDataLocation@ DB 'glGetFragDataLocation', 00H ; `string'
CONST	ENDS
;	COMDAT ??_C@_0BH@DLJLAGBA@glBindFragDataLocation@
CONST	SEGMENT
??_C@_0BH@DLJLAGBA@glBindFragDataLocation@ DB 'glBindFragDataLocation', 00H ; `string'
CONST	ENDS
;	COMDAT ??_C@_0BA@NIGECFIF@glGetUniformuiv@
CONST	SEGMENT
??_C@_0BA@NIGECFIF@glGetUniformuiv@ DB 'glGetUniformuiv', 00H ; `string'
CONST	ENDS
;	COMDAT ??_C@_0BE@IMNLBLPG@glVertexAttribI4usv@
CONST	SEGMENT
??_C@_0BE@IMNLBLPG@glVertexAttribI4usv@ DB 'glVertexAttribI4usv', 00H ; `string'
CONST	ENDS
;	COMDAT ??_C@_0BE@JBDPNCLB@glVertexAttribI4ubv@
CONST	SEGMENT
??_C@_0BE@JBDPNCLB@glVertexAttribI4ubv@ DB 'glVertexAttribI4ubv', 00H ; `string'
CONST	ENDS
;	COMDAT ??_C@_0BD@MIPLFJKA@glVertexAttribI4sv@
CONST	SEGMENT
??_C@_0BD@MIPLFJKA@glVertexAttribI4sv@ DB 'glVertexAttribI4sv', 00H ; `string'
CONST	ENDS
;	COMDAT ??_C@_0BD@NFBPJAOH@glVertexAttribI4bv@
CONST	SEGMENT
??_C@_0BD@NFBPJAOH@glVertexAttribI4bv@ DB 'glVertexAttribI4bv', 00H ; `string'
CONST	ENDS
;	COMDAT ??_C@_0BE@JNGKDNFA@glVertexAttribI4uiv@
CONST	SEGMENT
??_C@_0BE@JNGKDNFA@glVertexAttribI4uiv@ DB 'glVertexAttribI4uiv', 00H ; `string'
CONST	ENDS
;	COMDAT ??_C@_0BE@CPEKOBEA@glVertexAttribI3uiv@
CONST	SEGMENT
??_C@_0BE@CPEKOBEA@glVertexAttribI3uiv@ DB 'glVertexAttribI3uiv', 00H ; `string'
CONST	ENDS
;	COMDAT ??_C@_0BE@BCCKMIPA@glVertexAttribI2uiv@
CONST	SEGMENT
??_C@_0BE@BCCKMIPA@glVertexAttribI2uiv@ DB 'glVertexAttribI2uiv', 00H ; `string'
CONST	ENDS
;	COMDAT ??_C@_0BE@FFIKLCCA@glVertexAttribI1uiv@
CONST	SEGMENT
??_C@_0BE@FFIKLCCA@glVertexAttribI1uiv@ DB 'glVertexAttribI1uiv', 00H ; `string'
CONST	ENDS
;	COMDAT ??_C@_0BD@NJEKHPAG@glVertexAttribI4iv@
CONST	SEGMENT
??_C@_0BD@NJEKHPAG@glVertexAttribI4iv@ DB 'glVertexAttribI4iv', 00H ; `string'
CONST	ENDS
;	COMDAT ??_C@_0BD@EEJNEHLP@glVertexAttribI3iv@
CONST	SEGMENT
??_C@_0BD@EEJNEHLP@glVertexAttribI3iv@ DB 'glVertexAttribI3iv', 00H ; `string'
CONST	ENDS
;	COMDAT ??_C@_0BD@PMCBCANK@glVertexAttribI2iv@
CONST	SEGMENT
??_C@_0BD@PMCBCANK@glVertexAttribI2iv@ DB 'glVertexAttribI2iv', 00H ; `string'
CONST	ENDS
;	COMDAT ??_C@_0BD@OOJEIPDE@glVertexAttribI1iv@
CONST	SEGMENT
??_C@_0BD@OOJEIPDE@glVertexAttribI1iv@ DB 'glVertexAttribI1iv', 00H ; `string'
CONST	ENDS
;	COMDAT ??_C@_0BD@BCMCLIM@glVertexAttribI4ui@
CONST	SEGMENT
??_C@_0BD@BCMCLIM@glVertexAttribI4ui@ DB 'glVertexAttribI4ui', 00H ; `string'
CONST	ENDS
;	COMDAT ??_C@_0BD@JMPLBDDF@glVertexAttribI3ui@
CONST	SEGMENT
??_C@_0BD@JMPLBDDF@glVertexAttribI3ui@ DB 'glVertexAttribI3ui', 00H ; `string'
CONST	ENDS
;	COMDAT ??_C@_0BD@CEEHHEFA@glVertexAttribI2ui@
CONST	SEGMENT
??_C@_0BD@CEEHHEFA@glVertexAttribI2ui@ DB 'glVertexAttribI2ui', 00H ; `string'
CONST	ENDS
;	COMDAT ??_C@_0BD@DGPCNLLO@glVertexAttribI1ui@
CONST	SEGMENT
??_C@_0BD@DGPCNLLO@glVertexAttribI1ui@ DB 'glVertexAttribI1ui', 00H ; `string'
CONST	ENDS
;	COMDAT ??_C@_0BC@CFEDAOOA@glVertexAttribI4i@
CONST	SEGMENT
??_C@_0BC@CFEDAOOA@glVertexAttribI4i@ DB 'glVertexAttribI4i', 00H ; `string'
CONST	ENDS
;	COMDAT ??_C@_0BC@CAAMBIGF@glVertexAttribI3i@
CONST	SEGMENT
??_C@_0BC@CAAMBIGF@glVertexAttribI3i@ DB 'glVertexAttribI3i', 00H ; `string'
CONST	ENDS
;	COMDAT ??_C@_0BC@CBMOHCFC@glVertexAttribI2i@
CONST	SEGMENT
??_C@_0BC@CBMOHCFC@glVertexAttribI2i@ DB 'glVertexAttribI2i', 00H ; `string'
CONST	ENDS
;	COMDAT ??_C@_0BC@CDIIMMAL@glVertexAttribI1i@
CONST	SEGMENT
??_C@_0BC@CDIIMMAL@glVertexAttribI1i@ DB 'glVertexAttribI1i', 00H ; `string'
CONST	ENDS
;	COMDAT ??_C@_0BG@GCBDCABB@glGetVertexAttribIuiv@
CONST	SEGMENT
??_C@_0BG@GCBDCABB@glGetVertexAttribIuiv@ DB 'glGetVertexAttribIuiv', 00H ; `string'
CONST	ENDS
;	COMDAT ??_C@_0BF@KPDNEONP@glGetVertexAttribIiv@
CONST	SEGMENT
??_C@_0BF@KPDNEONP@glGetVertexAttribIiv@ DB 'glGetVertexAttribIiv', 00H ; `string'
CONST	ENDS
;	COMDAT ??_C@_0BH@NLOEHKCD@glVertexAttribIPointer@
CONST	SEGMENT
??_C@_0BH@NLOEHKCD@glVertexAttribIPointer@ DB 'glVertexAttribIPointer', 00H ; `string'
CONST	ENDS
;	COMDAT ??_C@_0BH@KCIOLNMA@glEndConditionalRender@
CONST	SEGMENT
??_C@_0BH@KCIOLNMA@glEndConditionalRender@ DB 'glEndConditionalRender', 00H ; `string'
CONST	ENDS
;	COMDAT ??_C@_0BJ@EHEPIEPF@glBeginConditionalRender@
CONST	SEGMENT
??_C@_0BJ@EHEPIEPF@glBeginConditionalRender@ DB 'glBeginConditionalRender'
	DB	00H						; `string'
CONST	ENDS
;	COMDAT ??_C@_0N@HLGAGIMI@glClampColor@
CONST	SEGMENT
??_C@_0N@HLGAGIMI@glClampColor@ DB 'glClampColor', 00H	; `string'
CONST	ENDS
;	COMDAT ??_C@_0BO@ODFLPNG@glGetTransformFeedbackVarying@
CONST	SEGMENT
??_C@_0BO@ODFLPNG@glGetTransformFeedbackVarying@ DB 'glGetTransformFeedba'
	DB	'ckVarying', 00H				; `string'
CONST	ENDS
;	COMDAT ??_C@_0BM@IJFAKBEF@glTransformFeedbackVaryings@
CONST	SEGMENT
??_C@_0BM@IJFAKBEF@glTransformFeedbackVaryings@ DB 'glTransformFeedbackVa'
	DB	'ryings', 00H				; `string'
CONST	ENDS
;	COMDAT ??_C@_0BB@LDPKOCJI@glBindBufferBase@
CONST	SEGMENT
??_C@_0BB@LDPKOCJI@glBindBufferBase@ DB 'glBindBufferBase', 00H ; `string'
CONST	ENDS
;	COMDAT ??_C@_0BC@EEMMCHMB@glBindBufferRange@
CONST	SEGMENT
??_C@_0BC@EEMMCHMB@glBindBufferRange@ DB 'glBindBufferRange', 00H ; `string'
CONST	ENDS
;	COMDAT ??_C@_0BH@LCFLNNBH@glEndTransformFeedback@
CONST	SEGMENT
??_C@_0BH@LCFLNNBH@glEndTransformFeedback@ DB 'glEndTransformFeedback', 00H ; `string'
CONST	ENDS
;	COMDAT ??_C@_0BJ@FHJKOECC@glBeginTransformFeedback@
CONST	SEGMENT
??_C@_0BJ@FHJKOECC@glBeginTransformFeedback@ DB 'glBeginTransformFeedback'
	DB	00H						; `string'
CONST	ENDS
;	COMDAT ??_C@_0N@IMGKGOKN@glIsEnabledi@
CONST	SEGMENT
??_C@_0N@IMGKGOKN@glIsEnabledi@ DB 'glIsEnabledi', 00H	; `string'
CONST	ENDS
;	COMDAT ??_C@_0L@BMJPGDDH@glDisablei@
CONST	SEGMENT
??_C@_0L@BMJPGDDH@glDisablei@ DB 'glDisablei', 00H	; `string'
CONST	ENDS
;	COMDAT ??_C@_09IEGEGIEN@glEnablei@
CONST	SEGMENT
??_C@_09IEGEGIEN@glEnablei@ DB 'glEnablei', 00H		; `string'
CONST	ENDS
;	COMDAT ??_C@_0BA@FKCNNMFO@glGetIntegeri_v@
CONST	SEGMENT
??_C@_0BA@FKCNNMFO@glGetIntegeri_v@ DB 'glGetIntegeri_v', 00H ; `string'
CONST	ENDS
;	COMDAT ??_C@_0BA@OAKNOBP@glGetBooleani_v@
CONST	SEGMENT
??_C@_0BA@OAKNOBP@glGetBooleani_v@ DB 'glGetBooleani_v', 00H ; `string'
CONST	ENDS
;	COMDAT ??_C@_0N@JHNNNJFG@glColorMaski@
CONST	SEGMENT
??_C@_0N@JHNNNJFG@glColorMaski@ DB 'glColorMaski', 00H	; `string'
CONST	ENDS
;	COMDAT ??_C@_0BF@HFGACBCH@glUniformMatrix4x3fv@
CONST	SEGMENT
??_C@_0BF@HFGACBCH@glUniformMatrix4x3fv@ DB 'glUniformMatrix4x3fv', 00H ; `string'
CONST	ENDS
;	COMDAT ??_C@_0BF@PFLCCJCG@glUniformMatrix3x4fv@
CONST	SEGMENT
??_C@_0BF@PFLCCJCG@glUniformMatrix3x4fv@ DB 'glUniformMatrix3x4fv', 00H ; `string'
CONST	ENDS
;	COMDAT ??_C@_0BF@MNNMEGEC@glUniformMatrix4x2fv@
CONST	SEGMENT
??_C@_0BF@MNNMEGEC@glUniformMatrix4x2fv@ DB 'glUniformMatrix4x2fv', 00H ; `string'
CONST	ENDS
;	COMDAT ??_C@_0BF@DOOOPKID@glUniformMatrix2x4fv@
CONST	SEGMENT
??_C@_0BF@DOOOPKID@glUniformMatrix2x4fv@ DB 'glUniformMatrix2x4fv', 00H ; `string'
CONST	ENDS
;	COMDAT ??_C@_0BF@NANJHGPK@glUniformMatrix3x2fv@
CONST	SEGMENT
??_C@_0BF@NANJHGPK@glUniformMatrix3x2fv@ DB 'glUniformMatrix3x2fv', 00H ; `string'
CONST	ENDS
;	COMDAT ??_C@_0BF@KDDJMCDK@glUniformMatrix2x3fv@
CONST	SEGMENT
??_C@_0BF@KDDJMCDK@glUniformMatrix2x3fv@ DB 'glUniformMatrix2x3fv', 00H ; `string'
CONST	ENDS
;	COMDAT ??_C@_0BG@JPNNNPKG@glVertexAttribPointer@
CONST	SEGMENT
??_C@_0BG@JPNNNPKG@glVertexAttribPointer@ DB 'glVertexAttribPointer', 00H ; `string'
CONST	ENDS
;	COMDAT ??_C@_0BD@OKBBECIG@glVertexAttrib4usv@
CONST	SEGMENT
??_C@_0BD@OKBBECIG@glVertexAttrib4usv@ DB 'glVertexAttrib4usv', 00H ; `string'
CONST	ENDS
;	COMDAT ??_C@_0BD@PLKAGECA@glVertexAttrib4uiv@
CONST	SEGMENT
??_C@_0BD@PLKAGECA@glVertexAttrib4uiv@ DB 'glVertexAttrib4uiv', 00H ; `string'
CONST	ENDS
;	COMDAT ??_C@_0BD@PHPFILMB@glVertexAttrib4ubv@
CONST	SEGMENT
??_C@_0BD@PHPFILMB@glVertexAttrib4ubv@ DB 'glVertexAttrib4ubv', 00H ; `string'
CONST	ENDS
;	COMDAT ??_C@_0BC@EJJODHK@glVertexAttrib4sv@
CONST	SEGMENT
??_C@_0BC@EJJODHK@glVertexAttrib4sv@ DB 'glVertexAttrib4sv', 00H ; `string'
CONST	ENDS
;	COMDAT ??_C@_0BB@PLKDLLIP@glVertexAttrib4s@
CONST	SEGMENT
??_C@_0BB@PLKDLLIP@glVertexAttrib4s@ DB 'glVertexAttrib4s', 00H ; `string'
CONST	ENDS
;	COMDAT ??_C@_0BC@BFCIMFNM@glVertexAttrib4iv@
CONST	SEGMENT
??_C@_0BC@BFCIMFNM@glVertexAttrib4iv@ DB 'glVertexAttrib4iv', 00H ; `string'
CONST	ENDS
;	COMDAT ??_C@_0BC@BOHEICOB@glVertexAttrib4fv@
CONST	SEGMENT
??_C@_0BC@BOHEICOB@glVertexAttrib4fv@ DB 'glVertexAttrib4fv', 00H ; `string'
CONST	ENDS
;	COMDAT ??_C@_0BB@MMBGFNJL@glVertexAttrib4f@
CONST	SEGMENT
??_C@_0BB@MMBGFNJL@glVertexAttrib4f@ DB 'glVertexAttrib4f', 00H ; `string'
CONST	ENDS
;	COMDAT ??_C@_0BC@BNPAFGIP@glVertexAttrib4dv@
CONST	SEGMENT
??_C@_0BC@BNPAFGIP@glVertexAttrib4dv@ DB 'glVertexAttrib4dv', 00H ; `string'
CONST	ENDS
;	COMDAT ??_C@_0BB@POCADPBJ@glVertexAttrib4d@
CONST	SEGMENT
??_C@_0BB@POCADPBJ@glVertexAttrib4d@ DB 'glVertexAttrib4d', 00H ; `string'
CONST	ENDS
;	COMDAT ??_C@_0BC@BJHNCKDN@glVertexAttrib4bv@
CONST	SEGMENT
??_C@_0BC@BJHNCKDN@glVertexAttrib4bv@ DB 'glVertexAttrib4bv', 00H ; `string'
CONST	ENDS
;	COMDAT ??_C@_0BE@IIAFPNIH@glVertexAttrib4Nusv@
CONST	SEGMENT
??_C@_0BE@IIAFPNIH@glVertexAttrib4Nusv@ DB 'glVertexAttrib4Nusv', 00H ; `string'
CONST	ENDS
;	COMDAT ??_C@_0BE@JJLENLCB@glVertexAttrib4Nuiv@
CONST	SEGMENT
??_C@_0BE@JJLENLCB@glVertexAttrib4Nuiv@ DB 'glVertexAttrib4Nuiv', 00H ; `string'
CONST	ENDS
;	COMDAT ??_C@_0BE@JFOBDEMA@glVertexAttrib4Nubv@
CONST	SEGMENT
??_C@_0BE@JFOBDEMA@glVertexAttrib4Nubv@ DB 'glVertexAttrib4Nubv', 00H ; `string'
CONST	ENDS
;	COMDAT ??_C@_0BD@OHBIJGMB@glVertexAttrib4Nub@
CONST	SEGMENT
??_C@_0BD@OHBIJGMB@glVertexAttrib4Nub@ DB 'glVertexAttrib4Nub', 00H ; `string'
CONST	ENDS
;	COMDAT ??_C@_0BD@MNDLDNCG@glVertexAttrib4Nsv@
CONST	SEGMENT
??_C@_0BD@MNDLDNCG@glVertexAttrib4Nsv@ DB 'glVertexAttrib4Nsv', 00H ; `string'
CONST	ENDS
;	COMDAT ??_C@_0BD@NMIKBLIA@glVertexAttrib4Niv@
CONST	SEGMENT
??_C@_0BD@NMIKBLIA@glVertexAttrib4Niv@ DB 'glVertexAttrib4Niv', 00H ; `string'
CONST	ENDS
;	COMDAT ??_C@_0BD@NANPPEGB@glVertexAttrib4Nbv@
CONST	SEGMENT
??_C@_0BD@NANPPEGB@glVertexAttrib4Nbv@ DB 'glVertexAttrib4Nbv', 00H ; `string'
CONST	ENDS
;	COMDAT ??_C@_0BC@JJEONLMD@glVertexAttrib3sv@
CONST	SEGMENT
??_C@_0BC@JJEONLMD@glVertexAttrib3sv@ DB 'glVertexAttrib3sv', 00H ; `string'
CONST	ENDS
;	COMDAT ??_C@_0BB@POOMKNAK@glVertexAttrib3s@
CONST	SEGMENT
??_C@_0BB@POOMKNAK@glVertexAttrib3s@ DB 'glVertexAttrib3s', 00H ; `string'
CONST	ENDS
;	COMDAT ??_C@_0BC@IDKDLKFI@glVertexAttrib3fv@
CONST	SEGMENT
??_C@_0BC@IDKDLKFI@glVertexAttrib3fv@ DB 'glVertexAttrib3fv', 00H ; `string'
CONST	ENDS
;	COMDAT ??_C@_0BB@MJFJELBO@glVertexAttrib3f@
CONST	SEGMENT
??_C@_0BB@MJFJELBO@glVertexAttrib3f@ DB 'glVertexAttrib3f', 00H ; `string'
CONST	ENDS
;	COMDAT ??_C@_0BC@IACHGODG@glVertexAttrib3dv@
CONST	SEGMENT
??_C@_0BC@IACHGODG@glVertexAttrib3dv@ DB 'glVertexAttrib3dv', 00H ; `string'
CONST	ENDS
;	COMDAT ??_C@_0BB@PLGPCJJM@glVertexAttrib3d@
CONST	SEGMENT
??_C@_0BB@PLGPCJJM@glVertexAttrib3d@ DB 'glVertexAttrib3d', 00H ; `string'
CONST	ENDS
;	COMDAT ??_C@_0BC@CBPCLMKG@glVertexAttrib2sv@
CONST	SEGMENT
??_C@_0BC@CBPCLMKG@glVertexAttrib2sv@ DB 'glVertexAttrib2sv', 00H ; `string'
CONST	ENDS
;	COMDAT ??_C@_0BB@PPCOMHDN@glVertexAttrib2s@
CONST	SEGMENT
??_C@_0BB@PPCOMHDN@glVertexAttrib2s@ DB 'glVertexAttrib2s', 00H ; `string'
CONST	ENDS
;	COMDAT ??_C@_0BC@DLBPNNDN@glVertexAttrib2fv@
CONST	SEGMENT
??_C@_0BC@DLBPNNDN@glVertexAttrib2fv@ DB 'glVertexAttrib2fv', 00H ; `string'
CONST	ENDS
;	COMDAT ??_C@_0BB@MIJLCBCJ@glVertexAttrib2f@
CONST	SEGMENT
??_C@_0BB@MIJLCBCJ@glVertexAttrib2f@ DB 'glVertexAttrib2f', 00H ; `string'
CONST	ENDS
;	COMDAT ??_C@_0BC@DIJLAJFD@glVertexAttrib2dv@
CONST	SEGMENT
??_C@_0BC@DIJLAJFD@glVertexAttrib2dv@ DB 'glVertexAttrib2dv', 00H ; `string'
CONST	ENDS
;	COMDAT ??_C@_0BB@PKKNEDKL@glVertexAttrib2d@
CONST	SEGMENT
??_C@_0BB@PKKNEDKL@glVertexAttrib2d@ DB 'glVertexAttrib2d', 00H ; `string'
CONST	ENDS
;	COMDAT ??_C@_0BC@DDEHBDEI@glVertexAttrib1sv@
CONST	SEGMENT
??_C@_0BC@DDEHBDEI@glVertexAttrib1sv@ DB 'glVertexAttrib1sv', 00H ; `string'
CONST	ENDS
;	COMDAT ??_C@_0BB@PNGIHJGE@glVertexAttrib1s@
CONST	SEGMENT
??_C@_0BB@PNGIHJGE@glVertexAttrib1s@ DB 'glVertexAttrib1s', 00H ; `string'
CONST	ENDS
;	COMDAT ??_C@_0BC@CJKKHCND@glVertexAttrib1fv@
CONST	SEGMENT
??_C@_0BC@CJKKHCND@glVertexAttrib1fv@ DB 'glVertexAttrib1fv', 00H ; `string'
CONST	ENDS
;	COMDAT ??_C@_0BB@MKNNJPHA@glVertexAttrib1f@
CONST	SEGMENT
??_C@_0BB@MKNNJPHA@glVertexAttrib1f@ DB 'glVertexAttrib1f', 00H ; `string'
CONST	ENDS
;	COMDAT ??_C@_0BC@CKCOKGLN@glVertexAttrib1dv@
CONST	SEGMENT
??_C@_0BC@CKCOKGLN@glVertexAttrib1dv@ DB 'glVertexAttrib1dv', 00H ; `string'
CONST	ENDS
;	COMDAT ??_C@_0BB@PIOLPNPC@glVertexAttrib1d@
CONST	SEGMENT
??_C@_0BB@PIOLPNPC@glVertexAttrib1d@ DB 'glVertexAttrib1d', 00H ; `string'
CONST	ENDS
;	COMDAT ??_C@_0BC@MAPGDLJK@glValidateProgram@
CONST	SEGMENT
??_C@_0BC@MAPGDLJK@glValidateProgram@ DB 'glValidateProgram', 00H ; `string'
CONST	ENDS
;	COMDAT ??_C@_0BD@LNHCBEKP@glUniformMatrix4fv@
CONST	SEGMENT
??_C@_0BD@LNHCBEKP@glUniformMatrix4fv@ DB 'glUniformMatrix4fv', 00H ; `string'
CONST	ENDS
;	COMDAT ??_C@_0BD@CAKFCMBG@glUniformMatrix3fv@
CONST	SEGMENT
??_C@_0BD@CAKFCMBG@glUniformMatrix3fv@ DB 'glUniformMatrix3fv', 00H ; `string'
CONST	ENDS
;	COMDAT ??_C@_0BD@JIBJELHD@glUniformMatrix2fv@
CONST	SEGMENT
??_C@_0BD@JIBJELHD@glUniformMatrix2fv@ DB 'glUniformMatrix2fv', 00H ; `string'
CONST	ENDS
;	COMDAT ??_C@_0N@JFEMPNIH@glUniform4iv@
CONST	SEGMENT
??_C@_0N@JFEMPNIH@glUniform4iv@ DB 'glUniform4iv', 00H	; `string'
CONST	ENDS
;	COMDAT ??_C@_0N@IJLMFDO@glUniform3iv@
CONST	SEGMENT
??_C@_0N@IJLMFDO@glUniform3iv@ DB 'glUniform3iv', 00H	; `string'
CONST	ENDS
;	COMDAT ??_C@_0N@LACHKCFL@glUniform2iv@
CONST	SEGMENT
??_C@_0N@LACHKCFL@glUniform2iv@ DB 'glUniform2iv', 00H	; `string'
CONST	ENDS
;	COMDAT ??_C@_0N@KCJCANLF@glUniform1iv@
CONST	SEGMENT
??_C@_0N@KCJCANLF@glUniform1iv@ DB 'glUniform1iv', 00H	; `string'
CONST	ENDS
;	COMDAT ??_C@_0N@JOBALKLK@glUniform4fv@
CONST	SEGMENT
??_C@_0N@JOBALKLK@glUniform4fv@ DB 'glUniform4fv', 00H	; `string'
CONST	ENDS
;	COMDAT ??_C@_0N@DMHICAD@glUniform3fv@
CONST	SEGMENT
??_C@_0N@DMHICAD@glUniform3fv@ DB 'glUniform3fv', 00H	; `string'
CONST	ENDS
;	COMDAT ??_C@_0N@LLHLOFGG@glUniform2fv@
CONST	SEGMENT
??_C@_0N@LLHLOFGG@glUniform2fv@ DB 'glUniform2fv', 00H	; `string'
CONST	ENDS
;	COMDAT ??_C@_0N@KJMOEKII@glUniform1fv@
CONST	SEGMENT
??_C@_0N@KJMOEKII@glUniform1fv@ DB 'glUniform1fv', 00H	; `string'
CONST	ENDS
;	COMDAT ??_C@_0M@EKNBNBMB@glUniform4i@
CONST	SEGMENT
??_C@_0M@EKNBNBMB@glUniform4i@ DB 'glUniform4i', 00H	; `string'
CONST	ENDS
;	COMDAT ??_C@_0M@EPJOMHEE@glUniform3i@
CONST	SEGMENT
??_C@_0M@EPJOMHEE@glUniform3i@ DB 'glUniform3i', 00H	; `string'
CONST	ENDS
;	COMDAT ??_C@_0M@EOFMKNHD@glUniform2i@
CONST	SEGMENT
??_C@_0M@EOFMKNHD@glUniform2i@ DB 'glUniform2i', 00H	; `string'
CONST	ENDS
;	COMDAT ??_C@_0M@EMBKBDCK@glUniform1i@
CONST	SEGMENT
??_C@_0M@EMBKBDCK@glUniform1i@ DB 'glUniform1i', 00H	; `string'
CONST	ENDS
;	COMDAT ??_C@_0M@MNEJMNAO@glUniform4f@
CONST	SEGMENT
??_C@_0M@MNEJMNAO@glUniform4f@ DB 'glUniform4f', 00H	; `string'
CONST	ENDS
;	COMDAT ??_C@_0M@MIAGNLIL@glUniform3f@
CONST	SEGMENT
??_C@_0M@MIAGNLIL@glUniform3f@ DB 'glUniform3f', 00H	; `string'
CONST	ENDS
;	COMDAT ??_C@_0M@MJMELBLM@glUniform2f@
CONST	SEGMENT
??_C@_0M@MJMELBLM@glUniform2f@ DB 'glUniform2f', 00H	; `string'
CONST	ENDS
;	COMDAT ??_C@_0M@MLICAPOF@glUniform1f@
CONST	SEGMENT
??_C@_0M@MLICAPOF@glUniform1f@ DB 'glUniform1f', 00H	; `string'
CONST	ENDS
;	COMDAT ??_C@_0N@ICBDHBI@glUseProgram@
CONST	SEGMENT
??_C@_0N@ICBDHBI@glUseProgram@ DB 'glUseProgram', 00H	; `string'
CONST	ENDS
;	COMDAT ??_C@_0P@DFHCPFMO@glShaderSource@
CONST	SEGMENT
??_C@_0P@DFHCPFMO@glShaderSource@ DB 'glShaderSource', 00H ; `string'
CONST	ENDS
;	COMDAT ??_C@_0O@PIOEEBPO@glLinkProgram@
CONST	SEGMENT
??_C@_0O@PIOEEBPO@glLinkProgram@ DB 'glLinkProgram', 00H ; `string'
CONST	ENDS
;	COMDAT ??_C@_0L@MDDLFIHC@glIsShader@
CONST	SEGMENT
??_C@_0L@MDDLFIHC@glIsShader@ DB 'glIsShader', 00H	; `string'
CONST	ENDS
;	COMDAT ??_C@_0M@INLOJDGO@glIsProgram@
CONST	SEGMENT
??_C@_0M@INLOJDGO@glIsProgram@ DB 'glIsProgram', 00H	; `string'
CONST	ENDS
;	COMDAT ??_C@_0BK@DOJMENLD@glGetVertexAttribPointerv@
CONST	SEGMENT
??_C@_0BK@DOJMENLD@glGetVertexAttribPointerv@ DB 'glGetVertexAttribPointe'
	DB	'rv', 00H					; `string'
CONST	ENDS
;	COMDAT ??_C@_0BE@HLCEAPNO@glGetVertexAttribiv@
CONST	SEGMENT
??_C@_0BE@HLCEAPNO@glGetVertexAttribiv@ DB 'glGetVertexAttribiv', 00H ; `string'
CONST	ENDS
;	COMDAT ??_C@_0BE@HAHIEIOD@glGetVertexAttribfv@
CONST	SEGMENT
??_C@_0BE@HAHIEIOD@glGetVertexAttribfv@ DB 'glGetVertexAttribfv', 00H ; `string'
CONST	ENDS
;	COMDAT ??_C@_0BE@HDPMJMIN@glGetVertexAttribdv@
CONST	SEGMENT
??_C@_0BE@HDPMJMIN@glGetVertexAttribdv@ DB 'glGetVertexAttribdv', 00H ; `string'
CONST	ENDS
;	COMDAT ??_C@_0P@IAONPCL@glGetUniformiv@
CONST	SEGMENT
??_C@_0P@IAONPCL@glGetUniformiv@ DB 'glGetUniformiv', 00H ; `string'
CONST	ENDS
;	COMDAT ??_C@_0P@DFCJIBG@glGetUniformfv@
CONST	SEGMENT
??_C@_0P@DFCJIBG@glGetUniformfv@ DB 'glGetUniformfv', 00H ; `string'
CONST	ENDS
;	COMDAT ??_C@_0BF@KIOPGICP@glGetUniformLocation@
CONST	SEGMENT
??_C@_0BF@KIOPGICP@glGetUniformLocation@ DB 'glGetUniformLocation', 00H ; `string'
CONST	ENDS
;	COMDAT ??_C@_0BC@ELEIFJEL@glGetShaderSource@
CONST	SEGMENT
??_C@_0BC@ELEIFJEL@glGetShaderSource@ DB 'glGetShaderSource', 00H ; `string'
CONST	ENDS
;	COMDAT ??_C@_0BD@GIABBCMO@glGetShaderInfoLog@
CONST	SEGMENT
??_C@_0BD@GIABBCMO@glGetShaderInfoLog@ DB 'glGetShaderInfoLog', 00H ; `string'
CONST	ENDS
;	COMDAT ??_C@_0O@JBDFPDMG@glGetShaderiv@
CONST	SEGMENT
??_C@_0O@JBDFPDMG@glGetShaderiv@ DB 'glGetShaderiv', 00H ; `string'
CONST	ENDS
;	COMDAT ??_C@_0BE@DHGHAJFL@glGetProgramInfoLog@
CONST	SEGMENT
??_C@_0BE@DHGHAJFL@glGetProgramInfoLog@ DB 'glGetProgramInfoLog', 00H ; `string'
CONST	ENDS
;	COMDAT ??_C@_0P@FMMDFLCO@glGetProgramiv@
CONST	SEGMENT
??_C@_0P@FMMDFLCO@glGetProgramiv@ DB 'glGetProgramiv', 00H ; `string'
CONST	ENDS
;	COMDAT ??_C@_0BE@BEPGJDMM@glGetAttribLocation@
CONST	SEGMENT
??_C@_0BE@BEPGJDMM@glGetAttribLocation@ DB 'glGetAttribLocation', 00H ; `string'
CONST	ENDS
;	COMDAT ??_C@_0BF@GHMDGFEM@glGetAttachedShaders@
CONST	SEGMENT
??_C@_0BF@GHMDGFEM@glGetAttachedShaders@ DB 'glGetAttachedShaders', 00H ; `string'
CONST	ENDS
;	COMDAT ??_C@_0BD@NIMHLLKN@glGetActiveUniform@
CONST	SEGMENT
??_C@_0BD@NIMHLLKN@glGetActiveUniform@ DB 'glGetActiveUniform', 00H ; `string'
CONST	ENDS
;	COMDAT ??_C@_0BC@MBALAOHF@glGetActiveAttrib@
CONST	SEGMENT
??_C@_0BC@MBALAOHF@glGetActiveAttrib@ DB 'glGetActiveAttrib', 00H ; `string'
CONST	ENDS
;	COMDAT ??_C@_0BK@EHBAHNHE@glEnableVertexAttribArray@
CONST	SEGMENT
??_C@_0BK@EHBAHNHE@glEnableVertexAttribArray@ DB 'glEnableVertexAttribArr'
	DB	'ay', 00H					; `string'
CONST	ENDS
;	COMDAT ??_C@_0BL@NKHLOFFF@glDisableVertexAttribArray@
CONST	SEGMENT
??_C@_0BL@NKHLOFFF@glDisableVertexAttribArray@ DB 'glDisableVertexAttribA'
	DB	'rray', 00H					; `string'
CONST	ENDS
;	COMDAT ??_C@_0P@DJFJFCJL@glDetachShader@
CONST	SEGMENT
??_C@_0P@DJFJFCJL@glDetachShader@ DB 'glDetachShader', 00H ; `string'
CONST	ENDS
;	COMDAT ??_C@_0P@HHCDONAG@glDeleteShader@
CONST	SEGMENT
??_C@_0P@HHCDONAG@glDeleteShader@ DB 'glDeleteShader', 00H ; `string'
CONST	ENDS
;	COMDAT ??_C@_0BA@NKGCDOPO@glDeleteProgram@
CONST	SEGMENT
??_C@_0BA@NKGCDOPO@glDeleteProgram@ DB 'glDeleteProgram', 00H ; `string'
CONST	ENDS
;	COMDAT ??_C@_0P@HGHBNC@glCreateShader@
CONST	SEGMENT
??_C@_0P@HGHBNC@glCreateShader@ DB 'glCreateShader', 00H ; `string'
CONST	ENDS
;	COMDAT ??_C@_0BA@FLKLHNKP@glCreateProgram@
CONST	SEGMENT
??_C@_0BA@FLKLHNKP@glCreateProgram@ DB 'glCreateProgram', 00H ; `string'
CONST	ENDS
;	COMDAT ??_C@_0BA@DGIEGONF@glCompileShader@
CONST	SEGMENT
??_C@_0BA@DGIEGONF@glCompileShader@ DB 'glCompileShader', 00H ; `string'
CONST	ENDS
;	COMDAT ??_C@_0BF@MHKEFIHM@glBindAttribLocation@
CONST	SEGMENT
??_C@_0BF@MHKEFIHM@glBindAttribLocation@ DB 'glBindAttribLocation', 00H ; `string'
CONST	ENDS
;	COMDAT ??_C@_0P@LDMLEABL@glAttachShader@
CONST	SEGMENT
??_C@_0P@LDMLEABL@glAttachShader@ DB 'glAttachShader', 00H ; `string'
CONST	ENDS
;	COMDAT ??_C@_0BG@MMKPIEJI@glStencilMaskSeparate@
CONST	SEGMENT
??_C@_0BG@MMKPIEJI@glStencilMaskSeparate@ DB 'glStencilMaskSeparate', 00H ; `string'
CONST	ENDS
;	COMDAT ??_C@_0BG@FCMNCEIA@glStencilFuncSeparate@
CONST	SEGMENT
??_C@_0BG@FCMNCEIA@glStencilFuncSeparate@ DB 'glStencilFuncSeparate', 00H ; `string'
CONST	ENDS
;	COMDAT ??_C@_0BE@GAPLDNGF@glStencilOpSeparate@
CONST	SEGMENT
??_C@_0BE@GAPLDNGF@glStencilOpSeparate@ DB 'glStencilOpSeparate', 00H ; `string'
CONST	ENDS
;	COMDAT ??_C@_0O@COHJKDBH@glDrawBuffers@
CONST	SEGMENT
??_C@_0O@COHJKDBH@glDrawBuffers@ DB 'glDrawBuffers', 00H ; `string'
CONST	ENDS
;	COMDAT ??_C@_0BI@JNHDNJAG@glBlendEquationSeparate@
CONST	SEGMENT
??_C@_0BI@JNHDNJAG@glBlendEquationSeparate@ DB 'glBlendEquationSeparate', 00H ; `string'
CONST	ENDS
;	COMDAT ??_C@_0BE@KNJEIFMC@glGetBufferPointerv@
CONST	SEGMENT
??_C@_0BE@KNJEIFMC@glGetBufferPointerv@ DB 'glGetBufferPointerv', 00H ; `string'
CONST	ENDS
;	COMDAT ??_C@_0BH@BMIEIFJP@glGetBufferParameteriv@
CONST	SEGMENT
??_C@_0BH@BMIEIFJP@glGetBufferParameteriv@ DB 'glGetBufferParameteriv', 00H ; `string'
CONST	ENDS
;	COMDAT ??_C@_0O@OFGHBLEO@glUnmapBuffer@
CONST	SEGMENT
??_C@_0O@OFGHBLEO@glUnmapBuffer@ DB 'glUnmapBuffer', 00H ; `string'
CONST	ENDS
;	COMDAT ??_C@_0M@NNHDPACA@glMapBuffer@
CONST	SEGMENT
??_C@_0M@NNHDPACA@glMapBuffer@ DB 'glMapBuffer', 00H	; `string'
CONST	ENDS
;	COMDAT ??_C@_0BD@PNDAHMBO@glGetBufferSubData@
CONST	SEGMENT
??_C@_0BD@PNDAHMBO@glGetBufferSubData@ DB 'glGetBufferSubData', 00H ; `string'
CONST	ENDS
;	COMDAT ??_C@_0BA@GAJMDBBN@glBufferSubData@
CONST	SEGMENT
??_C@_0BA@GAJMDBBN@glBufferSubData@ DB 'glBufferSubData', 00H ; `string'
CONST	ENDS
;	COMDAT ??_C@_0N@JHHJMABP@glBufferData@
CONST	SEGMENT
??_C@_0N@JHHJMABP@glBufferData@ DB 'glBufferData', 00H	; `string'
CONST	ENDS
;	COMDAT ??_C@_0L@KFPDMKNG@glIsBuffer@
CONST	SEGMENT
??_C@_0L@KFPDMKNG@glIsBuffer@ DB 'glIsBuffer', 00H	; `string'
CONST	ENDS
;	COMDAT ??_C@_0N@LAOHBIBA@glGenBuffers@
CONST	SEGMENT
??_C@_0N@LAOHBIBA@glGenBuffers@ DB 'glGenBuffers', 00H	; `string'
CONST	ENDS
;	COMDAT ??_C@_0BA@DMNLADIO@glDeleteBuffers@
CONST	SEGMENT
??_C@_0BA@DMNLADIO@glDeleteBuffers@ DB 'glDeleteBuffers', 00H ; `string'
CONST	ENDS
;	COMDAT ??_C@_0N@BONEPPLO@glBindBuffer@
CONST	SEGMENT
??_C@_0N@BONEPPLO@glBindBuffer@ DB 'glBindBuffer', 00H	; `string'
CONST	ENDS
;	COMDAT ??_C@_0BE@MNBBKJ@glGetQueryObjectuiv@
CONST	SEGMENT
??_C@_0BE@MNBBKJ@glGetQueryObjectuiv@ DB 'glGetQueryObjectuiv', 00H ; `string'
CONST	ENDS
;	COMDAT ??_C@_0BD@KMBBCJID@glGetQueryObjectiv@
CONST	SEGMENT
??_C@_0BD@KMBBCJID@glGetQueryObjectiv@ DB 'glGetQueryObjectiv', 00H ; `string'
CONST	ENDS
;	COMDAT ??_C@_0N@BPACPFCI@glGetQueryiv@
CONST	SEGMENT
??_C@_0N@BPACPFCI@glGetQueryiv@ DB 'glGetQueryiv', 00H	; `string'
CONST	ENDS
;	COMDAT ??_C@_0L@FLEBHIDM@glEndQuery@
CONST	SEGMENT
??_C@_0L@FLEBHIDM@glEndQuery@ DB 'glEndQuery', 00H	; `string'
CONST	ENDS
;	COMDAT ??_C@_0N@GIAGIGPA@glBeginQuery@
CONST	SEGMENT
??_C@_0N@GIAGIGPA@glBeginQuery@ DB 'glBeginQuery', 00H	; `string'
CONST	ENDS
;	COMDAT ??_C@_09CNNLCEBN@glIsQuery@
CONST	SEGMENT
??_C@_09CNNLCEBN@glIsQuery@ DB 'glIsQuery', 00H		; `string'
CONST	ENDS
;	COMDAT ??_C@_0BA@IOKEHMOH@glDeleteQueries@
CONST	SEGMENT
??_C@_0BA@IOKEHMOH@glDeleteQueries@ DB 'glDeleteQueries', 00H ; `string'
CONST	ENDS
;	COMDAT ??_C@_0N@CJIGHHJ@glGenQueries@
CONST	SEGMENT
??_C@_0N@CJIGHHJ@glGenQueries@ DB 'glGenQueries', 00H	; `string'
CONST	ENDS
;	COMDAT ??_C@_0BA@PFHILPAN@glBlendEquation@
CONST	SEGMENT
??_C@_0BA@PFHILPAN@glBlendEquation@ DB 'glBlendEquation', 00H ; `string'
CONST	ENDS
;	COMDAT ??_C@_0N@PKBMFJDK@glBlendColor@
CONST	SEGMENT
??_C@_0N@PKBMFJDK@glBlendColor@ DB 'glBlendColor', 00H	; `string'
CONST	ENDS
;	COMDAT ??_C@_0BD@LDFNOKAC@glPointParameteriv@
CONST	SEGMENT
??_C@_0BD@LDFNOKAC@glPointParameteriv@ DB 'glPointParameteriv', 00H ; `string'
CONST	ENDS
;	COMDAT ??_C@_0BC@ICPGPIPB@glPointParameteri@
CONST	SEGMENT
??_C@_0BC@ICPGPIPB@glPointParameteri@ DB 'glPointParameteri', 00H ; `string'
CONST	ENDS
;	COMDAT ??_C@_0BD@LIABKNDP@glPointParameterfv@
CONST	SEGMENT
??_C@_0BD@LIABKNDP@glPointParameterfv@ DB 'glPointParameterfv', 00H ; `string'
CONST	ENDS
;	COMDAT ??_C@_0BC@FGOOEDO@glPointParameterf@
CONST	SEGMENT
??_C@_0BC@FGOOEDO@glPointParameterf@ DB 'glPointParameterf', 00H ; `string'
CONST	ENDS
;	COMDAT ??_C@_0BE@MPDFJJLL@glMultiDrawElements@
CONST	SEGMENT
??_C@_0BE@MPDFJJLL@glMultiDrawElements@ DB 'glMultiDrawElements', 00H ; `string'
CONST	ENDS
;	COMDAT ??_C@_0BC@IBABPJFA@glMultiDrawArrays@
CONST	SEGMENT
??_C@_0BC@IBABPJFA@glMultiDrawArrays@ DB 'glMultiDrawArrays', 00H ; `string'
CONST	ENDS
;	COMDAT ??_C@_0BE@LLLCIIOO@glBlendFuncSeparate@
CONST	SEGMENT
??_C@_0BE@LLLCIIOO@glBlendFuncSeparate@ DB 'glBlendFuncSeparate', 00H ; `string'
CONST	ENDS
;	COMDAT ??_C@_0BI@MPANLPPL@glGetCompressedTexImage@
CONST	SEGMENT
??_C@_0BI@MPANLPPL@glGetCompressedTexImage@ DB 'glGetCompressedTexImage', 00H ; `string'
CONST	ENDS
;	COMDAT ??_C@_0BK@ECBIPHJO@glCompressedTexSubImage1D@
CONST	SEGMENT
??_C@_0BK@ECBIPHJO@glCompressedTexSubImage1D@ DB 'glCompressedTexSubImage'
	DB	'1D', 00H					; `string'
CONST	ENDS
;	COMDAT ??_C@_0BK@EAFOEJMH@glCompressedTexSubImage2D@
CONST	SEGMENT
??_C@_0BK@EAFOEJMH@glCompressedTexSubImage2D@ DB 'glCompressedTexSubImage'
	DB	'2D', 00H					; `string'
CONST	ENDS
;	COMDAT ??_C@_0BK@EBJMCDPA@glCompressedTexSubImage3D@
CONST	SEGMENT
??_C@_0BK@EBJMCDPA@glCompressedTexSubImage3D@ DB 'glCompressedTexSubImage'
	DB	'3D', 00H					; `string'
CONST	ENDS
;	COMDAT ??_C@_0BH@GFPJBEAB@glCompressedTexImage1D@
CONST	SEGMENT
??_C@_0BH@GFPJBEAB@glCompressedTexImage1D@ DB 'glCompressedTexImage1D', 00H ; `string'
CONST	ENDS
;	COMDAT ??_C@_0BH@GHLPKKFI@glCompressedTexImage2D@
CONST	SEGMENT
??_C@_0BH@GHLPKKFI@glCompressedTexImage2D@ DB 'glCompressedTexImage2D', 00H ; `string'
CONST	ENDS
;	COMDAT ??_C@_0BH@GGHNMAGP@glCompressedTexImage3D@
CONST	SEGMENT
??_C@_0BH@GGHNMAGP@glCompressedTexImage3D@ DB 'glCompressedTexImage3D', 00H ; `string'
CONST	ENDS
;	COMDAT ??_C@_0BB@BJGIPMOA@glSampleCoverage@
CONST	SEGMENT
??_C@_0BB@BJGIPMOA@glSampleCoverage@ DB 'glSampleCoverage', 00H ; `string'
CONST	ENDS
;	COMDAT ??_C@_0BA@KOBBIKOF@glActiveTexture@
CONST	SEGMENT
??_C@_0BA@KOBBIKOF@glActiveTexture@ DB 'glActiveTexture', 00H ; `string'
CONST	ENDS
;	COMDAT ??_C@_0BE@PJFGNMAG@glCopyTexSubImage3D@
CONST	SEGMENT
??_C@_0BE@PJFGNMAG@glCopyTexSubImage3D@ DB 'glCopyTexSubImage3D', 00H ; `string'
CONST	ENDS
;	COMDAT ??_C@_0BA@NGGKPOPN@glTexSubImage3D@
CONST	SEGMENT
??_C@_0BA@NGGKPOPN@glTexSubImage3D@ DB 'glTexSubImage3D', 00H ; `string'
CONST	ENDS
;	COMDAT ??_C@_0N@JAEIBBBF@glTexImage3D@
CONST	SEGMENT
??_C@_0N@JAEIBBBF@glTexImage3D@ DB 'glTexImage3D', 00H	; `string'
CONST	ENDS
;	COMDAT ??_C@_0BE@IHNAGJGJ@glDrawRangeElements@
CONST	SEGMENT
??_C@_0BE@IHNAGJGJ@glDrawRangeElements@ DB 'glDrawRangeElements', 00H ; `string'
CONST	ENDS
;	COMDAT ??_C@_0M@NJHAEPDN@glIsTexture@
CONST	SEGMENT
??_C@_0M@NJHAEPDN@glIsTexture@ DB 'glIsTexture', 00H	; `string'
CONST	ENDS
;	COMDAT ??_C@_0O@LLMANLNK@glGenTextures@
CONST	SEGMENT
??_C@_0O@LLMANLNK@glGenTextures@ DB 'glGenTextures', 00H ; `string'
CONST	ENDS
;	COMDAT ??_C@_0BB@KMPLFJIC@glDeleteTextures@
CONST	SEGMENT
??_C@_0BB@KMPLFJIC@glDeleteTextures@ DB 'glDeleteTextures', 00H ; `string'
CONST	ENDS
;	COMDAT ??_C@_0O@JKKCIBGC@glBindTexture@
CONST	SEGMENT
??_C@_0O@JKKCIBGC@glBindTexture@ DB 'glBindTexture', 00H ; `string'
CONST	ENDS
;	COMDAT ??_C@_0BA@NHKIJEMK@glTexSubImage2D@
CONST	SEGMENT
??_C@_0BA@NHKIJEMK@glTexSubImage2D@ DB 'glTexSubImage2D', 00H ; `string'
CONST	ENDS
;	COMDAT ??_C@_0BA@NFOOCKJD@glTexSubImage1D@
CONST	SEGMENT
??_C@_0BA@NFOOCKJD@glTexSubImage1D@ DB 'glTexSubImage1D', 00H ; `string'
CONST	ENDS
;	COMDAT ??_C@_0BE@PIJELGDB@glCopyTexSubImage2D@
CONST	SEGMENT
??_C@_0BE@PIJELGDB@glCopyTexSubImage2D@ DB 'glCopyTexSubImage2D', 00H ; `string'
CONST	ENDS
;	COMDAT ??_C@_0BE@PKNCAIGI@glCopyTexSubImage1D@
CONST	SEGMENT
??_C@_0BE@PKNCAIGI@glCopyTexSubImage1D@ DB 'glCopyTexSubImage1D', 00H ; `string'
CONST	ENDS
;	COMDAT ??_C@_0BB@MGAFKJKC@glCopyTexImage2D@
CONST	SEGMENT
??_C@_0BB@MGAFKJKC@glCopyTexImage2D@ DB 'glCopyTexImage2D', 00H ; `string'
CONST	ENDS
;	COMDAT ??_C@_0BB@MEEDBHPL@glCopyTexImage1D@
CONST	SEGMENT
??_C@_0BB@MEEDBHPL@glCopyTexImage1D@ DB 'glCopyTexImage1D', 00H ; `string'
CONST	ENDS
;	COMDAT ??_C@_0BA@FFBJGNC@glPolygonOffset@
CONST	SEGMENT
??_C@_0BA@FFBJGNC@glPolygonOffset@ DB 'glPolygonOffset', 00H ; `string'
CONST	ENDS
;	COMDAT ??_C@_0P@MENFIFGE@glDrawElements@
CONST	SEGMENT
??_C@_0P@MENFIFGE@glDrawElements@ DB 'glDrawElements', 00H ; `string'
CONST	ENDS
;	COMDAT ??_C@_0N@CMNPPOHA@glDrawArrays@
CONST	SEGMENT
??_C@_0N@CMNPPOHA@glDrawArrays@ DB 'glDrawArrays', 00H	; `string'
CONST	ENDS
;	COMDAT ??_C@_0L@KBLIPDFH@glViewport@
CONST	SEGMENT
??_C@_0L@KBLIPDFH@glViewport@ DB 'glViewport', 00H	; `string'
CONST	ENDS
;	COMDAT ??_C@_0N@PEBDIKOA@glDepthRange@
CONST	SEGMENT
??_C@_0N@PEBDIKOA@glDepthRange@ DB 'glDepthRange', 00H	; `string'
CONST	ENDS
;	COMDAT ??_C@_0M@INHMIHKC@glIsEnabled@
CONST	SEGMENT
??_C@_0M@INHMIHKC@glIsEnabled@ DB 'glIsEnabled', 00H	; `string'
CONST	ENDS
;	COMDAT ??_C@_0BJ@GLJHCPGI@glGetTexLevelParameteriv@
CONST	SEGMENT
??_C@_0BJ@GLJHCPGI@glGetTexLevelParameteriv@ DB 'glGetTexLevelParameteriv'
	DB	00H						; `string'
CONST	ENDS
;	COMDAT ??_C@_0BJ@GAMLGIFF@glGetTexLevelParameterfv@
CONST	SEGMENT
??_C@_0BJ@GAMLGIFF@glGetTexLevelParameterfv@ DB 'glGetTexLevelParameterfv'
	DB	00H						; `string'
CONST	ENDS
;	COMDAT ??_C@_0BE@DGCNLNPP@glGetTexParameteriv@
CONST	SEGMENT
??_C@_0BE@DGCNLNPP@glGetTexParameteriv@ DB 'glGetTexParameteriv', 00H ; `string'
CONST	ENDS
;	COMDAT ??_C@_0BE@DNHBPKMC@glGetTexParameterfv@
CONST	SEGMENT
??_C@_0BE@DNHBPKMC@glGetTexParameterfv@ DB 'glGetTexParameterfv', 00H ; `string'
CONST	ENDS
;	COMDAT ??_C@_0O@DOIIJLAD@glGetTexImage@
CONST	SEGMENT
??_C@_0O@DOIIJLAD@glGetTexImage@ DB 'glGetTexImage', 00H ; `string'
CONST	ENDS
;	COMDAT ??_C@_0M@OPOBFDCB@glGetString@
CONST	SEGMENT
??_C@_0M@OPOBFDCB@glGetString@ DB 'glGetString', 00H	; `string'
CONST	ENDS
;	COMDAT ??_C@_0O@DHHDCCLF@glGetIntegerv@
CONST	SEGMENT
??_C@_0O@DHHDCCLF@glGetIntegerv@ DB 'glGetIntegerv', 00H ; `string'
CONST	ENDS
;	COMDAT ??_C@_0M@CKCOBONE@glGetFloatv@
CONST	SEGMENT
??_C@_0M@CKCOBONE@glGetFloatv@ DB 'glGetFloatv', 00H	; `string'
CONST	ENDS
;	COMDAT ??_C@_0L@FPKAMKHB@glGetError@
CONST	SEGMENT
??_C@_0L@FPKAMKHB@glGetError@ DB 'glGetError', 00H	; `string'
CONST	ENDS
;	COMDAT ??_C@_0N@OFBMMCDH@glGetDoublev@
CONST	SEGMENT
??_C@_0N@OFBMMCDH@glGetDoublev@ DB 'glGetDoublev', 00H	; `string'
CONST	ENDS
;	COMDAT ??_C@_0O@NLMELLCJ@glGetBooleanv@
CONST	SEGMENT
??_C@_0O@NLMELLCJ@glGetBooleanv@ DB 'glGetBooleanv', 00H ; `string'
CONST	ENDS
;	COMDAT ??_C@_0N@CKFNNHOO@glReadPixels@
CONST	SEGMENT
??_C@_0N@CKFNNHOO@glReadPixels@ DB 'glReadPixels', 00H	; `string'
CONST	ENDS
;	COMDAT ??_C@_0N@HFKHBECK@glReadBuffer@
CONST	SEGMENT
??_C@_0N@HFKHBECK@glReadBuffer@ DB 'glReadBuffer', 00H	; `string'
CONST	ENDS
;	COMDAT ??_C@_0O@JCCIGLOF@glPixelStorei@
CONST	SEGMENT
??_C@_0O@JCCIGLOF@glPixelStorei@ DB 'glPixelStorei', 00H ; `string'
CONST	ENDS
;	COMDAT ??_C@_0O@BFLAHHCK@glPixelStoref@
CONST	SEGMENT
??_C@_0O@BFLAHHCK@glPixelStoref@ DB 'glPixelStoref', 00H ; `string'
CONST	ENDS
;	COMDAT ??_C@_0M@NEJABAEP@glDepthFunc@
CONST	SEGMENT
??_C@_0M@NEJABAEP@glDepthFunc@ DB 'glDepthFunc', 00H	; `string'
CONST	ENDS
;	COMDAT ??_C@_0M@BILBNGF@glStencilOp@
CONST	SEGMENT
??_C@_0M@BILBNGF@glStencilOp@ DB 'glStencilOp', 00H	; `string'
CONST	ENDS
;	COMDAT ??_C@_0O@ENNLLOLN@glStencilFunc@
CONST	SEGMENT
??_C@_0O@ENNLLOLN@glStencilFunc@ DB 'glStencilFunc', 00H ; `string'
CONST	ENDS
;	COMDAT ??_C@_09GKGMNAKG@glLogicOp@
CONST	SEGMENT
??_C@_09GKGMNAKG@glLogicOp@ DB 'glLogicOp', 00H		; `string'
CONST	ENDS
;	COMDAT ??_C@_0M@PFBKOKOH@glBlendFunc@
CONST	SEGMENT
??_C@_0M@PFBKOKOH@glBlendFunc@ DB 'glBlendFunc', 00H	; `string'
CONST	ENDS
;	COMDAT ??_C@_07COFELLJA@glFlush@
CONST	SEGMENT
??_C@_07COFELLJA@glFlush@ DB 'glFlush', 00H		; `string'
CONST	ENDS
;	COMDAT ??_C@_08DFCPOKBK@glFinish@
CONST	SEGMENT
??_C@_08DFCPOKBK@glFinish@ DB 'glFinish', 00H		; `string'
CONST	ENDS
;	COMDAT ??_C@_08OOEHEKOP@glEnable@
CONST	SEGMENT
??_C@_08OOEHEKOP@glEnable@ DB 'glEnable', 00H		; `string'
CONST	ENDS
;	COMDAT ??_C@_09MHGMIMKN@glDisable@
CONST	SEGMENT
??_C@_09MHGMIMKN@glDisable@ DB 'glDisable', 00H		; `string'
CONST	ENDS
;	COMDAT ??_C@_0M@KABMFLLN@glDepthMask@
CONST	SEGMENT
??_C@_0M@KABMFLLN@glDepthMask@ DB 'glDepthMask', 00H	; `string'
CONST	ENDS
;	COMDAT ??_C@_0M@DLGOAHPH@glColorMask@
CONST	SEGMENT
??_C@_0M@DLGOAHPH@glColorMask@ DB 'glColorMask', 00H	; `string'
CONST	ENDS
;	COMDAT ??_C@_0O@DJFHPFEP@glStencilMask@
CONST	SEGMENT
??_C@_0O@DJFHPFEP@glStencilMask@ DB 'glStencilMask', 00H ; `string'
CONST	ENDS
;	COMDAT ??_C@_0N@LJIELNG@glClearDepth@
CONST	SEGMENT
??_C@_0N@LJIELNG@glClearDepth@ DB 'glClearDepth', 00H	; `string'
CONST	ENDS
;	COMDAT ??_C@_0P@KBLPBBFP@glClearStencil@
CONST	SEGMENT
??_C@_0P@KBLPBBFP@glClearStencil@ DB 'glClearStencil', 00H ; `string'
CONST	ENDS
;	COMDAT ??_C@_0N@OGLMDNKC@glClearColor@
CONST	SEGMENT
??_C@_0N@OGLMDNKC@glClearColor@ DB 'glClearColor', 00H	; `string'
CONST	ENDS
;	COMDAT ??_C@_07IBAPPAHJ@glClear@
CONST	SEGMENT
??_C@_07IBAPPAHJ@glClear@ DB 'glClear', 00H		; `string'
CONST	ENDS
;	COMDAT ??_C@_0N@EKCLGPL@glDrawBuffer@
CONST	SEGMENT
??_C@_0N@EKCLGPL@glDrawBuffer@ DB 'glDrawBuffer', 00H	; `string'
CONST	ENDS
;	COMDAT ??_C@_0N@JBIKHLCC@glTexImage2D@
CONST	SEGMENT
??_C@_0N@JBIKHLCC@glTexImage2D@ DB 'glTexImage2D', 00H	; `string'
CONST	ENDS
;	COMDAT ??_C@_0N@JDMMMFHL@glTexImage1D@
CONST	SEGMENT
??_C@_0N@JDMMMFHL@glTexImage1D@ DB 'glTexImage1D', 00H	; `string'
CONST	ENDS
;	COMDAT ??_C@_0BB@KPLJEAAI@glTexParameteriv@
CONST	SEGMENT
??_C@_0BB@KPLJEAAI@glTexParameteriv@ DB 'glTexParameteriv', 00H ; `string'
CONST	ENDS
;	COMDAT ??_C@_0BA@KDNJAKA@glTexParameteri@
CONST	SEGMENT
??_C@_0BA@KDNJAKA@glTexParameteri@ DB 'glTexParameteri', 00H ; `string'
CONST	ENDS
;	COMDAT ??_C@_0BB@KEOFAHDF@glTexParameterfv@
CONST	SEGMENT
??_C@_0BB@KEOFAHDF@glTexParameterfv@ DB 'glTexParameterfv', 00H ; `string'
CONST	ENDS
;	COMDAT ??_C@_0BA@INKFIMGP@glTexParameterf@
CONST	SEGMENT
??_C@_0BA@INKFIMGP@glTexParameterf@ DB 'glTexParameterf', 00H ; `string'
CONST	ENDS
;	COMDAT ??_C@_09ECGPAEPL@glScissor@
CONST	SEGMENT
??_C@_09ECGPAEPL@glScissor@ DB 'glScissor', 00H		; `string'
CONST	ENDS
;	COMDAT ??_C@_0O@DKMNBFMB@glPolygonMode@
CONST	SEGMENT
??_C@_0O@DKMNBFMB@glPolygonMode@ DB 'glPolygonMode', 00H ; `string'
CONST	ENDS
;	COMDAT ??_C@_0M@EEAPMMNM@glPointSize@
CONST	SEGMENT
??_C@_0M@EEAPMMNM@glPointSize@ DB 'glPointSize', 00H	; `string'
CONST	ENDS
;	COMDAT ??_C@_0M@CFLGNFPG@glLineWidth@
CONST	SEGMENT
??_C@_0M@CFLGNFPG@glLineWidth@ DB 'glLineWidth', 00H	; `string'
CONST	ENDS
;	COMDAT ??_C@_06HEADGMBC@glHint@
CONST	SEGMENT
??_C@_06HEADGMBC@glHint@ DB 'glHint', 00H		; `string'
CONST	ENDS
;	COMDAT ??_C@_0M@ILBMDJDA@glFrontFace@
CONST	SEGMENT
??_C@_0M@ILBMDJDA@glFrontFace@ DB 'glFrontFace', 00H	; `string'
CONST	ENDS
;	COMDAT ??_C@_0L@BAPBLHME@glCullFace@
CONST	SEGMENT
??_C@_0L@BAPBLHME@glCullFace@ DB 'glCullFace', 00H	; `string'
CONST	ENDS
;	COMDAT ??_C@_0BC@FFKMKEGM@wglGetProcAddress@
CONST	SEGMENT
??_C@_0BC@FFKMKEGM@wglGetProcAddress@ DB 'wglGetProcAddress', 00H ; `string'
CONST	ENDS
;	COMDAT ??_C@_1BK@LCODAJLO@?$AAo?$AAp?$AAe?$AAn?$AAg?$AAl?$AA3?$AA2?$AA?4?$AAd?$AAl?$AAl@
CONST	SEGMENT
??_C@_1BK@LCODAJLO@?$AAo?$AAp?$AAe?$AAn?$AAg?$AAl?$AA3?$AA2?$AA?4?$AAd?$AAl?$AAl@ DB 'o'
	DB	00H, 'p', 00H, 'e', 00H, 'n', 00H, 'g', 00H, 'l', 00H, '3', 00H
	DB	'2', 00H, '.', 00H, 'd', 00H, 'l', 00H, 'l', 00H, 00H, 00H ; `string'
CONST	ENDS
;	COMDAT voltbl
voltbl	SEGMENT
_volmd	DW	018H
	DW	01a0H
voltbl	ENDS
;	COMDAT xdata
xdata	SEGMENT
$unwind$find_coreGLSC2 DD 025041f19H
	DD	0109230eH
	DD	050020018H
	DD	imagerel __GSHandlerCheck
	DD	0b0H
xdata	ENDS
;	COMDAT xdata
xdata	SEGMENT
$unwind$find_extensionsGLSC2 DD 025030b01H
	DD	0b206230bH
	DD	05002H
xdata	ENDS
;	COMDAT xdata
xdata	SEGMENT
$unwind$load_GL_SC_VERSION_2_0 DD 025030f01H
	DD	0b20a230fH
	DD	05006H
xdata	ENDS
;	COMDAT voltbl
voltbl	SEGMENT
_volmd	DW	018H
	DW	023cH
voltbl	ENDS
;	COMDAT xdata
xdata	SEGMENT
$unwind$find_coreGLES2 DD 025041f19H
	DD	0109230eH
	DD	050020018H
	DD	imagerel __GSHandlerCheck
	DD	0b0H
xdata	ENDS
;	COMDAT xdata
xdata	SEGMENT
$unwind$find_extensionsGLES2 DD 025030b01H
	DD	0b206230bH
	DD	05002H
xdata	ENDS
;	COMDAT xdata
xdata	SEGMENT
$unwind$load_GL_ES_VERSION_3_2 DD 025030f01H
	DD	0b20a230fH
	DD	05006H
xdata	ENDS
;	COMDAT xdata
xdata	SEGMENT
$unwind$load_GL_ES_VERSION_3_1 DD 025030f01H
	DD	0b20a230fH
	DD	05006H
xdata	ENDS
;	COMDAT xdata
xdata	SEGMENT
$unwind$load_GL_ES_VERSION_3_0 DD 025030f01H
	DD	0b20a230fH
	DD	05006H
xdata	ENDS
;	COMDAT xdata
xdata	SEGMENT
$unwind$load_GL_ES_VERSION_2_0 DD 025030f01H
	DD	0b20a230fH
	DD	05006H
xdata	ENDS
;	COMDAT voltbl
voltbl	SEGMENT
_volmd	DW	018H
	DW	01a0H
voltbl	ENDS
;	COMDAT xdata
xdata	SEGMENT
$unwind$find_coreGLES1 DD 025041f19H
	DD	0109230eH
	DD	050020018H
	DD	imagerel __GSHandlerCheck
	DD	0b0H
xdata	ENDS
;	COMDAT xdata
xdata	SEGMENT
$unwind$find_extensionsGLES1 DD 025030b01H
	DD	0b206230bH
	DD	05002H
xdata	ENDS
;	COMDAT xdata
xdata	SEGMENT
$unwind$load_GL_VERSION_ES_CM_1_0 DD 025030f01H
	DD	0b20a230fH
	DD	05006H
xdata	ENDS
;	COMDAT voltbl
voltbl	SEGMENT
_volmd	DW	018H
	DW	0548H
voltbl	ENDS
;	COMDAT xdata
xdata	SEGMENT
$unwind$find_coreGL DD 025041f19H
	DD	0109230eH
	DD	050020018H
	DD	imagerel __GSHandlerCheck
	DD	0b0H
xdata	ENDS
;	COMDAT xdata
xdata	SEGMENT
$unwind$find_extensionsGL DD 025030b01H
	DD	0b206230bH
	DD	05002H
xdata	ENDS
;	COMDAT xdata
xdata	SEGMENT
$unwind$load_GL_VERSION_4_6 DD 025030f01H
	DD	0b20a230fH
	DD	05006H
xdata	ENDS
;	COMDAT xdata
xdata	SEGMENT
$unwind$load_GL_VERSION_4_5 DD 025030f01H
	DD	0b20a230fH
	DD	05006H
xdata	ENDS
;	COMDAT xdata
xdata	SEGMENT
$unwind$load_GL_VERSION_4_4 DD 025030f01H
	DD	0b20a230fH
	DD	05006H
xdata	ENDS
;	COMDAT xdata
xdata	SEGMENT
$unwind$load_GL_VERSION_4_3 DD 025030f01H
	DD	0b20a230fH
	DD	05006H
xdata	ENDS
;	COMDAT xdata
xdata	SEGMENT
$unwind$load_GL_VERSION_4_2 DD 025030f01H
	DD	0b20a230fH
	DD	05006H
xdata	ENDS
;	COMDAT xdata
xdata	SEGMENT
$unwind$load_GL_VERSION_4_1 DD 025030f01H
	DD	0b20a230fH
	DD	05006H
xdata	ENDS
;	COMDAT xdata
xdata	SEGMENT
$unwind$load_GL_VERSION_4_0 DD 025030f01H
	DD	0b20a230fH
	DD	05006H
xdata	ENDS
;	COMDAT xdata
xdata	SEGMENT
$unwind$load_GL_VERSION_3_3 DD 025030f01H
	DD	0b20a230fH
	DD	05006H
xdata	ENDS
;	COMDAT xdata
xdata	SEGMENT
$unwind$load_GL_VERSION_3_2 DD 025030f01H
	DD	0b20a230fH
	DD	05006H
xdata	ENDS
;	COMDAT xdata
xdata	SEGMENT
$unwind$load_GL_VERSION_3_1 DD 025030f01H
	DD	0b20a230fH
	DD	05006H
xdata	ENDS
;	COMDAT xdata
xdata	SEGMENT
$unwind$load_GL_VERSION_3_0 DD 025030f01H
	DD	0b20a230fH
	DD	05006H
xdata	ENDS
;	COMDAT xdata
xdata	SEGMENT
$unwind$load_GL_VERSION_2_1 DD 025030f01H
	DD	0b20a230fH
	DD	05006H
xdata	ENDS
;	COMDAT xdata
xdata	SEGMENT
$unwind$load_GL_VERSION_2_0 DD 025030f01H
	DD	0b20a230fH
	DD	05006H
xdata	ENDS
;	COMDAT xdata
xdata	SEGMENT
$unwind$load_GL_VERSION_1_5 DD 025030f01H
	DD	0b20a230fH
	DD	05006H
xdata	ENDS
;	COMDAT xdata
xdata	SEGMENT
$unwind$load_GL_VERSION_1_4 DD 025030f01H
	DD	0b20a230fH
	DD	05006H
xdata	ENDS
;	COMDAT xdata
xdata	SEGMENT
$unwind$load_GL_VERSION_1_3 DD 025030f01H
	DD	0b20a230fH
	DD	05006H
xdata	ENDS
;	COMDAT xdata
xdata	SEGMENT
$unwind$load_GL_VERSION_1_2 DD 025030f01H
	DD	0b20a230fH
	DD	05006H
xdata	ENDS
;	COMDAT xdata
xdata	SEGMENT
$unwind$load_GL_VERSION_1_1 DD 025030f01H
	DD	0b20a230fH
	DD	05006H
xdata	ENDS
;	COMDAT xdata
xdata	SEGMENT
$unwind$load_GL_VERSION_1_0 DD 025030f01H
	DD	0b20a230fH
	DD	05006H
xdata	ENDS
;	COMDAT xdata
xdata	SEGMENT
$unwind$free_exts DD 025030b01H
	DD	0d206230bH
	DD	05002H
xdata	ENDS
;	COMDAT xdata
xdata	SEGMENT
$unwind$get_exts DD 025061001H
	DD	010b2310H
	DD	070040012H
	DD	050026003H
xdata	ENDS
;	COMDAT xdata
xdata	SEGMENT
$unwind$close_gl DD 025030b01H
	DD	0b206230bH
	DD	05002H
xdata	ENDS
;	COMDAT xdata
xdata	SEGMENT
$unwind$open_gl DD 025030b01H
	DD	0d206230bH
	DD	05002H
xdata	ENDS
;	COMDAT xdata
xdata	SEGMENT
$unwind$get_proc DD 025030f01H
	DD	0d20a230fH
	DD	05006H
xdata	ENDS
;	COMDAT xdata
xdata	SEGMENT
$unwind$gladLoadGLSC2Loader DD 025030f01H
	DD	0d20a230fH
	DD	05006H
xdata	ENDS
;	COMDAT xdata
xdata	SEGMENT
$unwind$gladLoadGLES2Loader DD 025030f01H
	DD	0d20a230fH
	DD	05006H
xdata	ENDS
;	COMDAT xdata
xdata	SEGMENT
$unwind$gladLoadGLES1Loader DD 025030f01H
	DD	0d20a230fH
	DD	05006H
xdata	ENDS
;	COMDAT xdata
xdata	SEGMENT
$unwind$gladLoadGLLoader DD 025030f01H
	DD	0d20a230fH
	DD	05006H
xdata	ENDS
;	COMDAT xdata
xdata	SEGMENT
$unwind$gladLoadGL DD 025030b01H
	DD	0d206230bH
	DD	05002H
xdata	ENDS
;	COMDAT voltbl
voltbl	SEGMENT
_volmd	DB	02bH
	DB	065H
voltbl	ENDS
;	COMDAT xdata
xdata	SEGMENT
$unwind$sscanf_s DD 025032f19H
	DD	0f21c2321H
	DD	05015H
	DD	imagerel __GSHandlerCheck
	DD	070H
xdata	ENDS
;	COMDAT xdata
xdata	SEGMENT
$unwind$vsscanf_s DD 025031901H
	DD	0b2142319H
	DD	05010H
xdata	ENDS
;	COMDAT xdata
xdata	SEGMENT
$unwind$_vsscanf_s_l DD 035031e01H
	DD	0d219331eH
	DD	05015H
xdata	ENDS
;	COMDAT xdata
xdata	SEGMENT
$unwind$__local_stdio_scanf_options DD 025030b01H
	DD	0b206230bH
	DD	05002H
xdata	ENDS
; Function compile flags: /Odt
;	COMDAT __JustMyCode_Default
_TEXT	SEGMENT
__JustMyCode_Default PROC				; COMDAT
  00000	c2 00 00	 ret	 0
__JustMyCode_Default ENDP
_TEXT	ENDS
; Function compile flags: /Odtp /ZI
; File D:\Programmer\GLenv\glad.c
;	COMDAT find_coreGLSC2
_TEXT	SEGMENT
i$ = 0
major$ = 4
minor$ = 8
version$ = 16
prefixes$ = 24
length$1 = 56
tv133 = 128
tv93 = 128
tv134 = 136
__$ArrayPad$ = 144
find_coreGLSC2 PROC					; COMDAT

; 2694 : static void find_coreGLSC2(void) {

  00000	40 55		 push	 rbp
  00002	48 81 ec c0 00
	00 00		 sub	 rsp, 192		; 000000c0H
  00009	48 8d 6c 24 20	 lea	 rbp, QWORD PTR [rsp+32]
  0000e	48 8b 05 00 00
	00 00		 mov	 rax, QWORD PTR __security_cookie
  00015	48 33 c5	 xor	 rax, rbp
  00018	48 89 85 90 00
	00 00		 mov	 QWORD PTR __$ArrayPad$[rbp], rax
  0001f	48 8d 0d 00 00
	00 00		 lea	 rcx, OFFSET FLAT:__2B68C239_glad@c
  00026	e8 00 00 00 00	 call	 __CheckForDebuggerJustMyCode

; 2695 : 
; 2696 :     /* Thank you @elmindreda
; 2697 :      * https://github.com/elmindreda/greg/blob/master/templates/greg.c.in#L176
; 2698 :      * https://github.com/glfw/glfw/blob/master/src/context.c#L36
; 2699 :      */
; 2700 :     int i, major, minor;
; 2701 : 
; 2702 :     const char* version;
; 2703 :     const char* prefixes[] = {

  0002b	48 8d 05 00 00
	00 00		 lea	 rax, OFFSET FLAT:??_C@_0O@ENGHJHNB@OpenGL?5ES?9CM?5@
  00032	48 89 45 18	 mov	 QWORD PTR prefixes$[rbp], rax
  00036	48 8d 05 00 00
	00 00		 lea	 rax, OFFSET FLAT:??_C@_0O@EMKFPNOG@OpenGL?5ES?9CL?5@
  0003d	48 89 45 20	 mov	 QWORD PTR prefixes$[rbp+8], rax
  00041	48 8d 05 00 00
	00 00		 lea	 rax, OFFSET FLAT:??_C@_0L@JLFHOCGA@OpenGL?5ES?5@
  00048	48 89 45 28	 mov	 QWORD PTR prefixes$[rbp+16], rax
  0004c	48 c7 45 30 00
	00 00 00	 mov	 QWORD PTR prefixes$[rbp+24], 0

; 2704 :         "OpenGL ES-CM ",
; 2705 :         "OpenGL ES-CL ",
; 2706 :         "OpenGL ES ",
; 2707 :         NULL
; 2708 :     };
; 2709 : 
; 2710 :     version = (const char*)glGetString(GL_VERSION);

  00054	b9 02 1f 00 00	 mov	 ecx, 7938		; 00001f02H
  00059	ff 15 00 00 00
	00		 call	 QWORD PTR glad_glGetString
  0005f	48 89 45 10	 mov	 QWORD PTR version$[rbp], rax

; 2711 :     if (!version) return;

  00063	48 83 7d 10 00	 cmp	 QWORD PTR version$[rbp], 0
  00068	75 05		 jne	 SHORT $LN5@find_coreG
  0006a	e9 31 01 00 00	 jmp	 $LN1@find_coreG
$LN5@find_coreG:

; 2712 : 
; 2713 :     for (i = 0; prefixes[i]; i++) {

  0006f	c7 45 00 00 00
	00 00		 mov	 DWORD PTR i$[rbp], 0
  00076	eb 08		 jmp	 SHORT $LN4@find_coreG
$LN2@find_coreG:
  00078	8b 45 00	 mov	 eax, DWORD PTR i$[rbp]
  0007b	ff c0		 inc	 eax
  0007d	89 45 00	 mov	 DWORD PTR i$[rbp], eax
$LN4@find_coreG:
  00080	48 63 45 00	 movsxd	 rax, DWORD PTR i$[rbp]
  00084	48 83 7c c5 18
	00		 cmp	 QWORD PTR prefixes$[rbp+rax*8], 0
  0008a	74 75		 je	 SHORT $LN3@find_coreG

; 2714 :         const size_t length = strlen(prefixes[i]);

  0008c	48 63 45 00	 movsxd	 rax, DWORD PTR i$[rbp]
  00090	48 8b 44 c5 18	 mov	 rax, QWORD PTR prefixes$[rbp+rax*8]
  00095	48 89 85 80 00
	00 00		 mov	 QWORD PTR tv133[rbp], rax
  0009c	48 c7 85 88 00
	00 00 ff ff ff
	ff		 mov	 QWORD PTR tv134[rbp], -1
$LL13@find_coreG:
  000a7	48 ff 85 88 00
	00 00		 inc	 QWORD PTR tv134[rbp]
  000ae	48 8b 85 80 00
	00 00		 mov	 rax, QWORD PTR tv133[rbp]
  000b5	48 8b 8d 88 00
	00 00		 mov	 rcx, QWORD PTR tv134[rbp]
  000bc	80 3c 08 00	 cmp	 BYTE PTR [rax+rcx], 0
  000c0	75 e5		 jne	 SHORT $LL13@find_coreG
  000c2	48 8b 85 88 00
	00 00		 mov	 rax, QWORD PTR tv134[rbp]
  000c9	48 89 45 38	 mov	 QWORD PTR length$1[rbp], rax

; 2715 :         if (strncmp(version, prefixes[i], length) == 0) {

  000cd	48 63 45 00	 movsxd	 rax, DWORD PTR i$[rbp]
  000d1	4c 8b 45 38	 mov	 r8, QWORD PTR length$1[rbp]
  000d5	48 8b 54 c5 18	 mov	 rdx, QWORD PTR prefixes$[rbp+rax*8]
  000da	48 8b 4d 10	 mov	 rcx, QWORD PTR version$[rbp]
  000de	ff 15 00 00 00
	00		 call	 QWORD PTR __imp_strncmp
  000e4	85 c0		 test	 eax, eax
  000e6	75 14		 jne	 SHORT $LN6@find_coreG

; 2716 :             version += length;

  000e8	48 8b 45 38	 mov	 rax, QWORD PTR length$1[rbp]
  000ec	48 8b 4d 10	 mov	 rcx, QWORD PTR version$[rbp]
  000f0	48 03 c8	 add	 rcx, rax
  000f3	48 8b c1	 mov	 rax, rcx
  000f6	48 89 45 10	 mov	 QWORD PTR version$[rbp], rax

; 2717 :             break;

  000fa	eb 05		 jmp	 SHORT $LN3@find_coreG
$LN6@find_coreG:

; 2718 :         }
; 2719 :     }

  000fc	e9 77 ff ff ff	 jmp	 $LN2@find_coreG
$LN3@find_coreG:

; 2720 : 
; 2721 :     /* PR #18 */
; 2722 : #ifdef _MSC_VER
; 2723 :     sscanf_s(version, "%d.%d", &major, &minor);

  00101	4c 8d 4d 08	 lea	 r9, QWORD PTR minor$[rbp]
  00105	4c 8d 45 04	 lea	 r8, QWORD PTR major$[rbp]
  00109	48 8d 15 00 00
	00 00		 lea	 rdx, OFFSET FLAT:??_C@_05KBEOJPB@?$CFd?4?$CFd@
  00110	48 8b 4d 10	 mov	 rcx, QWORD PTR version$[rbp]
  00114	e8 00 00 00 00	 call	 sscanf_s

; 2724 : #else
; 2725 :     sscanf(version, "%d.%d", &major, &minor);
; 2726 : #endif
; 2727 : 
; 2728 :     GLVersion.major = major; GLVersion.minor = minor;

  00119	8b 45 04	 mov	 eax, DWORD PTR major$[rbp]
  0011c	89 05 00 00 00
	00		 mov	 DWORD PTR GLVersion, eax
  00122	8b 45 08	 mov	 eax, DWORD PTR minor$[rbp]
  00125	89 05 04 00 00
	00		 mov	 DWORD PTR GLVersion+4, eax

; 2729 :     max_loaded_major = major; max_loaded_minor = minor;

  0012b	8b 45 04	 mov	 eax, DWORD PTR major$[rbp]
  0012e	89 05 00 00 00
	00		 mov	 DWORD PTR max_loaded_major, eax
  00134	8b 45 08	 mov	 eax, DWORD PTR minor$[rbp]
  00137	89 05 00 00 00
	00		 mov	 DWORD PTR max_loaded_minor, eax

; 2730 :     GLAD_GL_SC_VERSION_2_0 = (major == 2 && minor >= 0) || major > 2;

  0013d	83 7d 04 02	 cmp	 DWORD PTR major$[rbp], 2
  00141	75 06		 jne	 SHORT $LN10@find_coreG
  00143	83 7d 08 00	 cmp	 DWORD PTR minor$[rbp], 0
  00147	7d 12		 jge	 SHORT $LN11@find_coreG
$LN10@find_coreG:
  00149	83 7d 04 02	 cmp	 DWORD PTR major$[rbp], 2
  0014d	7f 0c		 jg	 SHORT $LN11@find_coreG
  0014f	c7 85 80 00 00
	00 00 00 00 00	 mov	 DWORD PTR tv93[rbp], 0
  00159	eb 0a		 jmp	 SHORT $LN12@find_coreG
$LN11@find_coreG:
  0015b	c7 85 80 00 00
	00 01 00 00 00	 mov	 DWORD PTR tv93[rbp], 1
$LN12@find_coreG:
  00165	8b 85 80 00 00
	00		 mov	 eax, DWORD PTR tv93[rbp]
  0016b	89 05 00 00 00
	00		 mov	 DWORD PTR GLAD_GL_SC_VERSION_2_0, eax

; 2731 :     if (GLVersion.major > 2 || (GLVersion.major >= 2 && GLVersion.minor >= 0)) {

  00171	83 3d 00 00 00
	00 02		 cmp	 DWORD PTR GLVersion, 2
  00178	7f 12		 jg	 SHORT $LN8@find_coreG
  0017a	83 3d 00 00 00
	00 02		 cmp	 DWORD PTR GLVersion, 2
  00181	7c 1d		 jl	 SHORT $LN7@find_coreG
  00183	83 3d 04 00 00
	00 00		 cmp	 DWORD PTR GLVersion+4, 0
  0018a	7c 14		 jl	 SHORT $LN7@find_coreG
$LN8@find_coreG:

; 2732 :         max_loaded_major = 2;

  0018c	c7 05 00 00 00
	00 02 00 00 00	 mov	 DWORD PTR max_loaded_major, 2

; 2733 :         max_loaded_minor = 0;

  00196	c7 05 00 00 00
	00 00 00 00 00	 mov	 DWORD PTR max_loaded_minor, 0
$LN7@find_coreG:
$LN1@find_coreG:

; 2734 :     }
; 2735 : }

  001a0	48 8b 8d 90 00
	00 00		 mov	 rcx, QWORD PTR __$ArrayPad$[rbp]
  001a7	48 33 cd	 xor	 rcx, rbp
  001aa	e8 00 00 00 00	 call	 __security_check_cookie
  001af	48 8d a5 a0 00
	00 00		 lea	 rsp, QWORD PTR [rbp+160]
  001b6	5d		 pop	 rbp
  001b7	c3		 ret	 0
find_coreGLSC2 ENDP
_TEXT	ENDS
; Function compile flags: /Odtp /ZI
; File D:\Programmer\GLenv\glad.c
;	COMDAT find_extensionsGLSC2
_TEXT	SEGMENT
find_extensionsGLSC2 PROC				; COMDAT

; 2687 : static int find_extensionsGLSC2(void) {

  00000	40 55		 push	 rbp
  00002	48 83 ec 60	 sub	 rsp, 96			; 00000060H
  00006	48 8d 6c 24 20	 lea	 rbp, QWORD PTR [rsp+32]
  0000b	48 8d 0d 00 00
	00 00		 lea	 rcx, OFFSET FLAT:__2B68C239_glad@c
  00012	e8 00 00 00 00	 call	 __CheckForDebuggerJustMyCode

; 2688 :     if (!get_exts()) return 0;

  00017	e8 00 00 00 00	 call	 get_exts
  0001c	85 c0		 test	 eax, eax
  0001e	75 04		 jne	 SHORT $LN2@find_exten
  00020	33 c0		 xor	 eax, eax
  00022	eb 0a		 jmp	 SHORT $LN1@find_exten
$LN2@find_exten:

; 2689 :     (void)&has_ext;
; 2690 :     free_exts();

  00024	e8 00 00 00 00	 call	 free_exts

; 2691 :     return 1;

  00029	b8 01 00 00 00	 mov	 eax, 1
$LN1@find_exten:

; 2692 : }

  0002e	48 8d 65 40	 lea	 rsp, QWORD PTR [rbp+64]
  00032	5d		 pop	 rbp
  00033	c3		 ret	 0
find_extensionsGLSC2 ENDP
_TEXT	ENDS
; Function compile flags: /Odtp /ZI
; File D:\Programmer\GLenv\glad.c
;	COMDAT load_GL_SC_VERSION_2_0
_TEXT	SEGMENT
load$ = 80
load_GL_SC_VERSION_2_0 PROC				; COMDAT

; 2573 : static void load_GL_SC_VERSION_2_0(GLADloadproc load) {

  00000	48 89 4c 24 08	 mov	 QWORD PTR [rsp+8], rcx
  00005	55		 push	 rbp
  00006	48 83 ec 60	 sub	 rsp, 96			; 00000060H
  0000a	48 8d 6c 24 20	 lea	 rbp, QWORD PTR [rsp+32]
  0000f	48 8d 0d 00 00
	00 00		 lea	 rcx, OFFSET FLAT:__2B68C239_glad@c
  00016	e8 00 00 00 00	 call	 __CheckForDebuggerJustMyCode

; 2574 :     if (!GLAD_GL_SC_VERSION_2_0) return;

  0001b	83 3d 00 00 00
	00 00		 cmp	 DWORD PTR GLAD_GL_SC_VERSION_2_0, 0
  00022	75 05		 jne	 SHORT $LN2@load_GL_SC
  00024	e9 5f 07 00 00	 jmp	 $LN1@load_GL_SC
$LN2@load_GL_SC:

; 2575 :     glad_glActiveTexture = (PFNGLACTIVETEXTUREPROC)load("glActiveTexture");

  00029	48 8d 0d 00 00
	00 00		 lea	 rcx, OFFSET FLAT:??_C@_0BA@KOBBIKOF@glActiveTexture@
  00030	ff 55 50	 call	 QWORD PTR load$[rbp]
  00033	48 89 05 00 00
	00 00		 mov	 QWORD PTR glad_glActiveTexture, rax

; 2576 :     glad_glBindBuffer = (PFNGLBINDBUFFERPROC)load("glBindBuffer");

  0003a	48 8d 0d 00 00
	00 00		 lea	 rcx, OFFSET FLAT:??_C@_0N@BONEPPLO@glBindBuffer@
  00041	ff 55 50	 call	 QWORD PTR load$[rbp]
  00044	48 89 05 00 00
	00 00		 mov	 QWORD PTR glad_glBindBuffer, rax

; 2577 :     glad_glBindFramebuffer = (PFNGLBINDFRAMEBUFFERPROC)load("glBindFramebuffer");

  0004b	48 8d 0d 00 00
	00 00		 lea	 rcx, OFFSET FLAT:??_C@_0BC@CJMIBNO@glBindFramebuffer@
  00052	ff 55 50	 call	 QWORD PTR load$[rbp]
  00055	48 89 05 00 00
	00 00		 mov	 QWORD PTR glad_glBindFramebuffer, rax

; 2578 :     glad_glBindRenderbuffer = (PFNGLBINDRENDERBUFFERPROC)load("glBindRenderbuffer");

  0005c	48 8d 0d 00 00
	00 00		 lea	 rcx, OFFSET FLAT:??_C@_0BD@EPOPJGFA@glBindRenderbuffer@
  00063	ff 55 50	 call	 QWORD PTR load$[rbp]
  00066	48 89 05 00 00
	00 00		 mov	 QWORD PTR glad_glBindRenderbuffer, rax

; 2579 :     glad_glBindTexture = (PFNGLBINDTEXTUREPROC)load("glBindTexture");

  0006d	48 8d 0d 00 00
	00 00		 lea	 rcx, OFFSET FLAT:??_C@_0O@JKKCIBGC@glBindTexture@
  00074	ff 55 50	 call	 QWORD PTR load$[rbp]
  00077	48 89 05 00 00
	00 00		 mov	 QWORD PTR glad_glBindTexture, rax

; 2580 :     glad_glBlendColor = (PFNGLBLENDCOLORPROC)load("glBlendColor");

  0007e	48 8d 0d 00 00
	00 00		 lea	 rcx, OFFSET FLAT:??_C@_0N@PKBMFJDK@glBlendColor@
  00085	ff 55 50	 call	 QWORD PTR load$[rbp]
  00088	48 89 05 00 00
	00 00		 mov	 QWORD PTR glad_glBlendColor, rax

; 2581 :     glad_glBlendEquation = (PFNGLBLENDEQUATIONPROC)load("glBlendEquation");

  0008f	48 8d 0d 00 00
	00 00		 lea	 rcx, OFFSET FLAT:??_C@_0BA@PFHILPAN@glBlendEquation@
  00096	ff 55 50	 call	 QWORD PTR load$[rbp]
  00099	48 89 05 00 00
	00 00		 mov	 QWORD PTR glad_glBlendEquation, rax

; 2582 :     glad_glBlendEquationSeparate = (PFNGLBLENDEQUATIONSEPARATEPROC)load("glBlendEquationSeparate");

  000a0	48 8d 0d 00 00
	00 00		 lea	 rcx, OFFSET FLAT:??_C@_0BI@JNHDNJAG@glBlendEquationSeparate@
  000a7	ff 55 50	 call	 QWORD PTR load$[rbp]
  000aa	48 89 05 00 00
	00 00		 mov	 QWORD PTR glad_glBlendEquationSeparate, rax

; 2583 :     glad_glBlendFunc = (PFNGLBLENDFUNCPROC)load("glBlendFunc");

  000b1	48 8d 0d 00 00
	00 00		 lea	 rcx, OFFSET FLAT:??_C@_0M@PFBKOKOH@glBlendFunc@
  000b8	ff 55 50	 call	 QWORD PTR load$[rbp]
  000bb	48 89 05 00 00
	00 00		 mov	 QWORD PTR glad_glBlendFunc, rax

; 2584 :     glad_glBlendFuncSeparate = (PFNGLBLENDFUNCSEPARATEPROC)load("glBlendFuncSeparate");

  000c2	48 8d 0d 00 00
	00 00		 lea	 rcx, OFFSET FLAT:??_C@_0BE@LLLCIIOO@glBlendFuncSeparate@
  000c9	ff 55 50	 call	 QWORD PTR load$[rbp]
  000cc	48 89 05 00 00
	00 00		 mov	 QWORD PTR glad_glBlendFuncSeparate, rax

; 2585 :     glad_glBufferData = (PFNGLBUFFERDATAPROC)load("glBufferData");

  000d3	48 8d 0d 00 00
	00 00		 lea	 rcx, OFFSET FLAT:??_C@_0N@JHHJMABP@glBufferData@
  000da	ff 55 50	 call	 QWORD PTR load$[rbp]
  000dd	48 89 05 00 00
	00 00		 mov	 QWORD PTR glad_glBufferData, rax

; 2586 :     glad_glBufferSubData = (PFNGLBUFFERSUBDATAPROC)load("glBufferSubData");

  000e4	48 8d 0d 00 00
	00 00		 lea	 rcx, OFFSET FLAT:??_C@_0BA@GAJMDBBN@glBufferSubData@
  000eb	ff 55 50	 call	 QWORD PTR load$[rbp]
  000ee	48 89 05 00 00
	00 00		 mov	 QWORD PTR glad_glBufferSubData, rax

; 2587 :     glad_glCheckFramebufferStatus = (PFNGLCHECKFRAMEBUFFERSTATUSPROC)load("glCheckFramebufferStatus");

  000f5	48 8d 0d 00 00
	00 00		 lea	 rcx, OFFSET FLAT:??_C@_0BJ@GIOLHEAD@glCheckFramebufferStatus@
  000fc	ff 55 50	 call	 QWORD PTR load$[rbp]
  000ff	48 89 05 00 00
	00 00		 mov	 QWORD PTR glad_glCheckFramebufferStatus, rax

; 2588 :     glad_glClear = (PFNGLCLEARPROC)load("glClear");

  00106	48 8d 0d 00 00
	00 00		 lea	 rcx, OFFSET FLAT:??_C@_07IBAPPAHJ@glClear@
  0010d	ff 55 50	 call	 QWORD PTR load$[rbp]
  00110	48 89 05 00 00
	00 00		 mov	 QWORD PTR glad_glClear, rax

; 2589 :     glad_glClearColor = (PFNGLCLEARCOLORPROC)load("glClearColor");

  00117	48 8d 0d 00 00
	00 00		 lea	 rcx, OFFSET FLAT:??_C@_0N@OGLMDNKC@glClearColor@
  0011e	ff 55 50	 call	 QWORD PTR load$[rbp]
  00121	48 89 05 00 00
	00 00		 mov	 QWORD PTR glad_glClearColor, rax

; 2590 :     glad_glClearDepthf = (PFNGLCLEARDEPTHFPROC)load("glClearDepthf");

  00128	48 8d 0d 00 00
	00 00		 lea	 rcx, OFFSET FLAT:??_C@_0O@FMBMCDIL@glClearDepthf@
  0012f	ff 55 50	 call	 QWORD PTR load$[rbp]
  00132	48 89 05 00 00
	00 00		 mov	 QWORD PTR glad_glClearDepthf, rax

; 2591 :     glad_glClearStencil = (PFNGLCLEARSTENCILPROC)load("glClearStencil");

  00139	48 8d 0d 00 00
	00 00		 lea	 rcx, OFFSET FLAT:??_C@_0P@KBLPBBFP@glClearStencil@
  00140	ff 55 50	 call	 QWORD PTR load$[rbp]
  00143	48 89 05 00 00
	00 00		 mov	 QWORD PTR glad_glClearStencil, rax

; 2592 :     glad_glColorMask = (PFNGLCOLORMASKPROC)load("glColorMask");

  0014a	48 8d 0d 00 00
	00 00		 lea	 rcx, OFFSET FLAT:??_C@_0M@DLGOAHPH@glColorMask@
  00151	ff 55 50	 call	 QWORD PTR load$[rbp]
  00154	48 89 05 00 00
	00 00		 mov	 QWORD PTR glad_glColorMask, rax

; 2593 :     glad_glCompressedTexSubImage2D = (PFNGLCOMPRESSEDTEXSUBIMAGE2DPROC)load("glCompressedTexSubImage2D");

  0015b	48 8d 0d 00 00
	00 00		 lea	 rcx, OFFSET FLAT:??_C@_0BK@EAFOEJMH@glCompressedTexSubImage2D@
  00162	ff 55 50	 call	 QWORD PTR load$[rbp]
  00165	48 89 05 00 00
	00 00		 mov	 QWORD PTR glad_glCompressedTexSubImage2D, rax

; 2594 :     glad_glCreateProgram = (PFNGLCREATEPROGRAMPROC)load("glCreateProgram");

  0016c	48 8d 0d 00 00
	00 00		 lea	 rcx, OFFSET FLAT:??_C@_0BA@FLKLHNKP@glCreateProgram@
  00173	ff 55 50	 call	 QWORD PTR load$[rbp]
  00176	48 89 05 00 00
	00 00		 mov	 QWORD PTR glad_glCreateProgram, rax

; 2595 :     glad_glCullFace = (PFNGLCULLFACEPROC)load("glCullFace");

  0017d	48 8d 0d 00 00
	00 00		 lea	 rcx, OFFSET FLAT:??_C@_0L@BAPBLHME@glCullFace@
  00184	ff 55 50	 call	 QWORD PTR load$[rbp]
  00187	48 89 05 00 00
	00 00		 mov	 QWORD PTR glad_glCullFace, rax

; 2596 :     glad_glDepthFunc = (PFNGLDEPTHFUNCPROC)load("glDepthFunc");

  0018e	48 8d 0d 00 00
	00 00		 lea	 rcx, OFFSET FLAT:??_C@_0M@NEJABAEP@glDepthFunc@
  00195	ff 55 50	 call	 QWORD PTR load$[rbp]
  00198	48 89 05 00 00
	00 00		 mov	 QWORD PTR glad_glDepthFunc, rax

; 2597 :     glad_glDepthMask = (PFNGLDEPTHMASKPROC)load("glDepthMask");

  0019f	48 8d 0d 00 00
	00 00		 lea	 rcx, OFFSET FLAT:??_C@_0M@KABMFLLN@glDepthMask@
  001a6	ff 55 50	 call	 QWORD PTR load$[rbp]
  001a9	48 89 05 00 00
	00 00		 mov	 QWORD PTR glad_glDepthMask, rax

; 2598 :     glad_glDepthRangef = (PFNGLDEPTHRANGEFPROC)load("glDepthRangef");

  001b0	48 8d 0d 00 00
	00 00		 lea	 rcx, OFFSET FLAT:??_C@_0O@JDFJDNND@glDepthRangef@
  001b7	ff 55 50	 call	 QWORD PTR load$[rbp]
  001ba	48 89 05 00 00
	00 00		 mov	 QWORD PTR glad_glDepthRangef, rax

; 2599 :     glad_glDisable = (PFNGLDISABLEPROC)load("glDisable");

  001c1	48 8d 0d 00 00
	00 00		 lea	 rcx, OFFSET FLAT:??_C@_09MHGMIMKN@glDisable@
  001c8	ff 55 50	 call	 QWORD PTR load$[rbp]
  001cb	48 89 05 00 00
	00 00		 mov	 QWORD PTR glad_glDisable, rax

; 2600 :     glad_glDisableVertexAttribArray = (PFNGLDISABLEVERTEXATTRIBARRAYPROC)load("glDisableVertexAttribArray");

  001d2	48 8d 0d 00 00
	00 00		 lea	 rcx, OFFSET FLAT:??_C@_0BL@NKHLOFFF@glDisableVertexAttribArray@
  001d9	ff 55 50	 call	 QWORD PTR load$[rbp]
  001dc	48 89 05 00 00
	00 00		 mov	 QWORD PTR glad_glDisableVertexAttribArray, rax

; 2601 :     glad_glDrawArrays = (PFNGLDRAWARRAYSPROC)load("glDrawArrays");

  001e3	48 8d 0d 00 00
	00 00		 lea	 rcx, OFFSET FLAT:??_C@_0N@CMNPPOHA@glDrawArrays@
  001ea	ff 55 50	 call	 QWORD PTR load$[rbp]
  001ed	48 89 05 00 00
	00 00		 mov	 QWORD PTR glad_glDrawArrays, rax

; 2602 :     glad_glDrawRangeElements = (PFNGLDRAWRANGEELEMENTSPROC)load("glDrawRangeElements");

  001f4	48 8d 0d 00 00
	00 00		 lea	 rcx, OFFSET FLAT:??_C@_0BE@IHNAGJGJ@glDrawRangeElements@
  001fb	ff 55 50	 call	 QWORD PTR load$[rbp]
  001fe	48 89 05 00 00
	00 00		 mov	 QWORD PTR glad_glDrawRangeElements, rax

; 2603 :     glad_glEnable = (PFNGLENABLEPROC)load("glEnable");

  00205	48 8d 0d 00 00
	00 00		 lea	 rcx, OFFSET FLAT:??_C@_08OOEHEKOP@glEnable@
  0020c	ff 55 50	 call	 QWORD PTR load$[rbp]
  0020f	48 89 05 00 00
	00 00		 mov	 QWORD PTR glad_glEnable, rax

; 2604 :     glad_glEnableVertexAttribArray = (PFNGLENABLEVERTEXATTRIBARRAYPROC)load("glEnableVertexAttribArray");

  00216	48 8d 0d 00 00
	00 00		 lea	 rcx, OFFSET FLAT:??_C@_0BK@EHBAHNHE@glEnableVertexAttribArray@
  0021d	ff 55 50	 call	 QWORD PTR load$[rbp]
  00220	48 89 05 00 00
	00 00		 mov	 QWORD PTR glad_glEnableVertexAttribArray, rax

; 2605 :     glad_glFinish = (PFNGLFINISHPROC)load("glFinish");

  00227	48 8d 0d 00 00
	00 00		 lea	 rcx, OFFSET FLAT:??_C@_08DFCPOKBK@glFinish@
  0022e	ff 55 50	 call	 QWORD PTR load$[rbp]
  00231	48 89 05 00 00
	00 00		 mov	 QWORD PTR glad_glFinish, rax

; 2606 :     glad_glFlush = (PFNGLFLUSHPROC)load("glFlush");

  00238	48 8d 0d 00 00
	00 00		 lea	 rcx, OFFSET FLAT:??_C@_07COFELLJA@glFlush@
  0023f	ff 55 50	 call	 QWORD PTR load$[rbp]
  00242	48 89 05 00 00
	00 00		 mov	 QWORD PTR glad_glFlush, rax

; 2607 :     glad_glFramebufferRenderbuffer = (PFNGLFRAMEBUFFERRENDERBUFFERPROC)load("glFramebufferRenderbuffer");

  00249	48 8d 0d 00 00
	00 00		 lea	 rcx, OFFSET FLAT:??_C@_0BK@OJDINAOA@glFramebufferRenderbuffer@
  00250	ff 55 50	 call	 QWORD PTR load$[rbp]
  00253	48 89 05 00 00
	00 00		 mov	 QWORD PTR glad_glFramebufferRenderbuffer, rax

; 2608 :     glad_glFramebufferTexture2D = (PFNGLFRAMEBUFFERTEXTURE2DPROC)load("glFramebufferTexture2D");

  0025a	48 8d 0d 00 00
	00 00		 lea	 rcx, OFFSET FLAT:??_C@_0BH@JCIFGDEF@glFramebufferTexture2D@
  00261	ff 55 50	 call	 QWORD PTR load$[rbp]
  00264	48 89 05 00 00
	00 00		 mov	 QWORD PTR glad_glFramebufferTexture2D, rax

; 2609 :     glad_glFrontFace = (PFNGLFRONTFACEPROC)load("glFrontFace");

  0026b	48 8d 0d 00 00
	00 00		 lea	 rcx, OFFSET FLAT:??_C@_0M@ILBMDJDA@glFrontFace@
  00272	ff 55 50	 call	 QWORD PTR load$[rbp]
  00275	48 89 05 00 00
	00 00		 mov	 QWORD PTR glad_glFrontFace, rax

; 2610 :     glad_glGenBuffers = (PFNGLGENBUFFERSPROC)load("glGenBuffers");

  0027c	48 8d 0d 00 00
	00 00		 lea	 rcx, OFFSET FLAT:??_C@_0N@LAOHBIBA@glGenBuffers@
  00283	ff 55 50	 call	 QWORD PTR load$[rbp]
  00286	48 89 05 00 00
	00 00		 mov	 QWORD PTR glad_glGenBuffers, rax

; 2611 :     glad_glGenerateMipmap = (PFNGLGENERATEMIPMAPPROC)load("glGenerateMipmap");

  0028d	48 8d 0d 00 00
	00 00		 lea	 rcx, OFFSET FLAT:??_C@_0BB@BHNIMGDM@glGenerateMipmap@
  00294	ff 55 50	 call	 QWORD PTR load$[rbp]
  00297	48 89 05 00 00
	00 00		 mov	 QWORD PTR glad_glGenerateMipmap, rax

; 2612 :     glad_glGenFramebuffers = (PFNGLGENFRAMEBUFFERSPROC)load("glGenFramebuffers");

  0029e	48 8d 0d 00 00
	00 00		 lea	 rcx, OFFSET FLAT:??_C@_0BC@FAPEBGID@glGenFramebuffers@
  002a5	ff 55 50	 call	 QWORD PTR load$[rbp]
  002a8	48 89 05 00 00
	00 00		 mov	 QWORD PTR glad_glGenFramebuffers, rax

; 2613 :     glad_glGenRenderbuffers = (PFNGLGENRENDERBUFFERSPROC)load("glGenRenderbuffers");

  002af	48 8d 0d 00 00
	00 00		 lea	 rcx, OFFSET FLAT:??_C@_0BD@MIGEDNGJ@glGenRenderbuffers@
  002b6	ff 55 50	 call	 QWORD PTR load$[rbp]
  002b9	48 89 05 00 00
	00 00		 mov	 QWORD PTR glad_glGenRenderbuffers, rax

; 2614 :     glad_glGenTextures = (PFNGLGENTEXTURESPROC)load("glGenTextures");

  002c0	48 8d 0d 00 00
	00 00		 lea	 rcx, OFFSET FLAT:??_C@_0O@LLMANLNK@glGenTextures@
  002c7	ff 55 50	 call	 QWORD PTR load$[rbp]
  002ca	48 89 05 00 00
	00 00		 mov	 QWORD PTR glad_glGenTextures, rax

; 2615 :     glad_glGetAttribLocation = (PFNGLGETATTRIBLOCATIONPROC)load("glGetAttribLocation");

  002d1	48 8d 0d 00 00
	00 00		 lea	 rcx, OFFSET FLAT:??_C@_0BE@BEPGJDMM@glGetAttribLocation@
  002d8	ff 55 50	 call	 QWORD PTR load$[rbp]
  002db	48 89 05 00 00
	00 00		 mov	 QWORD PTR glad_glGetAttribLocation, rax

; 2616 :     glad_glGetBooleanv = (PFNGLGETBOOLEANVPROC)load("glGetBooleanv");

  002e2	48 8d 0d 00 00
	00 00		 lea	 rcx, OFFSET FLAT:??_C@_0O@NLMELLCJ@glGetBooleanv@
  002e9	ff 55 50	 call	 QWORD PTR load$[rbp]
  002ec	48 89 05 00 00
	00 00		 mov	 QWORD PTR glad_glGetBooleanv, rax

; 2617 :     glad_glGetBufferParameteriv = (PFNGLGETBUFFERPARAMETERIVPROC)load("glGetBufferParameteriv");

  002f3	48 8d 0d 00 00
	00 00		 lea	 rcx, OFFSET FLAT:??_C@_0BH@BMIEIFJP@glGetBufferParameteriv@
  002fa	ff 55 50	 call	 QWORD PTR load$[rbp]
  002fd	48 89 05 00 00
	00 00		 mov	 QWORD PTR glad_glGetBufferParameteriv, rax

; 2618 :     glad_glGetError = (PFNGLGETERRORPROC)load("glGetError");

  00304	48 8d 0d 00 00
	00 00		 lea	 rcx, OFFSET FLAT:??_C@_0L@FPKAMKHB@glGetError@
  0030b	ff 55 50	 call	 QWORD PTR load$[rbp]
  0030e	48 89 05 00 00
	00 00		 mov	 QWORD PTR glad_glGetError, rax

; 2619 :     glad_glGetFloatv = (PFNGLGETFLOATVPROC)load("glGetFloatv");

  00315	48 8d 0d 00 00
	00 00		 lea	 rcx, OFFSET FLAT:??_C@_0M@CKCOBONE@glGetFloatv@
  0031c	ff 55 50	 call	 QWORD PTR load$[rbp]
  0031f	48 89 05 00 00
	00 00		 mov	 QWORD PTR glad_glGetFloatv, rax

; 2620 :     glad_glGetFramebufferAttachmentParameteriv = (PFNGLGETFRAMEBUFFERATTACHMENTPARAMETERIVPROC)load("glGetFramebufferAttachmentParameteriv");

  00326	48 8d 0d 00 00
	00 00		 lea	 rcx, OFFSET FLAT:??_C@_0CG@KLDGJEON@glGetFramebufferAttachmentParam@
  0032d	ff 55 50	 call	 QWORD PTR load$[rbp]
  00330	48 89 05 00 00
	00 00		 mov	 QWORD PTR glad_glGetFramebufferAttachmentParameteriv, rax

; 2621 :     glad_glGetGraphicsResetStatus = (PFNGLGETGRAPHICSRESETSTATUSPROC)load("glGetGraphicsResetStatus");

  00337	48 8d 0d 00 00
	00 00		 lea	 rcx, OFFSET FLAT:??_C@_0BJ@ILPAOCDN@glGetGraphicsResetStatus@
  0033e	ff 55 50	 call	 QWORD PTR load$[rbp]
  00341	48 89 05 00 00
	00 00		 mov	 QWORD PTR glad_glGetGraphicsResetStatus, rax

; 2622 :     glad_glGetIntegerv = (PFNGLGETINTEGERVPROC)load("glGetIntegerv");

  00348	48 8d 0d 00 00
	00 00		 lea	 rcx, OFFSET FLAT:??_C@_0O@DHHDCCLF@glGetIntegerv@
  0034f	ff 55 50	 call	 QWORD PTR load$[rbp]
  00352	48 89 05 00 00
	00 00		 mov	 QWORD PTR glad_glGetIntegerv, rax

; 2623 :     glad_glGetProgramiv = (PFNGLGETPROGRAMIVPROC)load("glGetProgramiv");

  00359	48 8d 0d 00 00
	00 00		 lea	 rcx, OFFSET FLAT:??_C@_0P@FMMDFLCO@glGetProgramiv@
  00360	ff 55 50	 call	 QWORD PTR load$[rbp]
  00363	48 89 05 00 00
	00 00		 mov	 QWORD PTR glad_glGetProgramiv, rax

; 2624 :     glad_glGetRenderbufferParameteriv = (PFNGLGETRENDERBUFFERPARAMETERIVPROC)load("glGetRenderbufferParameteriv");

  0036a	48 8d 0d 00 00
	00 00		 lea	 rcx, OFFSET FLAT:??_C@_0BN@FGKAECKO@glGetRenderbufferParameteriv@
  00371	ff 55 50	 call	 QWORD PTR load$[rbp]
  00374	48 89 05 00 00
	00 00		 mov	 QWORD PTR glad_glGetRenderbufferParameteriv, rax

; 2625 :     glad_glGetString = (PFNGLGETSTRINGPROC)load("glGetString");

  0037b	48 8d 0d 00 00
	00 00		 lea	 rcx, OFFSET FLAT:??_C@_0M@OPOBFDCB@glGetString@
  00382	ff 55 50	 call	 QWORD PTR load$[rbp]
  00385	48 89 05 00 00
	00 00		 mov	 QWORD PTR glad_glGetString, rax

; 2626 :     glad_glGetTexParameterfv = (PFNGLGETTEXPARAMETERFVPROC)load("glGetTexParameterfv");

  0038c	48 8d 0d 00 00
	00 00		 lea	 rcx, OFFSET FLAT:??_C@_0BE@DNHBPKMC@glGetTexParameterfv@
  00393	ff 55 50	 call	 QWORD PTR load$[rbp]
  00396	48 89 05 00 00
	00 00		 mov	 QWORD PTR glad_glGetTexParameterfv, rax

; 2627 :     glad_glGetTexParameteriv = (PFNGLGETTEXPARAMETERIVPROC)load("glGetTexParameteriv");

  0039d	48 8d 0d 00 00
	00 00		 lea	 rcx, OFFSET FLAT:??_C@_0BE@DGCNLNPP@glGetTexParameteriv@
  003a4	ff 55 50	 call	 QWORD PTR load$[rbp]
  003a7	48 89 05 00 00
	00 00		 mov	 QWORD PTR glad_glGetTexParameteriv, rax

; 2628 :     glad_glGetnUniformfv = (PFNGLGETNUNIFORMFVPROC)load("glGetnUniformfv");

  003ae	48 8d 0d 00 00
	00 00		 lea	 rcx, OFFSET FLAT:??_C@_0BA@KIOMIDPP@glGetnUniformfv@
  003b5	ff 55 50	 call	 QWORD PTR load$[rbp]
  003b8	48 89 05 00 00
	00 00		 mov	 QWORD PTR glad_glGetnUniformfv, rax

; 2629 :     glad_glGetnUniformiv = (PFNGLGETNUNIFORMIVPROC)load("glGetnUniformiv");

  003bf	48 8d 0d 00 00
	00 00		 lea	 rcx, OFFSET FLAT:??_C@_0BA@KDLAMEMC@glGetnUniformiv@
  003c6	ff 55 50	 call	 QWORD PTR load$[rbp]
  003c9	48 89 05 00 00
	00 00		 mov	 QWORD PTR glad_glGetnUniformiv, rax

; 2630 :     glad_glGetUniformLocation = (PFNGLGETUNIFORMLOCATIONPROC)load("glGetUniformLocation");

  003d0	48 8d 0d 00 00
	00 00		 lea	 rcx, OFFSET FLAT:??_C@_0BF@KIOPGICP@glGetUniformLocation@
  003d7	ff 55 50	 call	 QWORD PTR load$[rbp]
  003da	48 89 05 00 00
	00 00		 mov	 QWORD PTR glad_glGetUniformLocation, rax

; 2631 :     glad_glGetVertexAttribfv = (PFNGLGETVERTEXATTRIBFVPROC)load("glGetVertexAttribfv");

  003e1	48 8d 0d 00 00
	00 00		 lea	 rcx, OFFSET FLAT:??_C@_0BE@HAHIEIOD@glGetVertexAttribfv@
  003e8	ff 55 50	 call	 QWORD PTR load$[rbp]
  003eb	48 89 05 00 00
	00 00		 mov	 QWORD PTR glad_glGetVertexAttribfv, rax

; 2632 :     glad_glGetVertexAttribiv = (PFNGLGETVERTEXATTRIBIVPROC)load("glGetVertexAttribiv");

  003f2	48 8d 0d 00 00
	00 00		 lea	 rcx, OFFSET FLAT:??_C@_0BE@HLCEAPNO@glGetVertexAttribiv@
  003f9	ff 55 50	 call	 QWORD PTR load$[rbp]
  003fc	48 89 05 00 00
	00 00		 mov	 QWORD PTR glad_glGetVertexAttribiv, rax

; 2633 :     glad_glGetVertexAttribPointerv = (PFNGLGETVERTEXATTRIBPOINTERVPROC)load("glGetVertexAttribPointerv");

  00403	48 8d 0d 00 00
	00 00		 lea	 rcx, OFFSET FLAT:??_C@_0BK@DOJMENLD@glGetVertexAttribPointerv@
  0040a	ff 55 50	 call	 QWORD PTR load$[rbp]
  0040d	48 89 05 00 00
	00 00		 mov	 QWORD PTR glad_glGetVertexAttribPointerv, rax

; 2634 :     glad_glHint = (PFNGLHINTPROC)load("glHint");

  00414	48 8d 0d 00 00
	00 00		 lea	 rcx, OFFSET FLAT:??_C@_06HEADGMBC@glHint@
  0041b	ff 55 50	 call	 QWORD PTR load$[rbp]
  0041e	48 89 05 00 00
	00 00		 mov	 QWORD PTR glad_glHint, rax

; 2635 :     glad_glIsEnabled = (PFNGLISENABLEDPROC)load("glIsEnabled");

  00425	48 8d 0d 00 00
	00 00		 lea	 rcx, OFFSET FLAT:??_C@_0M@INHMIHKC@glIsEnabled@
  0042c	ff 55 50	 call	 QWORD PTR load$[rbp]
  0042f	48 89 05 00 00
	00 00		 mov	 QWORD PTR glad_glIsEnabled, rax

; 2636 :     glad_glLineWidth = (PFNGLLINEWIDTHPROC)load("glLineWidth");

  00436	48 8d 0d 00 00
	00 00		 lea	 rcx, OFFSET FLAT:??_C@_0M@CFLGNFPG@glLineWidth@
  0043d	ff 55 50	 call	 QWORD PTR load$[rbp]
  00440	48 89 05 00 00
	00 00		 mov	 QWORD PTR glad_glLineWidth, rax

; 2637 :     glad_glPixelStorei = (PFNGLPIXELSTOREIPROC)load("glPixelStorei");

  00447	48 8d 0d 00 00
	00 00		 lea	 rcx, OFFSET FLAT:??_C@_0O@JCCIGLOF@glPixelStorei@
  0044e	ff 55 50	 call	 QWORD PTR load$[rbp]
  00451	48 89 05 00 00
	00 00		 mov	 QWORD PTR glad_glPixelStorei, rax

; 2638 :     glad_glPolygonOffset = (PFNGLPOLYGONOFFSETPROC)load("glPolygonOffset");

  00458	48 8d 0d 00 00
	00 00		 lea	 rcx, OFFSET FLAT:??_C@_0BA@FFBJGNC@glPolygonOffset@
  0045f	ff 55 50	 call	 QWORD PTR load$[rbp]
  00462	48 89 05 00 00
	00 00		 mov	 QWORD PTR glad_glPolygonOffset, rax

; 2639 :     glad_glProgramBinary = (PFNGLPROGRAMBINARYPROC)load("glProgramBinary");

  00469	48 8d 0d 00 00
	00 00		 lea	 rcx, OFFSET FLAT:??_C@_0BA@MIIDHOO@glProgramBinary@
  00470	ff 55 50	 call	 QWORD PTR load$[rbp]
  00473	48 89 05 00 00
	00 00		 mov	 QWORD PTR glad_glProgramBinary, rax

; 2640 :     glad_glReadnPixels = (PFNGLREADNPIXELSPROC)load("glReadnPixels");

  0047a	48 8d 0d 00 00
	00 00		 lea	 rcx, OFFSET FLAT:??_C@_0O@NELODAJJ@glReadnPixels@
  00481	ff 55 50	 call	 QWORD PTR load$[rbp]
  00484	48 89 05 00 00
	00 00		 mov	 QWORD PTR glad_glReadnPixels, rax

; 2641 :     glad_glRenderbufferStorage = (PFNGLRENDERBUFFERSTORAGEPROC)load("glRenderbufferStorage");

  0048b	48 8d 0d 00 00
	00 00		 lea	 rcx, OFFSET FLAT:??_C@_0BG@EOIILGMJ@glRenderbufferStorage@
  00492	ff 55 50	 call	 QWORD PTR load$[rbp]
  00495	48 89 05 00 00
	00 00		 mov	 QWORD PTR glad_glRenderbufferStorage, rax

; 2642 :     glad_glSampleCoverage = (PFNGLSAMPLECOVERAGEPROC)load("glSampleCoverage");

  0049c	48 8d 0d 00 00
	00 00		 lea	 rcx, OFFSET FLAT:??_C@_0BB@BJGIPMOA@glSampleCoverage@
  004a3	ff 55 50	 call	 QWORD PTR load$[rbp]
  004a6	48 89 05 00 00
	00 00		 mov	 QWORD PTR glad_glSampleCoverage, rax

; 2643 :     glad_glScissor = (PFNGLSCISSORPROC)load("glScissor");

  004ad	48 8d 0d 00 00
	00 00		 lea	 rcx, OFFSET FLAT:??_C@_09ECGPAEPL@glScissor@
  004b4	ff 55 50	 call	 QWORD PTR load$[rbp]
  004b7	48 89 05 00 00
	00 00		 mov	 QWORD PTR glad_glScissor, rax

; 2644 :     glad_glStencilFunc = (PFNGLSTENCILFUNCPROC)load("glStencilFunc");

  004be	48 8d 0d 00 00
	00 00		 lea	 rcx, OFFSET FLAT:??_C@_0O@ENNLLOLN@glStencilFunc@
  004c5	ff 55 50	 call	 QWORD PTR load$[rbp]
  004c8	48 89 05 00 00
	00 00		 mov	 QWORD PTR glad_glStencilFunc, rax

; 2645 :     glad_glStencilFuncSeparate = (PFNGLSTENCILFUNCSEPARATEPROC)load("glStencilFuncSeparate");

  004cf	48 8d 0d 00 00
	00 00		 lea	 rcx, OFFSET FLAT:??_C@_0BG@FCMNCEIA@glStencilFuncSeparate@
  004d6	ff 55 50	 call	 QWORD PTR load$[rbp]
  004d9	48 89 05 00 00
	00 00		 mov	 QWORD PTR glad_glStencilFuncSeparate, rax

; 2646 :     glad_glStencilMask = (PFNGLSTENCILMASKPROC)load("glStencilMask");

  004e0	48 8d 0d 00 00
	00 00		 lea	 rcx, OFFSET FLAT:??_C@_0O@DJFHPFEP@glStencilMask@
  004e7	ff 55 50	 call	 QWORD PTR load$[rbp]
  004ea	48 89 05 00 00
	00 00		 mov	 QWORD PTR glad_glStencilMask, rax

; 2647 :     glad_glStencilMaskSeparate = (PFNGLSTENCILMASKSEPARATEPROC)load("glStencilMaskSeparate");

  004f1	48 8d 0d 00 00
	00 00		 lea	 rcx, OFFSET FLAT:??_C@_0BG@MMKPIEJI@glStencilMaskSeparate@
  004f8	ff 55 50	 call	 QWORD PTR load$[rbp]
  004fb	48 89 05 00 00
	00 00		 mov	 QWORD PTR glad_glStencilMaskSeparate, rax

; 2648 :     glad_glStencilOp = (PFNGLSTENCILOPPROC)load("glStencilOp");

  00502	48 8d 0d 00 00
	00 00		 lea	 rcx, OFFSET FLAT:??_C@_0M@BILBNGF@glStencilOp@
  00509	ff 55 50	 call	 QWORD PTR load$[rbp]
  0050c	48 89 05 00 00
	00 00		 mov	 QWORD PTR glad_glStencilOp, rax

; 2649 :     glad_glStencilOpSeparate = (PFNGLSTENCILOPSEPARATEPROC)load("glStencilOpSeparate");

  00513	48 8d 0d 00 00
	00 00		 lea	 rcx, OFFSET FLAT:??_C@_0BE@GAPLDNGF@glStencilOpSeparate@
  0051a	ff 55 50	 call	 QWORD PTR load$[rbp]
  0051d	48 89 05 00 00
	00 00		 mov	 QWORD PTR glad_glStencilOpSeparate, rax

; 2650 :     glad_glTexStorage2D = (PFNGLTEXSTORAGE2DPROC)load("glTexStorage2D");

  00524	48 8d 0d 00 00
	00 00		 lea	 rcx, OFFSET FLAT:??_C@_0P@LAPAEKEH@glTexStorage2D@
  0052b	ff 55 50	 call	 QWORD PTR load$[rbp]
  0052e	48 89 05 00 00
	00 00		 mov	 QWORD PTR glad_glTexStorage2D, rax

; 2651 :     glad_glTexParameterf = (PFNGLTEXPARAMETERFPROC)load("glTexParameterf");

  00535	48 8d 0d 00 00
	00 00		 lea	 rcx, OFFSET FLAT:??_C@_0BA@INKFIMGP@glTexParameterf@
  0053c	ff 55 50	 call	 QWORD PTR load$[rbp]
  0053f	48 89 05 00 00
	00 00		 mov	 QWORD PTR glad_glTexParameterf, rax

; 2652 :     glad_glTexParameterfv = (PFNGLTEXPARAMETERFVPROC)load("glTexParameterfv");

  00546	48 8d 0d 00 00
	00 00		 lea	 rcx, OFFSET FLAT:??_C@_0BB@KEOFAHDF@glTexParameterfv@
  0054d	ff 55 50	 call	 QWORD PTR load$[rbp]
  00550	48 89 05 00 00
	00 00		 mov	 QWORD PTR glad_glTexParameterfv, rax

; 2653 :     glad_glTexParameteri = (PFNGLTEXPARAMETERIPROC)load("glTexParameteri");

  00557	48 8d 0d 00 00
	00 00		 lea	 rcx, OFFSET FLAT:??_C@_0BA@KDNJAKA@glTexParameteri@
  0055e	ff 55 50	 call	 QWORD PTR load$[rbp]
  00561	48 89 05 00 00
	00 00		 mov	 QWORD PTR glad_glTexParameteri, rax

; 2654 :     glad_glTexParameteriv = (PFNGLTEXPARAMETERIVPROC)load("glTexParameteriv");

  00568	48 8d 0d 00 00
	00 00		 lea	 rcx, OFFSET FLAT:??_C@_0BB@KPLJEAAI@glTexParameteriv@
  0056f	ff 55 50	 call	 QWORD PTR load$[rbp]
  00572	48 89 05 00 00
	00 00		 mov	 QWORD PTR glad_glTexParameteriv, rax

; 2655 :     glad_glTexSubImage2D = (PFNGLTEXSUBIMAGE2DPROC)load("glTexSubImage2D");

  00579	48 8d 0d 00 00
	00 00		 lea	 rcx, OFFSET FLAT:??_C@_0BA@NHKIJEMK@glTexSubImage2D@
  00580	ff 55 50	 call	 QWORD PTR load$[rbp]
  00583	48 89 05 00 00
	00 00		 mov	 QWORD PTR glad_glTexSubImage2D, rax

; 2656 :     glad_glUniform1f = (PFNGLUNIFORM1FPROC)load("glUniform1f");

  0058a	48 8d 0d 00 00
	00 00		 lea	 rcx, OFFSET FLAT:??_C@_0M@MLICAPOF@glUniform1f@
  00591	ff 55 50	 call	 QWORD PTR load$[rbp]
  00594	48 89 05 00 00
	00 00		 mov	 QWORD PTR glad_glUniform1f, rax

; 2657 :     glad_glUniform1fv = (PFNGLUNIFORM1FVPROC)load("glUniform1fv");

  0059b	48 8d 0d 00 00
	00 00		 lea	 rcx, OFFSET FLAT:??_C@_0N@KJMOEKII@glUniform1fv@
  005a2	ff 55 50	 call	 QWORD PTR load$[rbp]
  005a5	48 89 05 00 00
	00 00		 mov	 QWORD PTR glad_glUniform1fv, rax

; 2658 :     glad_glUniform1i = (PFNGLUNIFORM1IPROC)load("glUniform1i");

  005ac	48 8d 0d 00 00
	00 00		 lea	 rcx, OFFSET FLAT:??_C@_0M@EMBKBDCK@glUniform1i@
  005b3	ff 55 50	 call	 QWORD PTR load$[rbp]
  005b6	48 89 05 00 00
	00 00		 mov	 QWORD PTR glad_glUniform1i, rax

; 2659 :     glad_glUniform1iv = (PFNGLUNIFORM1IVPROC)load("glUniform1iv");

  005bd	48 8d 0d 00 00
	00 00		 lea	 rcx, OFFSET FLAT:??_C@_0N@KCJCANLF@glUniform1iv@
  005c4	ff 55 50	 call	 QWORD PTR load$[rbp]
  005c7	48 89 05 00 00
	00 00		 mov	 QWORD PTR glad_glUniform1iv, rax

; 2660 :     glad_glUniform2f = (PFNGLUNIFORM2FPROC)load("glUniform2f");

  005ce	48 8d 0d 00 00
	00 00		 lea	 rcx, OFFSET FLAT:??_C@_0M@MJMELBLM@glUniform2f@
  005d5	ff 55 50	 call	 QWORD PTR load$[rbp]
  005d8	48 89 05 00 00
	00 00		 mov	 QWORD PTR glad_glUniform2f, rax

; 2661 :     glad_glUniform2fv = (PFNGLUNIFORM2FVPROC)load("glUniform2fv");

  005df	48 8d 0d 00 00
	00 00		 lea	 rcx, OFFSET FLAT:??_C@_0N@LLHLOFGG@glUniform2fv@
  005e6	ff 55 50	 call	 QWORD PTR load$[rbp]
  005e9	48 89 05 00 00
	00 00		 mov	 QWORD PTR glad_glUniform2fv, rax

; 2662 :     glad_glUniform2i = (PFNGLUNIFORM2IPROC)load("glUniform2i");

  005f0	48 8d 0d 00 00
	00 00		 lea	 rcx, OFFSET FLAT:??_C@_0M@EOFMKNHD@glUniform2i@
  005f7	ff 55 50	 call	 QWORD PTR load$[rbp]
  005fa	48 89 05 00 00
	00 00		 mov	 QWORD PTR glad_glUniform2i, rax

; 2663 :     glad_glUniform2iv = (PFNGLUNIFORM2IVPROC)load("glUniform2iv");

  00601	48 8d 0d 00 00
	00 00		 lea	 rcx, OFFSET FLAT:??_C@_0N@LACHKCFL@glUniform2iv@
  00608	ff 55 50	 call	 QWORD PTR load$[rbp]
  0060b	48 89 05 00 00
	00 00		 mov	 QWORD PTR glad_glUniform2iv, rax

; 2664 :     glad_glUniform3f = (PFNGLUNIFORM3FPROC)load("glUniform3f");

  00612	48 8d 0d 00 00
	00 00		 lea	 rcx, OFFSET FLAT:??_C@_0M@MIAGNLIL@glUniform3f@
  00619	ff 55 50	 call	 QWORD PTR load$[rbp]
  0061c	48 89 05 00 00
	00 00		 mov	 QWORD PTR glad_glUniform3f, rax

; 2665 :     glad_glUniform3fv = (PFNGLUNIFORM3FVPROC)load("glUniform3fv");

  00623	48 8d 0d 00 00
	00 00		 lea	 rcx, OFFSET FLAT:??_C@_0N@DMHICAD@glUniform3fv@
  0062a	ff 55 50	 call	 QWORD PTR load$[rbp]
  0062d	48 89 05 00 00
	00 00		 mov	 QWORD PTR glad_glUniform3fv, rax

; 2666 :     glad_glUniform3i = (PFNGLUNIFORM3IPROC)load("glUniform3i");

  00634	48 8d 0d 00 00
	00 00		 lea	 rcx, OFFSET FLAT:??_C@_0M@EPJOMHEE@glUniform3i@
  0063b	ff 55 50	 call	 QWORD PTR load$[rbp]
  0063e	48 89 05 00 00
	00 00		 mov	 QWORD PTR glad_glUniform3i, rax

; 2667 :     glad_glUniform3iv = (PFNGLUNIFORM3IVPROC)load("glUniform3iv");

  00645	48 8d 0d 00 00
	00 00		 lea	 rcx, OFFSET FLAT:??_C@_0N@IJLMFDO@glUniform3iv@
  0064c	ff 55 50	 call	 QWORD PTR load$[rbp]
  0064f	48 89 05 00 00
	00 00		 mov	 QWORD PTR glad_glUniform3iv, rax

; 2668 :     glad_glUniform4f = (PFNGLUNIFORM4FPROC)load("glUniform4f");

  00656	48 8d 0d 00 00
	00 00		 lea	 rcx, OFFSET FLAT:??_C@_0M@MNEJMNAO@glUniform4f@
  0065d	ff 55 50	 call	 QWORD PTR load$[rbp]
  00660	48 89 05 00 00
	00 00		 mov	 QWORD PTR glad_glUniform4f, rax

; 2669 :     glad_glUniform4fv = (PFNGLUNIFORM4FVPROC)load("glUniform4fv");

  00667	48 8d 0d 00 00
	00 00		 lea	 rcx, OFFSET FLAT:??_C@_0N@JOBALKLK@glUniform4fv@
  0066e	ff 55 50	 call	 QWORD PTR load$[rbp]
  00671	48 89 05 00 00
	00 00		 mov	 QWORD PTR glad_glUniform4fv, rax

; 2670 :     glad_glUniform4i = (PFNGLUNIFORM4IPROC)load("glUniform4i");

  00678	48 8d 0d 00 00
	00 00		 lea	 rcx, OFFSET FLAT:??_C@_0M@EKNBNBMB@glUniform4i@
  0067f	ff 55 50	 call	 QWORD PTR load$[rbp]
  00682	48 89 05 00 00
	00 00		 mov	 QWORD PTR glad_glUniform4i, rax

; 2671 :     glad_glUniform4iv = (PFNGLUNIFORM4IVPROC)load("glUniform4iv");

  00689	48 8d 0d 00 00
	00 00		 lea	 rcx, OFFSET FLAT:??_C@_0N@JFEMPNIH@glUniform4iv@
  00690	ff 55 50	 call	 QWORD PTR load$[rbp]
  00693	48 89 05 00 00
	00 00		 mov	 QWORD PTR glad_glUniform4iv, rax

; 2672 :     glad_glUniformMatrix2fv = (PFNGLUNIFORMMATRIX2FVPROC)load("glUniformMatrix2fv");

  0069a	48 8d 0d 00 00
	00 00		 lea	 rcx, OFFSET FLAT:??_C@_0BD@JIBJELHD@glUniformMatrix2fv@
  006a1	ff 55 50	 call	 QWORD PTR load$[rbp]
  006a4	48 89 05 00 00
	00 00		 mov	 QWORD PTR glad_glUniformMatrix2fv, rax

; 2673 :     glad_glUniformMatrix3fv = (PFNGLUNIFORMMATRIX3FVPROC)load("glUniformMatrix3fv");

  006ab	48 8d 0d 00 00
	00 00		 lea	 rcx, OFFSET FLAT:??_C@_0BD@CAKFCMBG@glUniformMatrix3fv@
  006b2	ff 55 50	 call	 QWORD PTR load$[rbp]
  006b5	48 89 05 00 00
	00 00		 mov	 QWORD PTR glad_glUniformMatrix3fv, rax

; 2674 :     glad_glUniformMatrix4fv = (PFNGLUNIFORMMATRIX4FVPROC)load("glUniformMatrix4fv");

  006bc	48 8d 0d 00 00
	00 00		 lea	 rcx, OFFSET FLAT:??_C@_0BD@LNHCBEKP@glUniformMatrix4fv@
  006c3	ff 55 50	 call	 QWORD PTR load$[rbp]
  006c6	48 89 05 00 00
	00 00		 mov	 QWORD PTR glad_glUniformMatrix4fv, rax

; 2675 :     glad_glUseProgram = (PFNGLUSEPROGRAMPROC)load("glUseProgram");

  006cd	48 8d 0d 00 00
	00 00		 lea	 rcx, OFFSET FLAT:??_C@_0N@ICBDHBI@glUseProgram@
  006d4	ff 55 50	 call	 QWORD PTR load$[rbp]
  006d7	48 89 05 00 00
	00 00		 mov	 QWORD PTR glad_glUseProgram, rax

; 2676 :     glad_glVertexAttrib1f = (PFNGLVERTEXATTRIB1FPROC)load("glVertexAttrib1f");

  006de	48 8d 0d 00 00
	00 00		 lea	 rcx, OFFSET FLAT:??_C@_0BB@MKNNJPHA@glVertexAttrib1f@
  006e5	ff 55 50	 call	 QWORD PTR load$[rbp]
  006e8	48 89 05 00 00
	00 00		 mov	 QWORD PTR glad_glVertexAttrib1f, rax

; 2677 :     glad_glVertexAttrib1fv = (PFNGLVERTEXATTRIB1FVPROC)load("glVertexAttrib1fv");

  006ef	48 8d 0d 00 00
	00 00		 lea	 rcx, OFFSET FLAT:??_C@_0BC@CJKKHCND@glVertexAttrib1fv@
  006f6	ff 55 50	 call	 QWORD PTR load$[rbp]
  006f9	48 89 05 00 00
	00 00		 mov	 QWORD PTR glad_glVertexAttrib1fv, rax

; 2678 :     glad_glVertexAttrib2f = (PFNGLVERTEXATTRIB2FPROC)load("glVertexAttrib2f");

  00700	48 8d 0d 00 00
	00 00		 lea	 rcx, OFFSET FLAT:??_C@_0BB@MIJLCBCJ@glVertexAttrib2f@
  00707	ff 55 50	 call	 QWORD PTR load$[rbp]
  0070a	48 89 05 00 00
	00 00		 mov	 QWORD PTR glad_glVertexAttrib2f, rax

; 2679 :     glad_glVertexAttrib2fv = (PFNGLVERTEXATTRIB2FVPROC)load("glVertexAttrib2fv");

  00711	48 8d 0d 00 00
	00 00		 lea	 rcx, OFFSET FLAT:??_C@_0BC@DLBPNNDN@glVertexAttrib2fv@
  00718	ff 55 50	 call	 QWORD PTR load$[rbp]
  0071b	48 89 05 00 00
	00 00		 mov	 QWORD PTR glad_glVertexAttrib2fv, rax

; 2680 :     glad_glVertexAttrib3f = (PFNGLVERTEXATTRIB3FPROC)load("glVertexAttrib3f");

  00722	48 8d 0d 00 00
	00 00		 lea	 rcx, OFFSET FLAT:??_C@_0BB@MJFJELBO@glVertexAttrib3f@
  00729	ff 55 50	 call	 QWORD PTR load$[rbp]
  0072c	48 89 05 00 00
	00 00		 mov	 QWORD PTR glad_glVertexAttrib3f, rax

; 2681 :     glad_glVertexAttrib3fv = (PFNGLVERTEXATTRIB3FVPROC)load("glVertexAttrib3fv");

  00733	48 8d 0d 00 00
	00 00		 lea	 rcx, OFFSET FLAT:??_C@_0BC@IDKDLKFI@glVertexAttrib3fv@
  0073a	ff 55 50	 call	 QWORD PTR load$[rbp]
  0073d	48 89 05 00 00
	00 00		 mov	 QWORD PTR glad_glVertexAttrib3fv, rax

; 2682 :     glad_glVertexAttrib4f = (PFNGLVERTEXATTRIB4FPROC)load("glVertexAttrib4f");

  00744	48 8d 0d 00 00
	00 00		 lea	 rcx, OFFSET FLAT:??_C@_0BB@MMBGFNJL@glVertexAttrib4f@
  0074b	ff 55 50	 call	 QWORD PTR load$[rbp]
  0074e	48 89 05 00 00
	00 00		 mov	 QWORD PTR glad_glVertexAttrib4f, rax

; 2683 :     glad_glVertexAttrib4fv = (PFNGLVERTEXATTRIB4FVPROC)load("glVertexAttrib4fv");

  00755	48 8d 0d 00 00
	00 00		 lea	 rcx, OFFSET FLAT:??_C@_0BC@BOHEICOB@glVertexAttrib4fv@
  0075c	ff 55 50	 call	 QWORD PTR load$[rbp]
  0075f	48 89 05 00 00
	00 00		 mov	 QWORD PTR glad_glVertexAttrib4fv, rax

; 2684 :     glad_glVertexAttribPointer = (PFNGLVERTEXATTRIBPOINTERPROC)load("glVertexAttribPointer");

  00766	48 8d 0d 00 00
	00 00		 lea	 rcx, OFFSET FLAT:??_C@_0BG@JPNNNPKG@glVertexAttribPointer@
  0076d	ff 55 50	 call	 QWORD PTR load$[rbp]
  00770	48 89 05 00 00
	00 00		 mov	 QWORD PTR glad_glVertexAttribPointer, rax

; 2685 :     glad_glViewport = (PFNGLVIEWPORTPROC)load("glViewport");

  00777	48 8d 0d 00 00
	00 00		 lea	 rcx, OFFSET FLAT:??_C@_0L@KBLIPDFH@glViewport@
  0077e	ff 55 50	 call	 QWORD PTR load$[rbp]
  00781	48 89 05 00 00
	00 00		 mov	 QWORD PTR glad_glViewport, rax
$LN1@load_GL_SC:

; 2686 : }

  00788	48 8d 65 40	 lea	 rsp, QWORD PTR [rbp+64]
  0078c	5d		 pop	 rbp
  0078d	c3		 ret	 0
load_GL_SC_VERSION_2_0 ENDP
_TEXT	ENDS
; Function compile flags: /Odtp /ZI
; File D:\Programmer\GLenv\glad.c
;	COMDAT find_coreGLES2
_TEXT	SEGMENT
i$ = 0
major$ = 4
minor$ = 8
version$ = 16
prefixes$ = 24
length$1 = 56
tv145 = 128
tv137 = 128
tv133 = 128
tv129 = 128
tv93 = 128
tv146 = 136
__$ArrayPad$ = 144
find_coreGLES2 PROC					; COMDAT

; 2512 : static void find_coreGLES2(void) {

  00000	40 55		 push	 rbp
  00002	48 81 ec c0 00
	00 00		 sub	 rsp, 192		; 000000c0H
  00009	48 8d 6c 24 20	 lea	 rbp, QWORD PTR [rsp+32]
  0000e	48 8b 05 00 00
	00 00		 mov	 rax, QWORD PTR __security_cookie
  00015	48 33 c5	 xor	 rax, rbp
  00018	48 89 85 90 00
	00 00		 mov	 QWORD PTR __$ArrayPad$[rbp], rax
  0001f	48 8d 0d 00 00
	00 00		 lea	 rcx, OFFSET FLAT:__2B68C239_glad@c
  00026	e8 00 00 00 00	 call	 __CheckForDebuggerJustMyCode

; 2513 : 
; 2514 :     /* Thank you @elmindreda
; 2515 :      * https://github.com/elmindreda/greg/blob/master/templates/greg.c.in#L176
; 2516 :      * https://github.com/glfw/glfw/blob/master/src/context.c#L36
; 2517 :      */
; 2518 :     int i, major, minor;
; 2519 : 
; 2520 :     const char* version;
; 2521 :     const char* prefixes[] = {

  0002b	48 8d 05 00 00
	00 00		 lea	 rax, OFFSET FLAT:??_C@_0O@ENGHJHNB@OpenGL?5ES?9CM?5@
  00032	48 89 45 18	 mov	 QWORD PTR prefixes$[rbp], rax
  00036	48 8d 05 00 00
	00 00		 lea	 rax, OFFSET FLAT:??_C@_0O@EMKFPNOG@OpenGL?5ES?9CL?5@
  0003d	48 89 45 20	 mov	 QWORD PTR prefixes$[rbp+8], rax
  00041	48 8d 05 00 00
	00 00		 lea	 rax, OFFSET FLAT:??_C@_0L@JLFHOCGA@OpenGL?5ES?5@
  00048	48 89 45 28	 mov	 QWORD PTR prefixes$[rbp+16], rax
  0004c	48 c7 45 30 00
	00 00 00	 mov	 QWORD PTR prefixes$[rbp+24], 0

; 2522 :         "OpenGL ES-CM ",
; 2523 :         "OpenGL ES-CL ",
; 2524 :         "OpenGL ES ",
; 2525 :         NULL
; 2526 :     };
; 2527 : 
; 2528 :     version = (const char*)glGetString(GL_VERSION);

  00054	b9 02 1f 00 00	 mov	 ecx, 7938		; 00001f02H
  00059	ff 15 00 00 00
	00		 call	 QWORD PTR glad_glGetString
  0005f	48 89 45 10	 mov	 QWORD PTR version$[rbp], rax

; 2529 :     if (!version) return;

  00063	48 83 7d 10 00	 cmp	 QWORD PTR version$[rbp], 0
  00068	75 05		 jne	 SHORT $LN5@find_coreG
  0006a	e9 cd 01 00 00	 jmp	 $LN1@find_coreG
$LN5@find_coreG:

; 2530 : 
; 2531 :     for (i = 0; prefixes[i]; i++) {

  0006f	c7 45 00 00 00
	00 00		 mov	 DWORD PTR i$[rbp], 0
  00076	eb 08		 jmp	 SHORT $LN4@find_coreG
$LN2@find_coreG:
  00078	8b 45 00	 mov	 eax, DWORD PTR i$[rbp]
  0007b	ff c0		 inc	 eax
  0007d	89 45 00	 mov	 DWORD PTR i$[rbp], eax
$LN4@find_coreG:
  00080	48 63 45 00	 movsxd	 rax, DWORD PTR i$[rbp]
  00084	48 83 7c c5 18
	00		 cmp	 QWORD PTR prefixes$[rbp+rax*8], 0
  0008a	74 75		 je	 SHORT $LN3@find_coreG

; 2532 :         const size_t length = strlen(prefixes[i]);

  0008c	48 63 45 00	 movsxd	 rax, DWORD PTR i$[rbp]
  00090	48 8b 44 c5 18	 mov	 rax, QWORD PTR prefixes$[rbp+rax*8]
  00095	48 89 85 80 00
	00 00		 mov	 QWORD PTR tv145[rbp], rax
  0009c	48 c7 85 88 00
	00 00 ff ff ff
	ff		 mov	 QWORD PTR tv146[rbp], -1
$LL22@find_coreG:
  000a7	48 ff 85 88 00
	00 00		 inc	 QWORD PTR tv146[rbp]
  000ae	48 8b 85 80 00
	00 00		 mov	 rax, QWORD PTR tv145[rbp]
  000b5	48 8b 8d 88 00
	00 00		 mov	 rcx, QWORD PTR tv146[rbp]
  000bc	80 3c 08 00	 cmp	 BYTE PTR [rax+rcx], 0
  000c0	75 e5		 jne	 SHORT $LL22@find_coreG
  000c2	48 8b 85 88 00
	00 00		 mov	 rax, QWORD PTR tv146[rbp]
  000c9	48 89 45 38	 mov	 QWORD PTR length$1[rbp], rax

; 2533 :         if (strncmp(version, prefixes[i], length) == 0) {

  000cd	48 63 45 00	 movsxd	 rax, DWORD PTR i$[rbp]
  000d1	4c 8b 45 38	 mov	 r8, QWORD PTR length$1[rbp]
  000d5	48 8b 54 c5 18	 mov	 rdx, QWORD PTR prefixes$[rbp+rax*8]
  000da	48 8b 4d 10	 mov	 rcx, QWORD PTR version$[rbp]
  000de	ff 15 00 00 00
	00		 call	 QWORD PTR __imp_strncmp
  000e4	85 c0		 test	 eax, eax
  000e6	75 14		 jne	 SHORT $LN6@find_coreG

; 2534 :             version += length;

  000e8	48 8b 45 38	 mov	 rax, QWORD PTR length$1[rbp]
  000ec	48 8b 4d 10	 mov	 rcx, QWORD PTR version$[rbp]
  000f0	48 03 c8	 add	 rcx, rax
  000f3	48 8b c1	 mov	 rax, rcx
  000f6	48 89 45 10	 mov	 QWORD PTR version$[rbp], rax

; 2535 :             break;

  000fa	eb 05		 jmp	 SHORT $LN3@find_coreG
$LN6@find_coreG:

; 2536 :         }
; 2537 :     }

  000fc	e9 77 ff ff ff	 jmp	 $LN2@find_coreG
$LN3@find_coreG:

; 2538 : 
; 2539 :     /* PR #18 */
; 2540 : #ifdef _MSC_VER
; 2541 :     sscanf_s(version, "%d.%d", &major, &minor);

  00101	4c 8d 4d 08	 lea	 r9, QWORD PTR minor$[rbp]
  00105	4c 8d 45 04	 lea	 r8, QWORD PTR major$[rbp]
  00109	48 8d 15 00 00
	00 00		 lea	 rdx, OFFSET FLAT:??_C@_05KBEOJPB@?$CFd?4?$CFd@
  00110	48 8b 4d 10	 mov	 rcx, QWORD PTR version$[rbp]
  00114	e8 00 00 00 00	 call	 sscanf_s

; 2542 : #else
; 2543 :     sscanf(version, "%d.%d", &major, &minor);
; 2544 : #endif
; 2545 : 
; 2546 :     GLVersion.major = major; GLVersion.minor = minor;

  00119	8b 45 04	 mov	 eax, DWORD PTR major$[rbp]
  0011c	89 05 00 00 00
	00		 mov	 DWORD PTR GLVersion, eax
  00122	8b 45 08	 mov	 eax, DWORD PTR minor$[rbp]
  00125	89 05 04 00 00
	00		 mov	 DWORD PTR GLVersion+4, eax

; 2547 :     max_loaded_major = major; max_loaded_minor = minor;

  0012b	8b 45 04	 mov	 eax, DWORD PTR major$[rbp]
  0012e	89 05 00 00 00
	00		 mov	 DWORD PTR max_loaded_major, eax
  00134	8b 45 08	 mov	 eax, DWORD PTR minor$[rbp]
  00137	89 05 00 00 00
	00		 mov	 DWORD PTR max_loaded_minor, eax

; 2548 :     GLAD_GL_ES_VERSION_2_0 = (major == 2 && minor >= 0) || major > 2;

  0013d	83 7d 04 02	 cmp	 DWORD PTR major$[rbp], 2
  00141	75 06		 jne	 SHORT $LN10@find_coreG
  00143	83 7d 08 00	 cmp	 DWORD PTR minor$[rbp], 0
  00147	7d 12		 jge	 SHORT $LN11@find_coreG
$LN10@find_coreG:
  00149	83 7d 04 02	 cmp	 DWORD PTR major$[rbp], 2
  0014d	7f 0c		 jg	 SHORT $LN11@find_coreG
  0014f	c7 85 80 00 00
	00 00 00 00 00	 mov	 DWORD PTR tv93[rbp], 0
  00159	eb 0a		 jmp	 SHORT $LN12@find_coreG
$LN11@find_coreG:
  0015b	c7 85 80 00 00
	00 01 00 00 00	 mov	 DWORD PTR tv93[rbp], 1
$LN12@find_coreG:
  00165	8b 85 80 00 00
	00		 mov	 eax, DWORD PTR tv93[rbp]
  0016b	89 05 00 00 00
	00		 mov	 DWORD PTR GLAD_GL_ES_VERSION_2_0, eax

; 2549 :     GLAD_GL_ES_VERSION_3_0 = (major == 3 && minor >= 0) || major > 3;

  00171	83 7d 04 03	 cmp	 DWORD PTR major$[rbp], 3
  00175	75 06		 jne	 SHORT $LN13@find_coreG
  00177	83 7d 08 00	 cmp	 DWORD PTR minor$[rbp], 0
  0017b	7d 12		 jge	 SHORT $LN14@find_coreG
$LN13@find_coreG:
  0017d	83 7d 04 03	 cmp	 DWORD PTR major$[rbp], 3
  00181	7f 0c		 jg	 SHORT $LN14@find_coreG
  00183	c7 85 80 00 00
	00 00 00 00 00	 mov	 DWORD PTR tv129[rbp], 0
  0018d	eb 0a		 jmp	 SHORT $LN15@find_coreG
$LN14@find_coreG:
  0018f	c7 85 80 00 00
	00 01 00 00 00	 mov	 DWORD PTR tv129[rbp], 1
$LN15@find_coreG:
  00199	8b 85 80 00 00
	00		 mov	 eax, DWORD PTR tv129[rbp]
  0019f	89 05 00 00 00
	00		 mov	 DWORD PTR GLAD_GL_ES_VERSION_3_0, eax

; 2550 :     GLAD_GL_ES_VERSION_3_1 = (major == 3 && minor >= 1) || major > 3;

  001a5	83 7d 04 03	 cmp	 DWORD PTR major$[rbp], 3
  001a9	75 06		 jne	 SHORT $LN16@find_coreG
  001ab	83 7d 08 01	 cmp	 DWORD PTR minor$[rbp], 1
  001af	7d 12		 jge	 SHORT $LN17@find_coreG
$LN16@find_coreG:
  001b1	83 7d 04 03	 cmp	 DWORD PTR major$[rbp], 3
  001b5	7f 0c		 jg	 SHORT $LN17@find_coreG
  001b7	c7 85 80 00 00
	00 00 00 00 00	 mov	 DWORD PTR tv133[rbp], 0
  001c1	eb 0a		 jmp	 SHORT $LN18@find_coreG
$LN17@find_coreG:
  001c3	c7 85 80 00 00
	00 01 00 00 00	 mov	 DWORD PTR tv133[rbp], 1
$LN18@find_coreG:
  001cd	8b 85 80 00 00
	00		 mov	 eax, DWORD PTR tv133[rbp]
  001d3	89 05 00 00 00
	00		 mov	 DWORD PTR GLAD_GL_ES_VERSION_3_1, eax

; 2551 :     GLAD_GL_ES_VERSION_3_2 = (major == 3 && minor >= 2) || major > 3;

  001d9	83 7d 04 03	 cmp	 DWORD PTR major$[rbp], 3
  001dd	75 06		 jne	 SHORT $LN19@find_coreG
  001df	83 7d 08 02	 cmp	 DWORD PTR minor$[rbp], 2
  001e3	7d 12		 jge	 SHORT $LN20@find_coreG
$LN19@find_coreG:
  001e5	83 7d 04 03	 cmp	 DWORD PTR major$[rbp], 3
  001e9	7f 0c		 jg	 SHORT $LN20@find_coreG
  001eb	c7 85 80 00 00
	00 00 00 00 00	 mov	 DWORD PTR tv137[rbp], 0
  001f5	eb 0a		 jmp	 SHORT $LN21@find_coreG
$LN20@find_coreG:
  001f7	c7 85 80 00 00
	00 01 00 00 00	 mov	 DWORD PTR tv137[rbp], 1
$LN21@find_coreG:
  00201	8b 85 80 00 00
	00		 mov	 eax, DWORD PTR tv137[rbp]
  00207	89 05 00 00 00
	00		 mov	 DWORD PTR GLAD_GL_ES_VERSION_3_2, eax

; 2552 :     if (GLVersion.major > 3 || (GLVersion.major >= 3 && GLVersion.minor >= 2)) {

  0020d	83 3d 00 00 00
	00 03		 cmp	 DWORD PTR GLVersion, 3
  00214	7f 12		 jg	 SHORT $LN8@find_coreG
  00216	83 3d 00 00 00
	00 03		 cmp	 DWORD PTR GLVersion, 3
  0021d	7c 1d		 jl	 SHORT $LN7@find_coreG
  0021f	83 3d 04 00 00
	00 02		 cmp	 DWORD PTR GLVersion+4, 2
  00226	7c 14		 jl	 SHORT $LN7@find_coreG
$LN8@find_coreG:

; 2553 :         max_loaded_major = 3;

  00228	c7 05 00 00 00
	00 03 00 00 00	 mov	 DWORD PTR max_loaded_major, 3

; 2554 :         max_loaded_minor = 2;

  00232	c7 05 00 00 00
	00 02 00 00 00	 mov	 DWORD PTR max_loaded_minor, 2
$LN7@find_coreG:
$LN1@find_coreG:

; 2555 :     }
; 2556 : }

  0023c	48 8b 8d 90 00
	00 00		 mov	 rcx, QWORD PTR __$ArrayPad$[rbp]
  00243	48 33 cd	 xor	 rcx, rbp
  00246	e8 00 00 00 00	 call	 __security_check_cookie
  0024b	48 8d a5 a0 00
	00 00		 lea	 rsp, QWORD PTR [rbp+160]
  00252	5d		 pop	 rbp
  00253	c3		 ret	 0
find_coreGLES2 ENDP
_TEXT	ENDS
; Function compile flags: /Odtp /ZI
; File D:\Programmer\GLenv\glad.c
;	COMDAT find_extensionsGLES2
_TEXT	SEGMENT
find_extensionsGLES2 PROC				; COMDAT

; 2505 : static int find_extensionsGLES2(void) {

  00000	40 55		 push	 rbp
  00002	48 83 ec 60	 sub	 rsp, 96			; 00000060H
  00006	48 8d 6c 24 20	 lea	 rbp, QWORD PTR [rsp+32]
  0000b	48 8d 0d 00 00
	00 00		 lea	 rcx, OFFSET FLAT:__2B68C239_glad@c
  00012	e8 00 00 00 00	 call	 __CheckForDebuggerJustMyCode

; 2506 :     if (!get_exts()) return 0;

  00017	e8 00 00 00 00	 call	 get_exts
  0001c	85 c0		 test	 eax, eax
  0001e	75 04		 jne	 SHORT $LN2@find_exten
  00020	33 c0		 xor	 eax, eax
  00022	eb 0a		 jmp	 SHORT $LN1@find_exten
$LN2@find_exten:

; 2507 :     (void)&has_ext;
; 2508 :     free_exts();

  00024	e8 00 00 00 00	 call	 free_exts

; 2509 :     return 1;

  00029	b8 01 00 00 00	 mov	 eax, 1
$LN1@find_exten:

; 2510 : }

  0002e	48 8d 65 40	 lea	 rsp, QWORD PTR [rbp+64]
  00032	5d		 pop	 rbp
  00033	c3		 ret	 0
find_extensionsGLES2 ENDP
_TEXT	ENDS
; Function compile flags: /Odtp /ZI
; File D:\Programmer\GLenv\glad.c
;	COMDAT load_GL_ES_VERSION_3_2
_TEXT	SEGMENT
load$ = 80
load_GL_ES_VERSION_3_2 PROC				; COMDAT

; 2458 : static void load_GL_ES_VERSION_3_2(GLADloadproc load) {

  00000	48 89 4c 24 08	 mov	 QWORD PTR [rsp+8], rcx
  00005	55		 push	 rbp
  00006	48 83 ec 60	 sub	 rsp, 96			; 00000060H
  0000a	48 8d 6c 24 20	 lea	 rbp, QWORD PTR [rsp+32]
  0000f	48 8d 0d 00 00
	00 00		 lea	 rcx, OFFSET FLAT:__2B68C239_glad@c
  00016	e8 00 00 00 00	 call	 __CheckForDebuggerJustMyCode

; 2459 :     if (!GLAD_GL_ES_VERSION_3_2) return;

  0001b	83 3d 00 00 00
	00 00		 cmp	 DWORD PTR GLAD_GL_ES_VERSION_3_2, 0
  00022	75 05		 jne	 SHORT $LN2@load_GL_ES
  00024	e9 ec 02 00 00	 jmp	 $LN1@load_GL_ES
$LN2@load_GL_ES:

; 2460 :     glad_glBlendBarrier = (PFNGLBLENDBARRIERPROC)load("glBlendBarrier");

  00029	48 8d 0d 00 00
	00 00		 lea	 rcx, OFFSET FLAT:??_C@_0P@NOCKEEAP@glBlendBarrier@
  00030	ff 55 50	 call	 QWORD PTR load$[rbp]
  00033	48 89 05 00 00
	00 00		 mov	 QWORD PTR glad_glBlendBarrier, rax

; 2461 :     glad_glCopyImageSubData = (PFNGLCOPYIMAGESUBDATAPROC)load("glCopyImageSubData");

  0003a	48 8d 0d 00 00
	00 00		 lea	 rcx, OFFSET FLAT:??_C@_0BD@BNCHOBBL@glCopyImageSubData@
  00041	ff 55 50	 call	 QWORD PTR load$[rbp]
  00044	48 89 05 00 00
	00 00		 mov	 QWORD PTR glad_glCopyImageSubData, rax

; 2462 :     glad_glDebugMessageControl = (PFNGLDEBUGMESSAGECONTROLPROC)load("glDebugMessageControl");

  0004b	48 8d 0d 00 00
	00 00		 lea	 rcx, OFFSET FLAT:??_C@_0BG@MNBDCEEP@glDebugMessageControl@
  00052	ff 55 50	 call	 QWORD PTR load$[rbp]
  00055	48 89 05 00 00
	00 00		 mov	 QWORD PTR glad_glDebugMessageControl, rax

; 2463 :     glad_glDebugMessageInsert = (PFNGLDEBUGMESSAGEINSERTPROC)load("glDebugMessageInsert");

  0005c	48 8d 0d 00 00
	00 00		 lea	 rcx, OFFSET FLAT:??_C@_0BF@DGOJNFDO@glDebugMessageInsert@
  00063	ff 55 50	 call	 QWORD PTR load$[rbp]
  00066	48 89 05 00 00
	00 00		 mov	 QWORD PTR glad_glDebugMessageInsert, rax

; 2464 :     glad_glDebugMessageCallback = (PFNGLDEBUGMESSAGECALLBACKPROC)load("glDebugMessageCallback");

  0006d	48 8d 0d 00 00
	00 00		 lea	 rcx, OFFSET FLAT:??_C@_0BH@IGFENJCI@glDebugMessageCallback@
  00074	ff 55 50	 call	 QWORD PTR load$[rbp]
  00077	48 89 05 00 00
	00 00		 mov	 QWORD PTR glad_glDebugMessageCallback, rax

; 2465 :     glad_glGetDebugMessageLog = (PFNGLGETDEBUGMESSAGELOGPROC)load("glGetDebugMessageLog");

  0007e	48 8d 0d 00 00
	00 00		 lea	 rcx, OFFSET FLAT:??_C@_0BF@FGBMJKND@glGetDebugMessageLog@
  00085	ff 55 50	 call	 QWORD PTR load$[rbp]
  00088	48 89 05 00 00
	00 00		 mov	 QWORD PTR glad_glGetDebugMessageLog, rax

; 2466 :     glad_glPushDebugGroup = (PFNGLPUSHDEBUGGROUPPROC)load("glPushDebugGroup");

  0008f	48 8d 0d 00 00
	00 00		 lea	 rcx, OFFSET FLAT:??_C@_0BB@DEFFBEGJ@glPushDebugGroup@
  00096	ff 55 50	 call	 QWORD PTR load$[rbp]
  00099	48 89 05 00 00
	00 00		 mov	 QWORD PTR glad_glPushDebugGroup, rax

; 2467 :     glad_glPopDebugGroup = (PFNGLPOPDEBUGGROUPPROC)load("glPopDebugGroup");

  000a0	48 8d 0d 00 00
	00 00		 lea	 rcx, OFFSET FLAT:??_C@_0BA@PMJBDENK@glPopDebugGroup@
  000a7	ff 55 50	 call	 QWORD PTR load$[rbp]
  000aa	48 89 05 00 00
	00 00		 mov	 QWORD PTR glad_glPopDebugGroup, rax

; 2468 :     glad_glObjectLabel = (PFNGLOBJECTLABELPROC)load("glObjectLabel");

  000b1	48 8d 0d 00 00
	00 00		 lea	 rcx, OFFSET FLAT:??_C@_0O@EFJDECDM@glObjectLabel@
  000b8	ff 55 50	 call	 QWORD PTR load$[rbp]
  000bb	48 89 05 00 00
	00 00		 mov	 QWORD PTR glad_glObjectLabel, rax

; 2469 :     glad_glGetObjectLabel = (PFNGLGETOBJECTLABELPROC)load("glGetObjectLabel");

  000c2	48 8d 0d 00 00
	00 00		 lea	 rcx, OFFSET FLAT:??_C@_0BB@MOEDHKDB@glGetObjectLabel@
  000c9	ff 55 50	 call	 QWORD PTR load$[rbp]
  000cc	48 89 05 00 00
	00 00		 mov	 QWORD PTR glad_glGetObjectLabel, rax

; 2470 :     glad_glObjectPtrLabel = (PFNGLOBJECTPTRLABELPROC)load("glObjectPtrLabel");

  000d3	48 8d 0d 00 00
	00 00		 lea	 rcx, OFFSET FLAT:??_C@_0BB@FBABGDIL@glObjectPtrLabel@
  000da	ff 55 50	 call	 QWORD PTR load$[rbp]
  000dd	48 89 05 00 00
	00 00		 mov	 QWORD PTR glad_glObjectPtrLabel, rax

; 2471 :     glad_glGetObjectPtrLabel = (PFNGLGETOBJECTPTRLABELPROC)load("glGetObjectPtrLabel");

  000e4	48 8d 0d 00 00
	00 00		 lea	 rcx, OFFSET FLAT:??_C@_0BE@MIJFJOHM@glGetObjectPtrLabel@
  000eb	ff 55 50	 call	 QWORD PTR load$[rbp]
  000ee	48 89 05 00 00
	00 00		 mov	 QWORD PTR glad_glGetObjectPtrLabel, rax

; 2472 :     glad_glGetPointerv = (PFNGLGETPOINTERVPROC)load("glGetPointerv");

  000f5	48 8d 0d 00 00
	00 00		 lea	 rcx, OFFSET FLAT:??_C@_0O@LADEDGJO@glGetPointerv@
  000fc	ff 55 50	 call	 QWORD PTR load$[rbp]
  000ff	48 89 05 00 00
	00 00		 mov	 QWORD PTR glad_glGetPointerv, rax

; 2473 :     glad_glEnablei = (PFNGLENABLEIPROC)load("glEnablei");

  00106	48 8d 0d 00 00
	00 00		 lea	 rcx, OFFSET FLAT:??_C@_09IEGEGIEN@glEnablei@
  0010d	ff 55 50	 call	 QWORD PTR load$[rbp]
  00110	48 89 05 00 00
	00 00		 mov	 QWORD PTR glad_glEnablei, rax

; 2474 :     glad_glDisablei = (PFNGLDISABLEIPROC)load("glDisablei");

  00117	48 8d 0d 00 00
	00 00		 lea	 rcx, OFFSET FLAT:??_C@_0L@BMJPGDDH@glDisablei@
  0011e	ff 55 50	 call	 QWORD PTR load$[rbp]
  00121	48 89 05 00 00
	00 00		 mov	 QWORD PTR glad_glDisablei, rax

; 2475 :     glad_glBlendEquationi = (PFNGLBLENDEQUATIONIPROC)load("glBlendEquationi");

  00128	48 8d 0d 00 00
	00 00		 lea	 rcx, OFFSET FLAT:??_C@_0BB@MKHLNEOM@glBlendEquationi@
  0012f	ff 55 50	 call	 QWORD PTR load$[rbp]
  00132	48 89 05 00 00
	00 00		 mov	 QWORD PTR glad_glBlendEquationi, rax

; 2476 :     glad_glBlendEquationSeparatei = (PFNGLBLENDEQUATIONSEPARATEIPROC)load("glBlendEquationSeparatei");

  00139	48 8d 0d 00 00
	00 00		 lea	 rcx, OFFSET FLAT:??_C@_0BJ@FNMBAGAC@glBlendEquationSeparatei@
  00140	ff 55 50	 call	 QWORD PTR load$[rbp]
  00143	48 89 05 00 00
	00 00		 mov	 QWORD PTR glad_glBlendEquationSeparatei, rax

; 2477 :     glad_glBlendFunci = (PFNGLBLENDFUNCIPROC)load("glBlendFunci");

  0014a	48 8d 0d 00 00
	00 00		 lea	 rcx, OFFSET FLAT:??_C@_0N@IKKELNNP@glBlendFunci@
  00151	ff 55 50	 call	 QWORD PTR load$[rbp]
  00154	48 89 05 00 00
	00 00		 mov	 QWORD PTR glad_glBlendFunci, rax

; 2478 :     glad_glBlendFuncSeparatei = (PFNGLBLENDFUNCSEPARATEIPROC)load("glBlendFuncSeparatei");

  0015b	48 8d 0d 00 00
	00 00		 lea	 rcx, OFFSET FLAT:??_C@_0BF@PDDGKNBJ@glBlendFuncSeparatei@
  00162	ff 55 50	 call	 QWORD PTR load$[rbp]
  00165	48 89 05 00 00
	00 00		 mov	 QWORD PTR glad_glBlendFuncSeparatei, rax

; 2479 :     glad_glColorMaski = (PFNGLCOLORMASKIPROC)load("glColorMaski");

  0016c	48 8d 0d 00 00
	00 00		 lea	 rcx, OFFSET FLAT:??_C@_0N@JHNNNJFG@glColorMaski@
  00173	ff 55 50	 call	 QWORD PTR load$[rbp]
  00176	48 89 05 00 00
	00 00		 mov	 QWORD PTR glad_glColorMaski, rax

; 2480 :     glad_glIsEnabledi = (PFNGLISENABLEDIPROC)load("glIsEnabledi");

  0017d	48 8d 0d 00 00
	00 00		 lea	 rcx, OFFSET FLAT:??_C@_0N@IMGKGOKN@glIsEnabledi@
  00184	ff 55 50	 call	 QWORD PTR load$[rbp]
  00187	48 89 05 00 00
	00 00		 mov	 QWORD PTR glad_glIsEnabledi, rax

; 2481 :     glad_glDrawElementsBaseVertex = (PFNGLDRAWELEMENTSBASEVERTEXPROC)load("glDrawElementsBaseVertex");

  0018e	48 8d 0d 00 00
	00 00		 lea	 rcx, OFFSET FLAT:??_C@_0BJ@LFMMIAHA@glDrawElementsBaseVertex@
  00195	ff 55 50	 call	 QWORD PTR load$[rbp]
  00198	48 89 05 00 00
	00 00		 mov	 QWORD PTR glad_glDrawElementsBaseVertex, rax

; 2482 :     glad_glDrawRangeElementsBaseVertex = (PFNGLDRAWRANGEELEMENTSBASEVERTEXPROC)load("glDrawRangeElementsBaseVertex");

  0019f	48 8d 0d 00 00
	00 00		 lea	 rcx, OFFSET FLAT:??_C@_0BO@KBDDBILP@glDrawRangeElementsBaseVertex@
  001a6	ff 55 50	 call	 QWORD PTR load$[rbp]
  001a9	48 89 05 00 00
	00 00		 mov	 QWORD PTR glad_glDrawRangeElementsBaseVertex, rax

; 2483 :     glad_glDrawElementsInstancedBaseVertex = (PFNGLDRAWELEMENTSINSTANCEDBASEVERTEXPROC)load("glDrawElementsInstancedBaseVertex");

  001b0	48 8d 0d 00 00
	00 00		 lea	 rcx, OFFSET FLAT:??_C@_0CC@KLOIIKNA@glDrawElementsInstancedBaseVert@
  001b7	ff 55 50	 call	 QWORD PTR load$[rbp]
  001ba	48 89 05 00 00
	00 00		 mov	 QWORD PTR glad_glDrawElementsInstancedBaseVertex, rax

; 2484 :     glad_glFramebufferTexture = (PFNGLFRAMEBUFFERTEXTUREPROC)load("glFramebufferTexture");

  001c1	48 8d 0d 00 00
	00 00		 lea	 rcx, OFFSET FLAT:??_C@_0BF@ENLMLILA@glFramebufferTexture@
  001c8	ff 55 50	 call	 QWORD PTR load$[rbp]
  001cb	48 89 05 00 00
	00 00		 mov	 QWORD PTR glad_glFramebufferTexture, rax

; 2485 :     glad_glPrimitiveBoundingBox = (PFNGLPRIMITIVEBOUNDINGBOXPROC)load("glPrimitiveBoundingBox");

  001d2	48 8d 0d 00 00
	00 00		 lea	 rcx, OFFSET FLAT:??_C@_0BH@DBMDBNBL@glPrimitiveBoundingBox@
  001d9	ff 55 50	 call	 QWORD PTR load$[rbp]
  001dc	48 89 05 00 00
	00 00		 mov	 QWORD PTR glad_glPrimitiveBoundingBox, rax

; 2486 :     glad_glGetGraphicsResetStatus = (PFNGLGETGRAPHICSRESETSTATUSPROC)load("glGetGraphicsResetStatus");

  001e3	48 8d 0d 00 00
	00 00		 lea	 rcx, OFFSET FLAT:??_C@_0BJ@ILPAOCDN@glGetGraphicsResetStatus@
  001ea	ff 55 50	 call	 QWORD PTR load$[rbp]
  001ed	48 89 05 00 00
	00 00		 mov	 QWORD PTR glad_glGetGraphicsResetStatus, rax

; 2487 :     glad_glReadnPixels = (PFNGLREADNPIXELSPROC)load("glReadnPixels");

  001f4	48 8d 0d 00 00
	00 00		 lea	 rcx, OFFSET FLAT:??_C@_0O@NELODAJJ@glReadnPixels@
  001fb	ff 55 50	 call	 QWORD PTR load$[rbp]
  001fe	48 89 05 00 00
	00 00		 mov	 QWORD PTR glad_glReadnPixels, rax

; 2488 :     glad_glGetnUniformfv = (PFNGLGETNUNIFORMFVPROC)load("glGetnUniformfv");

  00205	48 8d 0d 00 00
	00 00		 lea	 rcx, OFFSET FLAT:??_C@_0BA@KIOMIDPP@glGetnUniformfv@
  0020c	ff 55 50	 call	 QWORD PTR load$[rbp]
  0020f	48 89 05 00 00
	00 00		 mov	 QWORD PTR glad_glGetnUniformfv, rax

; 2489 :     glad_glGetnUniformiv = (PFNGLGETNUNIFORMIVPROC)load("glGetnUniformiv");

  00216	48 8d 0d 00 00
	00 00		 lea	 rcx, OFFSET FLAT:??_C@_0BA@KDLAMEMC@glGetnUniformiv@
  0021d	ff 55 50	 call	 QWORD PTR load$[rbp]
  00220	48 89 05 00 00
	00 00		 mov	 QWORD PTR glad_glGetnUniformiv, rax

; 2490 :     glad_glGetnUniformuiv = (PFNGLGETNUNIFORMUIVPROC)load("glGetnUniformuiv");

  00227	48 8d 0d 00 00
	00 00		 lea	 rcx, OFFSET FLAT:??_C@_0BB@BBJMBEC@glGetnUniformuiv@
  0022e	ff 55 50	 call	 QWORD PTR load$[rbp]
  00231	48 89 05 00 00
	00 00		 mov	 QWORD PTR glad_glGetnUniformuiv, rax

; 2491 :     glad_glMinSampleShading = (PFNGLMINSAMPLESHADINGPROC)load("glMinSampleShading");

  00238	48 8d 0d 00 00
	00 00		 lea	 rcx, OFFSET FLAT:??_C@_0BD@EDGCEBP@glMinSampleShading@
  0023f	ff 55 50	 call	 QWORD PTR load$[rbp]
  00242	48 89 05 00 00
	00 00		 mov	 QWORD PTR glad_glMinSampleShading, rax

; 2492 :     glad_glPatchParameteri = (PFNGLPATCHPARAMETERIPROC)load("glPatchParameteri");

  00249	48 8d 0d 00 00
	00 00		 lea	 rcx, OFFSET FLAT:??_C@_0BC@PAPDGMLA@glPatchParameteri@
  00250	ff 55 50	 call	 QWORD PTR load$[rbp]
  00253	48 89 05 00 00
	00 00		 mov	 QWORD PTR glad_glPatchParameteri, rax

; 2493 :     glad_glTexParameterIiv = (PFNGLTEXPARAMETERIIVPROC)load("glTexParameterIiv");

  0025a	48 8d 0d 00 00
	00 00		 lea	 rcx, OFFSET FLAT:??_C@_0BC@MAFJKEHB@glTexParameterIiv@
  00261	ff 55 50	 call	 QWORD PTR load$[rbp]
  00264	48 89 05 00 00
	00 00		 mov	 QWORD PTR glad_glTexParameterIiv, rax

; 2494 :     glad_glTexParameterIuiv = (PFNGLTEXPARAMETERIUIVPROC)load("glTexParameterIuiv");

  0026b	48 8d 0d 00 00
	00 00		 lea	 rcx, OFFSET FLAT:??_C@_0BD@FDBCMKBE@glTexParameterIuiv@
  00272	ff 55 50	 call	 QWORD PTR load$[rbp]
  00275	48 89 05 00 00
	00 00		 mov	 QWORD PTR glad_glTexParameterIuiv, rax

; 2495 :     glad_glGetTexParameterIiv = (PFNGLGETTEXPARAMETERIIVPROC)load("glGetTexParameterIiv");

  0027c	48 8d 0d 00 00
	00 00		 lea	 rcx, OFFSET FLAT:??_C@_0BF@ODBJFHDD@glGetTexParameterIiv@
  00283	ff 55 50	 call	 QWORD PTR load$[rbp]
  00286	48 89 05 00 00
	00 00		 mov	 QWORD PTR glad_glGetTexParameterIiv, rax

; 2496 :     glad_glGetTexParameterIuiv = (PFNGLGETTEXPARAMETERIUIVPROC)load("glGetTexParameterIuiv");

  0028d	48 8d 0d 00 00
	00 00		 lea	 rcx, OFFSET FLAT:??_C@_0BG@MLODKKFL@glGetTexParameterIuiv@
  00294	ff 55 50	 call	 QWORD PTR load$[rbp]
  00297	48 89 05 00 00
	00 00		 mov	 QWORD PTR glad_glGetTexParameterIuiv, rax

; 2497 :     glad_glSamplerParameterIiv = (PFNGLSAMPLERPARAMETERIIVPROC)load("glSamplerParameterIiv");

  0029e	48 8d 0d 00 00
	00 00		 lea	 rcx, OFFSET FLAT:??_C@_0BG@HKEIFIHF@glSamplerParameterIiv@
  002a5	ff 55 50	 call	 QWORD PTR load$[rbp]
  002a8	48 89 05 00 00
	00 00		 mov	 QWORD PTR glad_glSamplerParameterIiv, rax

; 2498 :     glad_glSamplerParameterIuiv = (PFNGLSAMPLERPARAMETERIUIVPROC)load("glSamplerParameterIuiv");

  002af	48 8d 0d 00 00
	00 00		 lea	 rcx, OFFSET FLAT:??_C@_0BH@FEMFBPPB@glSamplerParameterIuiv@
  002b6	ff 55 50	 call	 QWORD PTR load$[rbp]
  002b9	48 89 05 00 00
	00 00		 mov	 QWORD PTR glad_glSamplerParameterIuiv, rax

; 2499 :     glad_glGetSamplerParameterIiv = (PFNGLGETSAMPLERPARAMETERIIVPROC)load("glGetSamplerParameterIiv");

  002c0	48 8d 0d 00 00
	00 00		 lea	 rcx, OFFSET FLAT:??_C@_0BJ@KOMJDLDN@glGetSamplerParameterIiv@
  002c7	ff 55 50	 call	 QWORD PTR load$[rbp]
  002ca	48 89 05 00 00
	00 00		 mov	 QWORD PTR glad_glGetSamplerParameterIiv, rax

; 2500 :     glad_glGetSamplerParameterIuiv = (PFNGLGETSAMPLERPARAMETERIUIVPROC)load("glGetSamplerParameterIuiv");

  002d1	48 8d 0d 00 00
	00 00		 lea	 rcx, OFFSET FLAT:??_C@_0BK@CMBGFHDA@glGetSamplerParameterIuiv@
  002d8	ff 55 50	 call	 QWORD PTR load$[rbp]
  002db	48 89 05 00 00
	00 00		 mov	 QWORD PTR glad_glGetSamplerParameterIuiv, rax

; 2501 :     glad_glTexBuffer = (PFNGLTEXBUFFERPROC)load("glTexBuffer");

  002e2	48 8d 0d 00 00
	00 00		 lea	 rcx, OFFSET FLAT:??_C@_0M@IIMBBALL@glTexBuffer@
  002e9	ff 55 50	 call	 QWORD PTR load$[rbp]
  002ec	48 89 05 00 00
	00 00		 mov	 QWORD PTR glad_glTexBuffer, rax

; 2502 :     glad_glTexBufferRange = (PFNGLTEXBUFFERRANGEPROC)load("glTexBufferRange");

  002f3	48 8d 0d 00 00
	00 00		 lea	 rcx, OFFSET FLAT:??_C@_0BB@DPMGLFNI@glTexBufferRange@
  002fa	ff 55 50	 call	 QWORD PTR load$[rbp]
  002fd	48 89 05 00 00
	00 00		 mov	 QWORD PTR glad_glTexBufferRange, rax

; 2503 :     glad_glTexStorage3DMultisample = (PFNGLTEXSTORAGE3DMULTISAMPLEPROC)load("glTexStorage3DMultisample");

  00304	48 8d 0d 00 00
	00 00		 lea	 rcx, OFFSET FLAT:??_C@_0BK@GOJPECNJ@glTexStorage3DMultisample@
  0030b	ff 55 50	 call	 QWORD PTR load$[rbp]
  0030e	48 89 05 00 00
	00 00		 mov	 QWORD PTR glad_glTexStorage3DMultisample, rax
$LN1@load_GL_ES:

; 2504 : }

  00315	48 8d 65 40	 lea	 rsp, QWORD PTR [rbp+64]
  00319	5d		 pop	 rbp
  0031a	c3		 ret	 0
load_GL_ES_VERSION_3_2 ENDP
_TEXT	ENDS
; Function compile flags: /Odtp /ZI
; File D:\Programmer\GLenv\glad.c
;	COMDAT load_GL_ES_VERSION_3_1
_TEXT	SEGMENT
load$ = 80
load_GL_ES_VERSION_3_1 PROC				; COMDAT

; 2387 : static void load_GL_ES_VERSION_3_1(GLADloadproc load) {

  00000	48 89 4c 24 08	 mov	 QWORD PTR [rsp+8], rcx
  00005	55		 push	 rbp
  00006	48 83 ec 60	 sub	 rsp, 96			; 00000060H
  0000a	48 8d 6c 24 20	 lea	 rbp, QWORD PTR [rsp+32]
  0000f	48 8d 0d 00 00
	00 00		 lea	 rcx, OFFSET FLAT:__2B68C239_glad@c
  00016	e8 00 00 00 00	 call	 __CheckForDebuggerJustMyCode

; 2388 :     if (!GLAD_GL_ES_VERSION_3_1) return;

  0001b	83 3d 00 00 00
	00 00		 cmp	 DWORD PTR GLAD_GL_ES_VERSION_3_1, 0
  00022	75 05		 jne	 SHORT $LN2@load_GL_ES
  00024	e9 84 04 00 00	 jmp	 $LN1@load_GL_ES
$LN2@load_GL_ES:

; 2389 :     glad_glDispatchCompute = (PFNGLDISPATCHCOMPUTEPROC)load("glDispatchCompute");

  00029	48 8d 0d 00 00
	00 00		 lea	 rcx, OFFSET FLAT:??_C@_0BC@DKKFFIGC@glDispatchCompute@
  00030	ff 55 50	 call	 QWORD PTR load$[rbp]
  00033	48 89 05 00 00
	00 00		 mov	 QWORD PTR glad_glDispatchCompute, rax

; 2390 :     glad_glDispatchComputeIndirect = (PFNGLDISPATCHCOMPUTEINDIRECTPROC)load("glDispatchComputeIndirect");

  0003a	48 8d 0d 00 00
	00 00		 lea	 rcx, OFFSET FLAT:??_C@_0BK@EJMOGMMI@glDispatchComputeIndirect@
  00041	ff 55 50	 call	 QWORD PTR load$[rbp]
  00044	48 89 05 00 00
	00 00		 mov	 QWORD PTR glad_glDispatchComputeIndirect, rax

; 2391 :     glad_glDrawArraysIndirect = (PFNGLDRAWARRAYSINDIRECTPROC)load("glDrawArraysIndirect");

  0004b	48 8d 0d 00 00
	00 00		 lea	 rcx, OFFSET FLAT:??_C@_0BF@BGDCPAEP@glDrawArraysIndirect@
  00052	ff 55 50	 call	 QWORD PTR load$[rbp]
  00055	48 89 05 00 00
	00 00		 mov	 QWORD PTR glad_glDrawArraysIndirect, rax

; 2392 :     glad_glDrawElementsIndirect = (PFNGLDRAWELEMENTSINDIRECTPROC)load("glDrawElementsIndirect");

  0005c	48 8d 0d 00 00
	00 00		 lea	 rcx, OFFSET FLAT:??_C@_0BH@LJJDOEDH@glDrawElementsIndirect@
  00063	ff 55 50	 call	 QWORD PTR load$[rbp]
  00066	48 89 05 00 00
	00 00		 mov	 QWORD PTR glad_glDrawElementsIndirect, rax

; 2393 :     glad_glFramebufferParameteri = (PFNGLFRAMEBUFFERPARAMETERIPROC)load("glFramebufferParameteri");

  0006d	48 8d 0d 00 00
	00 00		 lea	 rcx, OFFSET FLAT:??_C@_0BI@MLACHGDK@glFramebufferParameteri@
  00074	ff 55 50	 call	 QWORD PTR load$[rbp]
  00077	48 89 05 00 00
	00 00		 mov	 QWORD PTR glad_glFramebufferParameteri, rax

; 2394 :     glad_glGetFramebufferParameteriv = (PFNGLGETFRAMEBUFFERPARAMETERIVPROC)load("glGetFramebufferParameteriv");

  0007e	48 8d 0d 00 00
	00 00		 lea	 rcx, OFFSET FLAT:??_C@_0BM@BFEEFCMK@glGetFramebufferParameteriv@
  00085	ff 55 50	 call	 QWORD PTR load$[rbp]
  00088	48 89 05 00 00
	00 00		 mov	 QWORD PTR glad_glGetFramebufferParameteriv, rax

; 2395 :     glad_glGetProgramInterfaceiv = (PFNGLGETPROGRAMINTERFACEIVPROC)load("glGetProgramInterfaceiv");

  0008f	48 8d 0d 00 00
	00 00		 lea	 rcx, OFFSET FLAT:??_C@_0BI@ICGPDPK@glGetProgramInterfaceiv@
  00096	ff 55 50	 call	 QWORD PTR load$[rbp]
  00099	48 89 05 00 00
	00 00		 mov	 QWORD PTR glad_glGetProgramInterfaceiv, rax

; 2396 :     glad_glGetProgramResourceIndex = (PFNGLGETPROGRAMRESOURCEINDEXPROC)load("glGetProgramResourceIndex");

  000a0	48 8d 0d 00 00
	00 00		 lea	 rcx, OFFSET FLAT:??_C@_0BK@DBDCONKB@glGetProgramResourceIndex@
  000a7	ff 55 50	 call	 QWORD PTR load$[rbp]
  000aa	48 89 05 00 00
	00 00		 mov	 QWORD PTR glad_glGetProgramResourceIndex, rax

; 2397 :     glad_glGetProgramResourceName = (PFNGLGETPROGRAMRESOURCENAMEPROC)load("glGetProgramResourceName");

  000b1	48 8d 0d 00 00
	00 00		 lea	 rcx, OFFSET FLAT:??_C@_0BJ@OHCPEAGJ@glGetProgramResourceName@
  000b8	ff 55 50	 call	 QWORD PTR load$[rbp]
  000bb	48 89 05 00 00
	00 00		 mov	 QWORD PTR glad_glGetProgramResourceName, rax

; 2398 :     glad_glGetProgramResourceiv = (PFNGLGETPROGRAMRESOURCEIVPROC)load("glGetProgramResourceiv");

  000c2	48 8d 0d 00 00
	00 00		 lea	 rcx, OFFSET FLAT:??_C@_0BH@LEDFEPHI@glGetProgramResourceiv@
  000c9	ff 55 50	 call	 QWORD PTR load$[rbp]
  000cc	48 89 05 00 00
	00 00		 mov	 QWORD PTR glad_glGetProgramResourceiv, rax

; 2399 :     glad_glGetProgramResourceLocation = (PFNGLGETPROGRAMRESOURCELOCATIONPROC)load("glGetProgramResourceLocation");

  000d3	48 8d 0d 00 00
	00 00		 lea	 rcx, OFFSET FLAT:??_C@_0BN@BIJNENLC@glGetProgramResourceLocation@
  000da	ff 55 50	 call	 QWORD PTR load$[rbp]
  000dd	48 89 05 00 00
	00 00		 mov	 QWORD PTR glad_glGetProgramResourceLocation, rax

; 2400 :     glad_glUseProgramStages = (PFNGLUSEPROGRAMSTAGESPROC)load("glUseProgramStages");

  000e4	48 8d 0d 00 00
	00 00		 lea	 rcx, OFFSET FLAT:??_C@_0BD@CADKHDMH@glUseProgramStages@
  000eb	ff 55 50	 call	 QWORD PTR load$[rbp]
  000ee	48 89 05 00 00
	00 00		 mov	 QWORD PTR glad_glUseProgramStages, rax

; 2401 :     glad_glActiveShaderProgram = (PFNGLACTIVESHADERPROGRAMPROC)load("glActiveShaderProgram");

  000f5	48 8d 0d 00 00
	00 00		 lea	 rcx, OFFSET FLAT:??_C@_0BG@IAIOGMEB@glActiveShaderProgram@
  000fc	ff 55 50	 call	 QWORD PTR load$[rbp]
  000ff	48 89 05 00 00
	00 00		 mov	 QWORD PTR glad_glActiveShaderProgram, rax

; 2402 :     glad_glCreateShaderProgramv = (PFNGLCREATESHADERPROGRAMVPROC)load("glCreateShaderProgramv");

  00106	48 8d 0d 00 00
	00 00		 lea	 rcx, OFFSET FLAT:??_C@_0BH@BOJGDFJN@glCreateShaderProgramv@
  0010d	ff 55 50	 call	 QWORD PTR load$[rbp]
  00110	48 89 05 00 00
	00 00		 mov	 QWORD PTR glad_glCreateShaderProgramv, rax

; 2403 :     glad_glBindProgramPipeline = (PFNGLBINDPROGRAMPIPELINEPROC)load("glBindProgramPipeline");

  00117	48 8d 0d 00 00
	00 00		 lea	 rcx, OFFSET FLAT:??_C@_0BG@GLPOKNCG@glBindProgramPipeline@
  0011e	ff 55 50	 call	 QWORD PTR load$[rbp]
  00121	48 89 05 00 00
	00 00		 mov	 QWORD PTR glad_glBindProgramPipeline, rax

; 2404 :     glad_glDeleteProgramPipelines = (PFNGLDELETEPROGRAMPIPELINESPROC)load("glDeleteProgramPipelines");

  00128	48 8d 0d 00 00
	00 00		 lea	 rcx, OFFSET FLAT:??_C@_0BJ@CHBGABHE@glDeleteProgramPipelines@
  0012f	ff 55 50	 call	 QWORD PTR load$[rbp]
  00132	48 89 05 00 00
	00 00		 mov	 QWORD PTR glad_glDeleteProgramPipelines, rax

; 2405 :     glad_glGenProgramPipelines = (PFNGLGENPROGRAMPIPELINESPROC)load("glGenProgramPipelines");

  00139	48 8d 0d 00 00
	00 00		 lea	 rcx, OFFSET FLAT:??_C@_0BG@CCBKOCA@glGenProgramPipelines@
  00140	ff 55 50	 call	 QWORD PTR load$[rbp]
  00143	48 89 05 00 00
	00 00		 mov	 QWORD PTR glad_glGenProgramPipelines, rax

; 2406 :     glad_glIsProgramPipeline = (PFNGLISPROGRAMPIPELINEPROC)load("glIsProgramPipeline");

  0014a	48 8d 0d 00 00
	00 00		 lea	 rcx, OFFSET FLAT:??_C@_0BE@DLHPDHCH@glIsProgramPipeline@
  00151	ff 55 50	 call	 QWORD PTR load$[rbp]
  00154	48 89 05 00 00
	00 00		 mov	 QWORD PTR glad_glIsProgramPipeline, rax

; 2407 :     glad_glGetProgramPipelineiv = (PFNGLGETPROGRAMPIPELINEIVPROC)load("glGetProgramPipelineiv");

  0015b	48 8d 0d 00 00
	00 00		 lea	 rcx, OFFSET FLAT:??_C@_0BH@DNOPNJMO@glGetProgramPipelineiv@
  00162	ff 55 50	 call	 QWORD PTR load$[rbp]
  00165	48 89 05 00 00
	00 00		 mov	 QWORD PTR glad_glGetProgramPipelineiv, rax

; 2408 :     glad_glProgramUniform1i = (PFNGLPROGRAMUNIFORM1IPROC)load("glProgramUniform1i");

  0016c	48 8d 0d 00 00
	00 00		 lea	 rcx, OFFSET FLAT:??_C@_0BD@COCLMGIM@glProgramUniform1i@
  00173	ff 55 50	 call	 QWORD PTR load$[rbp]
  00176	48 89 05 00 00
	00 00		 mov	 QWORD PTR glad_glProgramUniform1i, rax

; 2409 :     glad_glProgramUniform2i = (PFNGLPROGRAMUNIFORM2IPROC)load("glProgramUniform2i");

  0017d	48 8d 0d 00 00
	00 00		 lea	 rcx, OFFSET FLAT:??_C@_0BD@CMGNHINF@glProgramUniform2i@
  00184	ff 55 50	 call	 QWORD PTR load$[rbp]
  00187	48 89 05 00 00
	00 00		 mov	 QWORD PTR glad_glProgramUniform2i, rax

; 2410 :     glad_glProgramUniform3i = (PFNGLPROGRAMUNIFORM3IPROC)load("glProgramUniform3i");

  0018e	48 8d 0d 00 00
	00 00		 lea	 rcx, OFFSET FLAT:??_C@_0BD@CNKPBCOC@glProgramUniform3i@
  00195	ff 55 50	 call	 QWORD PTR load$[rbp]
  00198	48 89 05 00 00
	00 00		 mov	 QWORD PTR glad_glProgramUniform3i, rax

; 2411 :     glad_glProgramUniform4i = (PFNGLPROGRAMUNIFORM4IPROC)load("glProgramUniform4i");

  0019f	48 8d 0d 00 00
	00 00		 lea	 rcx, OFFSET FLAT:??_C@_0BD@CIOAAEGH@glProgramUniform4i@
  001a6	ff 55 50	 call	 QWORD PTR load$[rbp]
  001a9	48 89 05 00 00
	00 00		 mov	 QWORD PTR glad_glProgramUniform4i, rax

; 2412 :     glad_glProgramUniform1ui = (PFNGLPROGRAMUNIFORM1UIPROC)load("glProgramUniform1ui");

  001b0	48 8d 0d 00 00
	00 00		 lea	 rcx, OFFSET FLAT:??_C@_0BE@EFCDGODH@glProgramUniform1ui@
  001b7	ff 55 50	 call	 QWORD PTR load$[rbp]
  001ba	48 89 05 00 00
	00 00		 mov	 QWORD PTR glad_glProgramUniform1ui, rax

; 2413 :     glad_glProgramUniform2ui = (PFNGLPROGRAMUNIFORM2UIPROC)load("glProgramUniform2ui");

  001c1	48 8d 0d 00 00
	00 00		 lea	 rcx, OFFSET FLAT:??_C@_0BE@FHJGMBNJ@glProgramUniform2ui@
  001c8	ff 55 50	 call	 QWORD PTR load$[rbp]
  001cb	48 89 05 00 00
	00 00		 mov	 QWORD PTR glad_glProgramUniform2ui, rax

; 2414 :     glad_glProgramUniform3ui = (PFNGLPROGRAMUNIFORM3UIPROC)load("glProgramUniform3ui");

  001d2	48 8d 0d 00 00
	00 00		 lea	 rcx, OFFSET FLAT:??_C@_0BE@OPCKKGLM@glProgramUniform3ui@
  001d9	ff 55 50	 call	 QWORD PTR load$[rbp]
  001dc	48 89 05 00 00
	00 00		 mov	 QWORD PTR glad_glProgramUniform3ui, rax

; 2415 :     glad_glProgramUniform4ui = (PFNGLPROGRAMUNIFORM4UIPROC)load("glProgramUniform4ui");

  001e3	48 8d 0d 00 00
	00 00		 lea	 rcx, OFFSET FLAT:??_C@_0BE@HCPNJOAF@glProgramUniform4ui@
  001ea	ff 55 50	 call	 QWORD PTR load$[rbp]
  001ed	48 89 05 00 00
	00 00		 mov	 QWORD PTR glad_glProgramUniform4ui, rax

; 2416 :     glad_glProgramUniform1f = (PFNGLPROGRAMUNIFORM1FPROC)load("glProgramUniform1f");

  001f4	48 8d 0d 00 00
	00 00		 lea	 rcx, OFFSET FLAT:??_C@_0BD@KJLDNKED@glProgramUniform1f@
  001fb	ff 55 50	 call	 QWORD PTR load$[rbp]
  001fe	48 89 05 00 00
	00 00		 mov	 QWORD PTR glad_glProgramUniform1f, rax

; 2417 :     glad_glProgramUniform2f = (PFNGLPROGRAMUNIFORM2FPROC)load("glProgramUniform2f");

  00205	48 8d 0d 00 00
	00 00		 lea	 rcx, OFFSET FLAT:??_C@_0BD@KLPFGEBK@glProgramUniform2f@
  0020c	ff 55 50	 call	 QWORD PTR load$[rbp]
  0020f	48 89 05 00 00
	00 00		 mov	 QWORD PTR glad_glProgramUniform2f, rax

; 2418 :     glad_glProgramUniform3f = (PFNGLPROGRAMUNIFORM3FPROC)load("glProgramUniform3f");

  00216	48 8d 0d 00 00
	00 00		 lea	 rcx, OFFSET FLAT:??_C@_0BD@KKDHAOCN@glProgramUniform3f@
  0021d	ff 55 50	 call	 QWORD PTR load$[rbp]
  00220	48 89 05 00 00
	00 00		 mov	 QWORD PTR glad_glProgramUniform3f, rax

; 2419 :     glad_glProgramUniform4f = (PFNGLPROGRAMUNIFORM4FPROC)load("glProgramUniform4f");

  00227	48 8d 0d 00 00
	00 00		 lea	 rcx, OFFSET FLAT:??_C@_0BD@KPHIBIKI@glProgramUniform4f@
  0022e	ff 55 50	 call	 QWORD PTR load$[rbp]
  00231	48 89 05 00 00
	00 00		 mov	 QWORD PTR glad_glProgramUniform4f, rax

; 2420 :     glad_glProgramUniform1iv = (PFNGLPROGRAMUNIFORM1IVPROC)load("glProgramUniform1iv");

  00238	48 8d 0d 00 00
	00 00		 lea	 rcx, OFFSET FLAT:??_C@_0BE@JNEFDKLN@glProgramUniform1iv@
  0023f	ff 55 50	 call	 QWORD PTR load$[rbp]
  00242	48 89 05 00 00
	00 00		 mov	 QWORD PTR glad_glProgramUniform1iv, rax

; 2421 :     glad_glProgramUniform2iv = (PFNGLPROGRAMUNIFORM2IVPROC)load("glProgramUniform2iv");

  00249	48 8d 0d 00 00
	00 00		 lea	 rcx, OFFSET FLAT:??_C@_0BE@IPPAJFFD@glProgramUniform2iv@
  00250	ff 55 50	 call	 QWORD PTR load$[rbp]
  00253	48 89 05 00 00
	00 00		 mov	 QWORD PTR glad_glProgramUniform2iv, rax

; 2422 :     glad_glProgramUniform3iv = (PFNGLPROGRAMUNIFORM3IVPROC)load("glProgramUniform3iv");

  0025a	48 8d 0d 00 00
	00 00		 lea	 rcx, OFFSET FLAT:??_C@_0BE@DHEMPCDG@glProgramUniform3iv@
  00261	ff 55 50	 call	 QWORD PTR load$[rbp]
  00264	48 89 05 00 00
	00 00		 mov	 QWORD PTR glad_glProgramUniform3iv, rax

; 2423 :     glad_glProgramUniform4iv = (PFNGLPROGRAMUNIFORM4IVPROC)load("glProgramUniform4iv");

  0026b	48 8d 0d 00 00
	00 00		 lea	 rcx, OFFSET FLAT:??_C@_0BE@KKJLMKIP@glProgramUniform4iv@
  00272	ff 55 50	 call	 QWORD PTR load$[rbp]
  00275	48 89 05 00 00
	00 00		 mov	 QWORD PTR glad_glProgramUniform4iv, rax

; 2424 :     glad_glProgramUniform1uiv = (PFNGLPROGRAMUNIFORM1UIVPROC)load("glProgramUniform1uiv");

  0027c	48 8d 0d 00 00
	00 00		 lea	 rcx, OFFSET FLAT:??_C@_0BF@MBJNFIBB@glProgramUniform1uiv@
  00283	ff 55 50	 call	 QWORD PTR load$[rbp]
  00286	48 89 05 00 00
	00 00		 mov	 QWORD PTR glad_glProgramUniform1uiv, rax

; 2425 :     glad_glProgramUniform2uiv = (PFNGLPROGRAMUNIFORM2UIVPROC)load("glProgramUniform2uiv");

  0028d	48 8d 0d 00 00
	00 00		 lea	 rcx, OFFSET FLAT:??_C@_0BF@IGDNCCMB@glProgramUniform2uiv@
  00294	ff 55 50	 call	 QWORD PTR load$[rbp]
  00297	48 89 05 00 00
	00 00		 mov	 QWORD PTR glad_glProgramUniform2uiv, rax

; 2426 :     glad_glProgramUniform3uiv = (PFNGLPROGRAMUNIFORM3UIVPROC)load("glProgramUniform3uiv");

  0029e	48 8d 0d 00 00
	00 00		 lea	 rcx, OFFSET FLAT:??_C@_0BF@LLFNALHB@glProgramUniform3uiv@
  002a5	ff 55 50	 call	 QWORD PTR load$[rbp]
  002a8	48 89 05 00 00
	00 00		 mov	 QWORD PTR glad_glProgramUniform3uiv, rax

; 2427 :     glad_glProgramUniform4uiv = (PFNGLPROGRAMUNIFORM4UIVPROC)load("glProgramUniform4uiv");

  002af	48 8d 0d 00 00
	00 00		 lea	 rcx, OFFSET FLAT:??_C@_0BF@JHNNHGB@glProgramUniform4uiv@
  002b6	ff 55 50	 call	 QWORD PTR load$[rbp]
  002b9	48 89 05 00 00
	00 00		 mov	 QWORD PTR glad_glProgramUniform4uiv, rax

; 2428 :     glad_glProgramUniform1fv = (PFNGLPROGRAMUNIFORM1FVPROC)load("glProgramUniform1fv");

  002c0	48 8d 0d 00 00
	00 00		 lea	 rcx, OFFSET FLAT:??_C@_0BE@JGBJHNIA@glProgramUniform1fv@
  002c7	ff 55 50	 call	 QWORD PTR load$[rbp]
  002ca	48 89 05 00 00
	00 00		 mov	 QWORD PTR glad_glProgramUniform1fv, rax

; 2429 :     glad_glProgramUniform2fv = (PFNGLPROGRAMUNIFORM2FVPROC)load("glProgramUniform2fv");

  002d1	48 8d 0d 00 00
	00 00		 lea	 rcx, OFFSET FLAT:??_C@_0BE@IEKMNCGO@glProgramUniform2fv@
  002d8	ff 55 50	 call	 QWORD PTR load$[rbp]
  002db	48 89 05 00 00
	00 00		 mov	 QWORD PTR glad_glProgramUniform2fv, rax

; 2430 :     glad_glProgramUniform3fv = (PFNGLPROGRAMUNIFORM3FVPROC)load("glProgramUniform3fv");

  002e2	48 8d 0d 00 00
	00 00		 lea	 rcx, OFFSET FLAT:??_C@_0BE@DMBALFAL@glProgramUniform3fv@
  002e9	ff 55 50	 call	 QWORD PTR load$[rbp]
  002ec	48 89 05 00 00
	00 00		 mov	 QWORD PTR glad_glProgramUniform3fv, rax

; 2431 :     glad_glProgramUniform4fv = (PFNGLPROGRAMUNIFORM4FVPROC)load("glProgramUniform4fv");

  002f3	48 8d 0d 00 00
	00 00		 lea	 rcx, OFFSET FLAT:??_C@_0BE@KBMHINLC@glProgramUniform4fv@
  002fa	ff 55 50	 call	 QWORD PTR load$[rbp]
  002fd	48 89 05 00 00
	00 00		 mov	 QWORD PTR glad_glProgramUniform4fv, rax

; 2432 :     glad_glProgramUniformMatrix2fv = (PFNGLPROGRAMUNIFORMMATRIX2FVPROC)load("glProgramUniformMatrix2fv");

  00304	48 8d 0d 00 00
	00 00		 lea	 rcx, OFFSET FLAT:??_C@_0BK@PDPPIOAF@glProgramUniformMatrix2fv@
  0030b	ff 55 50	 call	 QWORD PTR load$[rbp]
  0030e	48 89 05 00 00
	00 00		 mov	 QWORD PTR glad_glProgramUniformMatrix2fv, rax

; 2433 :     glad_glProgramUniformMatrix3fv = (PFNGLPROGRAMUNIFORMMATRIX3FVPROC)load("glProgramUniformMatrix3fv");

  00315	48 8d 0d 00 00
	00 00		 lea	 rcx, OFFSET FLAT:??_C@_0BK@ELEDOJGA@glProgramUniformMatrix3fv@
  0031c	ff 55 50	 call	 QWORD PTR load$[rbp]
  0031f	48 89 05 00 00
	00 00		 mov	 QWORD PTR glad_glProgramUniformMatrix3fv, rax

; 2434 :     glad_glProgramUniformMatrix4fv = (PFNGLPROGRAMUNIFORMMATRIX4FVPROC)load("glProgramUniformMatrix4fv");

  00326	48 8d 0d 00 00
	00 00		 lea	 rcx, OFFSET FLAT:??_C@_0BK@NGJENBNJ@glProgramUniformMatrix4fv@
  0032d	ff 55 50	 call	 QWORD PTR load$[rbp]
  00330	48 89 05 00 00
	00 00		 mov	 QWORD PTR glad_glProgramUniformMatrix4fv, rax

; 2435 :     glad_glProgramUniformMatrix2x3fv = (PFNGLPROGRAMUNIFORMMATRIX2X3FVPROC)load("glProgramUniformMatrix2x3fv");

  00337	48 8d 0d 00 00
	00 00		 lea	 rcx, OFFSET FLAT:??_C@_0BM@DBFCEBJD@glProgramUniformMatrix2x3fv@
  0033e	ff 55 50	 call	 QWORD PTR load$[rbp]
  00341	48 89 05 00 00
	00 00		 mov	 QWORD PTR glad_glProgramUniformMatrix2x3fv, rax

; 2436 :     glad_glProgramUniformMatrix3x2fv = (PFNGLPROGRAMUNIFORMMATRIX3X2FVPROC)load("glProgramUniformMatrix3x2fv");

  00348	48 8d 0d 00 00
	00 00		 lea	 rcx, OFFSET FLAT:??_C@_0BM@ECLCPFFD@glProgramUniformMatrix3x2fv@
  0034f	ff 55 50	 call	 QWORD PTR load$[rbp]
  00352	48 89 05 00 00
	00 00		 mov	 QWORD PTR glad_glProgramUniformMatrix3x2fv, rax

; 2437 :     glad_glProgramUniformMatrix2x4fv = (PFNGLPROGRAMUNIFORMMATRIX2X4FVPROC)load("glProgramUniformMatrix2x4fv");

  00359	48 8d 0d 00 00
	00 00		 lea	 rcx, OFFSET FLAT:??_C@_0BM@KMIFHJCK@glProgramUniformMatrix2x4fv@
  00360	ff 55 50	 call	 QWORD PTR load$[rbp]
  00363	48 89 05 00 00
	00 00		 mov	 QWORD PTR glad_glProgramUniformMatrix2x4fv, rax

; 2438 :     glad_glProgramUniformMatrix4x2fv = (PFNGLPROGRAMUNIFORMMATRIX4X2FVPROC)load("glProgramUniformMatrix4x2fv");

  0036a	48 8d 0d 00 00
	00 00		 lea	 rcx, OFFSET FLAT:??_C@_0BM@FPLHMFOL@glProgramUniformMatrix4x2fv@
  00371	ff 55 50	 call	 QWORD PTR load$[rbp]
  00374	48 89 05 00 00
	00 00		 mov	 QWORD PTR glad_glProgramUniformMatrix4x2fv, rax

; 2439 :     glad_glProgramUniformMatrix3x4fv = (PFNGLPROGRAMUNIFORMMATRIX3X4FVPROC)load("glProgramUniformMatrix3x4fv");

  0037b	48 8d 0d 00 00
	00 00		 lea	 rcx, OFFSET FLAT:??_C@_0BM@GHNJKKIP@glProgramUniformMatrix3x4fv@
  00382	ff 55 50	 call	 QWORD PTR load$[rbp]
  00385	48 89 05 00 00
	00 00		 mov	 QWORD PTR glad_glProgramUniformMatrix3x4fv, rax

; 2440 :     glad_glProgramUniformMatrix4x3fv = (PFNGLPROGRAMUNIFORMMATRIX4X3FVPROC)load("glProgramUniformMatrix4x3fv");

  0038c	48 8d 0d 00 00
	00 00		 lea	 rcx, OFFSET FLAT:??_C@_0BM@OHALKCIO@glProgramUniformMatrix4x3fv@
  00393	ff 55 50	 call	 QWORD PTR load$[rbp]
  00396	48 89 05 00 00
	00 00		 mov	 QWORD PTR glad_glProgramUniformMatrix4x3fv, rax

; 2441 :     glad_glValidateProgramPipeline = (PFNGLVALIDATEPROGRAMPIPELINEPROC)load("glValidateProgramPipeline");

  0039d	48 8d 0d 00 00
	00 00		 lea	 rcx, OFFSET FLAT:??_C@_0BK@HHHCKEGH@glValidateProgramPipeline@
  003a4	ff 55 50	 call	 QWORD PTR load$[rbp]
  003a7	48 89 05 00 00
	00 00		 mov	 QWORD PTR glad_glValidateProgramPipeline, rax

; 2442 :     glad_glGetProgramPipelineInfoLog = (PFNGLGETPROGRAMPIPELINEINFOLOGPROC)load("glGetProgramPipelineInfoLog");

  003ae	48 8d 0d 00 00
	00 00		 lea	 rcx, OFFSET FLAT:??_C@_0BM@BFFCFFFG@glGetProgramPipelineInfoLog@
  003b5	ff 55 50	 call	 QWORD PTR load$[rbp]
  003b8	48 89 05 00 00
	00 00		 mov	 QWORD PTR glad_glGetProgramPipelineInfoLog, rax

; 2443 :     glad_glBindImageTexture = (PFNGLBINDIMAGETEXTUREPROC)load("glBindImageTexture");

  003bf	48 8d 0d 00 00
	00 00		 lea	 rcx, OFFSET FLAT:??_C@_0BD@GAKEPNGD@glBindImageTexture@
  003c6	ff 55 50	 call	 QWORD PTR load$[rbp]
  003c9	48 89 05 00 00
	00 00		 mov	 QWORD PTR glad_glBindImageTexture, rax

; 2444 :     glad_glGetBooleani_v = (PFNGLGETBOOLEANI_VPROC)load("glGetBooleani_v");

  003d0	48 8d 0d 00 00
	00 00		 lea	 rcx, OFFSET FLAT:??_C@_0BA@OAKNOBP@glGetBooleani_v@
  003d7	ff 55 50	 call	 QWORD PTR load$[rbp]
  003da	48 89 05 00 00
	00 00		 mov	 QWORD PTR glad_glGetBooleani_v, rax

; 2445 :     glad_glMemoryBarrier = (PFNGLMEMORYBARRIERPROC)load("glMemoryBarrier");

  003e1	48 8d 0d 00 00
	00 00		 lea	 rcx, OFFSET FLAT:??_C@_0BA@HIHPNLBJ@glMemoryBarrier@
  003e8	ff 55 50	 call	 QWORD PTR load$[rbp]
  003eb	48 89 05 00 00
	00 00		 mov	 QWORD PTR glad_glMemoryBarrier, rax

; 2446 :     glad_glMemoryBarrierByRegion = (PFNGLMEMORYBARRIERBYREGIONPROC)load("glMemoryBarrierByRegion");

  003f2	48 8d 0d 00 00
	00 00		 lea	 rcx, OFFSET FLAT:??_C@_0BI@IDCHHHAI@glMemoryBarrierByRegion@
  003f9	ff 55 50	 call	 QWORD PTR load$[rbp]
  003fc	48 89 05 00 00
	00 00		 mov	 QWORD PTR glad_glMemoryBarrierByRegion, rax

; 2447 :     glad_glTexStorage2DMultisample = (PFNGLTEXSTORAGE2DMULTISAMPLEPROC)load("glTexStorage2DMultisample");

  00403	48 8d 0d 00 00
	00 00		 lea	 rcx, OFFSET FLAT:??_C@_0BK@PDJAKDKP@glTexStorage2DMultisample@
  0040a	ff 55 50	 call	 QWORD PTR load$[rbp]
  0040d	48 89 05 00 00
	00 00		 mov	 QWORD PTR glad_glTexStorage2DMultisample, rax

; 2448 :     glad_glGetMultisamplefv = (PFNGLGETMULTISAMPLEFVPROC)load("glGetMultisamplefv");

  00414	48 8d 0d 00 00
	00 00		 lea	 rcx, OFFSET FLAT:??_C@_0BD@DHLIMGN@glGetMultisamplefv@
  0041b	ff 55 50	 call	 QWORD PTR load$[rbp]
  0041e	48 89 05 00 00
	00 00		 mov	 QWORD PTR glad_glGetMultisamplefv, rax

; 2449 :     glad_glSampleMaski = (PFNGLSAMPLEMASKIPROC)load("glSampleMaski");

  00425	48 8d 0d 00 00
	00 00		 lea	 rcx, OFFSET FLAT:??_C@_0O@JNHBCHMB@glSampleMaski@
  0042c	ff 55 50	 call	 QWORD PTR load$[rbp]
  0042f	48 89 05 00 00
	00 00		 mov	 QWORD PTR glad_glSampleMaski, rax

; 2450 :     glad_glGetTexLevelParameteriv = (PFNGLGETTEXLEVELPARAMETERIVPROC)load("glGetTexLevelParameteriv");

  00436	48 8d 0d 00 00
	00 00		 lea	 rcx, OFFSET FLAT:??_C@_0BJ@GLJHCPGI@glGetTexLevelParameteriv@
  0043d	ff 55 50	 call	 QWORD PTR load$[rbp]
  00440	48 89 05 00 00
	00 00		 mov	 QWORD PTR glad_glGetTexLevelParameteriv, rax

; 2451 :     glad_glGetTexLevelParameterfv = (PFNGLGETTEXLEVELPARAMETERFVPROC)load("glGetTexLevelParameterfv");

  00447	48 8d 0d 00 00
	00 00		 lea	 rcx, OFFSET FLAT:??_C@_0BJ@GAMLGIFF@glGetTexLevelParameterfv@
  0044e	ff 55 50	 call	 QWORD PTR load$[rbp]
  00451	48 89 05 00 00
	00 00		 mov	 QWORD PTR glad_glGetTexLevelParameterfv, rax

; 2452 :     glad_glBindVertexBuffer = (PFNGLBINDVERTEXBUFFERPROC)load("glBindVertexBuffer");

  00458	48 8d 0d 00 00
	00 00		 lea	 rcx, OFFSET FLAT:??_C@_0BD@FCGJAOHG@glBindVertexBuffer@
  0045f	ff 55 50	 call	 QWORD PTR load$[rbp]
  00462	48 89 05 00 00
	00 00		 mov	 QWORD PTR glad_glBindVertexBuffer, rax

; 2453 :     glad_glVertexAttribFormat = (PFNGLVERTEXATTRIBFORMATPROC)load("glVertexAttribFormat");

  00469	48 8d 0d 00 00
	00 00		 lea	 rcx, OFFSET FLAT:??_C@_0BF@JEIPPBFE@glVertexAttribFormat@
  00470	ff 55 50	 call	 QWORD PTR load$[rbp]
  00473	48 89 05 00 00
	00 00		 mov	 QWORD PTR glad_glVertexAttribFormat, rax

; 2454 :     glad_glVertexAttribIFormat = (PFNGLVERTEXATTRIBIFORMATPROC)load("glVertexAttribIFormat");

  0047a	48 8d 0d 00 00
	00 00		 lea	 rcx, OFFSET FLAT:??_C@_0BG@KJAHAHDI@glVertexAttribIFormat@
  00481	ff 55 50	 call	 QWORD PTR load$[rbp]
  00484	48 89 05 00 00
	00 00		 mov	 QWORD PTR glad_glVertexAttribIFormat, rax

; 2455 :     glad_glVertexAttribBinding = (PFNGLVERTEXATTRIBBINDINGPROC)load("glVertexAttribBinding");

  0048b	48 8d 0d 00 00
	00 00		 lea	 rcx, OFFSET FLAT:??_C@_0BG@MLFHCGE@glVertexAttribBinding@
  00492	ff 55 50	 call	 QWORD PTR load$[rbp]
  00495	48 89 05 00 00
	00 00		 mov	 QWORD PTR glad_glVertexAttribBinding, rax

; 2456 :     glad_glVertexBindingDivisor = (PFNGLVERTEXBINDINGDIVISORPROC)load("glVertexBindingDivisor");

  0049c	48 8d 0d 00 00
	00 00		 lea	 rcx, OFFSET FLAT:??_C@_0BH@GNGCLGOI@glVertexBindingDivisor@
  004a3	ff 55 50	 call	 QWORD PTR load$[rbp]
  004a6	48 89 05 00 00
	00 00		 mov	 QWORD PTR glad_glVertexBindingDivisor, rax
$LN1@load_GL_ES:

; 2457 : }

  004ad	48 8d 65 40	 lea	 rsp, QWORD PTR [rbp+64]
  004b1	5d		 pop	 rbp
  004b2	c3		 ret	 0
load_GL_ES_VERSION_3_1 ENDP
_TEXT	ENDS
; Function compile flags: /Odtp /ZI
; File D:\Programmer\GLenv\glad.c
;	COMDAT load_GL_ES_VERSION_3_0
_TEXT	SEGMENT
load$ = 80
load_GL_ES_VERSION_3_0 PROC				; COMDAT

; 2280 : static void load_GL_ES_VERSION_3_0(GLADloadproc load) {

  00000	48 89 4c 24 08	 mov	 QWORD PTR [rsp+8], rcx
  00005	55		 push	 rbp
  00006	48 83 ec 60	 sub	 rsp, 96			; 00000060H
  0000a	48 8d 6c 24 20	 lea	 rbp, QWORD PTR [rsp+32]
  0000f	48 8d 0d 00 00
	00 00		 lea	 rcx, OFFSET FLAT:__2B68C239_glad@c
  00016	e8 00 00 00 00	 call	 __CheckForDebuggerJustMyCode

; 2281 :     if (!GLAD_GL_ES_VERSION_3_0) return;

  0001b	83 3d 00 00 00
	00 00		 cmp	 DWORD PTR GLAD_GL_ES_VERSION_3_0, 0
  00022	75 05		 jne	 SHORT $LN2@load_GL_ES
  00024	e9 e8 06 00 00	 jmp	 $LN1@load_GL_ES
$LN2@load_GL_ES:

; 2282 :     glad_glReadBuffer = (PFNGLREADBUFFERPROC)load("glReadBuffer");

  00029	48 8d 0d 00 00
	00 00		 lea	 rcx, OFFSET FLAT:??_C@_0N@HFKHBECK@glReadBuffer@
  00030	ff 55 50	 call	 QWORD PTR load$[rbp]
  00033	48 89 05 00 00
	00 00		 mov	 QWORD PTR glad_glReadBuffer, rax

; 2283 :     glad_glDrawRangeElements = (PFNGLDRAWRANGEELEMENTSPROC)load("glDrawRangeElements");

  0003a	48 8d 0d 00 00
	00 00		 lea	 rcx, OFFSET FLAT:??_C@_0BE@IHNAGJGJ@glDrawRangeElements@
  00041	ff 55 50	 call	 QWORD PTR load$[rbp]
  00044	48 89 05 00 00
	00 00		 mov	 QWORD PTR glad_glDrawRangeElements, rax

; 2284 :     glad_glTexImage3D = (PFNGLTEXIMAGE3DPROC)load("glTexImage3D");

  0004b	48 8d 0d 00 00
	00 00		 lea	 rcx, OFFSET FLAT:??_C@_0N@JAEIBBBF@glTexImage3D@
  00052	ff 55 50	 call	 QWORD PTR load$[rbp]
  00055	48 89 05 00 00
	00 00		 mov	 QWORD PTR glad_glTexImage3D, rax

; 2285 :     glad_glTexSubImage3D = (PFNGLTEXSUBIMAGE3DPROC)load("glTexSubImage3D");

  0005c	48 8d 0d 00 00
	00 00		 lea	 rcx, OFFSET FLAT:??_C@_0BA@NGGKPOPN@glTexSubImage3D@
  00063	ff 55 50	 call	 QWORD PTR load$[rbp]
  00066	48 89 05 00 00
	00 00		 mov	 QWORD PTR glad_glTexSubImage3D, rax

; 2286 :     glad_glCopyTexSubImage3D = (PFNGLCOPYTEXSUBIMAGE3DPROC)load("glCopyTexSubImage3D");

  0006d	48 8d 0d 00 00
	00 00		 lea	 rcx, OFFSET FLAT:??_C@_0BE@PJFGNMAG@glCopyTexSubImage3D@
  00074	ff 55 50	 call	 QWORD PTR load$[rbp]
  00077	48 89 05 00 00
	00 00		 mov	 QWORD PTR glad_glCopyTexSubImage3D, rax

; 2287 :     glad_glCompressedTexImage3D = (PFNGLCOMPRESSEDTEXIMAGE3DPROC)load("glCompressedTexImage3D");

  0007e	48 8d 0d 00 00
	00 00		 lea	 rcx, OFFSET FLAT:??_C@_0BH@GGHNMAGP@glCompressedTexImage3D@
  00085	ff 55 50	 call	 QWORD PTR load$[rbp]
  00088	48 89 05 00 00
	00 00		 mov	 QWORD PTR glad_glCompressedTexImage3D, rax

; 2288 :     glad_glCompressedTexSubImage3D = (PFNGLCOMPRESSEDTEXSUBIMAGE3DPROC)load("glCompressedTexSubImage3D");

  0008f	48 8d 0d 00 00
	00 00		 lea	 rcx, OFFSET FLAT:??_C@_0BK@EBJMCDPA@glCompressedTexSubImage3D@
  00096	ff 55 50	 call	 QWORD PTR load$[rbp]
  00099	48 89 05 00 00
	00 00		 mov	 QWORD PTR glad_glCompressedTexSubImage3D, rax

; 2289 :     glad_glGenQueries = (PFNGLGENQUERIESPROC)load("glGenQueries");

  000a0	48 8d 0d 00 00
	00 00		 lea	 rcx, OFFSET FLAT:??_C@_0N@CJIGHHJ@glGenQueries@
  000a7	ff 55 50	 call	 QWORD PTR load$[rbp]
  000aa	48 89 05 00 00
	00 00		 mov	 QWORD PTR glad_glGenQueries, rax

; 2290 :     glad_glDeleteQueries = (PFNGLDELETEQUERIESPROC)load("glDeleteQueries");

  000b1	48 8d 0d 00 00
	00 00		 lea	 rcx, OFFSET FLAT:??_C@_0BA@IOKEHMOH@glDeleteQueries@
  000b8	ff 55 50	 call	 QWORD PTR load$[rbp]
  000bb	48 89 05 00 00
	00 00		 mov	 QWORD PTR glad_glDeleteQueries, rax

; 2291 :     glad_glIsQuery = (PFNGLISQUERYPROC)load("glIsQuery");

  000c2	48 8d 0d 00 00
	00 00		 lea	 rcx, OFFSET FLAT:??_C@_09CNNLCEBN@glIsQuery@
  000c9	ff 55 50	 call	 QWORD PTR load$[rbp]
  000cc	48 89 05 00 00
	00 00		 mov	 QWORD PTR glad_glIsQuery, rax

; 2292 :     glad_glBeginQuery = (PFNGLBEGINQUERYPROC)load("glBeginQuery");

  000d3	48 8d 0d 00 00
	00 00		 lea	 rcx, OFFSET FLAT:??_C@_0N@GIAGIGPA@glBeginQuery@
  000da	ff 55 50	 call	 QWORD PTR load$[rbp]
  000dd	48 89 05 00 00
	00 00		 mov	 QWORD PTR glad_glBeginQuery, rax

; 2293 :     glad_glEndQuery = (PFNGLENDQUERYPROC)load("glEndQuery");

  000e4	48 8d 0d 00 00
	00 00		 lea	 rcx, OFFSET FLAT:??_C@_0L@FLEBHIDM@glEndQuery@
  000eb	ff 55 50	 call	 QWORD PTR load$[rbp]
  000ee	48 89 05 00 00
	00 00		 mov	 QWORD PTR glad_glEndQuery, rax

; 2294 :     glad_glGetQueryiv = (PFNGLGETQUERYIVPROC)load("glGetQueryiv");

  000f5	48 8d 0d 00 00
	00 00		 lea	 rcx, OFFSET FLAT:??_C@_0N@BPACPFCI@glGetQueryiv@
  000fc	ff 55 50	 call	 QWORD PTR load$[rbp]
  000ff	48 89 05 00 00
	00 00		 mov	 QWORD PTR glad_glGetQueryiv, rax

; 2295 :     glad_glGetQueryObjectuiv = (PFNGLGETQUERYOBJECTUIVPROC)load("glGetQueryObjectuiv");

  00106	48 8d 0d 00 00
	00 00		 lea	 rcx, OFFSET FLAT:??_C@_0BE@MNBBKJ@glGetQueryObjectuiv@
  0010d	ff 55 50	 call	 QWORD PTR load$[rbp]
  00110	48 89 05 00 00
	00 00		 mov	 QWORD PTR glad_glGetQueryObjectuiv, rax

; 2296 :     glad_glUnmapBuffer = (PFNGLUNMAPBUFFERPROC)load("glUnmapBuffer");

  00117	48 8d 0d 00 00
	00 00		 lea	 rcx, OFFSET FLAT:??_C@_0O@OFGHBLEO@glUnmapBuffer@
  0011e	ff 55 50	 call	 QWORD PTR load$[rbp]
  00121	48 89 05 00 00
	00 00		 mov	 QWORD PTR glad_glUnmapBuffer, rax

; 2297 :     glad_glGetBufferPointerv = (PFNGLGETBUFFERPOINTERVPROC)load("glGetBufferPointerv");

  00128	48 8d 0d 00 00
	00 00		 lea	 rcx, OFFSET FLAT:??_C@_0BE@KNJEIFMC@glGetBufferPointerv@
  0012f	ff 55 50	 call	 QWORD PTR load$[rbp]
  00132	48 89 05 00 00
	00 00		 mov	 QWORD PTR glad_glGetBufferPointerv, rax

; 2298 :     glad_glDrawBuffers = (PFNGLDRAWBUFFERSPROC)load("glDrawBuffers");

  00139	48 8d 0d 00 00
	00 00		 lea	 rcx, OFFSET FLAT:??_C@_0O@COHJKDBH@glDrawBuffers@
  00140	ff 55 50	 call	 QWORD PTR load$[rbp]
  00143	48 89 05 00 00
	00 00		 mov	 QWORD PTR glad_glDrawBuffers, rax

; 2299 :     glad_glUniformMatrix2x3fv = (PFNGLUNIFORMMATRIX2X3FVPROC)load("glUniformMatrix2x3fv");

  0014a	48 8d 0d 00 00
	00 00		 lea	 rcx, OFFSET FLAT:??_C@_0BF@KDDJMCDK@glUniformMatrix2x3fv@
  00151	ff 55 50	 call	 QWORD PTR load$[rbp]
  00154	48 89 05 00 00
	00 00		 mov	 QWORD PTR glad_glUniformMatrix2x3fv, rax

; 2300 :     glad_glUniformMatrix3x2fv = (PFNGLUNIFORMMATRIX3X2FVPROC)load("glUniformMatrix3x2fv");

  0015b	48 8d 0d 00 00
	00 00		 lea	 rcx, OFFSET FLAT:??_C@_0BF@NANJHGPK@glUniformMatrix3x2fv@
  00162	ff 55 50	 call	 QWORD PTR load$[rbp]
  00165	48 89 05 00 00
	00 00		 mov	 QWORD PTR glad_glUniformMatrix3x2fv, rax

; 2301 :     glad_glUniformMatrix2x4fv = (PFNGLUNIFORMMATRIX2X4FVPROC)load("glUniformMatrix2x4fv");

  0016c	48 8d 0d 00 00
	00 00		 lea	 rcx, OFFSET FLAT:??_C@_0BF@DOOOPKID@glUniformMatrix2x4fv@
  00173	ff 55 50	 call	 QWORD PTR load$[rbp]
  00176	48 89 05 00 00
	00 00		 mov	 QWORD PTR glad_glUniformMatrix2x4fv, rax

; 2302 :     glad_glUniformMatrix4x2fv = (PFNGLUNIFORMMATRIX4X2FVPROC)load("glUniformMatrix4x2fv");

  0017d	48 8d 0d 00 00
	00 00		 lea	 rcx, OFFSET FLAT:??_C@_0BF@MNNMEGEC@glUniformMatrix4x2fv@
  00184	ff 55 50	 call	 QWORD PTR load$[rbp]
  00187	48 89 05 00 00
	00 00		 mov	 QWORD PTR glad_glUniformMatrix4x2fv, rax

; 2303 :     glad_glUniformMatrix3x4fv = (PFNGLUNIFORMMATRIX3X4FVPROC)load("glUniformMatrix3x4fv");

  0018e	48 8d 0d 00 00
	00 00		 lea	 rcx, OFFSET FLAT:??_C@_0BF@PFLCCJCG@glUniformMatrix3x4fv@
  00195	ff 55 50	 call	 QWORD PTR load$[rbp]
  00198	48 89 05 00 00
	00 00		 mov	 QWORD PTR glad_glUniformMatrix3x4fv, rax

; 2304 :     glad_glUniformMatrix4x3fv = (PFNGLUNIFORMMATRIX4X3FVPROC)load("glUniformMatrix4x3fv");

  0019f	48 8d 0d 00 00
	00 00		 lea	 rcx, OFFSET FLAT:??_C@_0BF@HFGACBCH@glUniformMatrix4x3fv@
  001a6	ff 55 50	 call	 QWORD PTR load$[rbp]
  001a9	48 89 05 00 00
	00 00		 mov	 QWORD PTR glad_glUniformMatrix4x3fv, rax

; 2305 :     glad_glBlitFramebuffer = (PFNGLBLITFRAMEBUFFERPROC)load("glBlitFramebuffer");

  001b0	48 8d 0d 00 00
	00 00		 lea	 rcx, OFFSET FLAT:??_C@_0BC@OANBDDEP@glBlitFramebuffer@
  001b7	ff 55 50	 call	 QWORD PTR load$[rbp]
  001ba	48 89 05 00 00
	00 00		 mov	 QWORD PTR glad_glBlitFramebuffer, rax

; 2306 :     glad_glRenderbufferStorageMultisample = (PFNGLRENDERBUFFERSTORAGEMULTISAMPLEPROC)load("glRenderbufferStorageMultisample");

  001c1	48 8d 0d 00 00
	00 00		 lea	 rcx, OFFSET FLAT:??_C@_0CB@HNONLGJE@glRenderbufferStorageMultisampl@
  001c8	ff 55 50	 call	 QWORD PTR load$[rbp]
  001cb	48 89 05 00 00
	00 00		 mov	 QWORD PTR glad_glRenderbufferStorageMultisample, rax

; 2307 :     glad_glFramebufferTextureLayer = (PFNGLFRAMEBUFFERTEXTURELAYERPROC)load("glFramebufferTextureLayer");

  001d2	48 8d 0d 00 00
	00 00		 lea	 rcx, OFFSET FLAT:??_C@_0BK@NIHIDBBO@glFramebufferTextureLayer@
  001d9	ff 55 50	 call	 QWORD PTR load$[rbp]
  001dc	48 89 05 00 00
	00 00		 mov	 QWORD PTR glad_glFramebufferTextureLayer, rax

; 2308 :     glad_glMapBufferRange = (PFNGLMAPBUFFERRANGEPROC)load("glMapBufferRange");

  001e3	48 8d 0d 00 00
	00 00		 lea	 rcx, OFFSET FLAT:??_C@_0BB@EOHJGBIO@glMapBufferRange@
  001ea	ff 55 50	 call	 QWORD PTR load$[rbp]
  001ed	48 89 05 00 00
	00 00		 mov	 QWORD PTR glad_glMapBufferRange, rax

; 2309 :     glad_glFlushMappedBufferRange = (PFNGLFLUSHMAPPEDBUFFERRANGEPROC)load("glFlushMappedBufferRange");

  001f4	48 8d 0d 00 00
	00 00		 lea	 rcx, OFFSET FLAT:??_C@_0BJ@NCDMGHKF@glFlushMappedBufferRange@
  001fb	ff 55 50	 call	 QWORD PTR load$[rbp]
  001fe	48 89 05 00 00
	00 00		 mov	 QWORD PTR glad_glFlushMappedBufferRange, rax

; 2310 :     glad_glBindVertexArray = (PFNGLBINDVERTEXARRAYPROC)load("glBindVertexArray");

  00205	48 8d 0d 00 00
	00 00		 lea	 rcx, OFFSET FLAT:??_C@_0BC@LHBAHFAN@glBindVertexArray@
  0020c	ff 55 50	 call	 QWORD PTR load$[rbp]
  0020f	48 89 05 00 00
	00 00		 mov	 QWORD PTR glad_glBindVertexArray, rax

; 2311 :     glad_glDeleteVertexArrays = (PFNGLDELETEVERTEXARRAYSPROC)load("glDeleteVertexArrays");

  00216	48 8d 0d 00 00
	00 00		 lea	 rcx, OFFSET FLAT:??_C@_0BF@BMPCJLEF@glDeleteVertexArrays@
  0021d	ff 55 50	 call	 QWORD PTR load$[rbp]
  00220	48 89 05 00 00
	00 00		 mov	 QWORD PTR glad_glDeleteVertexArrays, rax

; 2312 :     glad_glGenVertexArrays = (PFNGLGENVERTEXARRAYSPROC)load("glGenVertexArrays");

  00227	48 8d 0d 00 00
	00 00		 lea	 rcx, OFFSET FLAT:??_C@_0BC@EPJLBJBJ@glGenVertexArrays@
  0022e	ff 55 50	 call	 QWORD PTR load$[rbp]
  00231	48 89 05 00 00
	00 00		 mov	 QWORD PTR glad_glGenVertexArrays, rax

; 2313 :     glad_glIsVertexArray = (PFNGLISVERTEXARRAYPROC)load("glIsVertexArray");

  00238	48 8d 0d 00 00
	00 00		 lea	 rcx, OFFSET FLAT:??_C@_0BA@ODJEGGAE@glIsVertexArray@
  0023f	ff 55 50	 call	 QWORD PTR load$[rbp]
  00242	48 89 05 00 00
	00 00		 mov	 QWORD PTR glad_glIsVertexArray, rax

; 2314 :     glad_glGetIntegeri_v = (PFNGLGETINTEGERI_VPROC)load("glGetIntegeri_v");

  00249	48 8d 0d 00 00
	00 00		 lea	 rcx, OFFSET FLAT:??_C@_0BA@FKCNNMFO@glGetIntegeri_v@
  00250	ff 55 50	 call	 QWORD PTR load$[rbp]
  00253	48 89 05 00 00
	00 00		 mov	 QWORD PTR glad_glGetIntegeri_v, rax

; 2315 :     glad_glBeginTransformFeedback = (PFNGLBEGINTRANSFORMFEEDBACKPROC)load("glBeginTransformFeedback");

  0025a	48 8d 0d 00 00
	00 00		 lea	 rcx, OFFSET FLAT:??_C@_0BJ@FHJKOECC@glBeginTransformFeedback@
  00261	ff 55 50	 call	 QWORD PTR load$[rbp]
  00264	48 89 05 00 00
	00 00		 mov	 QWORD PTR glad_glBeginTransformFeedback, rax

; 2316 :     glad_glEndTransformFeedback = (PFNGLENDTRANSFORMFEEDBACKPROC)load("glEndTransformFeedback");

  0026b	48 8d 0d 00 00
	00 00		 lea	 rcx, OFFSET FLAT:??_C@_0BH@LCFLNNBH@glEndTransformFeedback@
  00272	ff 55 50	 call	 QWORD PTR load$[rbp]
  00275	48 89 05 00 00
	00 00		 mov	 QWORD PTR glad_glEndTransformFeedback, rax

; 2317 :     glad_glBindBufferRange = (PFNGLBINDBUFFERRANGEPROC)load("glBindBufferRange");

  0027c	48 8d 0d 00 00
	00 00		 lea	 rcx, OFFSET FLAT:??_C@_0BC@EEMMCHMB@glBindBufferRange@
  00283	ff 55 50	 call	 QWORD PTR load$[rbp]
  00286	48 89 05 00 00
	00 00		 mov	 QWORD PTR glad_glBindBufferRange, rax

; 2318 :     glad_glBindBufferBase = (PFNGLBINDBUFFERBASEPROC)load("glBindBufferBase");

  0028d	48 8d 0d 00 00
	00 00		 lea	 rcx, OFFSET FLAT:??_C@_0BB@LDPKOCJI@glBindBufferBase@
  00294	ff 55 50	 call	 QWORD PTR load$[rbp]
  00297	48 89 05 00 00
	00 00		 mov	 QWORD PTR glad_glBindBufferBase, rax

; 2319 :     glad_glTransformFeedbackVaryings = (PFNGLTRANSFORMFEEDBACKVARYINGSPROC)load("glTransformFeedbackVaryings");

  0029e	48 8d 0d 00 00
	00 00		 lea	 rcx, OFFSET FLAT:??_C@_0BM@IJFAKBEF@glTransformFeedbackVaryings@
  002a5	ff 55 50	 call	 QWORD PTR load$[rbp]
  002a8	48 89 05 00 00
	00 00		 mov	 QWORD PTR glad_glTransformFeedbackVaryings, rax

; 2320 :     glad_glGetTransformFeedbackVarying = (PFNGLGETTRANSFORMFEEDBACKVARYINGPROC)load("glGetTransformFeedbackVarying");

  002af	48 8d 0d 00 00
	00 00		 lea	 rcx, OFFSET FLAT:??_C@_0BO@ODFLPNG@glGetTransformFeedbackVarying@
  002b6	ff 55 50	 call	 QWORD PTR load$[rbp]
  002b9	48 89 05 00 00
	00 00		 mov	 QWORD PTR glad_glGetTransformFeedbackVarying, rax

; 2321 :     glad_glVertexAttribIPointer = (PFNGLVERTEXATTRIBIPOINTERPROC)load("glVertexAttribIPointer");

  002c0	48 8d 0d 00 00
	00 00		 lea	 rcx, OFFSET FLAT:??_C@_0BH@NLOEHKCD@glVertexAttribIPointer@
  002c7	ff 55 50	 call	 QWORD PTR load$[rbp]
  002ca	48 89 05 00 00
	00 00		 mov	 QWORD PTR glad_glVertexAttribIPointer, rax

; 2322 :     glad_glGetVertexAttribIiv = (PFNGLGETVERTEXATTRIBIIVPROC)load("glGetVertexAttribIiv");

  002d1	48 8d 0d 00 00
	00 00		 lea	 rcx, OFFSET FLAT:??_C@_0BF@KPDNEONP@glGetVertexAttribIiv@
  002d8	ff 55 50	 call	 QWORD PTR load$[rbp]
  002db	48 89 05 00 00
	00 00		 mov	 QWORD PTR glad_glGetVertexAttribIiv, rax

; 2323 :     glad_glGetVertexAttribIuiv = (PFNGLGETVERTEXATTRIBIUIVPROC)load("glGetVertexAttribIuiv");

  002e2	48 8d 0d 00 00
	00 00		 lea	 rcx, OFFSET FLAT:??_C@_0BG@GCBDCABB@glGetVertexAttribIuiv@
  002e9	ff 55 50	 call	 QWORD PTR load$[rbp]
  002ec	48 89 05 00 00
	00 00		 mov	 QWORD PTR glad_glGetVertexAttribIuiv, rax

; 2324 :     glad_glVertexAttribI4i = (PFNGLVERTEXATTRIBI4IPROC)load("glVertexAttribI4i");

  002f3	48 8d 0d 00 00
	00 00		 lea	 rcx, OFFSET FLAT:??_C@_0BC@CFEDAOOA@glVertexAttribI4i@
  002fa	ff 55 50	 call	 QWORD PTR load$[rbp]
  002fd	48 89 05 00 00
	00 00		 mov	 QWORD PTR glad_glVertexAttribI4i, rax

; 2325 :     glad_glVertexAttribI4ui = (PFNGLVERTEXATTRIBI4UIPROC)load("glVertexAttribI4ui");

  00304	48 8d 0d 00 00
	00 00		 lea	 rcx, OFFSET FLAT:??_C@_0BD@BCMCLIM@glVertexAttribI4ui@
  0030b	ff 55 50	 call	 QWORD PTR load$[rbp]
  0030e	48 89 05 00 00
	00 00		 mov	 QWORD PTR glad_glVertexAttribI4ui, rax

; 2326 :     glad_glVertexAttribI4iv = (PFNGLVERTEXATTRIBI4IVPROC)load("glVertexAttribI4iv");

  00315	48 8d 0d 00 00
	00 00		 lea	 rcx, OFFSET FLAT:??_C@_0BD@NJEKHPAG@glVertexAttribI4iv@
  0031c	ff 55 50	 call	 QWORD PTR load$[rbp]
  0031f	48 89 05 00 00
	00 00		 mov	 QWORD PTR glad_glVertexAttribI4iv, rax

; 2327 :     glad_glVertexAttribI4uiv = (PFNGLVERTEXATTRIBI4UIVPROC)load("glVertexAttribI4uiv");

  00326	48 8d 0d 00 00
	00 00		 lea	 rcx, OFFSET FLAT:??_C@_0BE@JNGKDNFA@glVertexAttribI4uiv@
  0032d	ff 55 50	 call	 QWORD PTR load$[rbp]
  00330	48 89 05 00 00
	00 00		 mov	 QWORD PTR glad_glVertexAttribI4uiv, rax

; 2328 :     glad_glGetUniformuiv = (PFNGLGETUNIFORMUIVPROC)load("glGetUniformuiv");

  00337	48 8d 0d 00 00
	00 00		 lea	 rcx, OFFSET FLAT:??_C@_0BA@NIGECFIF@glGetUniformuiv@
  0033e	ff 55 50	 call	 QWORD PTR load$[rbp]
  00341	48 89 05 00 00
	00 00		 mov	 QWORD PTR glad_glGetUniformuiv, rax

; 2329 :     glad_glGetFragDataLocation = (PFNGLGETFRAGDATALOCATIONPROC)load("glGetFragDataLocation");

  00348	48 8d 0d 00 00
	00 00		 lea	 rcx, OFFSET FLAT:??_C@_0BG@NDOIGAMC@glGetFragDataLocation@
  0034f	ff 55 50	 call	 QWORD PTR load$[rbp]
  00352	48 89 05 00 00
	00 00		 mov	 QWORD PTR glad_glGetFragDataLocation, rax

; 2330 :     glad_glUniform1ui = (PFNGLUNIFORM1UIPROC)load("glUniform1ui");

  00359	48 8d 0d 00 00
	00 00		 lea	 rcx, OFFSET FLAT:??_C@_0N@HKPEFJDP@glUniform1ui@
  00360	ff 55 50	 call	 QWORD PTR load$[rbp]
  00363	48 89 05 00 00
	00 00		 mov	 QWORD PTR glad_glUniform1ui, rax

; 2331 :     glad_glUniform2ui = (PFNGLUNIFORM2UIPROC)load("glUniform2ui");

  0036a	48 8d 0d 00 00
	00 00		 lea	 rcx, OFFSET FLAT:??_C@_0N@GIEBPGNB@glUniform2ui@
  00371	ff 55 50	 call	 QWORD PTR load$[rbp]
  00374	48 89 05 00 00
	00 00		 mov	 QWORD PTR glad_glUniform2ui, rax

; 2332 :     glad_glUniform3ui = (PFNGLUNIFORM3UIPROC)load("glUniform3ui");

  0037b	48 8d 0d 00 00
	00 00		 lea	 rcx, OFFSET FLAT:??_C@_0N@NAPNJBLE@glUniform3ui@
  00382	ff 55 50	 call	 QWORD PTR load$[rbp]
  00385	48 89 05 00 00
	00 00		 mov	 QWORD PTR glad_glUniform3ui, rax

; 2333 :     glad_glUniform4ui = (PFNGLUNIFORM4UIPROC)load("glUniform4ui");

  0038c	48 8d 0d 00 00
	00 00		 lea	 rcx, OFFSET FLAT:??_C@_0N@ENCKKJAN@glUniform4ui@
  00393	ff 55 50	 call	 QWORD PTR load$[rbp]
  00396	48 89 05 00 00
	00 00		 mov	 QWORD PTR glad_glUniform4ui, rax

; 2334 :     glad_glUniform1uiv = (PFNGLUNIFORM1UIVPROC)load("glUniform1uiv");

  0039d	48 8d 0d 00 00
	00 00		 lea	 rcx, OFFSET FLAT:??_C@_0O@MPHJAHBE@glUniform1uiv@
  003a4	ff 55 50	 call	 QWORD PTR load$[rbp]
  003a7	48 89 05 00 00
	00 00		 mov	 QWORD PTR glad_glUniform1uiv, rax

; 2335 :     glad_glUniform2uiv = (PFNGLUNIFORM2UIVPROC)load("glUniform2uiv");

  003ae	48 8d 0d 00 00
	00 00		 lea	 rcx, OFFSET FLAT:??_C@_0O@IINJHNME@glUniform2uiv@
  003b5	ff 55 50	 call	 QWORD PTR load$[rbp]
  003b8	48 89 05 00 00
	00 00		 mov	 QWORD PTR glad_glUniform2uiv, rax

; 2336 :     glad_glUniform3uiv = (PFNGLUNIFORM3UIVPROC)load("glUniform3uiv");

  003bf	48 8d 0d 00 00
	00 00		 lea	 rcx, OFFSET FLAT:??_C@_0O@LFLJFEHE@glUniform3uiv@
  003c6	ff 55 50	 call	 QWORD PTR load$[rbp]
  003c9	48 89 05 00 00
	00 00		 mov	 QWORD PTR glad_glUniform3uiv, rax

; 2337 :     glad_glUniform4uiv = (PFNGLUNIFORM4UIVPROC)load("glUniform4uiv");

  003d0	48 8d 0d 00 00
	00 00		 lea	 rcx, OFFSET FLAT:??_C@_0O@HJJIIGE@glUniform4uiv@
  003d7	ff 55 50	 call	 QWORD PTR load$[rbp]
  003da	48 89 05 00 00
	00 00		 mov	 QWORD PTR glad_glUniform4uiv, rax

; 2338 :     glad_glClearBufferiv = (PFNGLCLEARBUFFERIVPROC)load("glClearBufferiv");

  003e1	48 8d 0d 00 00
	00 00		 lea	 rcx, OFFSET FLAT:??_C@_0BA@CGCJAEIN@glClearBufferiv@
  003e8	ff 55 50	 call	 QWORD PTR load$[rbp]
  003eb	48 89 05 00 00
	00 00		 mov	 QWORD PTR glad_glClearBufferiv, rax

; 2339 :     glad_glClearBufferuiv = (PFNGLCLEARBUFFERUIVPROC)load("glClearBufferuiv");

  003f2	48 8d 0d 00 00
	00 00		 lea	 rcx, OFFSET FLAT:??_C@_0BB@OHPPAEID@glClearBufferuiv@
  003f9	ff 55 50	 call	 QWORD PTR load$[rbp]
  003fc	48 89 05 00 00
	00 00		 mov	 QWORD PTR glad_glClearBufferuiv, rax

; 2340 :     glad_glClearBufferfv = (PFNGLCLEARBUFFERFVPROC)load("glClearBufferfv");

  00403	48 8d 0d 00 00
	00 00		 lea	 rcx, OFFSET FLAT:??_C@_0BA@CNHFEDLA@glClearBufferfv@
  0040a	ff 55 50	 call	 QWORD PTR load$[rbp]
  0040d	48 89 05 00 00
	00 00		 mov	 QWORD PTR glad_glClearBufferfv, rax

; 2341 :     glad_glClearBufferfi = (PFNGLCLEARBUFFERFIPROC)load("glClearBufferfi");

  00414	48 8d 0d 00 00
	00 00		 lea	 rcx, OFFSET FLAT:??_C@_0BA@OACPENCO@glClearBufferfi@
  0041b	ff 55 50	 call	 QWORD PTR load$[rbp]
  0041e	48 89 05 00 00
	00 00		 mov	 QWORD PTR glad_glClearBufferfi, rax

; 2342 :     glad_glGetStringi = (PFNGLGETSTRINGIPROC)load("glGetStringi");

  00425	48 8d 0d 00 00
	00 00		 lea	 rcx, OFFSET FLAT:??_C@_0N@PILJCBOD@glGetStringi@
  0042c	ff 55 50	 call	 QWORD PTR load$[rbp]
  0042f	48 89 05 00 00
	00 00		 mov	 QWORD PTR glad_glGetStringi, rax

; 2343 :     glad_glCopyBufferSubData = (PFNGLCOPYBUFFERSUBDATAPROC)load("glCopyBufferSubData");

  00436	48 8d 0d 00 00
	00 00		 lea	 rcx, OFFSET FLAT:??_C@_0BE@EPKABDOG@glCopyBufferSubData@
  0043d	ff 55 50	 call	 QWORD PTR load$[rbp]
  00440	48 89 05 00 00
	00 00		 mov	 QWORD PTR glad_glCopyBufferSubData, rax

; 2344 :     glad_glGetUniformIndices = (PFNGLGETUNIFORMINDICESPROC)load("glGetUniformIndices");

  00447	48 8d 0d 00 00
	00 00		 lea	 rcx, OFFSET FLAT:??_C@_0BE@MDPMIDEE@glGetUniformIndices@
  0044e	ff 55 50	 call	 QWORD PTR load$[rbp]
  00451	48 89 05 00 00
	00 00		 mov	 QWORD PTR glad_glGetUniformIndices, rax

; 2345 :     glad_glGetActiveUniformsiv = (PFNGLGETACTIVEUNIFORMSIVPROC)load("glGetActiveUniformsiv");

  00458	48 8d 0d 00 00
	00 00		 lea	 rcx, OFFSET FLAT:??_C@_0BG@JEHIMPCG@glGetActiveUniformsiv@
  0045f	ff 55 50	 call	 QWORD PTR load$[rbp]
  00462	48 89 05 00 00
	00 00		 mov	 QWORD PTR glad_glGetActiveUniformsiv, rax

; 2346 :     glad_glGetUniformBlockIndex = (PFNGLGETUNIFORMBLOCKINDEXPROC)load("glGetUniformBlockIndex");

  00469	48 8d 0d 00 00
	00 00		 lea	 rcx, OFFSET FLAT:??_C@_0BH@CBDIMHHE@glGetUniformBlockIndex@
  00470	ff 55 50	 call	 QWORD PTR load$[rbp]
  00473	48 89 05 00 00
	00 00		 mov	 QWORD PTR glad_glGetUniformBlockIndex, rax

; 2347 :     glad_glGetActiveUniformBlockiv = (PFNGLGETACTIVEUNIFORMBLOCKIVPROC)load("glGetActiveUniformBlockiv");

  0047a	48 8d 0d 00 00
	00 00		 lea	 rcx, OFFSET FLAT:??_C@_0BK@DMHOPJGL@glGetActiveUniformBlockiv@
  00481	ff 55 50	 call	 QWORD PTR load$[rbp]
  00484	48 89 05 00 00
	00 00		 mov	 QWORD PTR glad_glGetActiveUniformBlockiv, rax

; 2348 :     glad_glGetActiveUniformBlockName = (PFNGLGETACTIVEUNIFORMBLOCKNAMEPROC)load("glGetActiveUniformBlockName");

  0048b	48 8d 0d 00 00
	00 00		 lea	 rcx, OFFSET FLAT:??_C@_0BM@KEMCJPAJ@glGetActiveUniformBlockName@
  00492	ff 55 50	 call	 QWORD PTR load$[rbp]
  00495	48 89 05 00 00
	00 00		 mov	 QWORD PTR glad_glGetActiveUniformBlockName, rax

; 2349 :     glad_glUniformBlockBinding = (PFNGLUNIFORMBLOCKBINDINGPROC)load("glUniformBlockBinding");

  0049c	48 8d 0d 00 00
	00 00		 lea	 rcx, OFFSET FLAT:??_C@_0BG@BOLEKKCP@glUniformBlockBinding@
  004a3	ff 55 50	 call	 QWORD PTR load$[rbp]
  004a6	48 89 05 00 00
	00 00		 mov	 QWORD PTR glad_glUniformBlockBinding, rax

; 2350 :     glad_glDrawArraysInstanced = (PFNGLDRAWARRAYSINSTANCEDPROC)load("glDrawArraysInstanced");

  004ad	48 8d 0d 00 00
	00 00		 lea	 rcx, OFFSET FLAT:??_C@_0BG@HIOFINAN@glDrawArraysInstanced@
  004b4	ff 55 50	 call	 QWORD PTR load$[rbp]
  004b7	48 89 05 00 00
	00 00		 mov	 QWORD PTR glad_glDrawArraysInstanced, rax

; 2351 :     glad_glDrawElementsInstanced = (PFNGLDRAWELEMENTSINSTANCEDPROC)load("glDrawElementsInstanced");

  004be	48 8d 0d 00 00
	00 00		 lea	 rcx, OFFSET FLAT:??_C@_0BI@CGJENFBH@glDrawElementsInstanced@
  004c5	ff 55 50	 call	 QWORD PTR load$[rbp]
  004c8	48 89 05 00 00
	00 00		 mov	 QWORD PTR glad_glDrawElementsInstanced, rax

; 2352 :     glad_glFenceSync = (PFNGLFENCESYNCPROC)load("glFenceSync");

  004cf	48 8d 0d 00 00
	00 00		 lea	 rcx, OFFSET FLAT:??_C@_0M@EFGFPFLP@glFenceSync@
  004d6	ff 55 50	 call	 QWORD PTR load$[rbp]
  004d9	48 89 05 00 00
	00 00		 mov	 QWORD PTR glad_glFenceSync, rax

; 2353 :     glad_glIsSync = (PFNGLISSYNCPROC)load("glIsSync");

  004e0	48 8d 0d 00 00
	00 00		 lea	 rcx, OFFSET FLAT:??_C@_08JPIIHJEO@glIsSync@
  004e7	ff 55 50	 call	 QWORD PTR load$[rbp]
  004ea	48 89 05 00 00
	00 00		 mov	 QWORD PTR glad_glIsSync, rax

; 2354 :     glad_glDeleteSync = (PFNGLDELETESYNCPROC)load("glDeleteSync");

  004f1	48 8d 0d 00 00
	00 00		 lea	 rcx, OFFSET FLAT:??_C@_0N@PIFDNDFG@glDeleteSync@
  004f8	ff 55 50	 call	 QWORD PTR load$[rbp]
  004fb	48 89 05 00 00
	00 00		 mov	 QWORD PTR glad_glDeleteSync, rax

; 2355 :     glad_glClientWaitSync = (PFNGLCLIENTWAITSYNCPROC)load("glClientWaitSync");

  00502	48 8d 0d 00 00
	00 00		 lea	 rcx, OFFSET FLAT:??_C@_0BB@KDMPGJAC@glClientWaitSync@
  00509	ff 55 50	 call	 QWORD PTR load$[rbp]
  0050c	48 89 05 00 00
	00 00		 mov	 QWORD PTR glad_glClientWaitSync, rax

; 2356 :     glad_glWaitSync = (PFNGLWAITSYNCPROC)load("glWaitSync");

  00513	48 8d 0d 00 00
	00 00		 lea	 rcx, OFFSET FLAT:??_C@_0L@MHLOGHGO@glWaitSync@
  0051a	ff 55 50	 call	 QWORD PTR load$[rbp]
  0051d	48 89 05 00 00
	00 00		 mov	 QWORD PTR glad_glWaitSync, rax

; 2357 :     glad_glGetInteger64v = (PFNGLGETINTEGER64VPROC)load("glGetInteger64v");

  00524	48 8d 0d 00 00
	00 00		 lea	 rcx, OFFSET FLAT:??_C@_0BA@INMBOHGL@glGetInteger64v@
  0052b	ff 55 50	 call	 QWORD PTR load$[rbp]
  0052e	48 89 05 00 00
	00 00		 mov	 QWORD PTR glad_glGetInteger64v, rax

; 2358 :     glad_glGetSynciv = (PFNGLGETSYNCIVPROC)load("glGetSynciv");

  00535	48 8d 0d 00 00
	00 00		 lea	 rcx, OFFSET FLAT:??_C@_0M@MPEEOPIN@glGetSynciv@
  0053c	ff 55 50	 call	 QWORD PTR load$[rbp]
  0053f	48 89 05 00 00
	00 00		 mov	 QWORD PTR glad_glGetSynciv, rax

; 2359 :     glad_glGetInteger64i_v = (PFNGLGETINTEGER64I_VPROC)load("glGetInteger64i_v");

  00546	48 8d 0d 00 00
	00 00		 lea	 rcx, OFFSET FLAT:??_C@_0BC@KOJILIEC@glGetInteger64i_v@
  0054d	ff 55 50	 call	 QWORD PTR load$[rbp]
  00550	48 89 05 00 00
	00 00		 mov	 QWORD PTR glad_glGetInteger64i_v, rax

; 2360 :     glad_glGetBufferParameteri64v = (PFNGLGETBUFFERPARAMETERI64VPROC)load("glGetBufferParameteri64v");

  00557	48 8d 0d 00 00
	00 00		 lea	 rcx, OFFSET FLAT:??_C@_0BJ@KKBIDGPP@glGetBufferParameteri64v@
  0055e	ff 55 50	 call	 QWORD PTR load$[rbp]
  00561	48 89 05 00 00
	00 00		 mov	 QWORD PTR glad_glGetBufferParameteri64v, rax

; 2361 :     glad_glGenSamplers = (PFNGLGENSAMPLERSPROC)load("glGenSamplers");

  00568	48 8d 0d 00 00
	00 00		 lea	 rcx, OFFSET FLAT:??_C@_0O@EMMLGGLG@glGenSamplers@
  0056f	ff 55 50	 call	 QWORD PTR load$[rbp]
  00572	48 89 05 00 00
	00 00		 mov	 QWORD PTR glad_glGenSamplers, rax

; 2362 :     glad_glDeleteSamplers = (PFNGLDELETESAMPLERSPROC)load("glDeleteSamplers");

  00579	48 8d 0d 00 00
	00 00		 lea	 rcx, OFFSET FLAT:??_C@_0BB@FLPAOEOO@glDeleteSamplers@
  00580	ff 55 50	 call	 QWORD PTR load$[rbp]
  00583	48 89 05 00 00
	00 00		 mov	 QWORD PTR glad_glDeleteSamplers, rax

; 2363 :     glad_glIsSampler = (PFNGLISSAMPLERPROC)load("glIsSampler");

  0058a	48 8d 0d 00 00
	00 00		 lea	 rcx, OFFSET FLAT:??_C@_0M@LAJKHOKJ@glIsSampler@
  00591	ff 55 50	 call	 QWORD PTR load$[rbp]
  00594	48 89 05 00 00
	00 00		 mov	 QWORD PTR glad_glIsSampler, rax

; 2364 :     glad_glBindSampler = (PFNGLBINDSAMPLERPROC)load("glBindSampler");

  0059b	48 8d 0d 00 00
	00 00		 lea	 rcx, OFFSET FLAT:??_C@_0O@PDEILAPG@glBindSampler@
  005a2	ff 55 50	 call	 QWORD PTR load$[rbp]
  005a5	48 89 05 00 00
	00 00		 mov	 QWORD PTR glad_glBindSampler, rax

; 2365 :     glad_glSamplerParameteri = (PFNGLSAMPLERPARAMETERIPROC)load("glSamplerParameteri");

  005ac	48 8d 0d 00 00
	00 00		 lea	 rcx, OFFSET FLAT:??_C@_0BE@KBCBMPJO@glSamplerParameteri@
  005b3	ff 55 50	 call	 QWORD PTR load$[rbp]
  005b6	48 89 05 00 00
	00 00		 mov	 QWORD PTR glad_glSamplerParameteri, rax

; 2366 :     glad_glSamplerParameteriv = (PFNGLSAMPLERPARAMETERIVPROC)load("glSamplerParameteriv");

  005bd	48 8d 0d 00 00
	00 00		 lea	 rcx, OFFSET FLAT:??_C@_0BF@GOHDEBPM@glSamplerParameteriv@
  005c4	ff 55 50	 call	 QWORD PTR load$[rbp]
  005c7	48 89 05 00 00
	00 00		 mov	 QWORD PTR glad_glSamplerParameteriv, rax

; 2367 :     glad_glSamplerParameterf = (PFNGLSAMPLERPARAMETERFPROC)load("glSamplerParameterf");

  005ce	48 8d 0d 00 00
	00 00		 lea	 rcx, OFFSET FLAT:??_C@_0BE@CGLJNDFB@glSamplerParameterf@
  005d5	ff 55 50	 call	 QWORD PTR load$[rbp]
  005d8	48 89 05 00 00
	00 00		 mov	 QWORD PTR glad_glSamplerParameterf, rax

; 2368 :     glad_glSamplerParameterfv = (PFNGLSAMPLERPARAMETERFVPROC)load("glSamplerParameterfv");

  005df	48 8d 0d 00 00
	00 00		 lea	 rcx, OFFSET FLAT:??_C@_0BF@GFCPAGMB@glSamplerParameterfv@
  005e6	ff 55 50	 call	 QWORD PTR load$[rbp]
  005e9	48 89 05 00 00
	00 00		 mov	 QWORD PTR glad_glSamplerParameterfv, rax

; 2369 :     glad_glGetSamplerParameteriv = (PFNGLGETSAMPLERPARAMETERIVPROC)load("glGetSamplerParameteriv");

  005f0	48 8d 0d 00 00
	00 00		 lea	 rcx, OFFSET FLAT:??_C@_0BI@FECAOLJP@glGetSamplerParameteriv@
  005f7	ff 55 50	 call	 QWORD PTR load$[rbp]
  005fa	48 89 05 00 00
	00 00		 mov	 QWORD PTR glad_glGetSamplerParameteriv, rax

; 2370 :     glad_glGetSamplerParameterfv = (PFNGLGETSAMPLERPARAMETERFVPROC)load("glGetSamplerParameterfv");

  00601	48 8d 0d 00 00
	00 00		 lea	 rcx, OFFSET FLAT:??_C@_0BI@FPHMKMKC@glGetSamplerParameterfv@
  00608	ff 55 50	 call	 QWORD PTR load$[rbp]
  0060b	48 89 05 00 00
	00 00		 mov	 QWORD PTR glad_glGetSamplerParameterfv, rax

; 2371 :     glad_glVertexAttribDivisor = (PFNGLVERTEXATTRIBDIVISORPROC)load("glVertexAttribDivisor");

  00612	48 8d 0d 00 00
	00 00		 lea	 rcx, OFFSET FLAT:??_C@_0BG@NEBMAEHM@glVertexAttribDivisor@
  00619	ff 55 50	 call	 QWORD PTR load$[rbp]
  0061c	48 89 05 00 00
	00 00		 mov	 QWORD PTR glad_glVertexAttribDivisor, rax

; 2372 :     glad_glBindTransformFeedback = (PFNGLBINDTRANSFORMFEEDBACKPROC)load("glBindTransformFeedback");

  00623	48 8d 0d 00 00
	00 00		 lea	 rcx, OFFSET FLAT:??_C@_0BI@BPJKLMIG@glBindTransformFeedback@
  0062a	ff 55 50	 call	 QWORD PTR load$[rbp]
  0062d	48 89 05 00 00
	00 00		 mov	 QWORD PTR glad_glBindTransformFeedback, rax

; 2373 :     glad_glDeleteTransformFeedbacks = (PFNGLDELETETRANSFORMFEEDBACKSPROC)load("glDeleteTransformFeedbacks");

  00634	48 8d 0d 00 00
	00 00		 lea	 rcx, OFFSET FLAT:??_C@_0BL@DIGEBFBK@glDeleteTransformFeedbacks@
  0063b	ff 55 50	 call	 QWORD PTR load$[rbp]
  0063e	48 89 05 00 00
	00 00		 mov	 QWORD PTR glad_glDeleteTransformFeedbacks, rax

; 2374 :     glad_glGenTransformFeedbacks = (PFNGLGENTRANSFORMFEEDBACKSPROC)load("glGenTransformFeedbacks");

  00645	48 8d 0d 00 00
	00 00		 lea	 rcx, OFFSET FLAT:??_C@_0BI@KANKBGAE@glGenTransformFeedbacks@
  0064c	ff 55 50	 call	 QWORD PTR load$[rbp]
  0064f	48 89 05 00 00
	00 00		 mov	 QWORD PTR glad_glGenTransformFeedbacks, rax

; 2375 :     glad_glIsTransformFeedback = (PFNGLISTRANSFORMFEEDBACKPROC)load("glIsTransformFeedback");

  00656	48 8d 0d 00 00
	00 00		 lea	 rcx, OFFSET FLAT:??_C@_0BG@BGFLKHBM@glIsTransformFeedback@
  0065d	ff 55 50	 call	 QWORD PTR load$[rbp]
  00660	48 89 05 00 00
	00 00		 mov	 QWORD PTR glad_glIsTransformFeedback, rax

; 2376 :     glad_glPauseTransformFeedback = (PFNGLPAUSETRANSFORMFEEDBACKPROC)load("glPauseTransformFeedback");

  00667	48 8d 0d 00 00
	00 00		 lea	 rcx, OFFSET FLAT:??_C@_0BJ@FFNLKBCB@glPauseTransformFeedback@
  0066e	ff 55 50	 call	 QWORD PTR load$[rbp]
  00671	48 89 05 00 00
	00 00		 mov	 QWORD PTR glad_glPauseTransformFeedback, rax

; 2377 :     glad_glResumeTransformFeedback = (PFNGLRESUMETRANSFORMFEEDBACKPROC)load("glResumeTransformFeedback");

  00678	48 8d 0d 00 00
	00 00		 lea	 rcx, OFFSET FLAT:??_C@_0BK@JMHONFHF@glResumeTransformFeedback@
  0067f	ff 55 50	 call	 QWORD PTR load$[rbp]
  00682	48 89 05 00 00
	00 00		 mov	 QWORD PTR glad_glResumeTransformFeedback, rax

; 2378 :     glad_glGetProgramBinary = (PFNGLGETPROGRAMBINARYPROC)load("glGetProgramBinary");

  00689	48 8d 0d 00 00
	00 00		 lea	 rcx, OFFSET FLAT:??_C@_0BD@JBCEHKON@glGetProgramBinary@
  00690	ff 55 50	 call	 QWORD PTR load$[rbp]
  00693	48 89 05 00 00
	00 00		 mov	 QWORD PTR glad_glGetProgramBinary, rax

; 2379 :     glad_glProgramBinary = (PFNGLPROGRAMBINARYPROC)load("glProgramBinary");

  0069a	48 8d 0d 00 00
	00 00		 lea	 rcx, OFFSET FLAT:??_C@_0BA@MIIDHOO@glProgramBinary@
  006a1	ff 55 50	 call	 QWORD PTR load$[rbp]
  006a4	48 89 05 00 00
	00 00		 mov	 QWORD PTR glad_glProgramBinary, rax

; 2380 :     glad_glProgramParameteri = (PFNGLPROGRAMPARAMETERIPROC)load("glProgramParameteri");

  006ab	48 8d 0d 00 00
	00 00		 lea	 rcx, OFFSET FLAT:??_C@_0BE@EELDBEME@glProgramParameteri@
  006b2	ff 55 50	 call	 QWORD PTR load$[rbp]
  006b5	48 89 05 00 00
	00 00		 mov	 QWORD PTR glad_glProgramParameteri, rax

; 2381 :     glad_glInvalidateFramebuffer = (PFNGLINVALIDATEFRAMEBUFFERPROC)load("glInvalidateFramebuffer");

  006bc	48 8d 0d 00 00
	00 00		 lea	 rcx, OFFSET FLAT:??_C@_0BI@OAJPOHIP@glInvalidateFramebuffer@
  006c3	ff 55 50	 call	 QWORD PTR load$[rbp]
  006c6	48 89 05 00 00
	00 00		 mov	 QWORD PTR glad_glInvalidateFramebuffer, rax

; 2382 :     glad_glInvalidateSubFramebuffer = (PFNGLINVALIDATESUBFRAMEBUFFERPROC)load("glInvalidateSubFramebuffer");

  006cd	48 8d 0d 00 00
	00 00		 lea	 rcx, OFFSET FLAT:??_C@_0BL@IHGLAPPE@glInvalidateSubFramebuffer@
  006d4	ff 55 50	 call	 QWORD PTR load$[rbp]
  006d7	48 89 05 00 00
	00 00		 mov	 QWORD PTR glad_glInvalidateSubFramebuffer, rax

; 2383 :     glad_glTexStorage2D = (PFNGLTEXSTORAGE2DPROC)load("glTexStorage2D");

  006de	48 8d 0d 00 00
	00 00		 lea	 rcx, OFFSET FLAT:??_C@_0P@LAPAEKEH@glTexStorage2D@
  006e5	ff 55 50	 call	 QWORD PTR load$[rbp]
  006e8	48 89 05 00 00
	00 00		 mov	 QWORD PTR glad_glTexStorage2D, rax

; 2384 :     glad_glTexStorage3D = (PFNGLTEXSTORAGE3DPROC)load("glTexStorage3D");

  006ef	48 8d 0d 00 00
	00 00		 lea	 rcx, OFFSET FLAT:??_C@_0P@LBDCCAHA@glTexStorage3D@
  006f6	ff 55 50	 call	 QWORD PTR load$[rbp]
  006f9	48 89 05 00 00
	00 00		 mov	 QWORD PTR glad_glTexStorage3D, rax

; 2385 :     glad_glGetInternalformativ = (PFNGLGETINTERNALFORMATIVPROC)load("glGetInternalformativ");

  00700	48 8d 0d 00 00
	00 00		 lea	 rcx, OFFSET FLAT:??_C@_0BG@BAOCDJPF@glGetInternalformativ@
  00707	ff 55 50	 call	 QWORD PTR load$[rbp]
  0070a	48 89 05 00 00
	00 00		 mov	 QWORD PTR glad_glGetInternalformativ, rax
$LN1@load_GL_ES:

; 2386 : }

  00711	48 8d 65 40	 lea	 rsp, QWORD PTR [rbp+64]
  00715	5d		 pop	 rbp
  00716	c3		 ret	 0
load_GL_ES_VERSION_3_0 ENDP
_TEXT	ENDS
; Function compile flags: /Odtp /ZI
; File D:\Programmer\GLenv\glad.c
;	COMDAT load_GL_ES_VERSION_2_0
_TEXT	SEGMENT
load$ = 80
load_GL_ES_VERSION_2_0 PROC				; COMDAT

; 2135 : static void load_GL_ES_VERSION_2_0(GLADloadproc load) {

  00000	48 89 4c 24 08	 mov	 QWORD PTR [rsp+8], rcx
  00005	55		 push	 rbp
  00006	48 83 ec 60	 sub	 rsp, 96			; 00000060H
  0000a	48 8d 6c 24 20	 lea	 rbp, QWORD PTR [rsp+32]
  0000f	48 8d 0d 00 00
	00 00		 lea	 rcx, OFFSET FLAT:__2B68C239_glad@c
  00016	e8 00 00 00 00	 call	 __CheckForDebuggerJustMyCode

; 2136 :     if (!GLAD_GL_ES_VERSION_2_0) return;

  0001b	83 3d 00 00 00
	00 00		 cmp	 DWORD PTR GLAD_GL_ES_VERSION_2_0, 0
  00022	75 05		 jne	 SHORT $LN2@load_GL_ES
  00024	e9 6e 09 00 00	 jmp	 $LN1@load_GL_ES
$LN2@load_GL_ES:

; 2137 :     glad_glActiveTexture = (PFNGLACTIVETEXTUREPROC)load("glActiveTexture");

  00029	48 8d 0d 00 00
	00 00		 lea	 rcx, OFFSET FLAT:??_C@_0BA@KOBBIKOF@glActiveTexture@
  00030	ff 55 50	 call	 QWORD PTR load$[rbp]
  00033	48 89 05 00 00
	00 00		 mov	 QWORD PTR glad_glActiveTexture, rax

; 2138 :     glad_glAttachShader = (PFNGLATTACHSHADERPROC)load("glAttachShader");

  0003a	48 8d 0d 00 00
	00 00		 lea	 rcx, OFFSET FLAT:??_C@_0P@LDMLEABL@glAttachShader@
  00041	ff 55 50	 call	 QWORD PTR load$[rbp]
  00044	48 89 05 00 00
	00 00		 mov	 QWORD PTR glad_glAttachShader, rax

; 2139 :     glad_glBindAttribLocation = (PFNGLBINDATTRIBLOCATIONPROC)load("glBindAttribLocation");

  0004b	48 8d 0d 00 00
	00 00		 lea	 rcx, OFFSET FLAT:??_C@_0BF@MHKEFIHM@glBindAttribLocation@
  00052	ff 55 50	 call	 QWORD PTR load$[rbp]
  00055	48 89 05 00 00
	00 00		 mov	 QWORD PTR glad_glBindAttribLocation, rax

; 2140 :     glad_glBindBuffer = (PFNGLBINDBUFFERPROC)load("glBindBuffer");

  0005c	48 8d 0d 00 00
	00 00		 lea	 rcx, OFFSET FLAT:??_C@_0N@BONEPPLO@glBindBuffer@
  00063	ff 55 50	 call	 QWORD PTR load$[rbp]
  00066	48 89 05 00 00
	00 00		 mov	 QWORD PTR glad_glBindBuffer, rax

; 2141 :     glad_glBindFramebuffer = (PFNGLBINDFRAMEBUFFERPROC)load("glBindFramebuffer");

  0006d	48 8d 0d 00 00
	00 00		 lea	 rcx, OFFSET FLAT:??_C@_0BC@CJMIBNO@glBindFramebuffer@
  00074	ff 55 50	 call	 QWORD PTR load$[rbp]
  00077	48 89 05 00 00
	00 00		 mov	 QWORD PTR glad_glBindFramebuffer, rax

; 2142 :     glad_glBindRenderbuffer = (PFNGLBINDRENDERBUFFERPROC)load("glBindRenderbuffer");

  0007e	48 8d 0d 00 00
	00 00		 lea	 rcx, OFFSET FLAT:??_C@_0BD@EPOPJGFA@glBindRenderbuffer@
  00085	ff 55 50	 call	 QWORD PTR load$[rbp]
  00088	48 89 05 00 00
	00 00		 mov	 QWORD PTR glad_glBindRenderbuffer, rax

; 2143 :     glad_glBindTexture = (PFNGLBINDTEXTUREPROC)load("glBindTexture");

  0008f	48 8d 0d 00 00
	00 00		 lea	 rcx, OFFSET FLAT:??_C@_0O@JKKCIBGC@glBindTexture@
  00096	ff 55 50	 call	 QWORD PTR load$[rbp]
  00099	48 89 05 00 00
	00 00		 mov	 QWORD PTR glad_glBindTexture, rax

; 2144 :     glad_glBlendColor = (PFNGLBLENDCOLORPROC)load("glBlendColor");

  000a0	48 8d 0d 00 00
	00 00		 lea	 rcx, OFFSET FLAT:??_C@_0N@PKBMFJDK@glBlendColor@
  000a7	ff 55 50	 call	 QWORD PTR load$[rbp]
  000aa	48 89 05 00 00
	00 00		 mov	 QWORD PTR glad_glBlendColor, rax

; 2145 :     glad_glBlendEquation = (PFNGLBLENDEQUATIONPROC)load("glBlendEquation");

  000b1	48 8d 0d 00 00
	00 00		 lea	 rcx, OFFSET FLAT:??_C@_0BA@PFHILPAN@glBlendEquation@
  000b8	ff 55 50	 call	 QWORD PTR load$[rbp]
  000bb	48 89 05 00 00
	00 00		 mov	 QWORD PTR glad_glBlendEquation, rax

; 2146 :     glad_glBlendEquationSeparate = (PFNGLBLENDEQUATIONSEPARATEPROC)load("glBlendEquationSeparate");

  000c2	48 8d 0d 00 00
	00 00		 lea	 rcx, OFFSET FLAT:??_C@_0BI@JNHDNJAG@glBlendEquationSeparate@
  000c9	ff 55 50	 call	 QWORD PTR load$[rbp]
  000cc	48 89 05 00 00
	00 00		 mov	 QWORD PTR glad_glBlendEquationSeparate, rax

; 2147 :     glad_glBlendFunc = (PFNGLBLENDFUNCPROC)load("glBlendFunc");

  000d3	48 8d 0d 00 00
	00 00		 lea	 rcx, OFFSET FLAT:??_C@_0M@PFBKOKOH@glBlendFunc@
  000da	ff 55 50	 call	 QWORD PTR load$[rbp]
  000dd	48 89 05 00 00
	00 00		 mov	 QWORD PTR glad_glBlendFunc, rax

; 2148 :     glad_glBlendFuncSeparate = (PFNGLBLENDFUNCSEPARATEPROC)load("glBlendFuncSeparate");

  000e4	48 8d 0d 00 00
	00 00		 lea	 rcx, OFFSET FLAT:??_C@_0BE@LLLCIIOO@glBlendFuncSeparate@
  000eb	ff 55 50	 call	 QWORD PTR load$[rbp]
  000ee	48 89 05 00 00
	00 00		 mov	 QWORD PTR glad_glBlendFuncSeparate, rax

; 2149 :     glad_glBufferData = (PFNGLBUFFERDATAPROC)load("glBufferData");

  000f5	48 8d 0d 00 00
	00 00		 lea	 rcx, OFFSET FLAT:??_C@_0N@JHHJMABP@glBufferData@
  000fc	ff 55 50	 call	 QWORD PTR load$[rbp]
  000ff	48 89 05 00 00
	00 00		 mov	 QWORD PTR glad_glBufferData, rax

; 2150 :     glad_glBufferSubData = (PFNGLBUFFERSUBDATAPROC)load("glBufferSubData");

  00106	48 8d 0d 00 00
	00 00		 lea	 rcx, OFFSET FLAT:??_C@_0BA@GAJMDBBN@glBufferSubData@
  0010d	ff 55 50	 call	 QWORD PTR load$[rbp]
  00110	48 89 05 00 00
	00 00		 mov	 QWORD PTR glad_glBufferSubData, rax

; 2151 :     glad_glCheckFramebufferStatus = (PFNGLCHECKFRAMEBUFFERSTATUSPROC)load("glCheckFramebufferStatus");

  00117	48 8d 0d 00 00
	00 00		 lea	 rcx, OFFSET FLAT:??_C@_0BJ@GIOLHEAD@glCheckFramebufferStatus@
  0011e	ff 55 50	 call	 QWORD PTR load$[rbp]
  00121	48 89 05 00 00
	00 00		 mov	 QWORD PTR glad_glCheckFramebufferStatus, rax

; 2152 :     glad_glClear = (PFNGLCLEARPROC)load("glClear");

  00128	48 8d 0d 00 00
	00 00		 lea	 rcx, OFFSET FLAT:??_C@_07IBAPPAHJ@glClear@
  0012f	ff 55 50	 call	 QWORD PTR load$[rbp]
  00132	48 89 05 00 00
	00 00		 mov	 QWORD PTR glad_glClear, rax

; 2153 :     glad_glClearColor = (PFNGLCLEARCOLORPROC)load("glClearColor");

  00139	48 8d 0d 00 00
	00 00		 lea	 rcx, OFFSET FLAT:??_C@_0N@OGLMDNKC@glClearColor@
  00140	ff 55 50	 call	 QWORD PTR load$[rbp]
  00143	48 89 05 00 00
	00 00		 mov	 QWORD PTR glad_glClearColor, rax

; 2154 :     glad_glClearDepthf = (PFNGLCLEARDEPTHFPROC)load("glClearDepthf");

  0014a	48 8d 0d 00 00
	00 00		 lea	 rcx, OFFSET FLAT:??_C@_0O@FMBMCDIL@glClearDepthf@
  00151	ff 55 50	 call	 QWORD PTR load$[rbp]
  00154	48 89 05 00 00
	00 00		 mov	 QWORD PTR glad_glClearDepthf, rax

; 2155 :     glad_glClearStencil = (PFNGLCLEARSTENCILPROC)load("glClearStencil");

  0015b	48 8d 0d 00 00
	00 00		 lea	 rcx, OFFSET FLAT:??_C@_0P@KBLPBBFP@glClearStencil@
  00162	ff 55 50	 call	 QWORD PTR load$[rbp]
  00165	48 89 05 00 00
	00 00		 mov	 QWORD PTR glad_glClearStencil, rax

; 2156 :     glad_glColorMask = (PFNGLCOLORMASKPROC)load("glColorMask");

  0016c	48 8d 0d 00 00
	00 00		 lea	 rcx, OFFSET FLAT:??_C@_0M@DLGOAHPH@glColorMask@
  00173	ff 55 50	 call	 QWORD PTR load$[rbp]
  00176	48 89 05 00 00
	00 00		 mov	 QWORD PTR glad_glColorMask, rax

; 2157 :     glad_glCompileShader = (PFNGLCOMPILESHADERPROC)load("glCompileShader");

  0017d	48 8d 0d 00 00
	00 00		 lea	 rcx, OFFSET FLAT:??_C@_0BA@DGIEGONF@glCompileShader@
  00184	ff 55 50	 call	 QWORD PTR load$[rbp]
  00187	48 89 05 00 00
	00 00		 mov	 QWORD PTR glad_glCompileShader, rax

; 2158 :     glad_glCompressedTexImage2D = (PFNGLCOMPRESSEDTEXIMAGE2DPROC)load("glCompressedTexImage2D");

  0018e	48 8d 0d 00 00
	00 00		 lea	 rcx, OFFSET FLAT:??_C@_0BH@GHLPKKFI@glCompressedTexImage2D@
  00195	ff 55 50	 call	 QWORD PTR load$[rbp]
  00198	48 89 05 00 00
	00 00		 mov	 QWORD PTR glad_glCompressedTexImage2D, rax

; 2159 :     glad_glCompressedTexSubImage2D = (PFNGLCOMPRESSEDTEXSUBIMAGE2DPROC)load("glCompressedTexSubImage2D");

  0019f	48 8d 0d 00 00
	00 00		 lea	 rcx, OFFSET FLAT:??_C@_0BK@EAFOEJMH@glCompressedTexSubImage2D@
  001a6	ff 55 50	 call	 QWORD PTR load$[rbp]
  001a9	48 89 05 00 00
	00 00		 mov	 QWORD PTR glad_glCompressedTexSubImage2D, rax

; 2160 :     glad_glCopyTexImage2D = (PFNGLCOPYTEXIMAGE2DPROC)load("glCopyTexImage2D");

  001b0	48 8d 0d 00 00
	00 00		 lea	 rcx, OFFSET FLAT:??_C@_0BB@MGAFKJKC@glCopyTexImage2D@
  001b7	ff 55 50	 call	 QWORD PTR load$[rbp]
  001ba	48 89 05 00 00
	00 00		 mov	 QWORD PTR glad_glCopyTexImage2D, rax

; 2161 :     glad_glCopyTexSubImage2D = (PFNGLCOPYTEXSUBIMAGE2DPROC)load("glCopyTexSubImage2D");

  001c1	48 8d 0d 00 00
	00 00		 lea	 rcx, OFFSET FLAT:??_C@_0BE@PIJELGDB@glCopyTexSubImage2D@
  001c8	ff 55 50	 call	 QWORD PTR load$[rbp]
  001cb	48 89 05 00 00
	00 00		 mov	 QWORD PTR glad_glCopyTexSubImage2D, rax

; 2162 :     glad_glCreateProgram = (PFNGLCREATEPROGRAMPROC)load("glCreateProgram");

  001d2	48 8d 0d 00 00
	00 00		 lea	 rcx, OFFSET FLAT:??_C@_0BA@FLKLHNKP@glCreateProgram@
  001d9	ff 55 50	 call	 QWORD PTR load$[rbp]
  001dc	48 89 05 00 00
	00 00		 mov	 QWORD PTR glad_glCreateProgram, rax

; 2163 :     glad_glCreateShader = (PFNGLCREATESHADERPROC)load("glCreateShader");

  001e3	48 8d 0d 00 00
	00 00		 lea	 rcx, OFFSET FLAT:??_C@_0P@HGHBNC@glCreateShader@
  001ea	ff 55 50	 call	 QWORD PTR load$[rbp]
  001ed	48 89 05 00 00
	00 00		 mov	 QWORD PTR glad_glCreateShader, rax

; 2164 :     glad_glCullFace = (PFNGLCULLFACEPROC)load("glCullFace");

  001f4	48 8d 0d 00 00
	00 00		 lea	 rcx, OFFSET FLAT:??_C@_0L@BAPBLHME@glCullFace@
  001fb	ff 55 50	 call	 QWORD PTR load$[rbp]
  001fe	48 89 05 00 00
	00 00		 mov	 QWORD PTR glad_glCullFace, rax

; 2165 :     glad_glDeleteBuffers = (PFNGLDELETEBUFFERSPROC)load("glDeleteBuffers");

  00205	48 8d 0d 00 00
	00 00		 lea	 rcx, OFFSET FLAT:??_C@_0BA@DMNLADIO@glDeleteBuffers@
  0020c	ff 55 50	 call	 QWORD PTR load$[rbp]
  0020f	48 89 05 00 00
	00 00		 mov	 QWORD PTR glad_glDeleteBuffers, rax

; 2166 :     glad_glDeleteFramebuffers = (PFNGLDELETEFRAMEBUFFERSPROC)load("glDeleteFramebuffers");

  00216	48 8d 0d 00 00
	00 00		 lea	 rcx, OFFSET FLAT:??_C@_0BF@DJNJENP@glDeleteFramebuffers@
  0021d	ff 55 50	 call	 QWORD PTR load$[rbp]
  00220	48 89 05 00 00
	00 00		 mov	 QWORD PTR glad_glDeleteFramebuffers, rax

; 2167 :     glad_glDeleteProgram = (PFNGLDELETEPROGRAMPROC)load("glDeleteProgram");

  00227	48 8d 0d 00 00
	00 00		 lea	 rcx, OFFSET FLAT:??_C@_0BA@NKGCDOPO@glDeleteProgram@
  0022e	ff 55 50	 call	 QWORD PTR load$[rbp]
  00231	48 89 05 00 00
	00 00		 mov	 QWORD PTR glad_glDeleteProgram, rax

; 2168 :     glad_glDeleteRenderbuffers = (PFNGLDELETERENDERBUFFERSPROC)load("glDeleteRenderbuffers");

  00238	48 8d 0d 00 00
	00 00		 lea	 rcx, OFFSET FLAT:??_C@_0BG@KKOKEJDE@glDeleteRenderbuffers@
  0023f	ff 55 50	 call	 QWORD PTR load$[rbp]
  00242	48 89 05 00 00
	00 00		 mov	 QWORD PTR glad_glDeleteRenderbuffers, rax

; 2169 :     glad_glDeleteShader = (PFNGLDELETESHADERPROC)load("glDeleteShader");

  00249	48 8d 0d 00 00
	00 00		 lea	 rcx, OFFSET FLAT:??_C@_0P@HHCDONAG@glDeleteShader@
  00250	ff 55 50	 call	 QWORD PTR load$[rbp]
  00253	48 89 05 00 00
	00 00		 mov	 QWORD PTR glad_glDeleteShader, rax

; 2170 :     glad_glDeleteTextures = (PFNGLDELETETEXTURESPROC)load("glDeleteTextures");

  0025a	48 8d 0d 00 00
	00 00		 lea	 rcx, OFFSET FLAT:??_C@_0BB@KMPLFJIC@glDeleteTextures@
  00261	ff 55 50	 call	 QWORD PTR load$[rbp]
  00264	48 89 05 00 00
	00 00		 mov	 QWORD PTR glad_glDeleteTextures, rax

; 2171 :     glad_glDepthFunc = (PFNGLDEPTHFUNCPROC)load("glDepthFunc");

  0026b	48 8d 0d 00 00
	00 00		 lea	 rcx, OFFSET FLAT:??_C@_0M@NEJABAEP@glDepthFunc@
  00272	ff 55 50	 call	 QWORD PTR load$[rbp]
  00275	48 89 05 00 00
	00 00		 mov	 QWORD PTR glad_glDepthFunc, rax

; 2172 :     glad_glDepthMask = (PFNGLDEPTHMASKPROC)load("glDepthMask");

  0027c	48 8d 0d 00 00
	00 00		 lea	 rcx, OFFSET FLAT:??_C@_0M@KABMFLLN@glDepthMask@
  00283	ff 55 50	 call	 QWORD PTR load$[rbp]
  00286	48 89 05 00 00
	00 00		 mov	 QWORD PTR glad_glDepthMask, rax

; 2173 :     glad_glDepthRangef = (PFNGLDEPTHRANGEFPROC)load("glDepthRangef");

  0028d	48 8d 0d 00 00
	00 00		 lea	 rcx, OFFSET FLAT:??_C@_0O@JDFJDNND@glDepthRangef@
  00294	ff 55 50	 call	 QWORD PTR load$[rbp]
  00297	48 89 05 00 00
	00 00		 mov	 QWORD PTR glad_glDepthRangef, rax

; 2174 :     glad_glDetachShader = (PFNGLDETACHSHADERPROC)load("glDetachShader");

  0029e	48 8d 0d 00 00
	00 00		 lea	 rcx, OFFSET FLAT:??_C@_0P@DJFJFCJL@glDetachShader@
  002a5	ff 55 50	 call	 QWORD PTR load$[rbp]
  002a8	48 89 05 00 00
	00 00		 mov	 QWORD PTR glad_glDetachShader, rax

; 2175 :     glad_glDisable = (PFNGLDISABLEPROC)load("glDisable");

  002af	48 8d 0d 00 00
	00 00		 lea	 rcx, OFFSET FLAT:??_C@_09MHGMIMKN@glDisable@
  002b6	ff 55 50	 call	 QWORD PTR load$[rbp]
  002b9	48 89 05 00 00
	00 00		 mov	 QWORD PTR glad_glDisable, rax

; 2176 :     glad_glDisableVertexAttribArray = (PFNGLDISABLEVERTEXATTRIBARRAYPROC)load("glDisableVertexAttribArray");

  002c0	48 8d 0d 00 00
	00 00		 lea	 rcx, OFFSET FLAT:??_C@_0BL@NKHLOFFF@glDisableVertexAttribArray@
  002c7	ff 55 50	 call	 QWORD PTR load$[rbp]
  002ca	48 89 05 00 00
	00 00		 mov	 QWORD PTR glad_glDisableVertexAttribArray, rax

; 2177 :     glad_glDrawArrays = (PFNGLDRAWARRAYSPROC)load("glDrawArrays");

  002d1	48 8d 0d 00 00
	00 00		 lea	 rcx, OFFSET FLAT:??_C@_0N@CMNPPOHA@glDrawArrays@
  002d8	ff 55 50	 call	 QWORD PTR load$[rbp]
  002db	48 89 05 00 00
	00 00		 mov	 QWORD PTR glad_glDrawArrays, rax

; 2178 :     glad_glDrawElements = (PFNGLDRAWELEMENTSPROC)load("glDrawElements");

  002e2	48 8d 0d 00 00
	00 00		 lea	 rcx, OFFSET FLAT:??_C@_0P@MENFIFGE@glDrawElements@
  002e9	ff 55 50	 call	 QWORD PTR load$[rbp]
  002ec	48 89 05 00 00
	00 00		 mov	 QWORD PTR glad_glDrawElements, rax

; 2179 :     glad_glEnable = (PFNGLENABLEPROC)load("glEnable");

  002f3	48 8d 0d 00 00
	00 00		 lea	 rcx, OFFSET FLAT:??_C@_08OOEHEKOP@glEnable@
  002fa	ff 55 50	 call	 QWORD PTR load$[rbp]
  002fd	48 89 05 00 00
	00 00		 mov	 QWORD PTR glad_glEnable, rax

; 2180 :     glad_glEnableVertexAttribArray = (PFNGLENABLEVERTEXATTRIBARRAYPROC)load("glEnableVertexAttribArray");

  00304	48 8d 0d 00 00
	00 00		 lea	 rcx, OFFSET FLAT:??_C@_0BK@EHBAHNHE@glEnableVertexAttribArray@
  0030b	ff 55 50	 call	 QWORD PTR load$[rbp]
  0030e	48 89 05 00 00
	00 00		 mov	 QWORD PTR glad_glEnableVertexAttribArray, rax

; 2181 :     glad_glFinish = (PFNGLFINISHPROC)load("glFinish");

  00315	48 8d 0d 00 00
	00 00		 lea	 rcx, OFFSET FLAT:??_C@_08DFCPOKBK@glFinish@
  0031c	ff 55 50	 call	 QWORD PTR load$[rbp]
  0031f	48 89 05 00 00
	00 00		 mov	 QWORD PTR glad_glFinish, rax

; 2182 :     glad_glFlush = (PFNGLFLUSHPROC)load("glFlush");

  00326	48 8d 0d 00 00
	00 00		 lea	 rcx, OFFSET FLAT:??_C@_07COFELLJA@glFlush@
  0032d	ff 55 50	 call	 QWORD PTR load$[rbp]
  00330	48 89 05 00 00
	00 00		 mov	 QWORD PTR glad_glFlush, rax

; 2183 :     glad_glFramebufferRenderbuffer = (PFNGLFRAMEBUFFERRENDERBUFFERPROC)load("glFramebufferRenderbuffer");

  00337	48 8d 0d 00 00
	00 00		 lea	 rcx, OFFSET FLAT:??_C@_0BK@OJDINAOA@glFramebufferRenderbuffer@
  0033e	ff 55 50	 call	 QWORD PTR load$[rbp]
  00341	48 89 05 00 00
	00 00		 mov	 QWORD PTR glad_glFramebufferRenderbuffer, rax

; 2184 :     glad_glFramebufferTexture2D = (PFNGLFRAMEBUFFERTEXTURE2DPROC)load("glFramebufferTexture2D");

  00348	48 8d 0d 00 00
	00 00		 lea	 rcx, OFFSET FLAT:??_C@_0BH@JCIFGDEF@glFramebufferTexture2D@
  0034f	ff 55 50	 call	 QWORD PTR load$[rbp]
  00352	48 89 05 00 00
	00 00		 mov	 QWORD PTR glad_glFramebufferTexture2D, rax

; 2185 :     glad_glFrontFace = (PFNGLFRONTFACEPROC)load("glFrontFace");

  00359	48 8d 0d 00 00
	00 00		 lea	 rcx, OFFSET FLAT:??_C@_0M@ILBMDJDA@glFrontFace@
  00360	ff 55 50	 call	 QWORD PTR load$[rbp]
  00363	48 89 05 00 00
	00 00		 mov	 QWORD PTR glad_glFrontFace, rax

; 2186 :     glad_glGenBuffers = (PFNGLGENBUFFERSPROC)load("glGenBuffers");

  0036a	48 8d 0d 00 00
	00 00		 lea	 rcx, OFFSET FLAT:??_C@_0N@LAOHBIBA@glGenBuffers@
  00371	ff 55 50	 call	 QWORD PTR load$[rbp]
  00374	48 89 05 00 00
	00 00		 mov	 QWORD PTR glad_glGenBuffers, rax

; 2187 :     glad_glGenerateMipmap = (PFNGLGENERATEMIPMAPPROC)load("glGenerateMipmap");

  0037b	48 8d 0d 00 00
	00 00		 lea	 rcx, OFFSET FLAT:??_C@_0BB@BHNIMGDM@glGenerateMipmap@
  00382	ff 55 50	 call	 QWORD PTR load$[rbp]
  00385	48 89 05 00 00
	00 00		 mov	 QWORD PTR glad_glGenerateMipmap, rax

; 2188 :     glad_glGenFramebuffers = (PFNGLGENFRAMEBUFFERSPROC)load("glGenFramebuffers");

  0038c	48 8d 0d 00 00
	00 00		 lea	 rcx, OFFSET FLAT:??_C@_0BC@FAPEBGID@glGenFramebuffers@
  00393	ff 55 50	 call	 QWORD PTR load$[rbp]
  00396	48 89 05 00 00
	00 00		 mov	 QWORD PTR glad_glGenFramebuffers, rax

; 2189 :     glad_glGenRenderbuffers = (PFNGLGENRENDERBUFFERSPROC)load("glGenRenderbuffers");

  0039d	48 8d 0d 00 00
	00 00		 lea	 rcx, OFFSET FLAT:??_C@_0BD@MIGEDNGJ@glGenRenderbuffers@
  003a4	ff 55 50	 call	 QWORD PTR load$[rbp]
  003a7	48 89 05 00 00
	00 00		 mov	 QWORD PTR glad_glGenRenderbuffers, rax

; 2190 :     glad_glGenTextures = (PFNGLGENTEXTURESPROC)load("glGenTextures");

  003ae	48 8d 0d 00 00
	00 00		 lea	 rcx, OFFSET FLAT:??_C@_0O@LLMANLNK@glGenTextures@
  003b5	ff 55 50	 call	 QWORD PTR load$[rbp]
  003b8	48 89 05 00 00
	00 00		 mov	 QWORD PTR glad_glGenTextures, rax

; 2191 :     glad_glGetActiveAttrib = (PFNGLGETACTIVEATTRIBPROC)load("glGetActiveAttrib");

  003bf	48 8d 0d 00 00
	00 00		 lea	 rcx, OFFSET FLAT:??_C@_0BC@MBALAOHF@glGetActiveAttrib@
  003c6	ff 55 50	 call	 QWORD PTR load$[rbp]
  003c9	48 89 05 00 00
	00 00		 mov	 QWORD PTR glad_glGetActiveAttrib, rax

; 2192 :     glad_glGetActiveUniform = (PFNGLGETACTIVEUNIFORMPROC)load("glGetActiveUniform");

  003d0	48 8d 0d 00 00
	00 00		 lea	 rcx, OFFSET FLAT:??_C@_0BD@NIMHLLKN@glGetActiveUniform@
  003d7	ff 55 50	 call	 QWORD PTR load$[rbp]
  003da	48 89 05 00 00
	00 00		 mov	 QWORD PTR glad_glGetActiveUniform, rax

; 2193 :     glad_glGetAttachedShaders = (PFNGLGETATTACHEDSHADERSPROC)load("glGetAttachedShaders");

  003e1	48 8d 0d 00 00
	00 00		 lea	 rcx, OFFSET FLAT:??_C@_0BF@GHMDGFEM@glGetAttachedShaders@
  003e8	ff 55 50	 call	 QWORD PTR load$[rbp]
  003eb	48 89 05 00 00
	00 00		 mov	 QWORD PTR glad_glGetAttachedShaders, rax

; 2194 :     glad_glGetAttribLocation = (PFNGLGETATTRIBLOCATIONPROC)load("glGetAttribLocation");

  003f2	48 8d 0d 00 00
	00 00		 lea	 rcx, OFFSET FLAT:??_C@_0BE@BEPGJDMM@glGetAttribLocation@
  003f9	ff 55 50	 call	 QWORD PTR load$[rbp]
  003fc	48 89 05 00 00
	00 00		 mov	 QWORD PTR glad_glGetAttribLocation, rax

; 2195 :     glad_glGetBooleanv = (PFNGLGETBOOLEANVPROC)load("glGetBooleanv");

  00403	48 8d 0d 00 00
	00 00		 lea	 rcx, OFFSET FLAT:??_C@_0O@NLMELLCJ@glGetBooleanv@
  0040a	ff 55 50	 call	 QWORD PTR load$[rbp]
  0040d	48 89 05 00 00
	00 00		 mov	 QWORD PTR glad_glGetBooleanv, rax

; 2196 :     glad_glGetBufferParameteriv = (PFNGLGETBUFFERPARAMETERIVPROC)load("glGetBufferParameteriv");

  00414	48 8d 0d 00 00
	00 00		 lea	 rcx, OFFSET FLAT:??_C@_0BH@BMIEIFJP@glGetBufferParameteriv@
  0041b	ff 55 50	 call	 QWORD PTR load$[rbp]
  0041e	48 89 05 00 00
	00 00		 mov	 QWORD PTR glad_glGetBufferParameteriv, rax

; 2197 :     glad_glGetError = (PFNGLGETERRORPROC)load("glGetError");

  00425	48 8d 0d 00 00
	00 00		 lea	 rcx, OFFSET FLAT:??_C@_0L@FPKAMKHB@glGetError@
  0042c	ff 55 50	 call	 QWORD PTR load$[rbp]
  0042f	48 89 05 00 00
	00 00		 mov	 QWORD PTR glad_glGetError, rax

; 2198 :     glad_glGetFloatv = (PFNGLGETFLOATVPROC)load("glGetFloatv");

  00436	48 8d 0d 00 00
	00 00		 lea	 rcx, OFFSET FLAT:??_C@_0M@CKCOBONE@glGetFloatv@
  0043d	ff 55 50	 call	 QWORD PTR load$[rbp]
  00440	48 89 05 00 00
	00 00		 mov	 QWORD PTR glad_glGetFloatv, rax

; 2199 :     glad_glGetFramebufferAttachmentParameteriv = (PFNGLGETFRAMEBUFFERATTACHMENTPARAMETERIVPROC)load("glGetFramebufferAttachmentParameteriv");

  00447	48 8d 0d 00 00
	00 00		 lea	 rcx, OFFSET FLAT:??_C@_0CG@KLDGJEON@glGetFramebufferAttachmentParam@
  0044e	ff 55 50	 call	 QWORD PTR load$[rbp]
  00451	48 89 05 00 00
	00 00		 mov	 QWORD PTR glad_glGetFramebufferAttachmentParameteriv, rax

; 2200 :     glad_glGetIntegerv = (PFNGLGETINTEGERVPROC)load("glGetIntegerv");

  00458	48 8d 0d 00 00
	00 00		 lea	 rcx, OFFSET FLAT:??_C@_0O@DHHDCCLF@glGetIntegerv@
  0045f	ff 55 50	 call	 QWORD PTR load$[rbp]
  00462	48 89 05 00 00
	00 00		 mov	 QWORD PTR glad_glGetIntegerv, rax

; 2201 :     glad_glGetProgramiv = (PFNGLGETPROGRAMIVPROC)load("glGetProgramiv");

  00469	48 8d 0d 00 00
	00 00		 lea	 rcx, OFFSET FLAT:??_C@_0P@FMMDFLCO@glGetProgramiv@
  00470	ff 55 50	 call	 QWORD PTR load$[rbp]
  00473	48 89 05 00 00
	00 00		 mov	 QWORD PTR glad_glGetProgramiv, rax

; 2202 :     glad_glGetProgramInfoLog = (PFNGLGETPROGRAMINFOLOGPROC)load("glGetProgramInfoLog");

  0047a	48 8d 0d 00 00
	00 00		 lea	 rcx, OFFSET FLAT:??_C@_0BE@DHGHAJFL@glGetProgramInfoLog@
  00481	ff 55 50	 call	 QWORD PTR load$[rbp]
  00484	48 89 05 00 00
	00 00		 mov	 QWORD PTR glad_glGetProgramInfoLog, rax

; 2203 :     glad_glGetRenderbufferParameteriv = (PFNGLGETRENDERBUFFERPARAMETERIVPROC)load("glGetRenderbufferParameteriv");

  0048b	48 8d 0d 00 00
	00 00		 lea	 rcx, OFFSET FLAT:??_C@_0BN@FGKAECKO@glGetRenderbufferParameteriv@
  00492	ff 55 50	 call	 QWORD PTR load$[rbp]
  00495	48 89 05 00 00
	00 00		 mov	 QWORD PTR glad_glGetRenderbufferParameteriv, rax

; 2204 :     glad_glGetShaderiv = (PFNGLGETSHADERIVPROC)load("glGetShaderiv");

  0049c	48 8d 0d 00 00
	00 00		 lea	 rcx, OFFSET FLAT:??_C@_0O@JBDFPDMG@glGetShaderiv@
  004a3	ff 55 50	 call	 QWORD PTR load$[rbp]
  004a6	48 89 05 00 00
	00 00		 mov	 QWORD PTR glad_glGetShaderiv, rax

; 2205 :     glad_glGetShaderInfoLog = (PFNGLGETSHADERINFOLOGPROC)load("glGetShaderInfoLog");

  004ad	48 8d 0d 00 00
	00 00		 lea	 rcx, OFFSET FLAT:??_C@_0BD@GIABBCMO@glGetShaderInfoLog@
  004b4	ff 55 50	 call	 QWORD PTR load$[rbp]
  004b7	48 89 05 00 00
	00 00		 mov	 QWORD PTR glad_glGetShaderInfoLog, rax

; 2206 :     glad_glGetShaderPrecisionFormat = (PFNGLGETSHADERPRECISIONFORMATPROC)load("glGetShaderPrecisionFormat");

  004be	48 8d 0d 00 00
	00 00		 lea	 rcx, OFFSET FLAT:??_C@_0BL@MLAOOHPD@glGetShaderPrecisionFormat@
  004c5	ff 55 50	 call	 QWORD PTR load$[rbp]
  004c8	48 89 05 00 00
	00 00		 mov	 QWORD PTR glad_glGetShaderPrecisionFormat, rax

; 2207 :     glad_glGetShaderSource = (PFNGLGETSHADERSOURCEPROC)load("glGetShaderSource");

  004cf	48 8d 0d 00 00
	00 00		 lea	 rcx, OFFSET FLAT:??_C@_0BC@ELEIFJEL@glGetShaderSource@
  004d6	ff 55 50	 call	 QWORD PTR load$[rbp]
  004d9	48 89 05 00 00
	00 00		 mov	 QWORD PTR glad_glGetShaderSource, rax

; 2208 :     glad_glGetString = (PFNGLGETSTRINGPROC)load("glGetString");

  004e0	48 8d 0d 00 00
	00 00		 lea	 rcx, OFFSET FLAT:??_C@_0M@OPOBFDCB@glGetString@
  004e7	ff 55 50	 call	 QWORD PTR load$[rbp]
  004ea	48 89 05 00 00
	00 00		 mov	 QWORD PTR glad_glGetString, rax

; 2209 :     glad_glGetTexParameterfv = (PFNGLGETTEXPARAMETERFVPROC)load("glGetTexParameterfv");

  004f1	48 8d 0d 00 00
	00 00		 lea	 rcx, OFFSET FLAT:??_C@_0BE@DNHBPKMC@glGetTexParameterfv@
  004f8	ff 55 50	 call	 QWORD PTR load$[rbp]
  004fb	48 89 05 00 00
	00 00		 mov	 QWORD PTR glad_glGetTexParameterfv, rax

; 2210 :     glad_glGetTexParameteriv = (PFNGLGETTEXPARAMETERIVPROC)load("glGetTexParameteriv");

  00502	48 8d 0d 00 00
	00 00		 lea	 rcx, OFFSET FLAT:??_C@_0BE@DGCNLNPP@glGetTexParameteriv@
  00509	ff 55 50	 call	 QWORD PTR load$[rbp]
  0050c	48 89 05 00 00
	00 00		 mov	 QWORD PTR glad_glGetTexParameteriv, rax

; 2211 :     glad_glGetUniformfv = (PFNGLGETUNIFORMFVPROC)load("glGetUniformfv");

  00513	48 8d 0d 00 00
	00 00		 lea	 rcx, OFFSET FLAT:??_C@_0P@DFCJIBG@glGetUniformfv@
  0051a	ff 55 50	 call	 QWORD PTR load$[rbp]
  0051d	48 89 05 00 00
	00 00		 mov	 QWORD PTR glad_glGetUniformfv, rax

; 2212 :     glad_glGetUniformiv = (PFNGLGETUNIFORMIVPROC)load("glGetUniformiv");

  00524	48 8d 0d 00 00
	00 00		 lea	 rcx, OFFSET FLAT:??_C@_0P@IAONPCL@glGetUniformiv@
  0052b	ff 55 50	 call	 QWORD PTR load$[rbp]
  0052e	48 89 05 00 00
	00 00		 mov	 QWORD PTR glad_glGetUniformiv, rax

; 2213 :     glad_glGetUniformLocation = (PFNGLGETUNIFORMLOCATIONPROC)load("glGetUniformLocation");

  00535	48 8d 0d 00 00
	00 00		 lea	 rcx, OFFSET FLAT:??_C@_0BF@KIOPGICP@glGetUniformLocation@
  0053c	ff 55 50	 call	 QWORD PTR load$[rbp]
  0053f	48 89 05 00 00
	00 00		 mov	 QWORD PTR glad_glGetUniformLocation, rax

; 2214 :     glad_glGetVertexAttribfv = (PFNGLGETVERTEXATTRIBFVPROC)load("glGetVertexAttribfv");

  00546	48 8d 0d 00 00
	00 00		 lea	 rcx, OFFSET FLAT:??_C@_0BE@HAHIEIOD@glGetVertexAttribfv@
  0054d	ff 55 50	 call	 QWORD PTR load$[rbp]
  00550	48 89 05 00 00
	00 00		 mov	 QWORD PTR glad_glGetVertexAttribfv, rax

; 2215 :     glad_glGetVertexAttribiv = (PFNGLGETVERTEXATTRIBIVPROC)load("glGetVertexAttribiv");

  00557	48 8d 0d 00 00
	00 00		 lea	 rcx, OFFSET FLAT:??_C@_0BE@HLCEAPNO@glGetVertexAttribiv@
  0055e	ff 55 50	 call	 QWORD PTR load$[rbp]
  00561	48 89 05 00 00
	00 00		 mov	 QWORD PTR glad_glGetVertexAttribiv, rax

; 2216 :     glad_glGetVertexAttribPointerv = (PFNGLGETVERTEXATTRIBPOINTERVPROC)load("glGetVertexAttribPointerv");

  00568	48 8d 0d 00 00
	00 00		 lea	 rcx, OFFSET FLAT:??_C@_0BK@DOJMENLD@glGetVertexAttribPointerv@
  0056f	ff 55 50	 call	 QWORD PTR load$[rbp]
  00572	48 89 05 00 00
	00 00		 mov	 QWORD PTR glad_glGetVertexAttribPointerv, rax

; 2217 :     glad_glHint = (PFNGLHINTPROC)load("glHint");

  00579	48 8d 0d 00 00
	00 00		 lea	 rcx, OFFSET FLAT:??_C@_06HEADGMBC@glHint@
  00580	ff 55 50	 call	 QWORD PTR load$[rbp]
  00583	48 89 05 00 00
	00 00		 mov	 QWORD PTR glad_glHint, rax

; 2218 :     glad_glIsBuffer = (PFNGLISBUFFERPROC)load("glIsBuffer");

  0058a	48 8d 0d 00 00
	00 00		 lea	 rcx, OFFSET FLAT:??_C@_0L@KFPDMKNG@glIsBuffer@
  00591	ff 55 50	 call	 QWORD PTR load$[rbp]
  00594	48 89 05 00 00
	00 00		 mov	 QWORD PTR glad_glIsBuffer, rax

; 2219 :     glad_glIsEnabled = (PFNGLISENABLEDPROC)load("glIsEnabled");

  0059b	48 8d 0d 00 00
	00 00		 lea	 rcx, OFFSET FLAT:??_C@_0M@INHMIHKC@glIsEnabled@
  005a2	ff 55 50	 call	 QWORD PTR load$[rbp]
  005a5	48 89 05 00 00
	00 00		 mov	 QWORD PTR glad_glIsEnabled, rax

; 2220 :     glad_glIsFramebuffer = (PFNGLISFRAMEBUFFERPROC)load("glIsFramebuffer");

  005ac	48 8d 0d 00 00
	00 00		 lea	 rcx, OFFSET FLAT:??_C@_0BA@FGBIJCNH@glIsFramebuffer@
  005b3	ff 55 50	 call	 QWORD PTR load$[rbp]
  005b6	48 89 05 00 00
	00 00		 mov	 QWORD PTR glad_glIsFramebuffer, rax

; 2221 :     glad_glIsProgram = (PFNGLISPROGRAMPROC)load("glIsProgram");

  005bd	48 8d 0d 00 00
	00 00		 lea	 rcx, OFFSET FLAT:??_C@_0M@INLOJDGO@glIsProgram@
  005c4	ff 55 50	 call	 QWORD PTR load$[rbp]
  005c7	48 89 05 00 00
	00 00		 mov	 QWORD PTR glad_glIsProgram, rax

; 2222 :     glad_glIsRenderbuffer = (PFNGLISRENDERBUFFERPROC)load("glIsRenderbuffer");

  005ce	48 8d 0d 00 00
	00 00		 lea	 rcx, OFFSET FLAT:??_C@_0BB@DGGHKKOH@glIsRenderbuffer@
  005d5	ff 55 50	 call	 QWORD PTR load$[rbp]
  005d8	48 89 05 00 00
	00 00		 mov	 QWORD PTR glad_glIsRenderbuffer, rax

; 2223 :     glad_glIsShader = (PFNGLISSHADERPROC)load("glIsShader");

  005df	48 8d 0d 00 00
	00 00		 lea	 rcx, OFFSET FLAT:??_C@_0L@MDDLFIHC@glIsShader@
  005e6	ff 55 50	 call	 QWORD PTR load$[rbp]
  005e9	48 89 05 00 00
	00 00		 mov	 QWORD PTR glad_glIsShader, rax

; 2224 :     glad_glIsTexture = (PFNGLISTEXTUREPROC)load("glIsTexture");

  005f0	48 8d 0d 00 00
	00 00		 lea	 rcx, OFFSET FLAT:??_C@_0M@NJHAEPDN@glIsTexture@
  005f7	ff 55 50	 call	 QWORD PTR load$[rbp]
  005fa	48 89 05 00 00
	00 00		 mov	 QWORD PTR glad_glIsTexture, rax

; 2225 :     glad_glLineWidth = (PFNGLLINEWIDTHPROC)load("glLineWidth");

  00601	48 8d 0d 00 00
	00 00		 lea	 rcx, OFFSET FLAT:??_C@_0M@CFLGNFPG@glLineWidth@
  00608	ff 55 50	 call	 QWORD PTR load$[rbp]
  0060b	48 89 05 00 00
	00 00		 mov	 QWORD PTR glad_glLineWidth, rax

; 2226 :     glad_glLinkProgram = (PFNGLLINKPROGRAMPROC)load("glLinkProgram");

  00612	48 8d 0d 00 00
	00 00		 lea	 rcx, OFFSET FLAT:??_C@_0O@PIOEEBPO@glLinkProgram@
  00619	ff 55 50	 call	 QWORD PTR load$[rbp]
  0061c	48 89 05 00 00
	00 00		 mov	 QWORD PTR glad_glLinkProgram, rax

; 2227 :     glad_glPixelStorei = (PFNGLPIXELSTOREIPROC)load("glPixelStorei");

  00623	48 8d 0d 00 00
	00 00		 lea	 rcx, OFFSET FLAT:??_C@_0O@JCCIGLOF@glPixelStorei@
  0062a	ff 55 50	 call	 QWORD PTR load$[rbp]
  0062d	48 89 05 00 00
	00 00		 mov	 QWORD PTR glad_glPixelStorei, rax

; 2228 :     glad_glPolygonOffset = (PFNGLPOLYGONOFFSETPROC)load("glPolygonOffset");

  00634	48 8d 0d 00 00
	00 00		 lea	 rcx, OFFSET FLAT:??_C@_0BA@FFBJGNC@glPolygonOffset@
  0063b	ff 55 50	 call	 QWORD PTR load$[rbp]
  0063e	48 89 05 00 00
	00 00		 mov	 QWORD PTR glad_glPolygonOffset, rax

; 2229 :     glad_glReadPixels = (PFNGLREADPIXELSPROC)load("glReadPixels");

  00645	48 8d 0d 00 00
	00 00		 lea	 rcx, OFFSET FLAT:??_C@_0N@CKFNNHOO@glReadPixels@
  0064c	ff 55 50	 call	 QWORD PTR load$[rbp]
  0064f	48 89 05 00 00
	00 00		 mov	 QWORD PTR glad_glReadPixels, rax

; 2230 :     glad_glReleaseShaderCompiler = (PFNGLRELEASESHADERCOMPILERPROC)load("glReleaseShaderCompiler");

  00656	48 8d 0d 00 00
	00 00		 lea	 rcx, OFFSET FLAT:??_C@_0BI@HGKABJPJ@glReleaseShaderCompiler@
  0065d	ff 55 50	 call	 QWORD PTR load$[rbp]
  00660	48 89 05 00 00
	00 00		 mov	 QWORD PTR glad_glReleaseShaderCompiler, rax

; 2231 :     glad_glRenderbufferStorage = (PFNGLRENDERBUFFERSTORAGEPROC)load("glRenderbufferStorage");

  00667	48 8d 0d 00 00
	00 00		 lea	 rcx, OFFSET FLAT:??_C@_0BG@EOIILGMJ@glRenderbufferStorage@
  0066e	ff 55 50	 call	 QWORD PTR load$[rbp]
  00671	48 89 05 00 00
	00 00		 mov	 QWORD PTR glad_glRenderbufferStorage, rax

; 2232 :     glad_glSampleCoverage = (PFNGLSAMPLECOVERAGEPROC)load("glSampleCoverage");

  00678	48 8d 0d 00 00
	00 00		 lea	 rcx, OFFSET FLAT:??_C@_0BB@BJGIPMOA@glSampleCoverage@
  0067f	ff 55 50	 call	 QWORD PTR load$[rbp]
  00682	48 89 05 00 00
	00 00		 mov	 QWORD PTR glad_glSampleCoverage, rax

; 2233 :     glad_glScissor = (PFNGLSCISSORPROC)load("glScissor");

  00689	48 8d 0d 00 00
	00 00		 lea	 rcx, OFFSET FLAT:??_C@_09ECGPAEPL@glScissor@
  00690	ff 55 50	 call	 QWORD PTR load$[rbp]
  00693	48 89 05 00 00
	00 00		 mov	 QWORD PTR glad_glScissor, rax

; 2234 :     glad_glShaderBinary = (PFNGLSHADERBINARYPROC)load("glShaderBinary");

  0069a	48 8d 0d 00 00
	00 00		 lea	 rcx, OFFSET FLAT:??_C@_0P@IMINELFB@glShaderBinary@
  006a1	ff 55 50	 call	 QWORD PTR load$[rbp]
  006a4	48 89 05 00 00
	00 00		 mov	 QWORD PTR glad_glShaderBinary, rax

; 2235 :     glad_glShaderSource = (PFNGLSHADERSOURCEPROC)load("glShaderSource");

  006ab	48 8d 0d 00 00
	00 00		 lea	 rcx, OFFSET FLAT:??_C@_0P@DFHCPFMO@glShaderSource@
  006b2	ff 55 50	 call	 QWORD PTR load$[rbp]
  006b5	48 89 05 00 00
	00 00		 mov	 QWORD PTR glad_glShaderSource, rax

; 2236 :     glad_glStencilFunc = (PFNGLSTENCILFUNCPROC)load("glStencilFunc");

  006bc	48 8d 0d 00 00
	00 00		 lea	 rcx, OFFSET FLAT:??_C@_0O@ENNLLOLN@glStencilFunc@
  006c3	ff 55 50	 call	 QWORD PTR load$[rbp]
  006c6	48 89 05 00 00
	00 00		 mov	 QWORD PTR glad_glStencilFunc, rax

; 2237 :     glad_glStencilFuncSeparate = (PFNGLSTENCILFUNCSEPARATEPROC)load("glStencilFuncSeparate");

  006cd	48 8d 0d 00 00
	00 00		 lea	 rcx, OFFSET FLAT:??_C@_0BG@FCMNCEIA@glStencilFuncSeparate@
  006d4	ff 55 50	 call	 QWORD PTR load$[rbp]
  006d7	48 89 05 00 00
	00 00		 mov	 QWORD PTR glad_glStencilFuncSeparate, rax

; 2238 :     glad_glStencilMask = (PFNGLSTENCILMASKPROC)load("glStencilMask");

  006de	48 8d 0d 00 00
	00 00		 lea	 rcx, OFFSET FLAT:??_C@_0O@DJFHPFEP@glStencilMask@
  006e5	ff 55 50	 call	 QWORD PTR load$[rbp]
  006e8	48 89 05 00 00
	00 00		 mov	 QWORD PTR glad_glStencilMask, rax

; 2239 :     glad_glStencilMaskSeparate = (PFNGLSTENCILMASKSEPARATEPROC)load("glStencilMaskSeparate");

  006ef	48 8d 0d 00 00
	00 00		 lea	 rcx, OFFSET FLAT:??_C@_0BG@MMKPIEJI@glStencilMaskSeparate@
  006f6	ff 55 50	 call	 QWORD PTR load$[rbp]
  006f9	48 89 05 00 00
	00 00		 mov	 QWORD PTR glad_glStencilMaskSeparate, rax

; 2240 :     glad_glStencilOp = (PFNGLSTENCILOPPROC)load("glStencilOp");

  00700	48 8d 0d 00 00
	00 00		 lea	 rcx, OFFSET FLAT:??_C@_0M@BILBNGF@glStencilOp@
  00707	ff 55 50	 call	 QWORD PTR load$[rbp]
  0070a	48 89 05 00 00
	00 00		 mov	 QWORD PTR glad_glStencilOp, rax

; 2241 :     glad_glStencilOpSeparate = (PFNGLSTENCILOPSEPARATEPROC)load("glStencilOpSeparate");

  00711	48 8d 0d 00 00
	00 00		 lea	 rcx, OFFSET FLAT:??_C@_0BE@GAPLDNGF@glStencilOpSeparate@
  00718	ff 55 50	 call	 QWORD PTR load$[rbp]
  0071b	48 89 05 00 00
	00 00		 mov	 QWORD PTR glad_glStencilOpSeparate, rax

; 2242 :     glad_glTexImage2D = (PFNGLTEXIMAGE2DPROC)load("glTexImage2D");

  00722	48 8d 0d 00 00
	00 00		 lea	 rcx, OFFSET FLAT:??_C@_0N@JBIKHLCC@glTexImage2D@
  00729	ff 55 50	 call	 QWORD PTR load$[rbp]
  0072c	48 89 05 00 00
	00 00		 mov	 QWORD PTR glad_glTexImage2D, rax

; 2243 :     glad_glTexParameterf = (PFNGLTEXPARAMETERFPROC)load("glTexParameterf");

  00733	48 8d 0d 00 00
	00 00		 lea	 rcx, OFFSET FLAT:??_C@_0BA@INKFIMGP@glTexParameterf@
  0073a	ff 55 50	 call	 QWORD PTR load$[rbp]
  0073d	48 89 05 00 00
	00 00		 mov	 QWORD PTR glad_glTexParameterf, rax

; 2244 :     glad_glTexParameterfv = (PFNGLTEXPARAMETERFVPROC)load("glTexParameterfv");

  00744	48 8d 0d 00 00
	00 00		 lea	 rcx, OFFSET FLAT:??_C@_0BB@KEOFAHDF@glTexParameterfv@
  0074b	ff 55 50	 call	 QWORD PTR load$[rbp]
  0074e	48 89 05 00 00
	00 00		 mov	 QWORD PTR glad_glTexParameterfv, rax

; 2245 :     glad_glTexParameteri = (PFNGLTEXPARAMETERIPROC)load("glTexParameteri");

  00755	48 8d 0d 00 00
	00 00		 lea	 rcx, OFFSET FLAT:??_C@_0BA@KDNJAKA@glTexParameteri@
  0075c	ff 55 50	 call	 QWORD PTR load$[rbp]
  0075f	48 89 05 00 00
	00 00		 mov	 QWORD PTR glad_glTexParameteri, rax

; 2246 :     glad_glTexParameteriv = (PFNGLTEXPARAMETERIVPROC)load("glTexParameteriv");

  00766	48 8d 0d 00 00
	00 00		 lea	 rcx, OFFSET FLAT:??_C@_0BB@KPLJEAAI@glTexParameteriv@
  0076d	ff 55 50	 call	 QWORD PTR load$[rbp]
  00770	48 89 05 00 00
	00 00		 mov	 QWORD PTR glad_glTexParameteriv, rax

; 2247 :     glad_glTexSubImage2D = (PFNGLTEXSUBIMAGE2DPROC)load("glTexSubImage2D");

  00777	48 8d 0d 00 00
	00 00		 lea	 rcx, OFFSET FLAT:??_C@_0BA@NHKIJEMK@glTexSubImage2D@
  0077e	ff 55 50	 call	 QWORD PTR load$[rbp]
  00781	48 89 05 00 00
	00 00		 mov	 QWORD PTR glad_glTexSubImage2D, rax

; 2248 :     glad_glUniform1f = (PFNGLUNIFORM1FPROC)load("glUniform1f");

  00788	48 8d 0d 00 00
	00 00		 lea	 rcx, OFFSET FLAT:??_C@_0M@MLICAPOF@glUniform1f@
  0078f	ff 55 50	 call	 QWORD PTR load$[rbp]
  00792	48 89 05 00 00
	00 00		 mov	 QWORD PTR glad_glUniform1f, rax

; 2249 :     glad_glUniform1fv = (PFNGLUNIFORM1FVPROC)load("glUniform1fv");

  00799	48 8d 0d 00 00
	00 00		 lea	 rcx, OFFSET FLAT:??_C@_0N@KJMOEKII@glUniform1fv@
  007a0	ff 55 50	 call	 QWORD PTR load$[rbp]
  007a3	48 89 05 00 00
	00 00		 mov	 QWORD PTR glad_glUniform1fv, rax

; 2250 :     glad_glUniform1i = (PFNGLUNIFORM1IPROC)load("glUniform1i");

  007aa	48 8d 0d 00 00
	00 00		 lea	 rcx, OFFSET FLAT:??_C@_0M@EMBKBDCK@glUniform1i@
  007b1	ff 55 50	 call	 QWORD PTR load$[rbp]
  007b4	48 89 05 00 00
	00 00		 mov	 QWORD PTR glad_glUniform1i, rax

; 2251 :     glad_glUniform1iv = (PFNGLUNIFORM1IVPROC)load("glUniform1iv");

  007bb	48 8d 0d 00 00
	00 00		 lea	 rcx, OFFSET FLAT:??_C@_0N@KCJCANLF@glUniform1iv@
  007c2	ff 55 50	 call	 QWORD PTR load$[rbp]
  007c5	48 89 05 00 00
	00 00		 mov	 QWORD PTR glad_glUniform1iv, rax

; 2252 :     glad_glUniform2f = (PFNGLUNIFORM2FPROC)load("glUniform2f");

  007cc	48 8d 0d 00 00
	00 00		 lea	 rcx, OFFSET FLAT:??_C@_0M@MJMELBLM@glUniform2f@
  007d3	ff 55 50	 call	 QWORD PTR load$[rbp]
  007d6	48 89 05 00 00
	00 00		 mov	 QWORD PTR glad_glUniform2f, rax

; 2253 :     glad_glUniform2fv = (PFNGLUNIFORM2FVPROC)load("glUniform2fv");

  007dd	48 8d 0d 00 00
	00 00		 lea	 rcx, OFFSET FLAT:??_C@_0N@LLHLOFGG@glUniform2fv@
  007e4	ff 55 50	 call	 QWORD PTR load$[rbp]
  007e7	48 89 05 00 00
	00 00		 mov	 QWORD PTR glad_glUniform2fv, rax

; 2254 :     glad_glUniform2i = (PFNGLUNIFORM2IPROC)load("glUniform2i");

  007ee	48 8d 0d 00 00
	00 00		 lea	 rcx, OFFSET FLAT:??_C@_0M@EOFMKNHD@glUniform2i@
  007f5	ff 55 50	 call	 QWORD PTR load$[rbp]
  007f8	48 89 05 00 00
	00 00		 mov	 QWORD PTR glad_glUniform2i, rax

; 2255 :     glad_glUniform2iv = (PFNGLUNIFORM2IVPROC)load("glUniform2iv");

  007ff	48 8d 0d 00 00
	00 00		 lea	 rcx, OFFSET FLAT:??_C@_0N@LACHKCFL@glUniform2iv@
  00806	ff 55 50	 call	 QWORD PTR load$[rbp]
  00809	48 89 05 00 00
	00 00		 mov	 QWORD PTR glad_glUniform2iv, rax

; 2256 :     glad_glUniform3f = (PFNGLUNIFORM3FPROC)load("glUniform3f");

  00810	48 8d 0d 00 00
	00 00		 lea	 rcx, OFFSET FLAT:??_C@_0M@MIAGNLIL@glUniform3f@
  00817	ff 55 50	 call	 QWORD PTR load$[rbp]
  0081a	48 89 05 00 00
	00 00		 mov	 QWORD PTR glad_glUniform3f, rax

; 2257 :     glad_glUniform3fv = (PFNGLUNIFORM3FVPROC)load("glUniform3fv");

  00821	48 8d 0d 00 00
	00 00		 lea	 rcx, OFFSET FLAT:??_C@_0N@DMHICAD@glUniform3fv@
  00828	ff 55 50	 call	 QWORD PTR load$[rbp]
  0082b	48 89 05 00 00
	00 00		 mov	 QWORD PTR glad_glUniform3fv, rax

; 2258 :     glad_glUniform3i = (PFNGLUNIFORM3IPROC)load("glUniform3i");

  00832	48 8d 0d 00 00
	00 00		 lea	 rcx, OFFSET FLAT:??_C@_0M@EPJOMHEE@glUniform3i@
  00839	ff 55 50	 call	 QWORD PTR load$[rbp]
  0083c	48 89 05 00 00
	00 00		 mov	 QWORD PTR glad_glUniform3i, rax

; 2259 :     glad_glUniform3iv = (PFNGLUNIFORM3IVPROC)load("glUniform3iv");

  00843	48 8d 0d 00 00
	00 00		 lea	 rcx, OFFSET FLAT:??_C@_0N@IJLMFDO@glUniform3iv@
  0084a	ff 55 50	 call	 QWORD PTR load$[rbp]
  0084d	48 89 05 00 00
	00 00		 mov	 QWORD PTR glad_glUniform3iv, rax

; 2260 :     glad_glUniform4f = (PFNGLUNIFORM4FPROC)load("glUniform4f");

  00854	48 8d 0d 00 00
	00 00		 lea	 rcx, OFFSET FLAT:??_C@_0M@MNEJMNAO@glUniform4f@
  0085b	ff 55 50	 call	 QWORD PTR load$[rbp]
  0085e	48 89 05 00 00
	00 00		 mov	 QWORD PTR glad_glUniform4f, rax

; 2261 :     glad_glUniform4fv = (PFNGLUNIFORM4FVPROC)load("glUniform4fv");

  00865	48 8d 0d 00 00
	00 00		 lea	 rcx, OFFSET FLAT:??_C@_0N@JOBALKLK@glUniform4fv@
  0086c	ff 55 50	 call	 QWORD PTR load$[rbp]
  0086f	48 89 05 00 00
	00 00		 mov	 QWORD PTR glad_glUniform4fv, rax

; 2262 :     glad_glUniform4i = (PFNGLUNIFORM4IPROC)load("glUniform4i");

  00876	48 8d 0d 00 00
	00 00		 lea	 rcx, OFFSET FLAT:??_C@_0M@EKNBNBMB@glUniform4i@
  0087d	ff 55 50	 call	 QWORD PTR load$[rbp]
  00880	48 89 05 00 00
	00 00		 mov	 QWORD PTR glad_glUniform4i, rax

; 2263 :     glad_glUniform4iv = (PFNGLUNIFORM4IVPROC)load("glUniform4iv");

  00887	48 8d 0d 00 00
	00 00		 lea	 rcx, OFFSET FLAT:??_C@_0N@JFEMPNIH@glUniform4iv@
  0088e	ff 55 50	 call	 QWORD PTR load$[rbp]
  00891	48 89 05 00 00
	00 00		 mov	 QWORD PTR glad_glUniform4iv, rax

; 2264 :     glad_glUniformMatrix2fv = (PFNGLUNIFORMMATRIX2FVPROC)load("glUniformMatrix2fv");

  00898	48 8d 0d 00 00
	00 00		 lea	 rcx, OFFSET FLAT:??_C@_0BD@JIBJELHD@glUniformMatrix2fv@
  0089f	ff 55 50	 call	 QWORD PTR load$[rbp]
  008a2	48 89 05 00 00
	00 00		 mov	 QWORD PTR glad_glUniformMatrix2fv, rax

; 2265 :     glad_glUniformMatrix3fv = (PFNGLUNIFORMMATRIX3FVPROC)load("glUniformMatrix3fv");

  008a9	48 8d 0d 00 00
	00 00		 lea	 rcx, OFFSET FLAT:??_C@_0BD@CAKFCMBG@glUniformMatrix3fv@
  008b0	ff 55 50	 call	 QWORD PTR load$[rbp]
  008b3	48 89 05 00 00
	00 00		 mov	 QWORD PTR glad_glUniformMatrix3fv, rax

; 2266 :     glad_glUniformMatrix4fv = (PFNGLUNIFORMMATRIX4FVPROC)load("glUniformMatrix4fv");

  008ba	48 8d 0d 00 00
	00 00		 lea	 rcx, OFFSET FLAT:??_C@_0BD@LNHCBEKP@glUniformMatrix4fv@
  008c1	ff 55 50	 call	 QWORD PTR load$[rbp]
  008c4	48 89 05 00 00
	00 00		 mov	 QWORD PTR glad_glUniformMatrix4fv, rax

; 2267 :     glad_glUseProgram = (PFNGLUSEPROGRAMPROC)load("glUseProgram");

  008cb	48 8d 0d 00 00
	00 00		 lea	 rcx, OFFSET FLAT:??_C@_0N@ICBDHBI@glUseProgram@
  008d2	ff 55 50	 call	 QWORD PTR load$[rbp]
  008d5	48 89 05 00 00
	00 00		 mov	 QWORD PTR glad_glUseProgram, rax

; 2268 :     glad_glValidateProgram = (PFNGLVALIDATEPROGRAMPROC)load("glValidateProgram");

  008dc	48 8d 0d 00 00
	00 00		 lea	 rcx, OFFSET FLAT:??_C@_0BC@MAPGDLJK@glValidateProgram@
  008e3	ff 55 50	 call	 QWORD PTR load$[rbp]
  008e6	48 89 05 00 00
	00 00		 mov	 QWORD PTR glad_glValidateProgram, rax

; 2269 :     glad_glVertexAttrib1f = (PFNGLVERTEXATTRIB1FPROC)load("glVertexAttrib1f");

  008ed	48 8d 0d 00 00
	00 00		 lea	 rcx, OFFSET FLAT:??_C@_0BB@MKNNJPHA@glVertexAttrib1f@
  008f4	ff 55 50	 call	 QWORD PTR load$[rbp]
  008f7	48 89 05 00 00
	00 00		 mov	 QWORD PTR glad_glVertexAttrib1f, rax

; 2270 :     glad_glVertexAttrib1fv = (PFNGLVERTEXATTRIB1FVPROC)load("glVertexAttrib1fv");

  008fe	48 8d 0d 00 00
	00 00		 lea	 rcx, OFFSET FLAT:??_C@_0BC@CJKKHCND@glVertexAttrib1fv@
  00905	ff 55 50	 call	 QWORD PTR load$[rbp]
  00908	48 89 05 00 00
	00 00		 mov	 QWORD PTR glad_glVertexAttrib1fv, rax

; 2271 :     glad_glVertexAttrib2f = (PFNGLVERTEXATTRIB2FPROC)load("glVertexAttrib2f");

  0090f	48 8d 0d 00 00
	00 00		 lea	 rcx, OFFSET FLAT:??_C@_0BB@MIJLCBCJ@glVertexAttrib2f@
  00916	ff 55 50	 call	 QWORD PTR load$[rbp]
  00919	48 89 05 00 00
	00 00		 mov	 QWORD PTR glad_glVertexAttrib2f, rax

; 2272 :     glad_glVertexAttrib2fv = (PFNGLVERTEXATTRIB2FVPROC)load("glVertexAttrib2fv");

  00920	48 8d 0d 00 00
	00 00		 lea	 rcx, OFFSET FLAT:??_C@_0BC@DLBPNNDN@glVertexAttrib2fv@
  00927	ff 55 50	 call	 QWORD PTR load$[rbp]
  0092a	48 89 05 00 00
	00 00		 mov	 QWORD PTR glad_glVertexAttrib2fv, rax

; 2273 :     glad_glVertexAttrib3f = (PFNGLVERTEXATTRIB3FPROC)load("glVertexAttrib3f");

  00931	48 8d 0d 00 00
	00 00		 lea	 rcx, OFFSET FLAT:??_C@_0BB@MJFJELBO@glVertexAttrib3f@
  00938	ff 55 50	 call	 QWORD PTR load$[rbp]
  0093b	48 89 05 00 00
	00 00		 mov	 QWORD PTR glad_glVertexAttrib3f, rax

; 2274 :     glad_glVertexAttrib3fv = (PFNGLVERTEXATTRIB3FVPROC)load("glVertexAttrib3fv");

  00942	48 8d 0d 00 00
	00 00		 lea	 rcx, OFFSET FLAT:??_C@_0BC@IDKDLKFI@glVertexAttrib3fv@
  00949	ff 55 50	 call	 QWORD PTR load$[rbp]
  0094c	48 89 05 00 00
	00 00		 mov	 QWORD PTR glad_glVertexAttrib3fv, rax

; 2275 :     glad_glVertexAttrib4f = (PFNGLVERTEXATTRIB4FPROC)load("glVertexAttrib4f");

  00953	48 8d 0d 00 00
	00 00		 lea	 rcx, OFFSET FLAT:??_C@_0BB@MMBGFNJL@glVertexAttrib4f@
  0095a	ff 55 50	 call	 QWORD PTR load$[rbp]
  0095d	48 89 05 00 00
	00 00		 mov	 QWORD PTR glad_glVertexAttrib4f, rax

; 2276 :     glad_glVertexAttrib4fv = (PFNGLVERTEXATTRIB4FVPROC)load("glVertexAttrib4fv");

  00964	48 8d 0d 00 00
	00 00		 lea	 rcx, OFFSET FLAT:??_C@_0BC@BOHEICOB@glVertexAttrib4fv@
  0096b	ff 55 50	 call	 QWORD PTR load$[rbp]
  0096e	48 89 05 00 00
	00 00		 mov	 QWORD PTR glad_glVertexAttrib4fv, rax

; 2277 :     glad_glVertexAttribPointer = (PFNGLVERTEXATTRIBPOINTERPROC)load("glVertexAttribPointer");

  00975	48 8d 0d 00 00
	00 00		 lea	 rcx, OFFSET FLAT:??_C@_0BG@JPNNNPKG@glVertexAttribPointer@
  0097c	ff 55 50	 call	 QWORD PTR load$[rbp]
  0097f	48 89 05 00 00
	00 00		 mov	 QWORD PTR glad_glVertexAttribPointer, rax

; 2278 :     glad_glViewport = (PFNGLVIEWPORTPROC)load("glViewport");

  00986	48 8d 0d 00 00
	00 00		 lea	 rcx, OFFSET FLAT:??_C@_0L@KBLIPDFH@glViewport@
  0098d	ff 55 50	 call	 QWORD PTR load$[rbp]
  00990	48 89 05 00 00
	00 00		 mov	 QWORD PTR glad_glViewport, rax
$LN1@load_GL_ES:

; 2279 : }

  00997	48 8d 65 40	 lea	 rsp, QWORD PTR [rbp+64]
  0099b	5d		 pop	 rbp
  0099c	c3		 ret	 0
load_GL_ES_VERSION_2_0 ENDP
_TEXT	ENDS
; Function compile flags: /Odtp /ZI
; File D:\Programmer\GLenv\glad.c
;	COMDAT find_coreGLES1
_TEXT	SEGMENT
i$ = 0
major$ = 4
minor$ = 8
version$ = 16
prefixes$ = 24
length$1 = 56
tv133 = 128
tv93 = 128
tv134 = 136
__$ArrayPad$ = 144
find_coreGLES1 PROC					; COMDAT

; 2080 : static void find_coreGLES1(void) {

  00000	40 55		 push	 rbp
  00002	48 81 ec c0 00
	00 00		 sub	 rsp, 192		; 000000c0H
  00009	48 8d 6c 24 20	 lea	 rbp, QWORD PTR [rsp+32]
  0000e	48 8b 05 00 00
	00 00		 mov	 rax, QWORD PTR __security_cookie
  00015	48 33 c5	 xor	 rax, rbp
  00018	48 89 85 90 00
	00 00		 mov	 QWORD PTR __$ArrayPad$[rbp], rax
  0001f	48 8d 0d 00 00
	00 00		 lea	 rcx, OFFSET FLAT:__2B68C239_glad@c
  00026	e8 00 00 00 00	 call	 __CheckForDebuggerJustMyCode

; 2081 : 
; 2082 :     /* Thank you @elmindreda
; 2083 :      * https://github.com/elmindreda/greg/blob/master/templates/greg.c.in#L176
; 2084 :      * https://github.com/glfw/glfw/blob/master/src/context.c#L36
; 2085 :      */
; 2086 :     int i, major, minor;
; 2087 : 
; 2088 :     const char* version;
; 2089 :     const char* prefixes[] = {

  0002b	48 8d 05 00 00
	00 00		 lea	 rax, OFFSET FLAT:??_C@_0O@ENGHJHNB@OpenGL?5ES?9CM?5@
  00032	48 89 45 18	 mov	 QWORD PTR prefixes$[rbp], rax
  00036	48 8d 05 00 00
	00 00		 lea	 rax, OFFSET FLAT:??_C@_0O@EMKFPNOG@OpenGL?5ES?9CL?5@
  0003d	48 89 45 20	 mov	 QWORD PTR prefixes$[rbp+8], rax
  00041	48 8d 05 00 00
	00 00		 lea	 rax, OFFSET FLAT:??_C@_0L@JLFHOCGA@OpenGL?5ES?5@
  00048	48 89 45 28	 mov	 QWORD PTR prefixes$[rbp+16], rax
  0004c	48 c7 45 30 00
	00 00 00	 mov	 QWORD PTR prefixes$[rbp+24], 0

; 2090 :         "OpenGL ES-CM ",
; 2091 :         "OpenGL ES-CL ",
; 2092 :         "OpenGL ES ",
; 2093 :         NULL
; 2094 :     };
; 2095 : 
; 2096 :     version = (const char*)glGetString(GL_VERSION);

  00054	b9 02 1f 00 00	 mov	 ecx, 7938		; 00001f02H
  00059	ff 15 00 00 00
	00		 call	 QWORD PTR glad_glGetString
  0005f	48 89 45 10	 mov	 QWORD PTR version$[rbp], rax

; 2097 :     if (!version) return;

  00063	48 83 7d 10 00	 cmp	 QWORD PTR version$[rbp], 0
  00068	75 05		 jne	 SHORT $LN5@find_coreG
  0006a	e9 31 01 00 00	 jmp	 $LN1@find_coreG
$LN5@find_coreG:

; 2098 : 
; 2099 :     for (i = 0; prefixes[i]; i++) {

  0006f	c7 45 00 00 00
	00 00		 mov	 DWORD PTR i$[rbp], 0
  00076	eb 08		 jmp	 SHORT $LN4@find_coreG
$LN2@find_coreG:
  00078	8b 45 00	 mov	 eax, DWORD PTR i$[rbp]
  0007b	ff c0		 inc	 eax
  0007d	89 45 00	 mov	 DWORD PTR i$[rbp], eax
$LN4@find_coreG:
  00080	48 63 45 00	 movsxd	 rax, DWORD PTR i$[rbp]
  00084	48 83 7c c5 18
	00		 cmp	 QWORD PTR prefixes$[rbp+rax*8], 0
  0008a	74 75		 je	 SHORT $LN3@find_coreG

; 2100 :         const size_t length = strlen(prefixes[i]);

  0008c	48 63 45 00	 movsxd	 rax, DWORD PTR i$[rbp]
  00090	48 8b 44 c5 18	 mov	 rax, QWORD PTR prefixes$[rbp+rax*8]
  00095	48 89 85 80 00
	00 00		 mov	 QWORD PTR tv133[rbp], rax
  0009c	48 c7 85 88 00
	00 00 ff ff ff
	ff		 mov	 QWORD PTR tv134[rbp], -1
$LL13@find_coreG:
  000a7	48 ff 85 88 00
	00 00		 inc	 QWORD PTR tv134[rbp]
  000ae	48 8b 85 80 00
	00 00		 mov	 rax, QWORD PTR tv133[rbp]
  000b5	48 8b 8d 88 00
	00 00		 mov	 rcx, QWORD PTR tv134[rbp]
  000bc	80 3c 08 00	 cmp	 BYTE PTR [rax+rcx], 0
  000c0	75 e5		 jne	 SHORT $LL13@find_coreG
  000c2	48 8b 85 88 00
	00 00		 mov	 rax, QWORD PTR tv134[rbp]
  000c9	48 89 45 38	 mov	 QWORD PTR length$1[rbp], rax

; 2101 :         if (strncmp(version, prefixes[i], length) == 0) {

  000cd	48 63 45 00	 movsxd	 rax, DWORD PTR i$[rbp]
  000d1	4c 8b 45 38	 mov	 r8, QWORD PTR length$1[rbp]
  000d5	48 8b 54 c5 18	 mov	 rdx, QWORD PTR prefixes$[rbp+rax*8]
  000da	48 8b 4d 10	 mov	 rcx, QWORD PTR version$[rbp]
  000de	ff 15 00 00 00
	00		 call	 QWORD PTR __imp_strncmp
  000e4	85 c0		 test	 eax, eax
  000e6	75 14		 jne	 SHORT $LN6@find_coreG

; 2102 :             version += length;

  000e8	48 8b 45 38	 mov	 rax, QWORD PTR length$1[rbp]
  000ec	48 8b 4d 10	 mov	 rcx, QWORD PTR version$[rbp]
  000f0	48 03 c8	 add	 rcx, rax
  000f3	48 8b c1	 mov	 rax, rcx
  000f6	48 89 45 10	 mov	 QWORD PTR version$[rbp], rax

; 2103 :             break;

  000fa	eb 05		 jmp	 SHORT $LN3@find_coreG
$LN6@find_coreG:

; 2104 :         }
; 2105 :     }

  000fc	e9 77 ff ff ff	 jmp	 $LN2@find_coreG
$LN3@find_coreG:

; 2106 : 
; 2107 :     /* PR #18 */
; 2108 : #ifdef _MSC_VER
; 2109 :     sscanf_s(version, "%d.%d", &major, &minor);

  00101	4c 8d 4d 08	 lea	 r9, QWORD PTR minor$[rbp]
  00105	4c 8d 45 04	 lea	 r8, QWORD PTR major$[rbp]
  00109	48 8d 15 00 00
	00 00		 lea	 rdx, OFFSET FLAT:??_C@_05KBEOJPB@?$CFd?4?$CFd@
  00110	48 8b 4d 10	 mov	 rcx, QWORD PTR version$[rbp]
  00114	e8 00 00 00 00	 call	 sscanf_s

; 2110 : #else
; 2111 :     sscanf(version, "%d.%d", &major, &minor);
; 2112 : #endif
; 2113 : 
; 2114 :     GLVersion.major = major; GLVersion.minor = minor;

  00119	8b 45 04	 mov	 eax, DWORD PTR major$[rbp]
  0011c	89 05 00 00 00
	00		 mov	 DWORD PTR GLVersion, eax
  00122	8b 45 08	 mov	 eax, DWORD PTR minor$[rbp]
  00125	89 05 04 00 00
	00		 mov	 DWORD PTR GLVersion+4, eax

; 2115 :     max_loaded_major = major; max_loaded_minor = minor;

  0012b	8b 45 04	 mov	 eax, DWORD PTR major$[rbp]
  0012e	89 05 00 00 00
	00		 mov	 DWORD PTR max_loaded_major, eax
  00134	8b 45 08	 mov	 eax, DWORD PTR minor$[rbp]
  00137	89 05 00 00 00
	00		 mov	 DWORD PTR max_loaded_minor, eax

; 2116 :     GLAD_GL_VERSION_ES_CM_1_0 = (major == 1 && minor >= 0) || major > 1;

  0013d	83 7d 04 01	 cmp	 DWORD PTR major$[rbp], 1
  00141	75 06		 jne	 SHORT $LN10@find_coreG
  00143	83 7d 08 00	 cmp	 DWORD PTR minor$[rbp], 0
  00147	7d 12		 jge	 SHORT $LN11@find_coreG
$LN10@find_coreG:
  00149	83 7d 04 01	 cmp	 DWORD PTR major$[rbp], 1
  0014d	7f 0c		 jg	 SHORT $LN11@find_coreG
  0014f	c7 85 80 00 00
	00 00 00 00 00	 mov	 DWORD PTR tv93[rbp], 0
  00159	eb 0a		 jmp	 SHORT $LN12@find_coreG
$LN11@find_coreG:
  0015b	c7 85 80 00 00
	00 01 00 00 00	 mov	 DWORD PTR tv93[rbp], 1
$LN12@find_coreG:
  00165	8b 85 80 00 00
	00		 mov	 eax, DWORD PTR tv93[rbp]
  0016b	89 05 00 00 00
	00		 mov	 DWORD PTR GLAD_GL_VERSION_ES_CM_1_0, eax

; 2117 :     if (GLVersion.major > 1 || (GLVersion.major >= 1 && GLVersion.minor >= 0)) {

  00171	83 3d 00 00 00
	00 01		 cmp	 DWORD PTR GLVersion, 1
  00178	7f 12		 jg	 SHORT $LN8@find_coreG
  0017a	83 3d 00 00 00
	00 01		 cmp	 DWORD PTR GLVersion, 1
  00181	7c 1d		 jl	 SHORT $LN7@find_coreG
  00183	83 3d 04 00 00
	00 00		 cmp	 DWORD PTR GLVersion+4, 0
  0018a	7c 14		 jl	 SHORT $LN7@find_coreG
$LN8@find_coreG:

; 2118 :         max_loaded_major = 1;

  0018c	c7 05 00 00 00
	00 01 00 00 00	 mov	 DWORD PTR max_loaded_major, 1

; 2119 :         max_loaded_minor = 0;

  00196	c7 05 00 00 00
	00 00 00 00 00	 mov	 DWORD PTR max_loaded_minor, 0
$LN7@find_coreG:
$LN1@find_coreG:

; 2120 :     }
; 2121 : }

  001a0	48 8b 8d 90 00
	00 00		 mov	 rcx, QWORD PTR __$ArrayPad$[rbp]
  001a7	48 33 cd	 xor	 rcx, rbp
  001aa	e8 00 00 00 00	 call	 __security_check_cookie
  001af	48 8d a5 a0 00
	00 00		 lea	 rsp, QWORD PTR [rbp+160]
  001b6	5d		 pop	 rbp
  001b7	c3		 ret	 0
find_coreGLES1 ENDP
_TEXT	ENDS
; Function compile flags: /Odtp /ZI
; File D:\Programmer\GLenv\glad.c
;	COMDAT find_extensionsGLES1
_TEXT	SEGMENT
find_extensionsGLES1 PROC				; COMDAT

; 2073 : static int find_extensionsGLES1(void) {

  00000	40 55		 push	 rbp
  00002	48 83 ec 60	 sub	 rsp, 96			; 00000060H
  00006	48 8d 6c 24 20	 lea	 rbp, QWORD PTR [rsp+32]
  0000b	48 8d 0d 00 00
	00 00		 lea	 rcx, OFFSET FLAT:__2B68C239_glad@c
  00012	e8 00 00 00 00	 call	 __CheckForDebuggerJustMyCode

; 2074 :     if (!get_exts()) return 0;

  00017	e8 00 00 00 00	 call	 get_exts
  0001c	85 c0		 test	 eax, eax
  0001e	75 04		 jne	 SHORT $LN2@find_exten
  00020	33 c0		 xor	 eax, eax
  00022	eb 0a		 jmp	 SHORT $LN1@find_exten
$LN2@find_exten:

; 2075 :     (void)&has_ext;
; 2076 :     free_exts();

  00024	e8 00 00 00 00	 call	 free_exts

; 2077 :     return 1;

  00029	b8 01 00 00 00	 mov	 eax, 1
$LN1@find_exten:

; 2078 : }

  0002e	48 8d 65 40	 lea	 rsp, QWORD PTR [rbp+64]
  00032	5d		 pop	 rbp
  00033	c3		 ret	 0
find_extensionsGLES1 ENDP
_TEXT	ENDS
; Function compile flags: /Odtp /ZI
; File D:\Programmer\GLenv\glad.c
;	COMDAT load_GL_VERSION_ES_CM_1_0
_TEXT	SEGMENT
load$ = 80
load_GL_VERSION_ES_CM_1_0 PROC				; COMDAT

; 1926 : static void load_GL_VERSION_ES_CM_1_0(GLADloadproc load) {

  00000	48 89 4c 24 08	 mov	 QWORD PTR [rsp+8], rcx
  00005	55		 push	 rbp
  00006	48 83 ec 60	 sub	 rsp, 96			; 00000060H
  0000a	48 8d 6c 24 20	 lea	 rbp, QWORD PTR [rsp+32]
  0000f	48 8d 0d 00 00
	00 00		 lea	 rcx, OFFSET FLAT:__2B68C239_glad@c
  00016	e8 00 00 00 00	 call	 __CheckForDebuggerJustMyCode

; 1927 :     if (!GLAD_GL_VERSION_ES_CM_1_0) return;

  0001b	83 3d 00 00 00
	00 00		 cmp	 DWORD PTR GLAD_GL_VERSION_ES_CM_1_0, 0
  00022	75 05		 jne	 SHORT $LN2@load_GL_VE
  00024	e9 90 09 00 00	 jmp	 $LN1@load_GL_VE
$LN2@load_GL_VE:

; 1928 :     glad_glAlphaFunc = (PFNGLALPHAFUNCPROC)load("glAlphaFunc");

  00029	48 8d 0d 00 00
	00 00		 lea	 rcx, OFFSET FLAT:??_C@_0M@BJGLMKCC@glAlphaFunc@
  00030	ff 55 50	 call	 QWORD PTR load$[rbp]
  00033	48 89 05 00 00
	00 00		 mov	 QWORD PTR glad_glAlphaFunc, rax

; 1929 :     glad_glClearColor = (PFNGLCLEARCOLORPROC)load("glClearColor");

  0003a	48 8d 0d 00 00
	00 00		 lea	 rcx, OFFSET FLAT:??_C@_0N@OGLMDNKC@glClearColor@
  00041	ff 55 50	 call	 QWORD PTR load$[rbp]
  00044	48 89 05 00 00
	00 00		 mov	 QWORD PTR glad_glClearColor, rax

; 1930 :     glad_glClearDepthf = (PFNGLCLEARDEPTHFPROC)load("glClearDepthf");

  0004b	48 8d 0d 00 00
	00 00		 lea	 rcx, OFFSET FLAT:??_C@_0O@FMBMCDIL@glClearDepthf@
  00052	ff 55 50	 call	 QWORD PTR load$[rbp]
  00055	48 89 05 00 00
	00 00		 mov	 QWORD PTR glad_glClearDepthf, rax

; 1931 :     glad_glClipPlanef = (PFNGLCLIPPLANEFPROC)load("glClipPlanef");

  0005c	48 8d 0d 00 00
	00 00		 lea	 rcx, OFFSET FLAT:??_C@_0N@CIEBEEDM@glClipPlanef@
  00063	ff 55 50	 call	 QWORD PTR load$[rbp]
  00066	48 89 05 00 00
	00 00		 mov	 QWORD PTR glad_glClipPlanef, rax

; 1932 :     glad_glColor4f = (PFNGLCOLOR4FPROC)load("glColor4f");

  0006d	48 8d 0d 00 00
	00 00		 lea	 rcx, OFFSET FLAT:??_C@_09PKFCMFPF@glColor4f@
  00074	ff 55 50	 call	 QWORD PTR load$[rbp]
  00077	48 89 05 00 00
	00 00		 mov	 QWORD PTR glad_glColor4f, rax

; 1933 :     glad_glDepthRangef = (PFNGLDEPTHRANGEFPROC)load("glDepthRangef");

  0007e	48 8d 0d 00 00
	00 00		 lea	 rcx, OFFSET FLAT:??_C@_0O@JDFJDNND@glDepthRangef@
  00085	ff 55 50	 call	 QWORD PTR load$[rbp]
  00088	48 89 05 00 00
	00 00		 mov	 QWORD PTR glad_glDepthRangef, rax

; 1934 :     glad_glFogf = (PFNGLFOGFPROC)load("glFogf");

  0008f	48 8d 0d 00 00
	00 00		 lea	 rcx, OFFSET FLAT:??_C@_06JJHNMGPD@glFogf@
  00096	ff 55 50	 call	 QWORD PTR load$[rbp]
  00099	48 89 05 00 00
	00 00		 mov	 QWORD PTR glad_glFogf, rax

; 1935 :     glad_glFogfv = (PFNGLFOGFVPROC)load("glFogfv");

  000a0	48 8d 0d 00 00
	00 00		 lea	 rcx, OFFSET FLAT:??_C@_07FNEIAABA@glFogfv@
  000a7	ff 55 50	 call	 QWORD PTR load$[rbp]
  000aa	48 89 05 00 00
	00 00		 mov	 QWORD PTR glad_glFogfv, rax

; 1936 :     glad_glFrustumf = (PFNGLFRUSTUMFPROC)load("glFrustumf");

  000b1	48 8d 0d 00 00
	00 00		 lea	 rcx, OFFSET FLAT:??_C@_0L@HFEMMHCG@glFrustumf@
  000b8	ff 55 50	 call	 QWORD PTR load$[rbp]
  000bb	48 89 05 00 00
	00 00		 mov	 QWORD PTR glad_glFrustumf, rax

; 1937 :     glad_glGetClipPlanef = (PFNGLGETCLIPPLANEFPROC)load("glGetClipPlanef");

  000c2	48 8d 0d 00 00
	00 00		 lea	 rcx, OFFSET FLAT:??_C@_0BA@EGMBKDGG@glGetClipPlanef@
  000c9	ff 55 50	 call	 QWORD PTR load$[rbp]
  000cc	48 89 05 00 00
	00 00		 mov	 QWORD PTR glad_glGetClipPlanef, rax

; 1938 :     glad_glGetFloatv = (PFNGLGETFLOATVPROC)load("glGetFloatv");

  000d3	48 8d 0d 00 00
	00 00		 lea	 rcx, OFFSET FLAT:??_C@_0M@CKCOBONE@glGetFloatv@
  000da	ff 55 50	 call	 QWORD PTR load$[rbp]
  000dd	48 89 05 00 00
	00 00		 mov	 QWORD PTR glad_glGetFloatv, rax

; 1939 :     glad_glGetLightfv = (PFNGLGETLIGHTFVPROC)load("glGetLightfv");

  000e4	48 8d 0d 00 00
	00 00		 lea	 rcx, OFFSET FLAT:??_C@_0N@MGGMJGKA@glGetLightfv@
  000eb	ff 55 50	 call	 QWORD PTR load$[rbp]
  000ee	48 89 05 00 00
	00 00		 mov	 QWORD PTR glad_glGetLightfv, rax

; 1940 :     glad_glGetMaterialfv = (PFNGLGETMATERIALFVPROC)load("glGetMaterialfv");

  000f5	48 8d 0d 00 00
	00 00		 lea	 rcx, OFFSET FLAT:??_C@_0BA@GCPPEEDM@glGetMaterialfv@
  000fc	ff 55 50	 call	 QWORD PTR load$[rbp]
  000ff	48 89 05 00 00
	00 00		 mov	 QWORD PTR glad_glGetMaterialfv, rax

; 1941 :     glad_glGetTexEnvfv = (PFNGLGETTEXENVFVPROC)load("glGetTexEnvfv");

  00106	48 8d 0d 00 00
	00 00		 lea	 rcx, OFFSET FLAT:??_C@_0O@KDAJGFCL@glGetTexEnvfv@
  0010d	ff 55 50	 call	 QWORD PTR load$[rbp]
  00110	48 89 05 00 00
	00 00		 mov	 QWORD PTR glad_glGetTexEnvfv, rax

; 1942 :     glad_glGetTexParameterfv = (PFNGLGETTEXPARAMETERFVPROC)load("glGetTexParameterfv");

  00117	48 8d 0d 00 00
	00 00		 lea	 rcx, OFFSET FLAT:??_C@_0BE@DNHBPKMC@glGetTexParameterfv@
  0011e	ff 55 50	 call	 QWORD PTR load$[rbp]
  00121	48 89 05 00 00
	00 00		 mov	 QWORD PTR glad_glGetTexParameterfv, rax

; 1943 :     glad_glLightModelf = (PFNGLLIGHTMODELFPROC)load("glLightModelf");

  00128	48 8d 0d 00 00
	00 00		 lea	 rcx, OFFSET FLAT:??_C@_0O@HPCJLAII@glLightModelf@
  0012f	ff 55 50	 call	 QWORD PTR load$[rbp]
  00132	48 89 05 00 00
	00 00		 mov	 QWORD PTR glad_glLightModelf, rax

; 1944 :     glad_glLightModelfv = (PFNGLLIGHTMODELFVPROC)load("glLightModelfv");

  00139	48 8d 0d 00 00
	00 00		 lea	 rcx, OFFSET FLAT:??_C@_0P@JKHJPMNC@glLightModelfv@
  00140	ff 55 50	 call	 QWORD PTR load$[rbp]
  00143	48 89 05 00 00
	00 00		 mov	 QWORD PTR glad_glLightModelfv, rax

; 1945 :     glad_glLightf = (PFNGLLIGHTFPROC)load("glLightf");

  0014a	48 8d 0d 00 00
	00 00		 lea	 rcx, OFFSET FLAT:??_C@_08LPDPILEL@glLightf@
  00151	ff 55 50	 call	 QWORD PTR load$[rbp]
  00154	48 89 05 00 00
	00 00		 mov	 QWORD PTR glad_glLightf, rax

; 1946 :     glad_glLightfv = (PFNGLLIGHTFVPROC)load("glLightfv");

  0015b	48 8d 0d 00 00
	00 00		 lea	 rcx, OFFSET FLAT:??_C@_09JINEHJOD@glLightfv@
  00162	ff 55 50	 call	 QWORD PTR load$[rbp]
  00165	48 89 05 00 00
	00 00		 mov	 QWORD PTR glad_glLightfv, rax

; 1947 :     glad_glLineWidth = (PFNGLLINEWIDTHPROC)load("glLineWidth");

  0016c	48 8d 0d 00 00
	00 00		 lea	 rcx, OFFSET FLAT:??_C@_0M@CFLGNFPG@glLineWidth@
  00173	ff 55 50	 call	 QWORD PTR load$[rbp]
  00176	48 89 05 00 00
	00 00		 mov	 QWORD PTR glad_glLineWidth, rax

; 1948 :     glad_glLoadMatrixf = (PFNGLLOADMATRIXFPROC)load("glLoadMatrixf");

  0017d	48 8d 0d 00 00
	00 00		 lea	 rcx, OFFSET FLAT:??_C@_0O@DJGBMGEI@glLoadMatrixf@
  00184	ff 55 50	 call	 QWORD PTR load$[rbp]
  00187	48 89 05 00 00
	00 00		 mov	 QWORD PTR glad_glLoadMatrixf, rax

; 1949 :     glad_glMaterialf = (PFNGLMATERIALFPROC)load("glMaterialf");

  0018e	48 8d 0d 00 00
	00 00		 lea	 rcx, OFFSET FLAT:??_C@_0M@HANOIKMC@glMaterialf@
  00195	ff 55 50	 call	 QWORD PTR load$[rbp]
  00198	48 89 05 00 00
	00 00		 mov	 QWORD PTR glad_glMaterialf, rax

; 1950 :     glad_glMaterialfv = (PFNGLMATERIALFVPROC)load("glMaterialfv");

  0019f	48 8d 0d 00 00
	00 00		 lea	 rcx, OFFSET FLAT:??_C@_0N@MHPKDGG@glMaterialfv@
  001a6	ff 55 50	 call	 QWORD PTR load$[rbp]
  001a9	48 89 05 00 00
	00 00		 mov	 QWORD PTR glad_glMaterialfv, rax

; 1951 :     glad_glMultMatrixf = (PFNGLMULTMATRIXFPROC)load("glMultMatrixf");

  001b0	48 8d 0d 00 00
	00 00		 lea	 rcx, OFFSET FLAT:??_C@_0O@LHKDNPKJ@glMultMatrixf@
  001b7	ff 55 50	 call	 QWORD PTR load$[rbp]
  001ba	48 89 05 00 00
	00 00		 mov	 QWORD PTR glad_glMultMatrixf, rax

; 1952 :     glad_glMultiTexCoord4f = (PFNGLMULTITEXCOORD4FPROC)load("glMultiTexCoord4f");

  001c1	48 8d 0d 00 00
	00 00		 lea	 rcx, OFFSET FLAT:??_C@_0BC@LDICFFJG@glMultiTexCoord4f@
  001c8	ff 55 50	 call	 QWORD PTR load$[rbp]
  001cb	48 89 05 00 00
	00 00		 mov	 QWORD PTR glad_glMultiTexCoord4f, rax

; 1953 :     glad_glNormal3f = (PFNGLNORMAL3FPROC)load("glNormal3f");

  001d2	48 8d 0d 00 00
	00 00		 lea	 rcx, OFFSET FLAT:??_C@_0L@DGGCBPPM@glNormal3f@
  001d9	ff 55 50	 call	 QWORD PTR load$[rbp]
  001dc	48 89 05 00 00
	00 00		 mov	 QWORD PTR glad_glNormal3f, rax

; 1954 :     glad_glOrthof = (PFNGLORTHOFPROC)load("glOrthof");

  001e3	48 8d 0d 00 00
	00 00		 lea	 rcx, OFFSET FLAT:??_C@_08NAPFMCEN@glOrthof@
  001ea	ff 55 50	 call	 QWORD PTR load$[rbp]
  001ed	48 89 05 00 00
	00 00		 mov	 QWORD PTR glad_glOrthof, rax

; 1955 :     glad_glPointParameterf = (PFNGLPOINTPARAMETERFPROC)load("glPointParameterf");

  001f4	48 8d 0d 00 00
	00 00		 lea	 rcx, OFFSET FLAT:??_C@_0BC@FGOOEDO@glPointParameterf@
  001fb	ff 55 50	 call	 QWORD PTR load$[rbp]
  001fe	48 89 05 00 00
	00 00		 mov	 QWORD PTR glad_glPointParameterf, rax

; 1956 :     glad_glPointParameterfv = (PFNGLPOINTPARAMETERFVPROC)load("glPointParameterfv");

  00205	48 8d 0d 00 00
	00 00		 lea	 rcx, OFFSET FLAT:??_C@_0BD@LIABKNDP@glPointParameterfv@
  0020c	ff 55 50	 call	 QWORD PTR load$[rbp]
  0020f	48 89 05 00 00
	00 00		 mov	 QWORD PTR glad_glPointParameterfv, rax

; 1957 :     glad_glPointSize = (PFNGLPOINTSIZEPROC)load("glPointSize");

  00216	48 8d 0d 00 00
	00 00		 lea	 rcx, OFFSET FLAT:??_C@_0M@EEAPMMNM@glPointSize@
  0021d	ff 55 50	 call	 QWORD PTR load$[rbp]
  00220	48 89 05 00 00
	00 00		 mov	 QWORD PTR glad_glPointSize, rax

; 1958 :     glad_glPolygonOffset = (PFNGLPOLYGONOFFSETPROC)load("glPolygonOffset");

  00227	48 8d 0d 00 00
	00 00		 lea	 rcx, OFFSET FLAT:??_C@_0BA@FFBJGNC@glPolygonOffset@
  0022e	ff 55 50	 call	 QWORD PTR load$[rbp]
  00231	48 89 05 00 00
	00 00		 mov	 QWORD PTR glad_glPolygonOffset, rax

; 1959 :     glad_glRotatef = (PFNGLROTATEFPROC)load("glRotatef");

  00238	48 8d 0d 00 00
	00 00		 lea	 rcx, OFFSET FLAT:??_C@_09FCODNBIM@glRotatef@
  0023f	ff 55 50	 call	 QWORD PTR load$[rbp]
  00242	48 89 05 00 00
	00 00		 mov	 QWORD PTR glad_glRotatef, rax

; 1960 :     glad_glScalef = (PFNGLSCALEFPROC)load("glScalef");

  00249	48 8d 0d 00 00
	00 00		 lea	 rcx, OFFSET FLAT:??_C@_08JCPEOPLK@glScalef@
  00250	ff 55 50	 call	 QWORD PTR load$[rbp]
  00253	48 89 05 00 00
	00 00		 mov	 QWORD PTR glad_glScalef, rax

; 1961 :     glad_glTexEnvf = (PFNGLTEXENVFPROC)load("glTexEnvf");

  0025a	48 8d 0d 00 00
	00 00		 lea	 rcx, OFFSET FLAT:??_C@_09FCLLGECI@glTexEnvf@
  00261	ff 55 50	 call	 QWORD PTR load$[rbp]
  00264	48 89 05 00 00
	00 00		 mov	 QWORD PTR glad_glTexEnvf, rax

; 1962 :     glad_glTexEnvfv = (PFNGLTEXENVFVPROC)load("glTexEnvfv");

  0026b	48 8d 0d 00 00
	00 00		 lea	 rcx, OFFSET FLAT:??_C@_0L@EMICMNOO@glTexEnvfv@
  00272	ff 55 50	 call	 QWORD PTR load$[rbp]
  00275	48 89 05 00 00
	00 00		 mov	 QWORD PTR glad_glTexEnvfv, rax

; 1963 :     glad_glTexParameterf = (PFNGLTEXPARAMETERFPROC)load("glTexParameterf");

  0027c	48 8d 0d 00 00
	00 00		 lea	 rcx, OFFSET FLAT:??_C@_0BA@INKFIMGP@glTexParameterf@
  00283	ff 55 50	 call	 QWORD PTR load$[rbp]
  00286	48 89 05 00 00
	00 00		 mov	 QWORD PTR glad_glTexParameterf, rax

; 1964 :     glad_glTexParameterfv = (PFNGLTEXPARAMETERFVPROC)load("glTexParameterfv");

  0028d	48 8d 0d 00 00
	00 00		 lea	 rcx, OFFSET FLAT:??_C@_0BB@KEOFAHDF@glTexParameterfv@
  00294	ff 55 50	 call	 QWORD PTR load$[rbp]
  00297	48 89 05 00 00
	00 00		 mov	 QWORD PTR glad_glTexParameterfv, rax

; 1965 :     glad_glTranslatef = (PFNGLTRANSLATEFPROC)load("glTranslatef");

  0029e	48 8d 0d 00 00
	00 00		 lea	 rcx, OFFSET FLAT:??_C@_0N@IFPDDBNE@glTranslatef@
  002a5	ff 55 50	 call	 QWORD PTR load$[rbp]
  002a8	48 89 05 00 00
	00 00		 mov	 QWORD PTR glad_glTranslatef, rax

; 1966 :     glad_glActiveTexture = (PFNGLACTIVETEXTUREPROC)load("glActiveTexture");

  002af	48 8d 0d 00 00
	00 00		 lea	 rcx, OFFSET FLAT:??_C@_0BA@KOBBIKOF@glActiveTexture@
  002b6	ff 55 50	 call	 QWORD PTR load$[rbp]
  002b9	48 89 05 00 00
	00 00		 mov	 QWORD PTR glad_glActiveTexture, rax

; 1967 :     glad_glAlphaFuncx = (PFNGLALPHAFUNCXPROC)load("glAlphaFuncx");

  002c0	48 8d 0d 00 00
	00 00		 lea	 rcx, OFFSET FLAT:??_C@_0N@DCJPNJNA@glAlphaFuncx@
  002c7	ff 55 50	 call	 QWORD PTR load$[rbp]
  002ca	48 89 05 00 00
	00 00		 mov	 QWORD PTR glad_glAlphaFuncx, rax

; 1968 :     glad_glBindBuffer = (PFNGLBINDBUFFERPROC)load("glBindBuffer");

  002d1	48 8d 0d 00 00
	00 00		 lea	 rcx, OFFSET FLAT:??_C@_0N@BONEPPLO@glBindBuffer@
  002d8	ff 55 50	 call	 QWORD PTR load$[rbp]
  002db	48 89 05 00 00
	00 00		 mov	 QWORD PTR glad_glBindBuffer, rax

; 1969 :     glad_glBindTexture = (PFNGLBINDTEXTUREPROC)load("glBindTexture");

  002e2	48 8d 0d 00 00
	00 00		 lea	 rcx, OFFSET FLAT:??_C@_0O@JKKCIBGC@glBindTexture@
  002e9	ff 55 50	 call	 QWORD PTR load$[rbp]
  002ec	48 89 05 00 00
	00 00		 mov	 QWORD PTR glad_glBindTexture, rax

; 1970 :     glad_glBlendFunc = (PFNGLBLENDFUNCPROC)load("glBlendFunc");

  002f3	48 8d 0d 00 00
	00 00		 lea	 rcx, OFFSET FLAT:??_C@_0M@PFBKOKOH@glBlendFunc@
  002fa	ff 55 50	 call	 QWORD PTR load$[rbp]
  002fd	48 89 05 00 00
	00 00		 mov	 QWORD PTR glad_glBlendFunc, rax

; 1971 :     glad_glBufferData = (PFNGLBUFFERDATAPROC)load("glBufferData");

  00304	48 8d 0d 00 00
	00 00		 lea	 rcx, OFFSET FLAT:??_C@_0N@JHHJMABP@glBufferData@
  0030b	ff 55 50	 call	 QWORD PTR load$[rbp]
  0030e	48 89 05 00 00
	00 00		 mov	 QWORD PTR glad_glBufferData, rax

; 1972 :     glad_glBufferSubData = (PFNGLBUFFERSUBDATAPROC)load("glBufferSubData");

  00315	48 8d 0d 00 00
	00 00		 lea	 rcx, OFFSET FLAT:??_C@_0BA@GAJMDBBN@glBufferSubData@
  0031c	ff 55 50	 call	 QWORD PTR load$[rbp]
  0031f	48 89 05 00 00
	00 00		 mov	 QWORD PTR glad_glBufferSubData, rax

; 1973 :     glad_glClear = (PFNGLCLEARPROC)load("glClear");

  00326	48 8d 0d 00 00
	00 00		 lea	 rcx, OFFSET FLAT:??_C@_07IBAPPAHJ@glClear@
  0032d	ff 55 50	 call	 QWORD PTR load$[rbp]
  00330	48 89 05 00 00
	00 00		 mov	 QWORD PTR glad_glClear, rax

; 1974 :     glad_glClearColorx = (PFNGLCLEARCOLORXPROC)load("glClearColorx");

  00337	48 8d 0d 00 00
	00 00		 lea	 rcx, OFFSET FLAT:??_C@_0O@NPNIINAH@glClearColorx@
  0033e	ff 55 50	 call	 QWORD PTR load$[rbp]
  00341	48 89 05 00 00
	00 00		 mov	 QWORD PTR glad_glClearColorx, rax

; 1975 :     glad_glClearDepthx = (PFNGLCLEARDEPTHXPROC)load("glClearDepthx");

  00348	48 8d 0d 00 00
	00 00		 lea	 rcx, OFFSET FLAT:??_C@_0O@IIFNBMFE@glClearDepthx@
  0034f	ff 55 50	 call	 QWORD PTR load$[rbp]
  00352	48 89 05 00 00
	00 00		 mov	 QWORD PTR glad_glClearDepthx, rax

; 1976 :     glad_glClearStencil = (PFNGLCLEARSTENCILPROC)load("glClearStencil");

  00359	48 8d 0d 00 00
	00 00		 lea	 rcx, OFFSET FLAT:??_C@_0P@KBLPBBFP@glClearStencil@
  00360	ff 55 50	 call	 QWORD PTR load$[rbp]
  00363	48 89 05 00 00
	00 00		 mov	 QWORD PTR glad_glClearStencil, rax

; 1977 :     glad_glClientActiveTexture = (PFNGLCLIENTACTIVETEXTUREPROC)load("glClientActiveTexture");

  0036a	48 8d 0d 00 00
	00 00		 lea	 rcx, OFFSET FLAT:??_C@_0BG@EGKOMLFO@glClientActiveTexture@
  00371	ff 55 50	 call	 QWORD PTR load$[rbp]
  00374	48 89 05 00 00
	00 00		 mov	 QWORD PTR glad_glClientActiveTexture, rax

; 1978 :     glad_glClipPlanex = (PFNGLCLIPPLANEXPROC)load("glClipPlanex");

  0037b	48 8d 0d 00 00
	00 00		 lea	 rcx, OFFSET FLAT:??_C@_0N@PMAAHLOD@glClipPlanex@
  00382	ff 55 50	 call	 QWORD PTR load$[rbp]
  00385	48 89 05 00 00
	00 00		 mov	 QWORD PTR glad_glClipPlanex, rax

; 1979 :     glad_glColor4ub = (PFNGLCOLOR4UBPROC)load("glColor4ub");

  0038c	48 8d 0d 00 00
	00 00		 lea	 rcx, OFFSET FLAT:??_C@_0L@IEIGEAFK@glColor4ub@
  00393	ff 55 50	 call	 QWORD PTR load$[rbp]
  00396	48 89 05 00 00
	00 00		 mov	 QWORD PTR glad_glColor4ub, rax

; 1980 :     glad_glColor4x = (PFNGLCOLOR4XPROC)load("glColor4x");

  0039d	48 8d 0d 00 00
	00 00		 lea	 rcx, OFFSET FLAT:??_C@_09COBDPKCK@glColor4x@
  003a4	ff 55 50	 call	 QWORD PTR load$[rbp]
  003a7	48 89 05 00 00
	00 00		 mov	 QWORD PTR glad_glColor4x, rax

; 1981 :     glad_glColorMask = (PFNGLCOLORMASKPROC)load("glColorMask");

  003ae	48 8d 0d 00 00
	00 00		 lea	 rcx, OFFSET FLAT:??_C@_0M@DLGOAHPH@glColorMask@
  003b5	ff 55 50	 call	 QWORD PTR load$[rbp]
  003b8	48 89 05 00 00
	00 00		 mov	 QWORD PTR glad_glColorMask, rax

; 1982 :     glad_glColorPointer = (PFNGLCOLORPOINTERPROC)load("glColorPointer");

  003bf	48 8d 0d 00 00
	00 00		 lea	 rcx, OFFSET FLAT:??_C@_0P@DPKEGLKI@glColorPointer@
  003c6	ff 55 50	 call	 QWORD PTR load$[rbp]
  003c9	48 89 05 00 00
	00 00		 mov	 QWORD PTR glad_glColorPointer, rax

; 1983 :     glad_glCompressedTexImage2D = (PFNGLCOMPRESSEDTEXIMAGE2DPROC)load("glCompressedTexImage2D");

  003d0	48 8d 0d 00 00
	00 00		 lea	 rcx, OFFSET FLAT:??_C@_0BH@GHLPKKFI@glCompressedTexImage2D@
  003d7	ff 55 50	 call	 QWORD PTR load$[rbp]
  003da	48 89 05 00 00
	00 00		 mov	 QWORD PTR glad_glCompressedTexImage2D, rax

; 1984 :     glad_glCompressedTexSubImage2D = (PFNGLCOMPRESSEDTEXSUBIMAGE2DPROC)load("glCompressedTexSubImage2D");

  003e1	48 8d 0d 00 00
	00 00		 lea	 rcx, OFFSET FLAT:??_C@_0BK@EAFOEJMH@glCompressedTexSubImage2D@
  003e8	ff 55 50	 call	 QWORD PTR load$[rbp]
  003eb	48 89 05 00 00
	00 00		 mov	 QWORD PTR glad_glCompressedTexSubImage2D, rax

; 1985 :     glad_glCopyTexImage2D = (PFNGLCOPYTEXIMAGE2DPROC)load("glCopyTexImage2D");

  003f2	48 8d 0d 00 00
	00 00		 lea	 rcx, OFFSET FLAT:??_C@_0BB@MGAFKJKC@glCopyTexImage2D@
  003f9	ff 55 50	 call	 QWORD PTR load$[rbp]
  003fc	48 89 05 00 00
	00 00		 mov	 QWORD PTR glad_glCopyTexImage2D, rax

; 1986 :     glad_glCopyTexSubImage2D = (PFNGLCOPYTEXSUBIMAGE2DPROC)load("glCopyTexSubImage2D");

  00403	48 8d 0d 00 00
	00 00		 lea	 rcx, OFFSET FLAT:??_C@_0BE@PIJELGDB@glCopyTexSubImage2D@
  0040a	ff 55 50	 call	 QWORD PTR load$[rbp]
  0040d	48 89 05 00 00
	00 00		 mov	 QWORD PTR glad_glCopyTexSubImage2D, rax

; 1987 :     glad_glCullFace = (PFNGLCULLFACEPROC)load("glCullFace");

  00414	48 8d 0d 00 00
	00 00		 lea	 rcx, OFFSET FLAT:??_C@_0L@BAPBLHME@glCullFace@
  0041b	ff 55 50	 call	 QWORD PTR load$[rbp]
  0041e	48 89 05 00 00
	00 00		 mov	 QWORD PTR glad_glCullFace, rax

; 1988 :     glad_glDeleteBuffers = (PFNGLDELETEBUFFERSPROC)load("glDeleteBuffers");

  00425	48 8d 0d 00 00
	00 00		 lea	 rcx, OFFSET FLAT:??_C@_0BA@DMNLADIO@glDeleteBuffers@
  0042c	ff 55 50	 call	 QWORD PTR load$[rbp]
  0042f	48 89 05 00 00
	00 00		 mov	 QWORD PTR glad_glDeleteBuffers, rax

; 1989 :     glad_glDeleteTextures = (PFNGLDELETETEXTURESPROC)load("glDeleteTextures");

  00436	48 8d 0d 00 00
	00 00		 lea	 rcx, OFFSET FLAT:??_C@_0BB@KMPLFJIC@glDeleteTextures@
  0043d	ff 55 50	 call	 QWORD PTR load$[rbp]
  00440	48 89 05 00 00
	00 00		 mov	 QWORD PTR glad_glDeleteTextures, rax

; 1990 :     glad_glDepthFunc = (PFNGLDEPTHFUNCPROC)load("glDepthFunc");

  00447	48 8d 0d 00 00
	00 00		 lea	 rcx, OFFSET FLAT:??_C@_0M@NEJABAEP@glDepthFunc@
  0044e	ff 55 50	 call	 QWORD PTR load$[rbp]
  00451	48 89 05 00 00
	00 00		 mov	 QWORD PTR glad_glDepthFunc, rax

; 1991 :     glad_glDepthMask = (PFNGLDEPTHMASKPROC)load("glDepthMask");

  00458	48 8d 0d 00 00
	00 00		 lea	 rcx, OFFSET FLAT:??_C@_0M@KABMFLLN@glDepthMask@
  0045f	ff 55 50	 call	 QWORD PTR load$[rbp]
  00462	48 89 05 00 00
	00 00		 mov	 QWORD PTR glad_glDepthMask, rax

; 1992 :     glad_glDepthRangex = (PFNGLDEPTHRANGEXPROC)load("glDepthRangex");

  00469	48 8d 0d 00 00
	00 00		 lea	 rcx, OFFSET FLAT:??_C@_0O@EHBIACAM@glDepthRangex@
  00470	ff 55 50	 call	 QWORD PTR load$[rbp]
  00473	48 89 05 00 00
	00 00		 mov	 QWORD PTR glad_glDepthRangex, rax

; 1993 :     glad_glDisable = (PFNGLDISABLEPROC)load("glDisable");

  0047a	48 8d 0d 00 00
	00 00		 lea	 rcx, OFFSET FLAT:??_C@_09MHGMIMKN@glDisable@
  00481	ff 55 50	 call	 QWORD PTR load$[rbp]
  00484	48 89 05 00 00
	00 00		 mov	 QWORD PTR glad_glDisable, rax

; 1994 :     glad_glDisableClientState = (PFNGLDISABLECLIENTSTATEPROC)load("glDisableClientState");

  0048b	48 8d 0d 00 00
	00 00		 lea	 rcx, OFFSET FLAT:??_C@_0BF@LJDHBNBP@glDisableClientState@
  00492	ff 55 50	 call	 QWORD PTR load$[rbp]
  00495	48 89 05 00 00
	00 00		 mov	 QWORD PTR glad_glDisableClientState, rax

; 1995 :     glad_glDrawArrays = (PFNGLDRAWARRAYSPROC)load("glDrawArrays");

  0049c	48 8d 0d 00 00
	00 00		 lea	 rcx, OFFSET FLAT:??_C@_0N@CMNPPOHA@glDrawArrays@
  004a3	ff 55 50	 call	 QWORD PTR load$[rbp]
  004a6	48 89 05 00 00
	00 00		 mov	 QWORD PTR glad_glDrawArrays, rax

; 1996 :     glad_glDrawElements = (PFNGLDRAWELEMENTSPROC)load("glDrawElements");

  004ad	48 8d 0d 00 00
	00 00		 lea	 rcx, OFFSET FLAT:??_C@_0P@MENFIFGE@glDrawElements@
  004b4	ff 55 50	 call	 QWORD PTR load$[rbp]
  004b7	48 89 05 00 00
	00 00		 mov	 QWORD PTR glad_glDrawElements, rax

; 1997 :     glad_glEnable = (PFNGLENABLEPROC)load("glEnable");

  004be	48 8d 0d 00 00
	00 00		 lea	 rcx, OFFSET FLAT:??_C@_08OOEHEKOP@glEnable@
  004c5	ff 55 50	 call	 QWORD PTR load$[rbp]
  004c8	48 89 05 00 00
	00 00		 mov	 QWORD PTR glad_glEnable, rax

; 1998 :     glad_glEnableClientState = (PFNGLENABLECLIENTSTATEPROC)load("glEnableClientState");

  004cf	48 8d 0d 00 00
	00 00		 lea	 rcx, OFFSET FLAT:??_C@_0BE@KECPKGNE@glEnableClientState@
  004d6	ff 55 50	 call	 QWORD PTR load$[rbp]
  004d9	48 89 05 00 00
	00 00		 mov	 QWORD PTR glad_glEnableClientState, rax

; 1999 :     glad_glFinish = (PFNGLFINISHPROC)load("glFinish");

  004e0	48 8d 0d 00 00
	00 00		 lea	 rcx, OFFSET FLAT:??_C@_08DFCPOKBK@glFinish@
  004e7	ff 55 50	 call	 QWORD PTR load$[rbp]
  004ea	48 89 05 00 00
	00 00		 mov	 QWORD PTR glad_glFinish, rax

; 2000 :     glad_glFlush = (PFNGLFLUSHPROC)load("glFlush");

  004f1	48 8d 0d 00 00
	00 00		 lea	 rcx, OFFSET FLAT:??_C@_07COFELLJA@glFlush@
  004f8	ff 55 50	 call	 QWORD PTR load$[rbp]
  004fb	48 89 05 00 00
	00 00		 mov	 QWORD PTR glad_glFlush, rax

; 2001 :     glad_glFogx = (PFNGLFOGXPROC)load("glFogx");

  00502	48 8d 0d 00 00
	00 00		 lea	 rcx, OFFSET FLAT:??_C@_06ENDMPJCM@glFogx@
  00509	ff 55 50	 call	 QWORD PTR load$[rbp]
  0050c	48 89 05 00 00
	00 00		 mov	 QWORD PTR glad_glFogx, rax

; 2002 :     glad_glFogxv = (PFNGLFOGXVPROC)load("glFogxv");

  00513	48 8d 0d 00 00
	00 00		 lea	 rcx, OFFSET FLAT:??_C@_07ELPAIOGK@glFogxv@
  0051a	ff 55 50	 call	 QWORD PTR load$[rbp]
  0051d	48 89 05 00 00
	00 00		 mov	 QWORD PTR glad_glFogxv, rax

; 2003 :     glad_glFrontFace = (PFNGLFRONTFACEPROC)load("glFrontFace");

  00524	48 8d 0d 00 00
	00 00		 lea	 rcx, OFFSET FLAT:??_C@_0M@ILBMDJDA@glFrontFace@
  0052b	ff 55 50	 call	 QWORD PTR load$[rbp]
  0052e	48 89 05 00 00
	00 00		 mov	 QWORD PTR glad_glFrontFace, rax

; 2004 :     glad_glFrustumx = (PFNGLFRUSTUMXPROC)load("glFrustumx");

  00535	48 8d 0d 00 00
	00 00		 lea	 rcx, OFFSET FLAT:??_C@_0L@KBANPIPJ@glFrustumx@
  0053c	ff 55 50	 call	 QWORD PTR load$[rbp]
  0053f	48 89 05 00 00
	00 00		 mov	 QWORD PTR glad_glFrustumx, rax

; 2005 :     glad_glGetBooleanv = (PFNGLGETBOOLEANVPROC)load("glGetBooleanv");

  00546	48 8d 0d 00 00
	00 00		 lea	 rcx, OFFSET FLAT:??_C@_0O@NLMELLCJ@glGetBooleanv@
  0054d	ff 55 50	 call	 QWORD PTR load$[rbp]
  00550	48 89 05 00 00
	00 00		 mov	 QWORD PTR glad_glGetBooleanv, rax

; 2006 :     glad_glGetBufferParameteriv = (PFNGLGETBUFFERPARAMETERIVPROC)load("glGetBufferParameteriv");

  00557	48 8d 0d 00 00
	00 00		 lea	 rcx, OFFSET FLAT:??_C@_0BH@BMIEIFJP@glGetBufferParameteriv@
  0055e	ff 55 50	 call	 QWORD PTR load$[rbp]
  00561	48 89 05 00 00
	00 00		 mov	 QWORD PTR glad_glGetBufferParameteriv, rax

; 2007 :     glad_glGetClipPlanex = (PFNGLGETCLIPPLANEXPROC)load("glGetClipPlanex");

  00568	48 8d 0d 00 00
	00 00		 lea	 rcx, OFFSET FLAT:??_C@_0BA@JCIAJMLJ@glGetClipPlanex@
  0056f	ff 55 50	 call	 QWORD PTR load$[rbp]
  00572	48 89 05 00 00
	00 00		 mov	 QWORD PTR glad_glGetClipPlanex, rax

; 2008 :     glad_glGenBuffers = (PFNGLGENBUFFERSPROC)load("glGenBuffers");

  00579	48 8d 0d 00 00
	00 00		 lea	 rcx, OFFSET FLAT:??_C@_0N@LAOHBIBA@glGenBuffers@
  00580	ff 55 50	 call	 QWORD PTR load$[rbp]
  00583	48 89 05 00 00
	00 00		 mov	 QWORD PTR glad_glGenBuffers, rax

; 2009 :     glad_glGenTextures = (PFNGLGENTEXTURESPROC)load("glGenTextures");

  0058a	48 8d 0d 00 00
	00 00		 lea	 rcx, OFFSET FLAT:??_C@_0O@LLMANLNK@glGenTextures@
  00591	ff 55 50	 call	 QWORD PTR load$[rbp]
  00594	48 89 05 00 00
	00 00		 mov	 QWORD PTR glad_glGenTextures, rax

; 2010 :     glad_glGetError = (PFNGLGETERRORPROC)load("glGetError");

  0059b	48 8d 0d 00 00
	00 00		 lea	 rcx, OFFSET FLAT:??_C@_0L@FPKAMKHB@glGetError@
  005a2	ff 55 50	 call	 QWORD PTR load$[rbp]
  005a5	48 89 05 00 00
	00 00		 mov	 QWORD PTR glad_glGetError, rax

; 2011 :     glad_glGetFixedv = (PFNGLGETFIXEDVPROC)load("glGetFixedv");

  005ac	48 8d 0d 00 00
	00 00		 lea	 rcx, OFFSET FLAT:??_C@_0M@DLGHPANC@glGetFixedv@
  005b3	ff 55 50	 call	 QWORD PTR load$[rbp]
  005b6	48 89 05 00 00
	00 00		 mov	 QWORD PTR glad_glGetFixedv, rax

; 2012 :     glad_glGetIntegerv = (PFNGLGETINTEGERVPROC)load("glGetIntegerv");

  005bd	48 8d 0d 00 00
	00 00		 lea	 rcx, OFFSET FLAT:??_C@_0O@DHHDCCLF@glGetIntegerv@
  005c4	ff 55 50	 call	 QWORD PTR load$[rbp]
  005c7	48 89 05 00 00
	00 00		 mov	 QWORD PTR glad_glGetIntegerv, rax

; 2013 :     glad_glGetLightxv = (PFNGLGETLIGHTXVPROC)load("glGetLightxv");

  005ce	48 8d 0d 00 00
	00 00		 lea	 rcx, OFFSET FLAT:??_C@_0N@NANEBINK@glGetLightxv@
  005d5	ff 55 50	 call	 QWORD PTR load$[rbp]
  005d8	48 89 05 00 00
	00 00		 mov	 QWORD PTR glad_glGetLightxv, rax

; 2014 :     glad_glGetMaterialxv = (PFNGLGETMATERIALXVPROC)load("glGetMaterialxv");

  005df	48 8d 0d 00 00
	00 00		 lea	 rcx, OFFSET FLAT:??_C@_0BA@HEEHMKEG@glGetMaterialxv@
  005e6	ff 55 50	 call	 QWORD PTR load$[rbp]
  005e9	48 89 05 00 00
	00 00		 mov	 QWORD PTR glad_glGetMaterialxv, rax

; 2015 :     glad_glGetPointerv = (PFNGLGETPOINTERVPROC)load("glGetPointerv");

  005f0	48 8d 0d 00 00
	00 00		 lea	 rcx, OFFSET FLAT:??_C@_0O@LADEDGJO@glGetPointerv@
  005f7	ff 55 50	 call	 QWORD PTR load$[rbp]
  005fa	48 89 05 00 00
	00 00		 mov	 QWORD PTR glad_glGetPointerv, rax

; 2016 :     glad_glGetString = (PFNGLGETSTRINGPROC)load("glGetString");

  00601	48 8d 0d 00 00
	00 00		 lea	 rcx, OFFSET FLAT:??_C@_0M@OPOBFDCB@glGetString@
  00608	ff 55 50	 call	 QWORD PTR load$[rbp]
  0060b	48 89 05 00 00
	00 00		 mov	 QWORD PTR glad_glGetString, rax

; 2017 :     glad_glGetTexEnviv = (PFNGLGETTEXENVIVPROC)load("glGetTexEnviv");

  00612	48 8d 0d 00 00
	00 00		 lea	 rcx, OFFSET FLAT:??_C@_0O@KIFFCCBG@glGetTexEnviv@
  00619	ff 55 50	 call	 QWORD PTR load$[rbp]
  0061c	48 89 05 00 00
	00 00		 mov	 QWORD PTR glad_glGetTexEnviv, rax

; 2018 :     glad_glGetTexEnvxv = (PFNGLGETTEXENVXVPROC)load("glGetTexEnvxv");

  00623	48 8d 0d 00 00
	00 00		 lea	 rcx, OFFSET FLAT:??_C@_0O@LFLBOLFB@glGetTexEnvxv@
  0062a	ff 55 50	 call	 QWORD PTR load$[rbp]
  0062d	48 89 05 00 00
	00 00		 mov	 QWORD PTR glad_glGetTexEnvxv, rax

; 2019 :     glad_glGetTexParameteriv = (PFNGLGETTEXPARAMETERIVPROC)load("glGetTexParameteriv");

  00634	48 8d 0d 00 00
	00 00		 lea	 rcx, OFFSET FLAT:??_C@_0BE@DGCNLNPP@glGetTexParameteriv@
  0063b	ff 55 50	 call	 QWORD PTR load$[rbp]
  0063e	48 89 05 00 00
	00 00		 mov	 QWORD PTR glad_glGetTexParameteriv, rax

; 2020 :     glad_glGetTexParameterxv = (PFNGLGETTEXPARAMETERXVPROC)load("glGetTexParameterxv");

  00645	48 8d 0d 00 00
	00 00		 lea	 rcx, OFFSET FLAT:??_C@_0BE@CLMJHELI@glGetTexParameterxv@
  0064c	ff 55 50	 call	 QWORD PTR load$[rbp]
  0064f	48 89 05 00 00
	00 00		 mov	 QWORD PTR glad_glGetTexParameterxv, rax

; 2021 :     glad_glHint = (PFNGLHINTPROC)load("glHint");

  00656	48 8d 0d 00 00
	00 00		 lea	 rcx, OFFSET FLAT:??_C@_06HEADGMBC@glHint@
  0065d	ff 55 50	 call	 QWORD PTR load$[rbp]
  00660	48 89 05 00 00
	00 00		 mov	 QWORD PTR glad_glHint, rax

; 2022 :     glad_glIsBuffer = (PFNGLISBUFFERPROC)load("glIsBuffer");

  00667	48 8d 0d 00 00
	00 00		 lea	 rcx, OFFSET FLAT:??_C@_0L@KFPDMKNG@glIsBuffer@
  0066e	ff 55 50	 call	 QWORD PTR load$[rbp]
  00671	48 89 05 00 00
	00 00		 mov	 QWORD PTR glad_glIsBuffer, rax

; 2023 :     glad_glIsEnabled = (PFNGLISENABLEDPROC)load("glIsEnabled");

  00678	48 8d 0d 00 00
	00 00		 lea	 rcx, OFFSET FLAT:??_C@_0M@INHMIHKC@glIsEnabled@
  0067f	ff 55 50	 call	 QWORD PTR load$[rbp]
  00682	48 89 05 00 00
	00 00		 mov	 QWORD PTR glad_glIsEnabled, rax

; 2024 :     glad_glIsTexture = (PFNGLISTEXTUREPROC)load("glIsTexture");

  00689	48 8d 0d 00 00
	00 00		 lea	 rcx, OFFSET FLAT:??_C@_0M@NJHAEPDN@glIsTexture@
  00690	ff 55 50	 call	 QWORD PTR load$[rbp]
  00693	48 89 05 00 00
	00 00		 mov	 QWORD PTR glad_glIsTexture, rax

; 2025 :     glad_glLightModelx = (PFNGLLIGHTMODELXPROC)load("glLightModelx");

  0069a	48 8d 0d 00 00
	00 00		 lea	 rcx, OFFSET FLAT:??_C@_0O@KLGIIPFH@glLightModelx@
  006a1	ff 55 50	 call	 QWORD PTR load$[rbp]
  006a4	48 89 05 00 00
	00 00		 mov	 QWORD PTR glad_glLightModelx, rax

; 2026 :     glad_glLightModelxv = (PFNGLLIGHTMODELXVPROC)load("glLightModelxv");

  006ab	48 8d 0d 00 00
	00 00		 lea	 rcx, OFFSET FLAT:??_C@_0P@IMMBHCKI@glLightModelxv@
  006b2	ff 55 50	 call	 QWORD PTR load$[rbp]
  006b5	48 89 05 00 00
	00 00		 mov	 QWORD PTR glad_glLightModelxv, rax

; 2027 :     glad_glLightx = (PFNGLLIGHTXPROC)load("glLightx");

  006bc	48 8d 0d 00 00
	00 00		 lea	 rcx, OFFSET FLAT:??_C@_08GLHOLEJE@glLightx@
  006c3	ff 55 50	 call	 QWORD PTR load$[rbp]
  006c6	48 89 05 00 00
	00 00		 mov	 QWORD PTR glad_glLightx, rax

; 2028 :     glad_glLightxv = (PFNGLLIGHTXVPROC)load("glLightxv");

  006cd	48 8d 0d 00 00
	00 00		 lea	 rcx, OFFSET FLAT:??_C@_09IOGMPHJJ@glLightxv@
  006d4	ff 55 50	 call	 QWORD PTR load$[rbp]
  006d7	48 89 05 00 00
	00 00		 mov	 QWORD PTR glad_glLightxv, rax

; 2029 :     glad_glLineWidthx = (PFNGLLINEWIDTHXPROC)load("glLineWidthx");

  006de	48 8d 0d 00 00
	00 00		 lea	 rcx, OFFSET FLAT:??_C@_0N@LDBNBCAC@glLineWidthx@
  006e5	ff 55 50	 call	 QWORD PTR load$[rbp]
  006e8	48 89 05 00 00
	00 00		 mov	 QWORD PTR glad_glLineWidthx, rax

; 2030 :     glad_glLoadIdentity = (PFNGLLOADIDENTITYPROC)load("glLoadIdentity");

  006ef	48 8d 0d 00 00
	00 00		 lea	 rcx, OFFSET FLAT:??_C@_0P@EJAFHEPO@glLoadIdentity@
  006f6	ff 55 50	 call	 QWORD PTR load$[rbp]
  006f9	48 89 05 00 00
	00 00		 mov	 QWORD PTR glad_glLoadIdentity, rax

; 2031 :     glad_glLoadMatrixx = (PFNGLLOADMATRIXXPROC)load("glLoadMatrixx");

  00700	48 8d 0d 00 00
	00 00		 lea	 rcx, OFFSET FLAT:??_C@_0O@ONCAPJJH@glLoadMatrixx@
  00707	ff 55 50	 call	 QWORD PTR load$[rbp]
  0070a	48 89 05 00 00
	00 00		 mov	 QWORD PTR glad_glLoadMatrixx, rax

; 2032 :     glad_glLogicOp = (PFNGLLOGICOPPROC)load("glLogicOp");

  00711	48 8d 0d 00 00
	00 00		 lea	 rcx, OFFSET FLAT:??_C@_09GKGMNAKG@glLogicOp@
  00718	ff 55 50	 call	 QWORD PTR load$[rbp]
  0071b	48 89 05 00 00
	00 00		 mov	 QWORD PTR glad_glLogicOp, rax

; 2033 :     glad_glMaterialx = (PFNGLMATERIALXPROC)load("glMaterialx");

  00722	48 8d 0d 00 00
	00 00		 lea	 rcx, OFFSET FLAT:??_C@_0M@KEJPLFBN@glMaterialx@
  00729	ff 55 50	 call	 QWORD PTR load$[rbp]
  0072c	48 89 05 00 00
	00 00		 mov	 QWORD PTR glad_glMaterialx, rax

; 2034 :     glad_glMaterialxv = (PFNGLMATERIALXVPROC)load("glMaterialxv");

  00733	48 8d 0d 00 00
	00 00		 lea	 rcx, OFFSET FLAT:??_C@_0N@BKMHCNBM@glMaterialxv@
  0073a	ff 55 50	 call	 QWORD PTR load$[rbp]
  0073d	48 89 05 00 00
	00 00		 mov	 QWORD PTR glad_glMaterialxv, rax

; 2035 :     glad_glMatrixMode = (PFNGLMATRIXMODEPROC)load("glMatrixMode");

  00744	48 8d 0d 00 00
	00 00		 lea	 rcx, OFFSET FLAT:??_C@_0N@KDLNHKEJ@glMatrixMode@
  0074b	ff 55 50	 call	 QWORD PTR load$[rbp]
  0074e	48 89 05 00 00
	00 00		 mov	 QWORD PTR glad_glMatrixMode, rax

; 2036 :     glad_glMultMatrixx = (PFNGLMULTMATRIXXPROC)load("glMultMatrixx");

  00755	48 8d 0d 00 00
	00 00		 lea	 rcx, OFFSET FLAT:??_C@_0O@GDOCOAHG@glMultMatrixx@
  0075c	ff 55 50	 call	 QWORD PTR load$[rbp]
  0075f	48 89 05 00 00
	00 00		 mov	 QWORD PTR glad_glMultMatrixx, rax

; 2037 :     glad_glMultiTexCoord4x = (PFNGLMULTITEXCOORD4XPROC)load("glMultiTexCoord4x");

  00766	48 8d 0d 00 00
	00 00		 lea	 rcx, OFFSET FLAT:??_C@_0BC@GHMDGKEJ@glMultiTexCoord4x@
  0076d	ff 55 50	 call	 QWORD PTR load$[rbp]
  00770	48 89 05 00 00
	00 00		 mov	 QWORD PTR glad_glMultiTexCoord4x, rax

; 2038 :     glad_glNormal3x = (PFNGLNORMAL3XPROC)load("glNormal3x");

  00777	48 8d 0d 00 00
	00 00		 lea	 rcx, OFFSET FLAT:??_C@_0L@OCCDCACD@glNormal3x@
  0077e	ff 55 50	 call	 QWORD PTR load$[rbp]
  00781	48 89 05 00 00
	00 00		 mov	 QWORD PTR glad_glNormal3x, rax

; 2039 :     glad_glNormalPointer = (PFNGLNORMALPOINTERPROC)load("glNormalPointer");

  00788	48 8d 0d 00 00
	00 00		 lea	 rcx, OFFSET FLAT:??_C@_0BA@DCLMCEOP@glNormalPointer@
  0078f	ff 55 50	 call	 QWORD PTR load$[rbp]
  00792	48 89 05 00 00
	00 00		 mov	 QWORD PTR glad_glNormalPointer, rax

; 2040 :     glad_glOrthox = (PFNGLORTHOXPROC)load("glOrthox");

  00799	48 8d 0d 00 00
	00 00		 lea	 rcx, OFFSET FLAT:??_C@_08ELEPNJC@glOrthox@
  007a0	ff 55 50	 call	 QWORD PTR load$[rbp]
  007a3	48 89 05 00 00
	00 00		 mov	 QWORD PTR glad_glOrthox, rax

; 2041 :     glad_glPixelStorei = (PFNGLPIXELSTOREIPROC)load("glPixelStorei");

  007aa	48 8d 0d 00 00
	00 00		 lea	 rcx, OFFSET FLAT:??_C@_0O@JCCIGLOF@glPixelStorei@
  007b1	ff 55 50	 call	 QWORD PTR load$[rbp]
  007b4	48 89 05 00 00
	00 00		 mov	 QWORD PTR glad_glPixelStorei, rax

; 2042 :     glad_glPointParameterx = (PFNGLPOINTPARAMETERXPROC)load("glPointParameterx");

  007bb	48 8d 0d 00 00
	00 00		 lea	 rcx, OFFSET FLAT:??_C@_0BC@NBCPNLOB@glPointParameterx@
  007c2	ff 55 50	 call	 QWORD PTR load$[rbp]
  007c5	48 89 05 00 00
	00 00		 mov	 QWORD PTR glad_glPointParameterx, rax

; 2043 :     glad_glPointParameterxv = (PFNGLPOINTPARAMETERXVPROC)load("glPointParameterxv");

  007cc	48 8d 0d 00 00
	00 00		 lea	 rcx, OFFSET FLAT:??_C@_0BD@KOLJCDEF@glPointParameterxv@
  007d3	ff 55 50	 call	 QWORD PTR load$[rbp]
  007d6	48 89 05 00 00
	00 00		 mov	 QWORD PTR glad_glPointParameterxv, rax

; 2044 :     glad_glPointSizex = (PFNGLPOINTSIZEXPROC)load("glPointSizex");

  007dd	48 8d 0d 00 00
	00 00		 lea	 rcx, OFFSET FLAT:??_C@_0N@GIMHGCMN@glPointSizex@
  007e4	ff 55 50	 call	 QWORD PTR load$[rbp]
  007e7	48 89 05 00 00
	00 00		 mov	 QWORD PTR glad_glPointSizex, rax

; 2045 :     glad_glPolygonOffsetx = (PFNGLPOLYGONOFFSETXPROC)load("glPolygonOffsetx");

  007ee	48 8d 0d 00 00
	00 00		 lea	 rcx, OFFSET FLAT:??_C@_0BB@IPDOBBJA@glPolygonOffsetx@
  007f5	ff 55 50	 call	 QWORD PTR load$[rbp]
  007f8	48 89 05 00 00
	00 00		 mov	 QWORD PTR glad_glPolygonOffsetx, rax

; 2046 :     glad_glPopMatrix = (PFNGLPOPMATRIXPROC)load("glPopMatrix");

  007ff	48 8d 0d 00 00
	00 00		 lea	 rcx, OFFSET FLAT:??_C@_0M@JPEAAEEK@glPopMatrix@
  00806	ff 55 50	 call	 QWORD PTR load$[rbp]
  00809	48 89 05 00 00
	00 00		 mov	 QWORD PTR glad_glPopMatrix, rax

; 2047 :     glad_glPushMatrix = (PFNGLPUSHMATRIXPROC)load("glPushMatrix");

  00810	48 8d 0d 00 00
	00 00		 lea	 rcx, OFFSET FLAT:??_C@_0N@IHFNHGBL@glPushMatrix@
  00817	ff 55 50	 call	 QWORD PTR load$[rbp]
  0081a	48 89 05 00 00
	00 00		 mov	 QWORD PTR glad_glPushMatrix, rax

; 2048 :     glad_glReadPixels = (PFNGLREADPIXELSPROC)load("glReadPixels");

  00821	48 8d 0d 00 00
	00 00		 lea	 rcx, OFFSET FLAT:??_C@_0N@CKFNNHOO@glReadPixels@
  00828	ff 55 50	 call	 QWORD PTR load$[rbp]
  0082b	48 89 05 00 00
	00 00		 mov	 QWORD PTR glad_glReadPixels, rax

; 2049 :     glad_glRotatex = (PFNGLROTATEXPROC)load("glRotatex");

  00832	48 8d 0d 00 00
	00 00		 lea	 rcx, OFFSET FLAT:??_C@_09IGKCOOFD@glRotatex@
  00839	ff 55 50	 call	 QWORD PTR load$[rbp]
  0083c	48 89 05 00 00
	00 00		 mov	 QWORD PTR glad_glRotatex, rax

; 2050 :     glad_glSampleCoverage = (PFNGLSAMPLECOVERAGEPROC)load("glSampleCoverage");

  00843	48 8d 0d 00 00
	00 00		 lea	 rcx, OFFSET FLAT:??_C@_0BB@BJGIPMOA@glSampleCoverage@
  0084a	ff 55 50	 call	 QWORD PTR load$[rbp]
  0084d	48 89 05 00 00
	00 00		 mov	 QWORD PTR glad_glSampleCoverage, rax

; 2051 :     glad_glSampleCoveragex = (PFNGLSAMPLECOVERAGEXPROC)load("glSampleCoveragex");

  00854	48 8d 0d 00 00
	00 00		 lea	 rcx, OFFSET FLAT:??_C@_0BC@EHPFHJHK@glSampleCoveragex@
  0085b	ff 55 50	 call	 QWORD PTR load$[rbp]
  0085e	48 89 05 00 00
	00 00		 mov	 QWORD PTR glad_glSampleCoveragex, rax

; 2052 :     glad_glScalex = (PFNGLSCALEXPROC)load("glScalex");

  00865	48 8d 0d 00 00
	00 00		 lea	 rcx, OFFSET FLAT:??_C@_08EGLFNAGF@glScalex@
  0086c	ff 55 50	 call	 QWORD PTR load$[rbp]
  0086f	48 89 05 00 00
	00 00		 mov	 QWORD PTR glad_glScalex, rax

; 2053 :     glad_glScissor = (PFNGLSCISSORPROC)load("glScissor");

  00876	48 8d 0d 00 00
	00 00		 lea	 rcx, OFFSET FLAT:??_C@_09ECGPAEPL@glScissor@
  0087d	ff 55 50	 call	 QWORD PTR load$[rbp]
  00880	48 89 05 00 00
	00 00		 mov	 QWORD PTR glad_glScissor, rax

; 2054 :     glad_glShadeModel = (PFNGLSHADEMODELPROC)load("glShadeModel");

  00887	48 8d 0d 00 00
	00 00		 lea	 rcx, OFFSET FLAT:??_C@_0N@NALMFHKN@glShadeModel@
  0088e	ff 55 50	 call	 QWORD PTR load$[rbp]
  00891	48 89 05 00 00
	00 00		 mov	 QWORD PTR glad_glShadeModel, rax

; 2055 :     glad_glStencilFunc = (PFNGLSTENCILFUNCPROC)load("glStencilFunc");

  00898	48 8d 0d 00 00
	00 00		 lea	 rcx, OFFSET FLAT:??_C@_0O@ENNLLOLN@glStencilFunc@
  0089f	ff 55 50	 call	 QWORD PTR load$[rbp]
  008a2	48 89 05 00 00
	00 00		 mov	 QWORD PTR glad_glStencilFunc, rax

; 2056 :     glad_glStencilMask = (PFNGLSTENCILMASKPROC)load("glStencilMask");

  008a9	48 8d 0d 00 00
	00 00		 lea	 rcx, OFFSET FLAT:??_C@_0O@DJFHPFEP@glStencilMask@
  008b0	ff 55 50	 call	 QWORD PTR load$[rbp]
  008b3	48 89 05 00 00
	00 00		 mov	 QWORD PTR glad_glStencilMask, rax

; 2057 :     glad_glStencilOp = (PFNGLSTENCILOPPROC)load("glStencilOp");

  008ba	48 8d 0d 00 00
	00 00		 lea	 rcx, OFFSET FLAT:??_C@_0M@BILBNGF@glStencilOp@
  008c1	ff 55 50	 call	 QWORD PTR load$[rbp]
  008c4	48 89 05 00 00
	00 00		 mov	 QWORD PTR glad_glStencilOp, rax

; 2058 :     glad_glTexCoordPointer = (PFNGLTEXCOORDPOINTERPROC)load("glTexCoordPointer");

  008cb	48 8d 0d 00 00
	00 00		 lea	 rcx, OFFSET FLAT:??_C@_0BC@DAOMILMO@glTexCoordPointer@
  008d2	ff 55 50	 call	 QWORD PTR load$[rbp]
  008d5	48 89 05 00 00
	00 00		 mov	 QWORD PTR glad_glTexCoordPointer, rax

; 2059 :     glad_glTexEnvi = (PFNGLTEXENVIPROC)load("glTexEnvi");

  008dc	48 8d 0d 00 00
	00 00		 lea	 rcx, OFFSET FLAT:??_C@_09NFCDHIOH@glTexEnvi@
  008e3	ff 55 50	 call	 QWORD PTR load$[rbp]
  008e6	48 89 05 00 00
	00 00		 mov	 QWORD PTR glad_glTexEnvi, rax

; 2060 :     glad_glTexEnvx = (PFNGLTEXENVXPROC)load("glTexEnvx");

  008ed	48 8d 0d 00 00
	00 00		 lea	 rcx, OFFSET FLAT:??_C@_09IGPKFLPH@glTexEnvx@
  008f4	ff 55 50	 call	 QWORD PTR load$[rbp]
  008f7	48 89 05 00 00
	00 00		 mov	 QWORD PTR glad_glTexEnvx, rax

; 2061 :     glad_glTexEnviv = (PFNGLTEXENVIVPROC)load("glTexEnviv");

  008fe	48 8d 0d 00 00
	00 00		 lea	 rcx, OFFSET FLAT:??_C@_0L@EHNOIKND@glTexEnviv@
  00905	ff 55 50	 call	 QWORD PTR load$[rbp]
  00908	48 89 05 00 00
	00 00		 mov	 QWORD PTR glad_glTexEnviv, rax

; 2062 :     glad_glTexEnvxv = (PFNGLTEXENVXVPROC)load("glTexEnvxv");

  0090f	48 8d 0d 00 00
	00 00		 lea	 rcx, OFFSET FLAT:??_C@_0L@FKDKEDJE@glTexEnvxv@
  00916	ff 55 50	 call	 QWORD PTR load$[rbp]
  00919	48 89 05 00 00
	00 00		 mov	 QWORD PTR glad_glTexEnvxv, rax

; 2063 :     glad_glTexImage2D = (PFNGLTEXIMAGE2DPROC)load("glTexImage2D");

  00920	48 8d 0d 00 00
	00 00		 lea	 rcx, OFFSET FLAT:??_C@_0N@JBIKHLCC@glTexImage2D@
  00927	ff 55 50	 call	 QWORD PTR load$[rbp]
  0092a	48 89 05 00 00
	00 00		 mov	 QWORD PTR glad_glTexImage2D, rax

; 2064 :     glad_glTexParameteri = (PFNGLTEXPARAMETERIPROC)load("glTexParameteri");

  00931	48 8d 0d 00 00
	00 00		 lea	 rcx, OFFSET FLAT:??_C@_0BA@KDNJAKA@glTexParameteri@
  00938	ff 55 50	 call	 QWORD PTR load$[rbp]
  0093b	48 89 05 00 00
	00 00		 mov	 QWORD PTR glad_glTexParameteri, rax

; 2065 :     glad_glTexParameterx = (PFNGLTEXPARAMETERXPROC)load("glTexParameterx");

  00942	48 8d 0d 00 00
	00 00		 lea	 rcx, OFFSET FLAT:??_C@_0BA@FJOELDLA@glTexParameterx@
  00949	ff 55 50	 call	 QWORD PTR load$[rbp]
  0094c	48 89 05 00 00
	00 00		 mov	 QWORD PTR glad_glTexParameterx, rax

; 2066 :     glad_glTexParameteriv = (PFNGLTEXPARAMETERIVPROC)load("glTexParameteriv");

  00953	48 8d 0d 00 00
	00 00		 lea	 rcx, OFFSET FLAT:??_C@_0BB@KPLJEAAI@glTexParameteriv@
  0095a	ff 55 50	 call	 QWORD PTR load$[rbp]
  0095d	48 89 05 00 00
	00 00		 mov	 QWORD PTR glad_glTexParameteriv, rax

; 2067 :     glad_glTexParameterxv = (PFNGLTEXPARAMETERXVPROC)load("glTexParameterxv");

  00964	48 8d 0d 00 00
	00 00		 lea	 rcx, OFFSET FLAT:??_C@_0BB@LCFNIJEP@glTexParameterxv@
  0096b	ff 55 50	 call	 QWORD PTR load$[rbp]
  0096e	48 89 05 00 00
	00 00		 mov	 QWORD PTR glad_glTexParameterxv, rax

; 2068 :     glad_glTexSubImage2D = (PFNGLTEXSUBIMAGE2DPROC)load("glTexSubImage2D");

  00975	48 8d 0d 00 00
	00 00		 lea	 rcx, OFFSET FLAT:??_C@_0BA@NHKIJEMK@glTexSubImage2D@
  0097c	ff 55 50	 call	 QWORD PTR load$[rbp]
  0097f	48 89 05 00 00
	00 00		 mov	 QWORD PTR glad_glTexSubImage2D, rax

; 2069 :     glad_glTranslatex = (PFNGLTRANSLATEXPROC)load("glTranslatex");

  00986	48 8d 0d 00 00
	00 00		 lea	 rcx, OFFSET FLAT:??_C@_0N@FBLCAOAL@glTranslatex@
  0098d	ff 55 50	 call	 QWORD PTR load$[rbp]
  00990	48 89 05 00 00
	00 00		 mov	 QWORD PTR glad_glTranslatex, rax

; 2070 :     glad_glVertexPointer = (PFNGLVERTEXPOINTERPROC)load("glVertexPointer");

  00997	48 8d 0d 00 00
	00 00		 lea	 rcx, OFFSET FLAT:??_C@_0BA@HAHECJNK@glVertexPointer@
  0099e	ff 55 50	 call	 QWORD PTR load$[rbp]
  009a1	48 89 05 00 00
	00 00		 mov	 QWORD PTR glad_glVertexPointer, rax

; 2071 :     glad_glViewport = (PFNGLVIEWPORTPROC)load("glViewport");

  009a8	48 8d 0d 00 00
	00 00		 lea	 rcx, OFFSET FLAT:??_C@_0L@KBLIPDFH@glViewport@
  009af	ff 55 50	 call	 QWORD PTR load$[rbp]
  009b2	48 89 05 00 00
	00 00		 mov	 QWORD PTR glad_glViewport, rax
$LN1@load_GL_VE:

; 2072 : }

  009b9	48 8d 65 40	 lea	 rsp, QWORD PTR [rbp+64]
  009bd	5d		 pop	 rbp
  009be	c3		 ret	 0
load_GL_VERSION_ES_CM_1_0 ENDP
_TEXT	ENDS
; Function compile flags: /Odtp /ZI
; File D:\Programmer\GLenv\glad.c
;	COMDAT find_coreGL
_TEXT	SEGMENT
i$ = 0
major$ = 4
minor$ = 8
version$ = 16
prefixes$ = 24
length$1 = 56
tv205 = 128
tv197 = 128
tv193 = 128
tv189 = 128
tv185 = 128
tv181 = 128
tv177 = 128
tv173 = 128
tv169 = 128
tv165 = 128
tv161 = 128
tv157 = 128
tv153 = 128
tv149 = 128
tv145 = 128
tv141 = 128
tv137 = 128
tv133 = 128
tv129 = 128
tv93 = 128
tv206 = 136
__$ArrayPad$ = 144
find_coreGL PROC					; COMDAT

; 1835 : static void find_coreGL(void) {

  00000	40 55		 push	 rbp
  00002	48 81 ec c0 00
	00 00		 sub	 rsp, 192		; 000000c0H
  00009	48 8d 6c 24 20	 lea	 rbp, QWORD PTR [rsp+32]
  0000e	48 8b 05 00 00
	00 00		 mov	 rax, QWORD PTR __security_cookie
  00015	48 33 c5	 xor	 rax, rbp
  00018	48 89 85 90 00
	00 00		 mov	 QWORD PTR __$ArrayPad$[rbp], rax
  0001f	48 8d 0d 00 00
	00 00		 lea	 rcx, OFFSET FLAT:__2B68C239_glad@c
  00026	e8 00 00 00 00	 call	 __CheckForDebuggerJustMyCode

; 1836 : 
; 1837 :     /* Thank you @elmindreda
; 1838 :      * https://github.com/elmindreda/greg/blob/master/templates/greg.c.in#L176
; 1839 :      * https://github.com/glfw/glfw/blob/master/src/context.c#L36
; 1840 :      */
; 1841 :     int i, major, minor;
; 1842 : 
; 1843 :     const char* version;
; 1844 :     const char* prefixes[] = {

  0002b	48 8d 05 00 00
	00 00		 lea	 rax, OFFSET FLAT:??_C@_0O@ENGHJHNB@OpenGL?5ES?9CM?5@
  00032	48 89 45 18	 mov	 QWORD PTR prefixes$[rbp], rax
  00036	48 8d 05 00 00
	00 00		 lea	 rax, OFFSET FLAT:??_C@_0O@EMKFPNOG@OpenGL?5ES?9CL?5@
  0003d	48 89 45 20	 mov	 QWORD PTR prefixes$[rbp+8], rax
  00041	48 8d 05 00 00
	00 00		 lea	 rax, OFFSET FLAT:??_C@_0L@JLFHOCGA@OpenGL?5ES?5@
  00048	48 89 45 28	 mov	 QWORD PTR prefixes$[rbp+16], rax
  0004c	48 c7 45 30 00
	00 00 00	 mov	 QWORD PTR prefixes$[rbp+24], 0

; 1845 :         "OpenGL ES-CM ",
; 1846 :         "OpenGL ES-CL ",
; 1847 :         "OpenGL ES ",
; 1848 :         NULL
; 1849 :     };
; 1850 : 
; 1851 :     version = (const char*)glGetString(GL_VERSION);

  00054	b9 02 1f 00 00	 mov	 ecx, 7938		; 00001f02H
  00059	ff 15 00 00 00
	00		 call	 QWORD PTR glad_glGetString
  0005f	48 89 45 10	 mov	 QWORD PTR version$[rbp], rax

; 1852 :     if (!version) return;

  00063	48 83 7d 10 00	 cmp	 QWORD PTR version$[rbp], 0
  00068	75 05		 jne	 SHORT $LN5@find_coreG
  0006a	e9 d9 04 00 00	 jmp	 $LN1@find_coreG
$LN5@find_coreG:

; 1853 : 
; 1854 :     for (i = 0; prefixes[i]; i++) {

  0006f	c7 45 00 00 00
	00 00		 mov	 DWORD PTR i$[rbp], 0
  00076	eb 08		 jmp	 SHORT $LN4@find_coreG
$LN2@find_coreG:
  00078	8b 45 00	 mov	 eax, DWORD PTR i$[rbp]
  0007b	ff c0		 inc	 eax
  0007d	89 45 00	 mov	 DWORD PTR i$[rbp], eax
$LN4@find_coreG:
  00080	48 63 45 00	 movsxd	 rax, DWORD PTR i$[rbp]
  00084	48 83 7c c5 18
	00		 cmp	 QWORD PTR prefixes$[rbp+rax*8], 0
  0008a	74 75		 je	 SHORT $LN3@find_coreG

; 1855 :         const size_t length = strlen(prefixes[i]);

  0008c	48 63 45 00	 movsxd	 rax, DWORD PTR i$[rbp]
  00090	48 8b 44 c5 18	 mov	 rax, QWORD PTR prefixes$[rbp+rax*8]
  00095	48 89 85 80 00
	00 00		 mov	 QWORD PTR tv205[rbp], rax
  0009c	48 c7 85 88 00
	00 00 ff ff ff
	ff		 mov	 QWORD PTR tv206[rbp], -1
$LL67@find_coreG:
  000a7	48 ff 85 88 00
	00 00		 inc	 QWORD PTR tv206[rbp]
  000ae	48 8b 85 80 00
	00 00		 mov	 rax, QWORD PTR tv205[rbp]
  000b5	48 8b 8d 88 00
	00 00		 mov	 rcx, QWORD PTR tv206[rbp]
  000bc	80 3c 08 00	 cmp	 BYTE PTR [rax+rcx], 0
  000c0	75 e5		 jne	 SHORT $LL67@find_coreG
  000c2	48 8b 85 88 00
	00 00		 mov	 rax, QWORD PTR tv206[rbp]
  000c9	48 89 45 38	 mov	 QWORD PTR length$1[rbp], rax

; 1856 :         if (strncmp(version, prefixes[i], length) == 0) {

  000cd	48 63 45 00	 movsxd	 rax, DWORD PTR i$[rbp]
  000d1	4c 8b 45 38	 mov	 r8, QWORD PTR length$1[rbp]
  000d5	48 8b 54 c5 18	 mov	 rdx, QWORD PTR prefixes$[rbp+rax*8]
  000da	48 8b 4d 10	 mov	 rcx, QWORD PTR version$[rbp]
  000de	ff 15 00 00 00
	00		 call	 QWORD PTR __imp_strncmp
  000e4	85 c0		 test	 eax, eax
  000e6	75 14		 jne	 SHORT $LN6@find_coreG

; 1857 :             version += length;

  000e8	48 8b 45 38	 mov	 rax, QWORD PTR length$1[rbp]
  000ec	48 8b 4d 10	 mov	 rcx, QWORD PTR version$[rbp]
  000f0	48 03 c8	 add	 rcx, rax
  000f3	48 8b c1	 mov	 rax, rcx
  000f6	48 89 45 10	 mov	 QWORD PTR version$[rbp], rax

; 1858 :             break;

  000fa	eb 05		 jmp	 SHORT $LN3@find_coreG
$LN6@find_coreG:

; 1859 :         }
; 1860 :     }

  000fc	e9 77 ff ff ff	 jmp	 $LN2@find_coreG
$LN3@find_coreG:

; 1861 : 
; 1862 :     /* PR #18 */
; 1863 : #ifdef _MSC_VER
; 1864 :     sscanf_s(version, "%d.%d", &major, &minor);

  00101	4c 8d 4d 08	 lea	 r9, QWORD PTR minor$[rbp]
  00105	4c 8d 45 04	 lea	 r8, QWORD PTR major$[rbp]
  00109	48 8d 15 00 00
	00 00		 lea	 rdx, OFFSET FLAT:??_C@_05KBEOJPB@?$CFd?4?$CFd@
  00110	48 8b 4d 10	 mov	 rcx, QWORD PTR version$[rbp]
  00114	e8 00 00 00 00	 call	 sscanf_s

; 1865 : #else
; 1866 :     sscanf(version, "%d.%d", &major, &minor);
; 1867 : #endif
; 1868 : 
; 1869 :     GLVersion.major = major; GLVersion.minor = minor;

  00119	8b 45 04	 mov	 eax, DWORD PTR major$[rbp]
  0011c	89 05 00 00 00
	00		 mov	 DWORD PTR GLVersion, eax
  00122	8b 45 08	 mov	 eax, DWORD PTR minor$[rbp]
  00125	89 05 04 00 00
	00		 mov	 DWORD PTR GLVersion+4, eax

; 1870 :     max_loaded_major = major; max_loaded_minor = minor;

  0012b	8b 45 04	 mov	 eax, DWORD PTR major$[rbp]
  0012e	89 05 00 00 00
	00		 mov	 DWORD PTR max_loaded_major, eax
  00134	8b 45 08	 mov	 eax, DWORD PTR minor$[rbp]
  00137	89 05 00 00 00
	00		 mov	 DWORD PTR max_loaded_minor, eax

; 1871 :     GLAD_GL_VERSION_1_0 = (major == 1 && minor >= 0) || major > 1;

  0013d	83 7d 04 01	 cmp	 DWORD PTR major$[rbp], 1
  00141	75 06		 jne	 SHORT $LN10@find_coreG
  00143	83 7d 08 00	 cmp	 DWORD PTR minor$[rbp], 0
  00147	7d 12		 jge	 SHORT $LN11@find_coreG
$LN10@find_coreG:
  00149	83 7d 04 01	 cmp	 DWORD PTR major$[rbp], 1
  0014d	7f 0c		 jg	 SHORT $LN11@find_coreG
  0014f	c7 85 80 00 00
	00 00 00 00 00	 mov	 DWORD PTR tv93[rbp], 0
  00159	eb 0a		 jmp	 SHORT $LN12@find_coreG
$LN11@find_coreG:
  0015b	c7 85 80 00 00
	00 01 00 00 00	 mov	 DWORD PTR tv93[rbp], 1
$LN12@find_coreG:
  00165	8b 85 80 00 00
	00		 mov	 eax, DWORD PTR tv93[rbp]
  0016b	89 05 00 00 00
	00		 mov	 DWORD PTR GLAD_GL_VERSION_1_0, eax

; 1872 :     GLAD_GL_VERSION_1_1 = (major == 1 && minor >= 1) || major > 1;

  00171	83 7d 04 01	 cmp	 DWORD PTR major$[rbp], 1
  00175	75 06		 jne	 SHORT $LN13@find_coreG
  00177	83 7d 08 01	 cmp	 DWORD PTR minor$[rbp], 1
  0017b	7d 12		 jge	 SHORT $LN14@find_coreG
$LN13@find_coreG:
  0017d	83 7d 04 01	 cmp	 DWORD PTR major$[rbp], 1
  00181	7f 0c		 jg	 SHORT $LN14@find_coreG
  00183	c7 85 80 00 00
	00 00 00 00 00	 mov	 DWORD PTR tv129[rbp], 0
  0018d	eb 0a		 jmp	 SHORT $LN15@find_coreG
$LN14@find_coreG:
  0018f	c7 85 80 00 00
	00 01 00 00 00	 mov	 DWORD PTR tv129[rbp], 1
$LN15@find_coreG:
  00199	8b 85 80 00 00
	00		 mov	 eax, DWORD PTR tv129[rbp]
  0019f	89 05 00 00 00
	00		 mov	 DWORD PTR GLAD_GL_VERSION_1_1, eax

; 1873 :     GLAD_GL_VERSION_1_2 = (major == 1 && minor >= 2) || major > 1;

  001a5	83 7d 04 01	 cmp	 DWORD PTR major$[rbp], 1
  001a9	75 06		 jne	 SHORT $LN16@find_coreG
  001ab	83 7d 08 02	 cmp	 DWORD PTR minor$[rbp], 2
  001af	7d 12		 jge	 SHORT $LN17@find_coreG
$LN16@find_coreG:
  001b1	83 7d 04 01	 cmp	 DWORD PTR major$[rbp], 1
  001b5	7f 0c		 jg	 SHORT $LN17@find_coreG
  001b7	c7 85 80 00 00
	00 00 00 00 00	 mov	 DWORD PTR tv133[rbp], 0
  001c1	eb 0a		 jmp	 SHORT $LN18@find_coreG
$LN17@find_coreG:
  001c3	c7 85 80 00 00
	00 01 00 00 00	 mov	 DWORD PTR tv133[rbp], 1
$LN18@find_coreG:
  001cd	8b 85 80 00 00
	00		 mov	 eax, DWORD PTR tv133[rbp]
  001d3	89 05 00 00 00
	00		 mov	 DWORD PTR GLAD_GL_VERSION_1_2, eax

; 1874 :     GLAD_GL_VERSION_1_3 = (major == 1 && minor >= 3) || major > 1;

  001d9	83 7d 04 01	 cmp	 DWORD PTR major$[rbp], 1
  001dd	75 06		 jne	 SHORT $LN19@find_coreG
  001df	83 7d 08 03	 cmp	 DWORD PTR minor$[rbp], 3
  001e3	7d 12		 jge	 SHORT $LN20@find_coreG
$LN19@find_coreG:
  001e5	83 7d 04 01	 cmp	 DWORD PTR major$[rbp], 1
  001e9	7f 0c		 jg	 SHORT $LN20@find_coreG
  001eb	c7 85 80 00 00
	00 00 00 00 00	 mov	 DWORD PTR tv137[rbp], 0
  001f5	eb 0a		 jmp	 SHORT $LN21@find_coreG
$LN20@find_coreG:
  001f7	c7 85 80 00 00
	00 01 00 00 00	 mov	 DWORD PTR tv137[rbp], 1
$LN21@find_coreG:
  00201	8b 85 80 00 00
	00		 mov	 eax, DWORD PTR tv137[rbp]
  00207	89 05 00 00 00
	00		 mov	 DWORD PTR GLAD_GL_VERSION_1_3, eax

; 1875 :     GLAD_GL_VERSION_1_4 = (major == 1 && minor >= 4) || major > 1;

  0020d	83 7d 04 01	 cmp	 DWORD PTR major$[rbp], 1
  00211	75 06		 jne	 SHORT $LN22@find_coreG
  00213	83 7d 08 04	 cmp	 DWORD PTR minor$[rbp], 4
  00217	7d 12		 jge	 SHORT $LN23@find_coreG
$LN22@find_coreG:
  00219	83 7d 04 01	 cmp	 DWORD PTR major$[rbp], 1
  0021d	7f 0c		 jg	 SHORT $LN23@find_coreG
  0021f	c7 85 80 00 00
	00 00 00 00 00	 mov	 DWORD PTR tv141[rbp], 0
  00229	eb 0a		 jmp	 SHORT $LN24@find_coreG
$LN23@find_coreG:
  0022b	c7 85 80 00 00
	00 01 00 00 00	 mov	 DWORD PTR tv141[rbp], 1
$LN24@find_coreG:
  00235	8b 85 80 00 00
	00		 mov	 eax, DWORD PTR tv141[rbp]
  0023b	89 05 00 00 00
	00		 mov	 DWORD PTR GLAD_GL_VERSION_1_4, eax

; 1876 :     GLAD_GL_VERSION_1_5 = (major == 1 && minor >= 5) || major > 1;

  00241	83 7d 04 01	 cmp	 DWORD PTR major$[rbp], 1
  00245	75 06		 jne	 SHORT $LN25@find_coreG
  00247	83 7d 08 05	 cmp	 DWORD PTR minor$[rbp], 5
  0024b	7d 12		 jge	 SHORT $LN26@find_coreG
$LN25@find_coreG:
  0024d	83 7d 04 01	 cmp	 DWORD PTR major$[rbp], 1
  00251	7f 0c		 jg	 SHORT $LN26@find_coreG
  00253	c7 85 80 00 00
	00 00 00 00 00	 mov	 DWORD PTR tv145[rbp], 0
  0025d	eb 0a		 jmp	 SHORT $LN27@find_coreG
$LN26@find_coreG:
  0025f	c7 85 80 00 00
	00 01 00 00 00	 mov	 DWORD PTR tv145[rbp], 1
$LN27@find_coreG:
  00269	8b 85 80 00 00
	00		 mov	 eax, DWORD PTR tv145[rbp]
  0026f	89 05 00 00 00
	00		 mov	 DWORD PTR GLAD_GL_VERSION_1_5, eax

; 1877 :     GLAD_GL_VERSION_2_0 = (major == 2 && minor >= 0) || major > 2;

  00275	83 7d 04 02	 cmp	 DWORD PTR major$[rbp], 2
  00279	75 06		 jne	 SHORT $LN28@find_coreG
  0027b	83 7d 08 00	 cmp	 DWORD PTR minor$[rbp], 0
  0027f	7d 12		 jge	 SHORT $LN29@find_coreG
$LN28@find_coreG:
  00281	83 7d 04 02	 cmp	 DWORD PTR major$[rbp], 2
  00285	7f 0c		 jg	 SHORT $LN29@find_coreG
  00287	c7 85 80 00 00
	00 00 00 00 00	 mov	 DWORD PTR tv149[rbp], 0
  00291	eb 0a		 jmp	 SHORT $LN30@find_coreG
$LN29@find_coreG:
  00293	c7 85 80 00 00
	00 01 00 00 00	 mov	 DWORD PTR tv149[rbp], 1
$LN30@find_coreG:
  0029d	8b 85 80 00 00
	00		 mov	 eax, DWORD PTR tv149[rbp]
  002a3	89 05 00 00 00
	00		 mov	 DWORD PTR GLAD_GL_VERSION_2_0, eax

; 1878 :     GLAD_GL_VERSION_2_1 = (major == 2 && minor >= 1) || major > 2;

  002a9	83 7d 04 02	 cmp	 DWORD PTR major$[rbp], 2
  002ad	75 06		 jne	 SHORT $LN31@find_coreG
  002af	83 7d 08 01	 cmp	 DWORD PTR minor$[rbp], 1
  002b3	7d 12		 jge	 SHORT $LN32@find_coreG
$LN31@find_coreG:
  002b5	83 7d 04 02	 cmp	 DWORD PTR major$[rbp], 2
  002b9	7f 0c		 jg	 SHORT $LN32@find_coreG
  002bb	c7 85 80 00 00
	00 00 00 00 00	 mov	 DWORD PTR tv153[rbp], 0
  002c5	eb 0a		 jmp	 SHORT $LN33@find_coreG
$LN32@find_coreG:
  002c7	c7 85 80 00 00
	00 01 00 00 00	 mov	 DWORD PTR tv153[rbp], 1
$LN33@find_coreG:
  002d1	8b 85 80 00 00
	00		 mov	 eax, DWORD PTR tv153[rbp]
  002d7	89 05 00 00 00
	00		 mov	 DWORD PTR GLAD_GL_VERSION_2_1, eax

; 1879 :     GLAD_GL_VERSION_3_0 = (major == 3 && minor >= 0) || major > 3;

  002dd	83 7d 04 03	 cmp	 DWORD PTR major$[rbp], 3
  002e1	75 06		 jne	 SHORT $LN34@find_coreG
  002e3	83 7d 08 00	 cmp	 DWORD PTR minor$[rbp], 0
  002e7	7d 12		 jge	 SHORT $LN35@find_coreG
$LN34@find_coreG:
  002e9	83 7d 04 03	 cmp	 DWORD PTR major$[rbp], 3
  002ed	7f 0c		 jg	 SHORT $LN35@find_coreG
  002ef	c7 85 80 00 00
	00 00 00 00 00	 mov	 DWORD PTR tv157[rbp], 0
  002f9	eb 0a		 jmp	 SHORT $LN36@find_coreG
$LN35@find_coreG:
  002fb	c7 85 80 00 00
	00 01 00 00 00	 mov	 DWORD PTR tv157[rbp], 1
$LN36@find_coreG:
  00305	8b 85 80 00 00
	00		 mov	 eax, DWORD PTR tv157[rbp]
  0030b	89 05 00 00 00
	00		 mov	 DWORD PTR GLAD_GL_VERSION_3_0, eax

; 1880 :     GLAD_GL_VERSION_3_1 = (major == 3 && minor >= 1) || major > 3;

  00311	83 7d 04 03	 cmp	 DWORD PTR major$[rbp], 3
  00315	75 06		 jne	 SHORT $LN37@find_coreG
  00317	83 7d 08 01	 cmp	 DWORD PTR minor$[rbp], 1
  0031b	7d 12		 jge	 SHORT $LN38@find_coreG
$LN37@find_coreG:
  0031d	83 7d 04 03	 cmp	 DWORD PTR major$[rbp], 3
  00321	7f 0c		 jg	 SHORT $LN38@find_coreG
  00323	c7 85 80 00 00
	00 00 00 00 00	 mov	 DWORD PTR tv161[rbp], 0
  0032d	eb 0a		 jmp	 SHORT $LN39@find_coreG
$LN38@find_coreG:
  0032f	c7 85 80 00 00
	00 01 00 00 00	 mov	 DWORD PTR tv161[rbp], 1
$LN39@find_coreG:
  00339	8b 85 80 00 00
	00		 mov	 eax, DWORD PTR tv161[rbp]
  0033f	89 05 00 00 00
	00		 mov	 DWORD PTR GLAD_GL_VERSION_3_1, eax

; 1881 :     GLAD_GL_VERSION_3_2 = (major == 3 && minor >= 2) || major > 3;

  00345	83 7d 04 03	 cmp	 DWORD PTR major$[rbp], 3
  00349	75 06		 jne	 SHORT $LN40@find_coreG
  0034b	83 7d 08 02	 cmp	 DWORD PTR minor$[rbp], 2
  0034f	7d 12		 jge	 SHORT $LN41@find_coreG
$LN40@find_coreG:
  00351	83 7d 04 03	 cmp	 DWORD PTR major$[rbp], 3
  00355	7f 0c		 jg	 SHORT $LN41@find_coreG
  00357	c7 85 80 00 00
	00 00 00 00 00	 mov	 DWORD PTR tv165[rbp], 0
  00361	eb 0a		 jmp	 SHORT $LN42@find_coreG
$LN41@find_coreG:
  00363	c7 85 80 00 00
	00 01 00 00 00	 mov	 DWORD PTR tv165[rbp], 1
$LN42@find_coreG:
  0036d	8b 85 80 00 00
	00		 mov	 eax, DWORD PTR tv165[rbp]
  00373	89 05 00 00 00
	00		 mov	 DWORD PTR GLAD_GL_VERSION_3_2, eax

; 1882 :     GLAD_GL_VERSION_3_3 = (major == 3 && minor >= 3) || major > 3;

  00379	83 7d 04 03	 cmp	 DWORD PTR major$[rbp], 3
  0037d	75 06		 jne	 SHORT $LN43@find_coreG
  0037f	83 7d 08 03	 cmp	 DWORD PTR minor$[rbp], 3
  00383	7d 12		 jge	 SHORT $LN44@find_coreG
$LN43@find_coreG:
  00385	83 7d 04 03	 cmp	 DWORD PTR major$[rbp], 3
  00389	7f 0c		 jg	 SHORT $LN44@find_coreG
  0038b	c7 85 80 00 00
	00 00 00 00 00	 mov	 DWORD PTR tv169[rbp], 0
  00395	eb 0a		 jmp	 SHORT $LN45@find_coreG
$LN44@find_coreG:
  00397	c7 85 80 00 00
	00 01 00 00 00	 mov	 DWORD PTR tv169[rbp], 1
$LN45@find_coreG:
  003a1	8b 85 80 00 00
	00		 mov	 eax, DWORD PTR tv169[rbp]
  003a7	89 05 00 00 00
	00		 mov	 DWORD PTR GLAD_GL_VERSION_3_3, eax

; 1883 :     GLAD_GL_VERSION_4_0 = (major == 4 && minor >= 0) || major > 4;

  003ad	83 7d 04 04	 cmp	 DWORD PTR major$[rbp], 4
  003b1	75 06		 jne	 SHORT $LN46@find_coreG
  003b3	83 7d 08 00	 cmp	 DWORD PTR minor$[rbp], 0
  003b7	7d 12		 jge	 SHORT $LN47@find_coreG
$LN46@find_coreG:
  003b9	83 7d 04 04	 cmp	 DWORD PTR major$[rbp], 4
  003bd	7f 0c		 jg	 SHORT $LN47@find_coreG
  003bf	c7 85 80 00 00
	00 00 00 00 00	 mov	 DWORD PTR tv173[rbp], 0
  003c9	eb 0a		 jmp	 SHORT $LN48@find_coreG
$LN47@find_coreG:
  003cb	c7 85 80 00 00
	00 01 00 00 00	 mov	 DWORD PTR tv173[rbp], 1
$LN48@find_coreG:
  003d5	8b 85 80 00 00
	00		 mov	 eax, DWORD PTR tv173[rbp]
  003db	89 05 00 00 00
	00		 mov	 DWORD PTR GLAD_GL_VERSION_4_0, eax

; 1884 :     GLAD_GL_VERSION_4_1 = (major == 4 && minor >= 1) || major > 4;

  003e1	83 7d 04 04	 cmp	 DWORD PTR major$[rbp], 4
  003e5	75 06		 jne	 SHORT $LN49@find_coreG
  003e7	83 7d 08 01	 cmp	 DWORD PTR minor$[rbp], 1
  003eb	7d 12		 jge	 SHORT $LN50@find_coreG
$LN49@find_coreG:
  003ed	83 7d 04 04	 cmp	 DWORD PTR major$[rbp], 4
  003f1	7f 0c		 jg	 SHORT $LN50@find_coreG
  003f3	c7 85 80 00 00
	00 00 00 00 00	 mov	 DWORD PTR tv177[rbp], 0
  003fd	eb 0a		 jmp	 SHORT $LN51@find_coreG
$LN50@find_coreG:
  003ff	c7 85 80 00 00
	00 01 00 00 00	 mov	 DWORD PTR tv177[rbp], 1
$LN51@find_coreG:
  00409	8b 85 80 00 00
	00		 mov	 eax, DWORD PTR tv177[rbp]
  0040f	89 05 00 00 00
	00		 mov	 DWORD PTR GLAD_GL_VERSION_4_1, eax

; 1885 :     GLAD_GL_VERSION_4_2 = (major == 4 && minor >= 2) || major > 4;

  00415	83 7d 04 04	 cmp	 DWORD PTR major$[rbp], 4
  00419	75 06		 jne	 SHORT $LN52@find_coreG
  0041b	83 7d 08 02	 cmp	 DWORD PTR minor$[rbp], 2
  0041f	7d 12		 jge	 SHORT $LN53@find_coreG
$LN52@find_coreG:
  00421	83 7d 04 04	 cmp	 DWORD PTR major$[rbp], 4
  00425	7f 0c		 jg	 SHORT $LN53@find_coreG
  00427	c7 85 80 00 00
	00 00 00 00 00	 mov	 DWORD PTR tv181[rbp], 0
  00431	eb 0a		 jmp	 SHORT $LN54@find_coreG
$LN53@find_coreG:
  00433	c7 85 80 00 00
	00 01 00 00 00	 mov	 DWORD PTR tv181[rbp], 1
$LN54@find_coreG:
  0043d	8b 85 80 00 00
	00		 mov	 eax, DWORD PTR tv181[rbp]
  00443	89 05 00 00 00
	00		 mov	 DWORD PTR GLAD_GL_VERSION_4_2, eax

; 1886 :     GLAD_GL_VERSION_4_3 = (major == 4 && minor >= 3) || major > 4;

  00449	83 7d 04 04	 cmp	 DWORD PTR major$[rbp], 4
  0044d	75 06		 jne	 SHORT $LN55@find_coreG
  0044f	83 7d 08 03	 cmp	 DWORD PTR minor$[rbp], 3
  00453	7d 12		 jge	 SHORT $LN56@find_coreG
$LN55@find_coreG:
  00455	83 7d 04 04	 cmp	 DWORD PTR major$[rbp], 4
  00459	7f 0c		 jg	 SHORT $LN56@find_coreG
  0045b	c7 85 80 00 00
	00 00 00 00 00	 mov	 DWORD PTR tv185[rbp], 0
  00465	eb 0a		 jmp	 SHORT $LN57@find_coreG
$LN56@find_coreG:
  00467	c7 85 80 00 00
	00 01 00 00 00	 mov	 DWORD PTR tv185[rbp], 1
$LN57@find_coreG:
  00471	8b 85 80 00 00
	00		 mov	 eax, DWORD PTR tv185[rbp]
  00477	89 05 00 00 00
	00		 mov	 DWORD PTR GLAD_GL_VERSION_4_3, eax

; 1887 :     GLAD_GL_VERSION_4_4 = (major == 4 && minor >= 4) || major > 4;

  0047d	83 7d 04 04	 cmp	 DWORD PTR major$[rbp], 4
  00481	75 06		 jne	 SHORT $LN58@find_coreG
  00483	83 7d 08 04	 cmp	 DWORD PTR minor$[rbp], 4
  00487	7d 12		 jge	 SHORT $LN59@find_coreG
$LN58@find_coreG:
  00489	83 7d 04 04	 cmp	 DWORD PTR major$[rbp], 4
  0048d	7f 0c		 jg	 SHORT $LN59@find_coreG
  0048f	c7 85 80 00 00
	00 00 00 00 00	 mov	 DWORD PTR tv189[rbp], 0
  00499	eb 0a		 jmp	 SHORT $LN60@find_coreG
$LN59@find_coreG:
  0049b	c7 85 80 00 00
	00 01 00 00 00	 mov	 DWORD PTR tv189[rbp], 1
$LN60@find_coreG:
  004a5	8b 85 80 00 00
	00		 mov	 eax, DWORD PTR tv189[rbp]
  004ab	89 05 00 00 00
	00		 mov	 DWORD PTR GLAD_GL_VERSION_4_4, eax

; 1888 :     GLAD_GL_VERSION_4_5 = (major == 4 && minor >= 5) || major > 4;

  004b1	83 7d 04 04	 cmp	 DWORD PTR major$[rbp], 4
  004b5	75 06		 jne	 SHORT $LN61@find_coreG
  004b7	83 7d 08 05	 cmp	 DWORD PTR minor$[rbp], 5
  004bb	7d 12		 jge	 SHORT $LN62@find_coreG
$LN61@find_coreG:
  004bd	83 7d 04 04	 cmp	 DWORD PTR major$[rbp], 4
  004c1	7f 0c		 jg	 SHORT $LN62@find_coreG
  004c3	c7 85 80 00 00
	00 00 00 00 00	 mov	 DWORD PTR tv193[rbp], 0
  004cd	eb 0a		 jmp	 SHORT $LN63@find_coreG
$LN62@find_coreG:
  004cf	c7 85 80 00 00
	00 01 00 00 00	 mov	 DWORD PTR tv193[rbp], 1
$LN63@find_coreG:
  004d9	8b 85 80 00 00
	00		 mov	 eax, DWORD PTR tv193[rbp]
  004df	89 05 00 00 00
	00		 mov	 DWORD PTR GLAD_GL_VERSION_4_5, eax

; 1889 :     GLAD_GL_VERSION_4_6 = (major == 4 && minor >= 6) || major > 4;

  004e5	83 7d 04 04	 cmp	 DWORD PTR major$[rbp], 4
  004e9	75 06		 jne	 SHORT $LN64@find_coreG
  004eb	83 7d 08 06	 cmp	 DWORD PTR minor$[rbp], 6
  004ef	7d 12		 jge	 SHORT $LN65@find_coreG
$LN64@find_coreG:
  004f1	83 7d 04 04	 cmp	 DWORD PTR major$[rbp], 4
  004f5	7f 0c		 jg	 SHORT $LN65@find_coreG
  004f7	c7 85 80 00 00
	00 00 00 00 00	 mov	 DWORD PTR tv197[rbp], 0
  00501	eb 0a		 jmp	 SHORT $LN66@find_coreG
$LN65@find_coreG:
  00503	c7 85 80 00 00
	00 01 00 00 00	 mov	 DWORD PTR tv197[rbp], 1
$LN66@find_coreG:
  0050d	8b 85 80 00 00
	00		 mov	 eax, DWORD PTR tv197[rbp]
  00513	89 05 00 00 00
	00		 mov	 DWORD PTR GLAD_GL_VERSION_4_6, eax

; 1890 :     if (GLVersion.major > 4 || (GLVersion.major >= 4 && GLVersion.minor >= 6)) {

  00519	83 3d 00 00 00
	00 04		 cmp	 DWORD PTR GLVersion, 4
  00520	7f 12		 jg	 SHORT $LN8@find_coreG
  00522	83 3d 00 00 00
	00 04		 cmp	 DWORD PTR GLVersion, 4
  00529	7c 1d		 jl	 SHORT $LN7@find_coreG
  0052b	83 3d 04 00 00
	00 06		 cmp	 DWORD PTR GLVersion+4, 6
  00532	7c 14		 jl	 SHORT $LN7@find_coreG
$LN8@find_coreG:

; 1891 :         max_loaded_major = 4;

  00534	c7 05 00 00 00
	00 04 00 00 00	 mov	 DWORD PTR max_loaded_major, 4

; 1892 :         max_loaded_minor = 6;

  0053e	c7 05 00 00 00
	00 06 00 00 00	 mov	 DWORD PTR max_loaded_minor, 6
$LN7@find_coreG:
$LN1@find_coreG:

; 1893 :     }
; 1894 : }

  00548	48 8b 8d 90 00
	00 00		 mov	 rcx, QWORD PTR __$ArrayPad$[rbp]
  0054f	48 33 cd	 xor	 rcx, rbp
  00552	e8 00 00 00 00	 call	 __security_check_cookie
  00557	48 8d a5 a0 00
	00 00		 lea	 rsp, QWORD PTR [rbp+160]
  0055e	5d		 pop	 rbp
  0055f	c3		 ret	 0
find_coreGL ENDP
_TEXT	ENDS
; Function compile flags: /Odtp /ZI
; File D:\Programmer\GLenv\glad.c
;	COMDAT find_extensionsGL
_TEXT	SEGMENT
find_extensionsGL PROC					; COMDAT

; 1828 : static int find_extensionsGL(void) {

  00000	40 55		 push	 rbp
  00002	48 83 ec 60	 sub	 rsp, 96			; 00000060H
  00006	48 8d 6c 24 20	 lea	 rbp, QWORD PTR [rsp+32]
  0000b	48 8d 0d 00 00
	00 00		 lea	 rcx, OFFSET FLAT:__2B68C239_glad@c
  00012	e8 00 00 00 00	 call	 __CheckForDebuggerJustMyCode

; 1829 :     if (!get_exts()) return 0;

  00017	e8 00 00 00 00	 call	 get_exts
  0001c	85 c0		 test	 eax, eax
  0001e	75 04		 jne	 SHORT $LN2@find_exten
  00020	33 c0		 xor	 eax, eax
  00022	eb 0a		 jmp	 SHORT $LN1@find_exten
$LN2@find_exten:

; 1830 :     (void)&has_ext;
; 1831 :     free_exts();

  00024	e8 00 00 00 00	 call	 free_exts

; 1832 :     return 1;

  00029	b8 01 00 00 00	 mov	 eax, 1
$LN1@find_exten:

; 1833 : }

  0002e	48 8d 65 40	 lea	 rsp, QWORD PTR [rbp+64]
  00032	5d		 pop	 rbp
  00033	c3		 ret	 0
find_extensionsGL ENDP
_TEXT	ENDS
; Function compile flags: /Odtp /ZI
; File D:\Programmer\GLenv\glad.c
;	COMDAT load_GL_VERSION_4_6
_TEXT	SEGMENT
load$ = 80
load_GL_VERSION_4_6 PROC				; COMDAT

; 1821 : static void load_GL_VERSION_4_6(GLADloadproc load) {

  00000	48 89 4c 24 08	 mov	 QWORD PTR [rsp+8], rcx
  00005	55		 push	 rbp
  00006	48 83 ec 60	 sub	 rsp, 96			; 00000060H
  0000a	48 8d 6c 24 20	 lea	 rbp, QWORD PTR [rsp+32]
  0000f	48 8d 0d 00 00
	00 00		 lea	 rcx, OFFSET FLAT:__2B68C239_glad@c
  00016	e8 00 00 00 00	 call	 __CheckForDebuggerJustMyCode

; 1822 :     if (!GLAD_GL_VERSION_4_6) return;

  0001b	83 3d 00 00 00
	00 00		 cmp	 DWORD PTR GLAD_GL_VERSION_4_6, 0
  00022	75 02		 jne	 SHORT $LN2@load_GL_VE
  00024	eb 44		 jmp	 SHORT $LN1@load_GL_VE
$LN2@load_GL_VE:

; 1823 :     glad_glSpecializeShader = (PFNGLSPECIALIZESHADERPROC)load("glSpecializeShader");

  00026	48 8d 0d 00 00
	00 00		 lea	 rcx, OFFSET FLAT:??_C@_0BD@LNCLLNDI@glSpecializeShader@
  0002d	ff 55 50	 call	 QWORD PTR load$[rbp]
  00030	48 89 05 00 00
	00 00		 mov	 QWORD PTR glad_glSpecializeShader, rax

; 1824 :     glad_glMultiDrawArraysIndirectCount = (PFNGLMULTIDRAWARRAYSINDIRECTCOUNTPROC)load("glMultiDrawArraysIndirectCount");

  00037	48 8d 0d 00 00
	00 00		 lea	 rcx, OFFSET FLAT:??_C@_0BP@GGIOCPJI@glMultiDrawArraysIndirectCount@
  0003e	ff 55 50	 call	 QWORD PTR load$[rbp]
  00041	48 89 05 00 00
	00 00		 mov	 QWORD PTR glad_glMultiDrawArraysIndirectCount, rax

; 1825 :     glad_glMultiDrawElementsIndirectCount = (PFNGLMULTIDRAWELEMENTSINDIRECTCOUNTPROC)load("glMultiDrawElementsIndirectCount");

  00048	48 8d 0d 00 00
	00 00		 lea	 rcx, OFFSET FLAT:??_C@_0CB@BPEMAMPH@glMultiDrawElementsIndirectCoun@
  0004f	ff 55 50	 call	 QWORD PTR load$[rbp]
  00052	48 89 05 00 00
	00 00		 mov	 QWORD PTR glad_glMultiDrawElementsIndirectCount, rax

; 1826 :     glad_glPolygonOffsetClamp = (PFNGLPOLYGONOFFSETCLAMPPROC)load("glPolygonOffsetClamp");

  00059	48 8d 0d 00 00
	00 00		 lea	 rcx, OFFSET FLAT:??_C@_0BF@ECLDHBOO@glPolygonOffsetClamp@
  00060	ff 55 50	 call	 QWORD PTR load$[rbp]
  00063	48 89 05 00 00
	00 00		 mov	 QWORD PTR glad_glPolygonOffsetClamp, rax
$LN1@load_GL_VE:

; 1827 : }

  0006a	48 8d 65 40	 lea	 rsp, QWORD PTR [rbp+64]
  0006e	5d		 pop	 rbp
  0006f	c3		 ret	 0
load_GL_VERSION_4_6 ENDP
_TEXT	ENDS
; Function compile flags: /Odtp /ZI
; File D:\Programmer\GLenv\glad.c
;	COMDAT load_GL_VERSION_4_5
_TEXT	SEGMENT
load$ = 80
load_GL_VERSION_4_5 PROC				; COMDAT

; 1696 : static void load_GL_VERSION_4_5(GLADloadproc load) {

  00000	48 89 4c 24 08	 mov	 QWORD PTR [rsp+8], rcx
  00005	55		 push	 rbp
  00006	48 83 ec 60	 sub	 rsp, 96			; 00000060H
  0000a	48 8d 6c 24 20	 lea	 rbp, QWORD PTR [rsp+32]
  0000f	48 8d 0d 00 00
	00 00		 lea	 rcx, OFFSET FLAT:__2B68C239_glad@c
  00016	e8 00 00 00 00	 call	 __CheckForDebuggerJustMyCode

; 1697 :     if (!GLAD_GL_VERSION_4_5) return;

  0001b	83 3d 00 00 00
	00 00		 cmp	 DWORD PTR GLAD_GL_VERSION_4_5, 0
  00022	75 05		 jne	 SHORT $LN2@load_GL_VE
  00024	e9 1a 08 00 00	 jmp	 $LN1@load_GL_VE
$LN2@load_GL_VE:

; 1698 :     glad_glClipControl = (PFNGLCLIPCONTROLPROC)load("glClipControl");

  00029	48 8d 0d 00 00
	00 00		 lea	 rcx, OFFSET FLAT:??_C@_0O@DMMKFMGC@glClipControl@
  00030	ff 55 50	 call	 QWORD PTR load$[rbp]
  00033	48 89 05 00 00
	00 00		 mov	 QWORD PTR glad_glClipControl, rax

; 1699 :     glad_glCreateTransformFeedbacks = (PFNGLCREATETRANSFORMFEEDBACKSPROC)load("glCreateTransformFeedbacks");

  0003a	48 8d 0d 00 00
	00 00		 lea	 rcx, OFFSET FLAT:??_C@_0BL@HPCMJLAK@glCreateTransformFeedbacks@
  00041	ff 55 50	 call	 QWORD PTR load$[rbp]
  00044	48 89 05 00 00
	00 00		 mov	 QWORD PTR glad_glCreateTransformFeedbacks, rax

; 1700 :     glad_glTransformFeedbackBufferBase = (PFNGLTRANSFORMFEEDBACKBUFFERBASEPROC)load("glTransformFeedbackBufferBase");

  0004b	48 8d 0d 00 00
	00 00		 lea	 rcx, OFFSET FLAT:??_C@_0BO@EGLKNJFA@glTransformFeedbackBufferBase@
  00052	ff 55 50	 call	 QWORD PTR load$[rbp]
  00055	48 89 05 00 00
	00 00		 mov	 QWORD PTR glad_glTransformFeedbackBufferBase, rax

; 1701 :     glad_glTransformFeedbackBufferRange = (PFNGLTRANSFORMFEEDBACKBUFFERRANGEPROC)load("glTransformFeedbackBufferRange");

  0005c	48 8d 0d 00 00
	00 00		 lea	 rcx, OFFSET FLAT:??_C@_0BP@NBIGCNHI@glTransformFeedbackBufferRange@
  00063	ff 55 50	 call	 QWORD PTR load$[rbp]
  00066	48 89 05 00 00
	00 00		 mov	 QWORD PTR glad_glTransformFeedbackBufferRange, rax

; 1702 :     glad_glGetTransformFeedbackiv = (PFNGLGETTRANSFORMFEEDBACKIVPROC)load("glGetTransformFeedbackiv");

  0006d	48 8d 0d 00 00
	00 00		 lea	 rcx, OFFSET FLAT:??_C@_0BJ@OFMLPMDO@glGetTransformFeedbackiv@
  00074	ff 55 50	 call	 QWORD PTR load$[rbp]
  00077	48 89 05 00 00
	00 00		 mov	 QWORD PTR glad_glGetTransformFeedbackiv, rax

; 1703 :     glad_glGetTransformFeedbacki_v = (PFNGLGETTRANSFORMFEEDBACKI_VPROC)load("glGetTransformFeedbacki_v");

  0007e	48 8d 0d 00 00
	00 00		 lea	 rcx, OFFSET FLAT:??_C@_0BK@IPHNHFEI@glGetTransformFeedbacki_v@
  00085	ff 55 50	 call	 QWORD PTR load$[rbp]
  00088	48 89 05 00 00
	00 00		 mov	 QWORD PTR glad_glGetTransformFeedbacki_v, rax

; 1704 :     glad_glGetTransformFeedbacki64_v = (PFNGLGETTRANSFORMFEEDBACKI64_VPROC)load("glGetTransformFeedbacki64_v");

  0008f	48 8d 0d 00 00
	00 00		 lea	 rcx, OFFSET FLAT:??_C@_0BM@KDHFPNLE@glGetTransformFeedbacki64_v@
  00096	ff 55 50	 call	 QWORD PTR load$[rbp]
  00099	48 89 05 00 00
	00 00		 mov	 QWORD PTR glad_glGetTransformFeedbacki64_v, rax

; 1705 :     glad_glCreateBuffers = (PFNGLCREATEBUFFERSPROC)load("glCreateBuffers");

  000a0	48 8d 0d 00 00
	00 00		 lea	 rcx, OFFSET FLAT:??_C@_0BA@LNBCEANP@glCreateBuffers@
  000a7	ff 55 50	 call	 QWORD PTR load$[rbp]
  000aa	48 89 05 00 00
	00 00		 mov	 QWORD PTR glad_glCreateBuffers, rax

; 1706 :     glad_glNamedBufferStorage = (PFNGLNAMEDBUFFERSTORAGEPROC)load("glNamedBufferStorage");

  000b1	48 8d 0d 00 00
	00 00		 lea	 rcx, OFFSET FLAT:??_C@_0BF@INMFIINC@glNamedBufferStorage@
  000b8	ff 55 50	 call	 QWORD PTR load$[rbp]
  000bb	48 89 05 00 00
	00 00		 mov	 QWORD PTR glad_glNamedBufferStorage, rax

; 1707 :     glad_glNamedBufferData = (PFNGLNAMEDBUFFERDATAPROC)load("glNamedBufferData");

  000c2	48 8d 0d 00 00
	00 00		 lea	 rcx, OFFSET FLAT:??_C@_0BC@LHEABGCG@glNamedBufferData@
  000c9	ff 55 50	 call	 QWORD PTR load$[rbp]
  000cc	48 89 05 00 00
	00 00		 mov	 QWORD PTR glad_glNamedBufferData, rax

; 1708 :     glad_glNamedBufferSubData = (PFNGLNAMEDBUFFERSUBDATAPROC)load("glNamedBufferSubData");

  000d3	48 8d 0d 00 00
	00 00		 lea	 rcx, OFFSET FLAT:??_C@_0BF@MDEBAFLD@glNamedBufferSubData@
  000da	ff 55 50	 call	 QWORD PTR load$[rbp]
  000dd	48 89 05 00 00
	00 00		 mov	 QWORD PTR glad_glNamedBufferSubData, rax

; 1709 :     glad_glCopyNamedBufferSubData = (PFNGLCOPYNAMEDBUFFERSUBDATAPROC)load("glCopyNamedBufferSubData");

  000e4	48 8d 0d 00 00
	00 00		 lea	 rcx, OFFSET FLAT:??_C@_0BJ@MJPDCHND@glCopyNamedBufferSubData@
  000eb	ff 55 50	 call	 QWORD PTR load$[rbp]
  000ee	48 89 05 00 00
	00 00		 mov	 QWORD PTR glad_glCopyNamedBufferSubData, rax

; 1710 :     glad_glClearNamedBufferData = (PFNGLCLEARNAMEDBUFFERDATAPROC)load("glClearNamedBufferData");

  000f5	48 8d 0d 00 00
	00 00		 lea	 rcx, OFFSET FLAT:??_C@_0BH@KJMLMCB@glClearNamedBufferData@
  000fc	ff 55 50	 call	 QWORD PTR load$[rbp]
  000ff	48 89 05 00 00
	00 00		 mov	 QWORD PTR glad_glClearNamedBufferData, rax

; 1711 :     glad_glClearNamedBufferSubData = (PFNGLCLEARNAMEDBUFFERSUBDATAPROC)load("glClearNamedBufferSubData");

  00106	48 8d 0d 00 00
	00 00		 lea	 rcx, OFFSET FLAT:??_C@_0BK@BNIDNJBH@glClearNamedBufferSubData@
  0010d	ff 55 50	 call	 QWORD PTR load$[rbp]
  00110	48 89 05 00 00
	00 00		 mov	 QWORD PTR glad_glClearNamedBufferSubData, rax

; 1712 :     glad_glMapNamedBuffer = (PFNGLMAPNAMEDBUFFERPROC)load("glMapNamedBuffer");

  00117	48 8d 0d 00 00
	00 00		 lea	 rcx, OFFSET FLAT:??_C@_0BB@JLMCGIDB@glMapNamedBuffer@
  0011e	ff 55 50	 call	 QWORD PTR load$[rbp]
  00121	48 89 05 00 00
	00 00		 mov	 QWORD PTR glad_glMapNamedBuffer, rax

; 1713 :     glad_glMapNamedBufferRange = (PFNGLMAPNAMEDBUFFERRANGEPROC)load("glMapNamedBufferRange");

  00128	48 8d 0d 00 00
	00 00		 lea	 rcx, OFFSET FLAT:??_C@_0BG@JLCGKFD@glMapNamedBufferRange@
  0012f	ff 55 50	 call	 QWORD PTR load$[rbp]
  00132	48 89 05 00 00
	00 00		 mov	 QWORD PTR glad_glMapNamedBufferRange, rax

; 1714 :     glad_glUnmapNamedBuffer = (PFNGLUNMAPNAMEDBUFFERPROC)load("glUnmapNamedBuffer");

  00139	48 8d 0d 00 00
	00 00		 lea	 rcx, OFFSET FLAT:??_C@_0BD@LAAONAHD@glUnmapNamedBuffer@
  00140	ff 55 50	 call	 QWORD PTR load$[rbp]
  00143	48 89 05 00 00
	00 00		 mov	 QWORD PTR glad_glUnmapNamedBuffer, rax

; 1715 :     glad_glFlushMappedNamedBufferRange = (PFNGLFLUSHMAPPEDNAMEDBUFFERRANGEPROC)load("glFlushMappedNamedBufferRange");

  0014a	48 8d 0d 00 00
	00 00		 lea	 rcx, OFFSET FLAT:??_C@_0BO@DBGNKBKH@glFlushMappedNamedBufferRange@
  00151	ff 55 50	 call	 QWORD PTR load$[rbp]
  00154	48 89 05 00 00
	00 00		 mov	 QWORD PTR glad_glFlushMappedNamedBufferRange, rax

; 1716 :     glad_glGetNamedBufferParameteriv = (PFNGLGETNAMEDBUFFERPARAMETERIVPROC)load("glGetNamedBufferParameteriv");

  0015b	48 8d 0d 00 00
	00 00		 lea	 rcx, OFFSET FLAT:??_C@_0BM@KFAGBFPK@glGetNamedBufferParameteriv@
  00162	ff 55 50	 call	 QWORD PTR load$[rbp]
  00165	48 89 05 00 00
	00 00		 mov	 QWORD PTR glad_glGetNamedBufferParameteriv, rax

; 1717 :     glad_glGetNamedBufferParameteri64v = (PFNGLGETNAMEDBUFFERPARAMETERI64VPROC)load("glGetNamedBufferParameteri64v");

  0016c	48 8d 0d 00 00
	00 00		 lea	 rcx, OFFSET FLAT:??_C@_0BO@ECJNIDNL@glGetNamedBufferParameteri64v@
  00173	ff 55 50	 call	 QWORD PTR load$[rbp]
  00176	48 89 05 00 00
	00 00		 mov	 QWORD PTR glad_glGetNamedBufferParameteri64v, rax

; 1718 :     glad_glGetNamedBufferPointerv = (PFNGLGETNAMEDBUFFERPOINTERVPROC)load("glGetNamedBufferPointerv");

  0017d	48 8d 0d 00 00
	00 00		 lea	 rcx, OFFSET FLAT:??_C@_0BJ@NBEMEIKG@glGetNamedBufferPointerv@
  00184	ff 55 50	 call	 QWORD PTR load$[rbp]
  00187	48 89 05 00 00
	00 00		 mov	 QWORD PTR glad_glGetNamedBufferPointerv, rax

; 1719 :     glad_glGetNamedBufferSubData = (PFNGLGETNAMEDBUFFERSUBDATAPROC)load("glGetNamedBufferSubData");

  0018e	48 8d 0d 00 00
	00 00		 lea	 rcx, OFFSET FLAT:??_C@_0BI@PJBCKPNA@glGetNamedBufferSubData@
  00195	ff 55 50	 call	 QWORD PTR load$[rbp]
  00198	48 89 05 00 00
	00 00		 mov	 QWORD PTR glad_glGetNamedBufferSubData, rax

; 1720 :     glad_glCreateFramebuffers = (PFNGLCREATEFRAMEBUFFERSPROC)load("glCreateFramebuffers");

  0019f	48 8d 0d 00 00
	00 00		 lea	 rcx, OFFSET FLAT:??_C@_0BF@DDKJIBLC@glCreateFramebuffers@
  001a6	ff 55 50	 call	 QWORD PTR load$[rbp]
  001a9	48 89 05 00 00
	00 00		 mov	 QWORD PTR glad_glCreateFramebuffers, rax

; 1721 :     glad_glNamedFramebufferRenderbuffer = (PFNGLNAMEDFRAMEBUFFERRENDERBUFFERPROC)load("glNamedFramebufferRenderbuffer");

  001b0	48 8d 0d 00 00
	00 00		 lea	 rcx, OFFSET FLAT:??_C@_0BP@MGCPNBGC@glNamedFramebufferRenderbuffer@
  001b7	ff 55 50	 call	 QWORD PTR load$[rbp]
  001ba	48 89 05 00 00
	00 00		 mov	 QWORD PTR glad_glNamedFramebufferRenderbuffer, rax

; 1722 :     glad_glNamedFramebufferParameteri = (PFNGLNAMEDFRAMEBUFFERPARAMETERIPROC)load("glNamedFramebufferParameteri");

  001c1	48 8d 0d 00 00
	00 00		 lea	 rcx, OFFSET FLAT:??_C@_0BN@LBMOOIHC@glNamedFramebufferParameteri@
  001c8	ff 55 50	 call	 QWORD PTR load$[rbp]
  001cb	48 89 05 00 00
	00 00		 mov	 QWORD PTR glad_glNamedFramebufferParameteri, rax

; 1723 :     glad_glNamedFramebufferTexture = (PFNGLNAMEDFRAMEBUFFERTEXTUREPROC)load("glNamedFramebufferTexture");

  001d2	48 8d 0d 00 00
	00 00		 lea	 rcx, OFFSET FLAT:??_C@_0BK@PNJJLPPI@glNamedFramebufferTexture@
  001d9	ff 55 50	 call	 QWORD PTR load$[rbp]
  001dc	48 89 05 00 00
	00 00		 mov	 QWORD PTR glad_glNamedFramebufferTexture, rax

; 1724 :     glad_glNamedFramebufferTextureLayer = (PFNGLNAMEDFRAMEBUFFERTEXTURELAYERPROC)load("glNamedFramebufferTextureLayer");

  001e3	48 8d 0d 00 00
	00 00		 lea	 rcx, OFFSET FLAT:??_C@_0BP@PHGPDAJM@glNamedFramebufferTextureLayer@
  001ea	ff 55 50	 call	 QWORD PTR load$[rbp]
  001ed	48 89 05 00 00
	00 00		 mov	 QWORD PTR glad_glNamedFramebufferTextureLayer, rax

; 1725 :     glad_glNamedFramebufferDrawBuffer = (PFNGLNAMEDFRAMEBUFFERDRAWBUFFERPROC)load("glNamedFramebufferDrawBuffer");

  001f4	48 8d 0d 00 00
	00 00		 lea	 rcx, OFFSET FLAT:??_C@_0BN@MOAIHNEF@glNamedFramebufferDrawBuffer@
  001fb	ff 55 50	 call	 QWORD PTR load$[rbp]
  001fe	48 89 05 00 00
	00 00		 mov	 QWORD PTR glad_glNamedFramebufferDrawBuffer, rax

; 1726 :     glad_glNamedFramebufferDrawBuffers = (PFNGLNAMEDFRAMEBUFFERDRAWBUFFERSPROC)load("glNamedFramebufferDrawBuffers");

  00205	48 8d 0d 00 00
	00 00		 lea	 rcx, OFFSET FLAT:??_C@_0BO@CGKJHFH@glNamedFramebufferDrawBuffers@
  0020c	ff 55 50	 call	 QWORD PTR load$[rbp]
  0020f	48 89 05 00 00
	00 00		 mov	 QWORD PTR glad_glNamedFramebufferDrawBuffers, rax

; 1727 :     glad_glNamedFramebufferReadBuffer = (PFNGLNAMEDFRAMEBUFFERREADBUFFERPROC)load("glNamedFramebufferReadBuffer");

  00216	48 8d 0d 00 00
	00 00		 lea	 rcx, OFFSET FLAT:??_C@_0BN@LPANNPJE@glNamedFramebufferReadBuffer@
  0021d	ff 55 50	 call	 QWORD PTR load$[rbp]
  00220	48 89 05 00 00
	00 00		 mov	 QWORD PTR glad_glNamedFramebufferReadBuffer, rax

; 1728 :     glad_glInvalidateNamedFramebufferData = (PFNGLINVALIDATENAMEDFRAMEBUFFERDATAPROC)load("glInvalidateNamedFramebufferData");

  00227	48 8d 0d 00 00
	00 00		 lea	 rcx, OFFSET FLAT:??_C@_0CB@OGGNKJIL@glInvalidateNamedFramebufferDat@
  0022e	ff 55 50	 call	 QWORD PTR load$[rbp]
  00231	48 89 05 00 00
	00 00		 mov	 QWORD PTR glad_glInvalidateNamedFramebufferData, rax

; 1729 :     glad_glInvalidateNamedFramebufferSubData = (PFNGLINVALIDATENAMEDFRAMEBUFFERSUBDATAPROC)load("glInvalidateNamedFramebufferSubData");

  00238	48 8d 0d 00 00
	00 00		 lea	 rcx, OFFSET FLAT:??_C@_0CE@DEGDCFND@glInvalidateNamedFramebufferSub@
  0023f	ff 55 50	 call	 QWORD PTR load$[rbp]
  00242	48 89 05 00 00
	00 00		 mov	 QWORD PTR glad_glInvalidateNamedFramebufferSubData, rax

; 1730 :     glad_glClearNamedFramebufferiv = (PFNGLCLEARNAMEDFRAMEBUFFERIVPROC)load("glClearNamedFramebufferiv");

  00249	48 8d 0d 00 00
	00 00		 lea	 rcx, OFFSET FLAT:??_C@_0BK@NPOLJJAK@glClearNamedFramebufferiv@
  00250	ff 55 50	 call	 QWORD PTR load$[rbp]
  00253	48 89 05 00 00
	00 00		 mov	 QWORD PTR glad_glClearNamedFramebufferiv, rax

; 1731 :     glad_glClearNamedFramebufferuiv = (PFNGLCLEARNAMEDFRAMEBUFFERUIVPROC)load("glClearNamedFramebufferuiv");

  0025a	48 8d 0d 00 00
	00 00		 lea	 rcx, OFFSET FLAT:??_C@_0BL@JENKNAJN@glClearNamedFramebufferuiv@
  00261	ff 55 50	 call	 QWORD PTR load$[rbp]
  00264	48 89 05 00 00
	00 00		 mov	 QWORD PTR glad_glClearNamedFramebufferuiv, rax

; 1732 :     glad_glClearNamedFramebufferfv = (PFNGLCLEARNAMEDFRAMEBUFFERFVPROC)load("glClearNamedFramebufferfv");

  0026b	48 8d 0d 00 00
	00 00		 lea	 rcx, OFFSET FLAT:??_C@_0BK@NELHNODH@glClearNamedFramebufferfv@
  00272	ff 55 50	 call	 QWORD PTR load$[rbp]
  00275	48 89 05 00 00
	00 00		 mov	 QWORD PTR glad_glClearNamedFramebufferfv, rax

; 1733 :     glad_glClearNamedFramebufferfi = (PFNGLCLEARNAMEDFRAMEBUFFERFIPROC)load("glClearNamedFramebufferfi");

  0027c	48 8d 0d 00 00
	00 00		 lea	 rcx, OFFSET FLAT:??_C@_0BK@BJONNAKJ@glClearNamedFramebufferfi@
  00283	ff 55 50	 call	 QWORD PTR load$[rbp]
  00286	48 89 05 00 00
	00 00		 mov	 QWORD PTR glad_glClearNamedFramebufferfi, rax

; 1734 :     glad_glBlitNamedFramebuffer = (PFNGLBLITNAMEDFRAMEBUFFERPROC)load("glBlitNamedFramebuffer");

  0028d	48 8d 0d 00 00
	00 00		 lea	 rcx, OFFSET FLAT:??_C@_0BH@FNFDNHAI@glBlitNamedFramebuffer@
  00294	ff 55 50	 call	 QWORD PTR load$[rbp]
  00297	48 89 05 00 00
	00 00		 mov	 QWORD PTR glad_glBlitNamedFramebuffer, rax

; 1735 :     glad_glCheckNamedFramebufferStatus = (PFNGLCHECKNAMEDFRAMEBUFFERSTATUSPROC)load("glCheckNamedFramebufferStatus");

  0029e	48 8d 0d 00 00
	00 00		 lea	 rcx, OFFSET FLAT:??_C@_0BO@LMABFPGK@glCheckNamedFramebufferStatus@
  002a5	ff 55 50	 call	 QWORD PTR load$[rbp]
  002a8	48 89 05 00 00
	00 00		 mov	 QWORD PTR glad_glCheckNamedFramebufferStatus, rax

; 1736 :     glad_glGetNamedFramebufferParameteriv = (PFNGLGETNAMEDFRAMEBUFFERPARAMETERIVPROC)load("glGetNamedFramebufferParameteriv");

  002af	48 8d 0d 00 00
	00 00		 lea	 rcx, OFFSET FLAT:??_C@_0CB@COGAJBEM@glGetNamedFramebufferParameteri@
  002b6	ff 55 50	 call	 QWORD PTR load$[rbp]
  002b9	48 89 05 00 00
	00 00		 mov	 QWORD PTR glad_glGetNamedFramebufferParameteriv, rax

; 1737 :     glad_glGetNamedFramebufferAttachmentParameteriv = (PFNGLGETNAMEDFRAMEBUFFERATTACHMENTPARAMETERIVPROC)load("glGetNamedFramebufferAttachmentParameteriv");

  002c0	48 8d 0d 00 00
	00 00		 lea	 rcx, OFFSET FLAT:??_C@_0CL@BGDPEPCC@glGetNamedFramebufferAttachment@
  002c7	ff 55 50	 call	 QWORD PTR load$[rbp]
  002ca	48 89 05 00 00
	00 00		 mov	 QWORD PTR glad_glGetNamedFramebufferAttachmentParameteriv, rax

; 1738 :     glad_glCreateRenderbuffers = (PFNGLCREATERENDERBUFFERSPROC)load("glCreateRenderbuffers");

  002d1	48 8d 0d 00 00
	00 00		 lea	 rcx, OFFSET FLAT:??_C@_0BG@JJNJGAME@glCreateRenderbuffers@
  002d8	ff 55 50	 call	 QWORD PTR load$[rbp]
  002db	48 89 05 00 00
	00 00		 mov	 QWORD PTR glad_glCreateRenderbuffers, rax

; 1739 :     glad_glNamedRenderbufferStorage = (PFNGLNAMEDRENDERBUFFERSTORAGEPROC)load("glNamedRenderbufferStorage");

  002e2	48 8d 0d 00 00
	00 00		 lea	 rcx, OFFSET FLAT:??_C@_0BL@DGDPFKGM@glNamedRenderbufferStorage@
  002e9	ff 55 50	 call	 QWORD PTR load$[rbp]
  002ec	48 89 05 00 00
	00 00		 mov	 QWORD PTR glad_glNamedRenderbufferStorage, rax

; 1740 :     glad_glNamedRenderbufferStorageMultisample = (PFNGLNAMEDRENDERBUFFERSTORAGEMULTISAMPLEPROC)load("glNamedRenderbufferStorageMultisample");

  002f3	48 8d 0d 00 00
	00 00		 lea	 rcx, OFFSET FLAT:??_C@_0CG@IDKJGKBA@glNamedRenderbufferStorageMulti@
  002fa	ff 55 50	 call	 QWORD PTR load$[rbp]
  002fd	48 89 05 00 00
	00 00		 mov	 QWORD PTR glad_glNamedRenderbufferStorageMultisample, rax

; 1741 :     glad_glGetNamedRenderbufferParameteriv = (PFNGLGETNAMEDRENDERBUFFERPARAMETERIVPROC)load("glGetNamedRenderbufferParameteriv");

  00304	48 8d 0d 00 00
	00 00		 lea	 rcx, OFFSET FLAT:??_C@_0CC@FCEAEAHI@glGetNamedRenderbufferParameter@
  0030b	ff 55 50	 call	 QWORD PTR load$[rbp]
  0030e	48 89 05 00 00
	00 00		 mov	 QWORD PTR glad_glGetNamedRenderbufferParameteriv, rax

; 1742 :     glad_glCreateTextures = (PFNGLCREATETEXTURESPROC)load("glCreateTextures");

  00315	48 8d 0d 00 00
	00 00		 lea	 rcx, OFFSET FLAT:??_C@_0BB@LABGPBKD@glCreateTextures@
  0031c	ff 55 50	 call	 QWORD PTR load$[rbp]
  0031f	48 89 05 00 00
	00 00		 mov	 QWORD PTR glad_glCreateTextures, rax

; 1743 :     glad_glTextureBuffer = (PFNGLTEXTUREBUFFERPROC)load("glTextureBuffer");

  00326	48 8d 0d 00 00
	00 00		 lea	 rcx, OFFSET FLAT:??_C@_0BA@BEJOBNBA@glTextureBuffer@
  0032d	ff 55 50	 call	 QWORD PTR load$[rbp]
  00330	48 89 05 00 00
	00 00		 mov	 QWORD PTR glad_glTextureBuffer, rax

; 1744 :     glad_glTextureBufferRange = (PFNGLTEXTUREBUFFERRANGEPROC)load("glTextureBufferRange");

  00337	48 8d 0d 00 00
	00 00		 lea	 rcx, OFFSET FLAT:??_C@_0BF@HAEPGPBJ@glTextureBufferRange@
  0033e	ff 55 50	 call	 QWORD PTR load$[rbp]
  00341	48 89 05 00 00
	00 00		 mov	 QWORD PTR glad_glTextureBufferRange, rax

; 1745 :     glad_glTextureStorage1D = (PFNGLTEXTURESTORAGE1DPROC)load("glTextureStorage1D");

  00348	48 8d 0d 00 00
	00 00		 lea	 rcx, OFFSET FLAT:??_C@_0BD@CJOBHECL@glTextureStorage1D@
  0034f	ff 55 50	 call	 QWORD PTR load$[rbp]
  00352	48 89 05 00 00
	00 00		 mov	 QWORD PTR glad_glTextureStorage1D, rax

; 1746 :     glad_glTextureStorage2D = (PFNGLTEXTURESTORAGE2DPROC)load("glTextureStorage2D");

  00359	48 8d 0d 00 00
	00 00		 lea	 rcx, OFFSET FLAT:??_C@_0BD@CLKHMKHC@glTextureStorage2D@
  00360	ff 55 50	 call	 QWORD PTR load$[rbp]
  00363	48 89 05 00 00
	00 00		 mov	 QWORD PTR glad_glTextureStorage2D, rax

; 1747 :     glad_glTextureStorage3D = (PFNGLTEXTURESTORAGE3DPROC)load("glTextureStorage3D");

  0036a	48 8d 0d 00 00
	00 00		 lea	 rcx, OFFSET FLAT:??_C@_0BD@CKGFKAEF@glTextureStorage3D@
  00371	ff 55 50	 call	 QWORD PTR load$[rbp]
  00374	48 89 05 00 00
	00 00		 mov	 QWORD PTR glad_glTextureStorage3D, rax

; 1748 :     glad_glTextureStorage2DMultisample = (PFNGLTEXTURESTORAGE2DMULTISAMPLEPROC)load("glTextureStorage2DMultisample");

  0037b	48 8d 0d 00 00
	00 00		 lea	 rcx, OFFSET FLAT:??_C@_0BO@CIHBMJOI@glTextureStorage2DMultisample@
  00382	ff 55 50	 call	 QWORD PTR load$[rbp]
  00385	48 89 05 00 00
	00 00		 mov	 QWORD PTR glad_glTextureStorage2DMultisample, rax

; 1749 :     glad_glTextureStorage3DMultisample = (PFNGLTEXTURESTORAGE3DMULTISAMPLEPROC)load("glTextureStorage3DMultisample");

  0038c	48 8d 0d 00 00
	00 00		 lea	 rcx, OFFSET FLAT:??_C@_0BO@LFHOCIJO@glTextureStorage3DMultisample@
  00393	ff 55 50	 call	 QWORD PTR load$[rbp]
  00396	48 89 05 00 00
	00 00		 mov	 QWORD PTR glad_glTextureStorage3DMultisample, rax

; 1750 :     glad_glTextureSubImage1D = (PFNGLTEXTURESUBIMAGE1DPROC)load("glTextureSubImage1D");

  0039d	48 8d 0d 00 00
	00 00		 lea	 rcx, OFFSET FLAT:??_C@_0BE@IDMGLJDA@glTextureSubImage1D@
  003a4	ff 55 50	 call	 QWORD PTR load$[rbp]
  003a7	48 89 05 00 00
	00 00		 mov	 QWORD PTR glad_glTextureSubImage1D, rax

; 1751 :     glad_glTextureSubImage2D = (PFNGLTEXTURESUBIMAGE2DPROC)load("glTextureSubImage2D");

  003ae	48 8d 0d 00 00
	00 00		 lea	 rcx, OFFSET FLAT:??_C@_0BE@IBIAAHGJ@glTextureSubImage2D@
  003b5	ff 55 50	 call	 QWORD PTR load$[rbp]
  003b8	48 89 05 00 00
	00 00		 mov	 QWORD PTR glad_glTextureSubImage2D, rax

; 1752 :     glad_glTextureSubImage3D = (PFNGLTEXTURESUBIMAGE3DPROC)load("glTextureSubImage3D");

  003bf	48 8d 0d 00 00
	00 00		 lea	 rcx, OFFSET FLAT:??_C@_0BE@IAECGNFO@glTextureSubImage3D@
  003c6	ff 55 50	 call	 QWORD PTR load$[rbp]
  003c9	48 89 05 00 00
	00 00		 mov	 QWORD PTR glad_glTextureSubImage3D, rax

; 1753 :     glad_glCompressedTextureSubImage1D = (PFNGLCOMPRESSEDTEXTURESUBIMAGE1DPROC)load("glCompressedTextureSubImage1D");

  003d0	48 8d 0d 00 00
	00 00		 lea	 rcx, OFFSET FLAT:??_C@_0BO@NIHAIHFC@glCompressedTextureSubImage1D@
  003d7	ff 55 50	 call	 QWORD PTR load$[rbp]
  003da	48 89 05 00 00
	00 00		 mov	 QWORD PTR glad_glCompressedTextureSubImage1D, rax

; 1754 :     glad_glCompressedTextureSubImage2D = (PFNGLCOMPRESSEDTEXTURESUBIMAGE2DPROC)load("glCompressedTextureSubImage2D");

  003e1	48 8d 0d 00 00
	00 00		 lea	 rcx, OFFSET FLAT:??_C@_0BO@NKDGDJAL@glCompressedTextureSubImage2D@
  003e8	ff 55 50	 call	 QWORD PTR load$[rbp]
  003eb	48 89 05 00 00
	00 00		 mov	 QWORD PTR glad_glCompressedTextureSubImage2D, rax

; 1755 :     glad_glCompressedTextureSubImage3D = (PFNGLCOMPRESSEDTEXTURESUBIMAGE3DPROC)load("glCompressedTextureSubImage3D");

  003f2	48 8d 0d 00 00
	00 00		 lea	 rcx, OFFSET FLAT:??_C@_0BO@NLPEFDDM@glCompressedTextureSubImage3D@
  003f9	ff 55 50	 call	 QWORD PTR load$[rbp]
  003fc	48 89 05 00 00
	00 00		 mov	 QWORD PTR glad_glCompressedTextureSubImage3D, rax

; 1756 :     glad_glCopyTextureSubImage1D = (PFNGLCOPYTEXTURESUBIMAGE1DPROC)load("glCopyTextureSubImage1D");

  00403	48 8d 0d 00 00
	00 00		 lea	 rcx, OFFSET FLAT:??_C@_0BI@DBEKPOLO@glCopyTextureSubImage1D@
  0040a	ff 55 50	 call	 QWORD PTR load$[rbp]
  0040d	48 89 05 00 00
	00 00		 mov	 QWORD PTR glad_glCopyTextureSubImage1D, rax

; 1757 :     glad_glCopyTextureSubImage2D = (PFNGLCOPYTEXTURESUBIMAGE2DPROC)load("glCopyTextureSubImage2D");

  00414	48 8d 0d 00 00
	00 00		 lea	 rcx, OFFSET FLAT:??_C@_0BI@DDAMEAOH@glCopyTextureSubImage2D@
  0041b	ff 55 50	 call	 QWORD PTR load$[rbp]
  0041e	48 89 05 00 00
	00 00		 mov	 QWORD PTR glad_glCopyTextureSubImage2D, rax

; 1758 :     glad_glCopyTextureSubImage3D = (PFNGLCOPYTEXTURESUBIMAGE3DPROC)load("glCopyTextureSubImage3D");

  00425	48 8d 0d 00 00
	00 00		 lea	 rcx, OFFSET FLAT:??_C@_0BI@DCMOCKNA@glCopyTextureSubImage3D@
  0042c	ff 55 50	 call	 QWORD PTR load$[rbp]
  0042f	48 89 05 00 00
	00 00		 mov	 QWORD PTR glad_glCopyTextureSubImage3D, rax

; 1759 :     glad_glTextureParameterf = (PFNGLTEXTUREPARAMETERFPROC)load("glTextureParameterf");

  00436	48 8d 0d 00 00
	00 00		 lea	 rcx, OFFSET FLAT:??_C@_0BE@NLINBPMM@glTextureParameterf@
  0043d	ff 55 50	 call	 QWORD PTR load$[rbp]
  00440	48 89 05 00 00
	00 00		 mov	 QWORD PTR glad_glTextureParameterf, rax

; 1760 :     glad_glTextureParameterfv = (PFNGLTEXTUREPARAMETERFVPROC)load("glTextureParameterfv");

  00447	48 8d 0d 00 00
	00 00		 lea	 rcx, OFFSET FLAT:??_C@_0BF@OLGMNNPE@glTextureParameterfv@
  0044e	ff 55 50	 call	 QWORD PTR load$[rbp]
  00451	48 89 05 00 00
	00 00		 mov	 QWORD PTR glad_glTextureParameterfv, rax

; 1761 :     glad_glTextureParameteri = (PFNGLTEXTUREPARAMETERIPROC)load("glTextureParameteri");

  00458	48 8d 0d 00 00
	00 00		 lea	 rcx, OFFSET FLAT:??_C@_0BE@FMBFADAD@glTextureParameteri@
  0045f	ff 55 50	 call	 QWORD PTR load$[rbp]
  00462	48 89 05 00 00
	00 00		 mov	 QWORD PTR glad_glTextureParameteri, rax

; 1762 :     glad_glTextureParameterIiv = (PFNGLTEXTUREPARAMETERIIVPROC)load("glTextureParameterIiv");

  00469	48 8d 0d 00 00
	00 00		 lea	 rcx, OFFSET FLAT:??_C@_0BG@CMHFNPIN@glTextureParameterIiv@
  00470	ff 55 50	 call	 QWORD PTR load$[rbp]
  00473	48 89 05 00 00
	00 00		 mov	 QWORD PTR glad_glTextureParameterIiv, rax

; 1763 :     glad_glTextureParameterIuiv = (PFNGLTEXTUREPARAMETERIUIVPROC)load("glTextureParameterIuiv");

  0047a	48 8d 0d 00 00
	00 00		 lea	 rcx, OFFSET FLAT:??_C@_0BH@OHPFFIFI@glTextureParameterIuiv@
  00481	ff 55 50	 call	 QWORD PTR load$[rbp]
  00484	48 89 05 00 00
	00 00		 mov	 QWORD PTR glad_glTextureParameterIuiv, rax

; 1764 :     glad_glTextureParameteriv = (PFNGLTEXTUREPARAMETERIVPROC)load("glTextureParameteriv");

  0048b	48 8d 0d 00 00
	00 00		 lea	 rcx, OFFSET FLAT:??_C@_0BF@OADAJKMJ@glTextureParameteriv@
  00492	ff 55 50	 call	 QWORD PTR load$[rbp]
  00495	48 89 05 00 00
	00 00		 mov	 QWORD PTR glad_glTextureParameteriv, rax

; 1765 :     glad_glGenerateTextureMipmap = (PFNGLGENERATETEXTUREMIPMAPPROC)load("glGenerateTextureMipmap");

  0049c	48 8d 0d 00 00
	00 00		 lea	 rcx, OFFSET FLAT:??_C@_0BI@JJPLGFEG@glGenerateTextureMipmap@
  004a3	ff 55 50	 call	 QWORD PTR load$[rbp]
  004a6	48 89 05 00 00
	00 00		 mov	 QWORD PTR glad_glGenerateTextureMipmap, rax

; 1766 :     glad_glBindTextureUnit = (PFNGLBINDTEXTUREUNITPROC)load("glBindTextureUnit");

  004ad	48 8d 0d 00 00
	00 00		 lea	 rcx, OFFSET FLAT:??_C@_0BC@NKGMGGNI@glBindTextureUnit@
  004b4	ff 55 50	 call	 QWORD PTR load$[rbp]
  004b7	48 89 05 00 00
	00 00		 mov	 QWORD PTR glad_glBindTextureUnit, rax

; 1767 :     glad_glGetTextureImage = (PFNGLGETTEXTUREIMAGEPROC)load("glGetTextureImage");

  004be	48 8d 0d 00 00
	00 00		 lea	 rcx, OFFSET FLAT:??_C@_0BC@PJDCJNIH@glGetTextureImage@
  004c5	ff 55 50	 call	 QWORD PTR load$[rbp]
  004c8	48 89 05 00 00
	00 00		 mov	 QWORD PTR glad_glGetTextureImage, rax

; 1768 :     glad_glGetCompressedTextureImage = (PFNGLGETCOMPRESSEDTEXTUREIMAGEPROC)load("glGetCompressedTextureImage");

  004cf	48 8d 0d 00 00
	00 00		 lea	 rcx, OFFSET FLAT:??_C@_0BM@JOKODHH@glGetCompressedTextureImage@
  004d6	ff 55 50	 call	 QWORD PTR load$[rbp]
  004d9	48 89 05 00 00
	00 00		 mov	 QWORD PTR glad_glGetCompressedTextureImage, rax

; 1769 :     glad_glGetTextureLevelParameterfv = (PFNGLGETTEXTURELEVELPARAMETERFVPROC)load("glGetTextureLevelParameterfv");

  004e0	48 8d 0d 00 00
	00 00		 lea	 rcx, OFFSET FLAT:??_C@_0BN@HMEFKCC@glGetTextureLevelParameterfv@
  004e7	ff 55 50	 call	 QWORD PTR load$[rbp]
  004ea	48 89 05 00 00
	00 00		 mov	 QWORD PTR glad_glGetTextureLevelParameterfv, rax

; 1770 :     glad_glGetTextureLevelParameteriv = (PFNGLGETTEXTURELEVELPARAMETERIVPROC)load("glGetTextureLevelParameteriv");

  004f1	48 8d 0d 00 00
	00 00		 lea	 rcx, OFFSET FLAT:??_C@_0BN@MJIBNBP@glGetTextureLevelParameteriv@
  004f8	ff 55 50	 call	 QWORD PTR load$[rbp]
  004fb	48 89 05 00 00
	00 00		 mov	 QWORD PTR glad_glGetTextureLevelParameteriv, rax

; 1771 :     glad_glGetTextureParameterfv = (PFNGLGETTEXTUREPARAMETERFVPROC)load("glGetTextureParameterfv");

  00502	48 8d 0d 00 00
	00 00		 lea	 rcx, OFFSET FLAT:??_C@_0BI@NBDPHHJH@glGetTextureParameterfv@
  00509	ff 55 50	 call	 QWORD PTR load$[rbp]
  0050c	48 89 05 00 00
	00 00		 mov	 QWORD PTR glad_glGetTextureParameterfv, rax

; 1772 :     glad_glGetTextureParameterIiv = (PFNGLGETTEXTUREPARAMETERIIVPROC)load("glGetTextureParameterIiv");

  00513	48 8d 0d 00 00
	00 00		 lea	 rcx, OFFSET FLAT:??_C@_0BJ@PIPELMMF@glGetTextureParameterIiv@
  0051a	ff 55 50	 call	 QWORD PTR load$[rbp]
  0051d	48 89 05 00 00
	00 00		 mov	 QWORD PTR glad_glGetTextureParameterIiv, rax

; 1773 :     glad_glGetTextureParameterIuiv = (PFNGLGETTEXTUREPARAMETERIUIVPROC)load("glGetTextureParameterIuiv");

  00524	48 8d 0d 00 00
	00 00		 lea	 rcx, OFFSET FLAT:??_C@_0BK@JPCGBAJJ@glGetTextureParameterIuiv@
  0052b	ff 55 50	 call	 QWORD PTR load$[rbp]
  0052e	48 89 05 00 00
	00 00		 mov	 QWORD PTR glad_glGetTextureParameterIuiv, rax

; 1774 :     glad_glGetTextureParameteriv = (PFNGLGETTEXTUREPARAMETERIVPROC)load("glGetTextureParameteriv");

  00535	48 8d 0d 00 00
	00 00		 lea	 rcx, OFFSET FLAT:??_C@_0BI@NKGDDAKK@glGetTextureParameteriv@
  0053c	ff 55 50	 call	 QWORD PTR load$[rbp]
  0053f	48 89 05 00 00
	00 00		 mov	 QWORD PTR glad_glGetTextureParameteriv, rax

; 1775 :     glad_glCreateVertexArrays = (PFNGLCREATEVERTEXARRAYSPROC)load("glCreateVertexArrays");

  00546	48 8d 0d 00 00
	00 00		 lea	 rcx, OFFSET FLAT:??_C@_0BF@CMMGIOCI@glCreateVertexArrays@
  0054d	ff 55 50	 call	 QWORD PTR load$[rbp]
  00550	48 89 05 00 00
	00 00		 mov	 QWORD PTR glad_glCreateVertexArrays, rax

; 1776 :     glad_glDisableVertexArrayAttrib = (PFNGLDISABLEVERTEXARRAYATTRIBPROC)load("glDisableVertexArrayAttrib");

  00557	48 8d 0d 00 00
	00 00		 lea	 rcx, OFFSET FLAT:??_C@_0BL@FEKBMKFD@glDisableVertexArrayAttrib@
  0055e	ff 55 50	 call	 QWORD PTR load$[rbp]
  00561	48 89 05 00 00
	00 00		 mov	 QWORD PTR glad_glDisableVertexArrayAttrib, rax

; 1777 :     glad_glEnableVertexArrayAttrib = (PFNGLENABLEVERTEXARRAYATTRIBPROC)load("glEnableVertexArrayAttrib");

  00568	48 8d 0d 00 00
	00 00		 lea	 rcx, OFFSET FLAT:??_C@_0BK@MJMKFCHC@glEnableVertexArrayAttrib@
  0056f	ff 55 50	 call	 QWORD PTR load$[rbp]
  00572	48 89 05 00 00
	00 00		 mov	 QWORD PTR glad_glEnableVertexArrayAttrib, rax

; 1778 :     glad_glVertexArrayElementBuffer = (PFNGLVERTEXARRAYELEMENTBUFFERPROC)load("glVertexArrayElementBuffer");

  00579	48 8d 0d 00 00
	00 00		 lea	 rcx, OFFSET FLAT:??_C@_0BL@GGCAPDMO@glVertexArrayElementBuffer@
  00580	ff 55 50	 call	 QWORD PTR load$[rbp]
  00583	48 89 05 00 00
	00 00		 mov	 QWORD PTR glad_glVertexArrayElementBuffer, rax

; 1779 :     glad_glVertexArrayVertexBuffer = (PFNGLVERTEXARRAYVERTEXBUFFERPROC)load("glVertexArrayVertexBuffer");

  0058a	48 8d 0d 00 00
	00 00		 lea	 rcx, OFFSET FLAT:??_C@_0BK@BIEMNHGJ@glVertexArrayVertexBuffer@
  00591	ff 55 50	 call	 QWORD PTR load$[rbp]
  00594	48 89 05 00 00
	00 00		 mov	 QWORD PTR glad_glVertexArrayVertexBuffer, rax

; 1780 :     glad_glVertexArrayVertexBuffers = (PFNGLVERTEXARRAYVERTEXBUFFERSPROC)load("glVertexArrayVertexBuffers");

  0059b	48 8d 0d 00 00
	00 00		 lea	 rcx, OFFSET FLAT:??_C@_0BL@DAGELPBO@glVertexArrayVertexBuffers@
  005a2	ff 55 50	 call	 QWORD PTR load$[rbp]
  005a5	48 89 05 00 00
	00 00		 mov	 QWORD PTR glad_glVertexArrayVertexBuffers, rax

; 1781 :     glad_glVertexArrayAttribBinding = (PFNGLVERTEXARRAYATTRIBBINDINGPROC)load("glVertexArrayAttribBinding");

  005ac	48 8d 0d 00 00
	00 00		 lea	 rcx, OFFSET FLAT:??_C@_0BL@DJHJAEGB@glVertexArrayAttribBinding@
  005b3	ff 55 50	 call	 QWORD PTR load$[rbp]
  005b6	48 89 05 00 00
	00 00		 mov	 QWORD PTR glad_glVertexArrayAttribBinding, rax

; 1782 :     glad_glVertexArrayAttribFormat = (PFNGLVERTEXARRAYATTRIBFORMATPROC)load("glVertexArrayAttribFormat");

  005bd	48 8d 0d 00 00
	00 00		 lea	 rcx, OFFSET FLAT:??_C@_0BK@ONFBAOHM@glVertexArrayAttribFormat@
  005c4	ff 55 50	 call	 QWORD PTR load$[rbp]
  005c7	48 89 05 00 00
	00 00		 mov	 QWORD PTR glad_glVertexArrayAttribFormat, rax

; 1783 :     glad_glVertexArrayAttribIFormat = (PFNGLVERTEXARRAYATTRIBIFORMATPROC)load("glVertexArrayAttribIFormat");

  005ce	48 8d 0d 00 00
	00 00		 lea	 rcx, OFFSET FLAT:??_C@_0BL@JMMLHBDN@glVertexArrayAttribIFormat@
  005d5	ff 55 50	 call	 QWORD PTR load$[rbp]
  005d8	48 89 05 00 00
	00 00		 mov	 QWORD PTR glad_glVertexArrayAttribIFormat, rax

; 1784 :     glad_glVertexArrayAttribLFormat = (PFNGLVERTEXARRAYATTRIBLFORMATPROC)load("glVertexArrayAttribLFormat");

  005df	48 8d 0d 00 00
	00 00		 lea	 rcx, OFFSET FLAT:??_C@_0BL@NECLHPFJ@glVertexArrayAttribLFormat@
  005e6	ff 55 50	 call	 QWORD PTR load$[rbp]
  005e9	48 89 05 00 00
	00 00		 mov	 QWORD PTR glad_glVertexArrayAttribLFormat, rax

; 1785 :     glad_glVertexArrayBindingDivisor = (PFNGLVERTEXARRAYBINDINGDIVISORPROC)load("glVertexArrayBindingDivisor");

  005f0	48 8d 0d 00 00
	00 00		 lea	 rcx, OFFSET FLAT:??_C@_0BM@BNDNIOBB@glVertexArrayBindingDivisor@
  005f7	ff 55 50	 call	 QWORD PTR load$[rbp]
  005fa	48 89 05 00 00
	00 00		 mov	 QWORD PTR glad_glVertexArrayBindingDivisor, rax

; 1786 :     glad_glGetVertexArrayiv = (PFNGLGETVERTEXARRAYIVPROC)load("glGetVertexArrayiv");

  00601	48 8d 0d 00 00
	00 00		 lea	 rcx, OFFSET FLAT:??_C@_0BD@CPJNCJFG@glGetVertexArrayiv@
  00608	ff 55 50	 call	 QWORD PTR load$[rbp]
  0060b	48 89 05 00 00
	00 00		 mov	 QWORD PTR glad_glGetVertexArrayiv, rax

; 1787 :     glad_glGetVertexArrayIndexediv = (PFNGLGETVERTEXARRAYINDEXEDIVPROC)load("glGetVertexArrayIndexediv");

  00612	48 8d 0d 00 00
	00 00		 lea	 rcx, OFFSET FLAT:??_C@_0BK@FIIPMDBK@glGetVertexArrayIndexediv@
  00619	ff 55 50	 call	 QWORD PTR load$[rbp]
  0061c	48 89 05 00 00
	00 00		 mov	 QWORD PTR glad_glGetVertexArrayIndexediv, rax

; 1788 :     glad_glGetVertexArrayIndexed64iv = (PFNGLGETVERTEXARRAYINDEXED64IVPROC)load("glGetVertexArrayIndexed64iv");

  00623	48 8d 0d 00 00
	00 00		 lea	 rcx, OFFSET FLAT:??_C@_0BM@HHNNHCN@glGetVertexArrayIndexed64iv@
  0062a	ff 55 50	 call	 QWORD PTR load$[rbp]
  0062d	48 89 05 00 00
	00 00		 mov	 QWORD PTR glad_glGetVertexArrayIndexed64iv, rax

; 1789 :     glad_glCreateSamplers = (PFNGLCREATESAMPLERSPROC)load("glCreateSamplers");

  00634	48 8d 0d 00 00
	00 00		 lea	 rcx, OFFSET FLAT:??_C@_0BB@EHBNEMMP@glCreateSamplers@
  0063b	ff 55 50	 call	 QWORD PTR load$[rbp]
  0063e	48 89 05 00 00
	00 00		 mov	 QWORD PTR glad_glCreateSamplers, rax

; 1790 :     glad_glCreateProgramPipelines = (PFNGLCREATEPROGRAMPIPELINESPROC)load("glCreateProgramPipelines");

  00645	48 8d 0d 00 00
	00 00		 lea	 rcx, OFFSET FLAT:??_C@_0BJ@GJEEIMGK@glCreateProgramPipelines@
  0064c	ff 55 50	 call	 QWORD PTR load$[rbp]
  0064f	48 89 05 00 00
	00 00		 mov	 QWORD PTR glad_glCreateProgramPipelines, rax

; 1791 :     glad_glCreateQueries = (PFNGLCREATEQUERIESPROC)load("glCreateQueries");

  00656	48 8d 0d 00 00
	00 00		 lea	 rcx, OFFSET FLAT:??_C@_0BA@PGNDPLG@glCreateQueries@
  0065d	ff 55 50	 call	 QWORD PTR load$[rbp]
  00660	48 89 05 00 00
	00 00		 mov	 QWORD PTR glad_glCreateQueries, rax

; 1792 :     glad_glGetQueryBufferObjecti64v = (PFNGLGETQUERYBUFFEROBJECTI64VPROC)load("glGetQueryBufferObjecti64v");

  00667	48 8d 0d 00 00
	00 00		 lea	 rcx, OFFSET FLAT:??_C@_0BL@KFECDHBF@glGetQueryBufferObjecti64v@
  0066e	ff 55 50	 call	 QWORD PTR load$[rbp]
  00671	48 89 05 00 00
	00 00		 mov	 QWORD PTR glad_glGetQueryBufferObjecti64v, rax

; 1793 :     glad_glGetQueryBufferObjectiv = (PFNGLGETQUERYBUFFEROBJECTIVPROC)load("glGetQueryBufferObjectiv");

  00678	48 8d 0d 00 00
	00 00		 lea	 rcx, OFFSET FLAT:??_C@_0BJ@OBIFNHGB@glGetQueryBufferObjectiv@
  0067f	ff 55 50	 call	 QWORD PTR load$[rbp]
  00682	48 89 05 00 00
	00 00		 mov	 QWORD PTR glad_glGetQueryBufferObjectiv, rax

; 1794 :     glad_glGetQueryBufferObjectui64v = (PFNGLGETQUERYBUFFEROBJECTUI64VPROC)load("glGetQueryBufferObjectui64v");

  00689	48 8d 0d 00 00
	00 00		 lea	 rcx, OFFSET FLAT:??_C@_0BM@DFNHDHD@glGetQueryBufferObjectui64v@
  00690	ff 55 50	 call	 QWORD PTR load$[rbp]
  00693	48 89 05 00 00
	00 00		 mov	 QWORD PTR glad_glGetQueryBufferObjectui64v, rax

; 1795 :     glad_glGetQueryBufferObjectuiv = (PFNGLGETQUERYBUFFEROBJECTUIVPROC)load("glGetQueryBufferObjectuiv");

  0069a	48 8d 0d 00 00
	00 00		 lea	 rcx, OFFSET FLAT:??_C@_0BK@EOIEAGAD@glGetQueryBufferObjectuiv@
  006a1	ff 55 50	 call	 QWORD PTR load$[rbp]
  006a4	48 89 05 00 00
	00 00		 mov	 QWORD PTR glad_glGetQueryBufferObjectuiv, rax

; 1796 :     glad_glMemoryBarrierByRegion = (PFNGLMEMORYBARRIERBYREGIONPROC)load("glMemoryBarrierByRegion");

  006ab	48 8d 0d 00 00
	00 00		 lea	 rcx, OFFSET FLAT:??_C@_0BI@IDCHHHAI@glMemoryBarrierByRegion@
  006b2	ff 55 50	 call	 QWORD PTR load$[rbp]
  006b5	48 89 05 00 00
	00 00		 mov	 QWORD PTR glad_glMemoryBarrierByRegion, rax

; 1797 :     glad_glGetTextureSubImage = (PFNGLGETTEXTURESUBIMAGEPROC)load("glGetTextureSubImage");

  006bc	48 8d 0d 00 00
	00 00		 lea	 rcx, OFFSET FLAT:??_C@_0BF@JEEEKNGB@glGetTextureSubImage@
  006c3	ff 55 50	 call	 QWORD PTR load$[rbp]
  006c6	48 89 05 00 00
	00 00		 mov	 QWORD PTR glad_glGetTextureSubImage, rax

; 1798 :     glad_glGetCompressedTextureSubImage = (PFNGLGETCOMPRESSEDTEXTURESUBIMAGEPROC)load("glGetCompressedTextureSubImage");

  006cd	48 8d 0d 00 00
	00 00		 lea	 rcx, OFFSET FLAT:??_C@_0BP@BIDENANP@glGetCompressedTextureSubImage@
  006d4	ff 55 50	 call	 QWORD PTR load$[rbp]
  006d7	48 89 05 00 00
	00 00		 mov	 QWORD PTR glad_glGetCompressedTextureSubImage, rax

; 1799 :     glad_glGetGraphicsResetStatus = (PFNGLGETGRAPHICSRESETSTATUSPROC)load("glGetGraphicsResetStatus");

  006de	48 8d 0d 00 00
	00 00		 lea	 rcx, OFFSET FLAT:??_C@_0BJ@ILPAOCDN@glGetGraphicsResetStatus@
  006e5	ff 55 50	 call	 QWORD PTR load$[rbp]
  006e8	48 89 05 00 00
	00 00		 mov	 QWORD PTR glad_glGetGraphicsResetStatus, rax

; 1800 :     glad_glGetnCompressedTexImage = (PFNGLGETNCOMPRESSEDTEXIMAGEPROC)load("glGetnCompressedTexImage");

  006ef	48 8d 0d 00 00
	00 00		 lea	 rcx, OFFSET FLAT:??_C@_0BJ@HLNIHAOG@glGetnCompressedTexImage@
  006f6	ff 55 50	 call	 QWORD PTR load$[rbp]
  006f9	48 89 05 00 00
	00 00		 mov	 QWORD PTR glad_glGetnCompressedTexImage, rax

; 1801 :     glad_glGetnTexImage = (PFNGLGETNTEXIMAGEPROC)load("glGetnTexImage");

  00700	48 8d 0d 00 00
	00 00		 lea	 rcx, OFFSET FLAT:??_C@_0P@FBKOCLCM@glGetnTexImage@
  00707	ff 55 50	 call	 QWORD PTR load$[rbp]
  0070a	48 89 05 00 00
	00 00		 mov	 QWORD PTR glad_glGetnTexImage, rax

; 1802 :     glad_glGetnUniformdv = (PFNGLGETNUNIFORMDVPROC)load("glGetnUniformdv");

  00711	48 8d 0d 00 00
	00 00		 lea	 rcx, OFFSET FLAT:??_C@_0BA@KLGIFHJB@glGetnUniformdv@
  00718	ff 55 50	 call	 QWORD PTR load$[rbp]
  0071b	48 89 05 00 00
	00 00		 mov	 QWORD PTR glad_glGetnUniformdv, rax

; 1803 :     glad_glGetnUniformfv = (PFNGLGETNUNIFORMFVPROC)load("glGetnUniformfv");

  00722	48 8d 0d 00 00
	00 00		 lea	 rcx, OFFSET FLAT:??_C@_0BA@KIOMIDPP@glGetnUniformfv@
  00729	ff 55 50	 call	 QWORD PTR load$[rbp]
  0072c	48 89 05 00 00
	00 00		 mov	 QWORD PTR glad_glGetnUniformfv, rax

; 1804 :     glad_glGetnUniformiv = (PFNGLGETNUNIFORMIVPROC)load("glGetnUniformiv");

  00733	48 8d 0d 00 00
	00 00		 lea	 rcx, OFFSET FLAT:??_C@_0BA@KDLAMEMC@glGetnUniformiv@
  0073a	ff 55 50	 call	 QWORD PTR load$[rbp]
  0073d	48 89 05 00 00
	00 00		 mov	 QWORD PTR glad_glGetnUniformiv, rax

; 1805 :     glad_glGetnUniformuiv = (PFNGLGETNUNIFORMUIVPROC)load("glGetnUniformuiv");

  00744	48 8d 0d 00 00
	00 00		 lea	 rcx, OFFSET FLAT:??_C@_0BB@BBJMBEC@glGetnUniformuiv@
  0074b	ff 55 50	 call	 QWORD PTR load$[rbp]
  0074e	48 89 05 00 00
	00 00		 mov	 QWORD PTR glad_glGetnUniformuiv, rax

; 1806 :     glad_glReadnPixels = (PFNGLREADNPIXELSPROC)load("glReadnPixels");

  00755	48 8d 0d 00 00
	00 00		 lea	 rcx, OFFSET FLAT:??_C@_0O@NELODAJJ@glReadnPixels@
  0075c	ff 55 50	 call	 QWORD PTR load$[rbp]
  0075f	48 89 05 00 00
	00 00		 mov	 QWORD PTR glad_glReadnPixels, rax

; 1807 :     glad_glGetnMapdv = (PFNGLGETNMAPDVPROC)load("glGetnMapdv");

  00766	48 8d 0d 00 00
	00 00		 lea	 rcx, OFFSET FLAT:??_C@_0M@FBDPJCFH@glGetnMapdv@
  0076d	ff 55 50	 call	 QWORD PTR load$[rbp]
  00770	48 89 05 00 00
	00 00		 mov	 QWORD PTR glad_glGetnMapdv, rax

; 1808 :     glad_glGetnMapfv = (PFNGLGETNMAPFVPROC)load("glGetnMapfv");

  00777	48 8d 0d 00 00
	00 00		 lea	 rcx, OFFSET FLAT:??_C@_0M@FCLLEGDJ@glGetnMapfv@
  0077e	ff 55 50	 call	 QWORD PTR load$[rbp]
  00781	48 89 05 00 00
	00 00		 mov	 QWORD PTR glad_glGetnMapfv, rax

; 1809 :     glad_glGetnMapiv = (PFNGLGETNMAPIVPROC)load("glGetnMapiv");

  00788	48 8d 0d 00 00
	00 00		 lea	 rcx, OFFSET FLAT:??_C@_0M@FJOHABAE@glGetnMapiv@
  0078f	ff 55 50	 call	 QWORD PTR load$[rbp]
  00792	48 89 05 00 00
	00 00		 mov	 QWORD PTR glad_glGetnMapiv, rax

; 1810 :     glad_glGetnPixelMapfv = (PFNGLGETNPIXELMAPFVPROC)load("glGetnPixelMapfv");

  00799	48 8d 0d 00 00
	00 00		 lea	 rcx, OFFSET FLAT:??_C@_0BB@JKBANCED@glGetnPixelMapfv@
  007a0	ff 55 50	 call	 QWORD PTR load$[rbp]
  007a3	48 89 05 00 00
	00 00		 mov	 QWORD PTR glad_glGetnPixelMapfv, rax

; 1811 :     glad_glGetnPixelMapuiv = (PFNGLGETNPIXELMAPUIVPROC)load("glGetnPixelMapuiv");

  007aa	48 8d 0d 00 00
	00 00		 lea	 rcx, OFFSET FLAT:??_C@_0BC@MDPMMCLE@glGetnPixelMapuiv@
  007b1	ff 55 50	 call	 QWORD PTR load$[rbp]
  007b4	48 89 05 00 00
	00 00		 mov	 QWORD PTR glad_glGetnPixelMapuiv, rax

; 1812 :     glad_glGetnPixelMapusv = (PFNGLGETNPIXELMAPUSVPROC)load("glGetnPixelMapusv");

  007bb	48 8d 0d 00 00
	00 00		 lea	 rcx, OFFSET FLAT:??_C@_0BC@NCENOEBC@glGetnPixelMapusv@
  007c2	ff 55 50	 call	 QWORD PTR load$[rbp]
  007c5	48 89 05 00 00
	00 00		 mov	 QWORD PTR glad_glGetnPixelMapusv, rax

; 1813 :     glad_glGetnPolygonStipple = (PFNGLGETNPOLYGONSTIPPLEPROC)load("glGetnPolygonStipple");

  007cc	48 8d 0d 00 00
	00 00		 lea	 rcx, OFFSET FLAT:??_C@_0BF@NBHIHHJA@glGetnPolygonStipple@
  007d3	ff 55 50	 call	 QWORD PTR load$[rbp]
  007d6	48 89 05 00 00
	00 00		 mov	 QWORD PTR glad_glGetnPolygonStipple, rax

; 1814 :     glad_glGetnColorTable = (PFNGLGETNCOLORTABLEPROC)load("glGetnColorTable");

  007dd	48 8d 0d 00 00
	00 00		 lea	 rcx, OFFSET FLAT:??_C@_0BB@EFKGOAOL@glGetnColorTable@
  007e4	ff 55 50	 call	 QWORD PTR load$[rbp]
  007e7	48 89 05 00 00
	00 00		 mov	 QWORD PTR glad_glGetnColorTable, rax

; 1815 :     glad_glGetnConvolutionFilter = (PFNGLGETNCONVOLUTIONFILTERPROC)load("glGetnConvolutionFilter");

  007ee	48 8d 0d 00 00
	00 00		 lea	 rcx, OFFSET FLAT:??_C@_0BI@GBFNHONB@glGetnConvolutionFilter@
  007f5	ff 55 50	 call	 QWORD PTR load$[rbp]
  007f8	48 89 05 00 00
	00 00		 mov	 QWORD PTR glad_glGetnConvolutionFilter, rax

; 1816 :     glad_glGetnSeparableFilter = (PFNGLGETNSEPARABLEFILTERPROC)load("glGetnSeparableFilter");

  007ff	48 8d 0d 00 00
	00 00		 lea	 rcx, OFFSET FLAT:??_C@_0BG@LBKKJBFC@glGetnSeparableFilter@
  00806	ff 55 50	 call	 QWORD PTR load$[rbp]
  00809	48 89 05 00 00
	00 00		 mov	 QWORD PTR glad_glGetnSeparableFilter, rax

; 1817 :     glad_glGetnHistogram = (PFNGLGETNHISTOGRAMPROC)load("glGetnHistogram");

  00810	48 8d 0d 00 00
	00 00		 lea	 rcx, OFFSET FLAT:??_C@_0BA@POEMGEO@glGetnHistogram@
  00817	ff 55 50	 call	 QWORD PTR load$[rbp]
  0081a	48 89 05 00 00
	00 00		 mov	 QWORD PTR glad_glGetnHistogram, rax

; 1818 :     glad_glGetnMinmax = (PFNGLGETNMINMAXPROC)load("glGetnMinmax");

  00821	48 8d 0d 00 00
	00 00		 lea	 rcx, OFFSET FLAT:??_C@_0N@EFFKFJMK@glGetnMinmax@
  00828	ff 55 50	 call	 QWORD PTR load$[rbp]
  0082b	48 89 05 00 00
	00 00		 mov	 QWORD PTR glad_glGetnMinmax, rax

; 1819 :     glad_glTextureBarrier = (PFNGLTEXTUREBARRIERPROC)load("glTextureBarrier");

  00832	48 8d 0d 00 00
	00 00		 lea	 rcx, OFFSET FLAT:??_C@_0BB@MNKDFGFC@glTextureBarrier@
  00839	ff 55 50	 call	 QWORD PTR load$[rbp]
  0083c	48 89 05 00 00
	00 00		 mov	 QWORD PTR glad_glTextureBarrier, rax
$LN1@load_GL_VE:

; 1820 : }

  00843	48 8d 65 40	 lea	 rsp, QWORD PTR [rbp+64]
  00847	5d		 pop	 rbp
  00848	c3		 ret	 0
load_GL_VERSION_4_5 ENDP
_TEXT	ENDS
; Function compile flags: /Odtp /ZI
; File D:\Programmer\GLenv\glad.c
;	COMDAT load_GL_VERSION_4_4
_TEXT	SEGMENT
load$ = 80
load_GL_VERSION_4_4 PROC				; COMDAT

; 1684 : static void load_GL_VERSION_4_4(GLADloadproc load) {

  00000	48 89 4c 24 08	 mov	 QWORD PTR [rsp+8], rcx
  00005	55		 push	 rbp
  00006	48 83 ec 60	 sub	 rsp, 96			; 00000060H
  0000a	48 8d 6c 24 20	 lea	 rbp, QWORD PTR [rsp+32]
  0000f	48 8d 0d 00 00
	00 00		 lea	 rcx, OFFSET FLAT:__2B68C239_glad@c
  00016	e8 00 00 00 00	 call	 __CheckForDebuggerJustMyCode

; 1685 :     if (!GLAD_GL_VERSION_4_4) return;

  0001b	83 3d 00 00 00
	00 00		 cmp	 DWORD PTR GLAD_GL_VERSION_4_4, 0
  00022	75 05		 jne	 SHORT $LN2@load_GL_VE
  00024	e9 99 00 00 00	 jmp	 $LN1@load_GL_VE
$LN2@load_GL_VE:

; 1686 :     glad_glBufferStorage = (PFNGLBUFFERSTORAGEPROC)load("glBufferStorage");

  00029	48 8d 0d 00 00
	00 00		 lea	 rcx, OFFSET FLAT:??_C@_0BA@COBILMHM@glBufferStorage@
  00030	ff 55 50	 call	 QWORD PTR load$[rbp]
  00033	48 89 05 00 00
	00 00		 mov	 QWORD PTR glad_glBufferStorage, rax

; 1687 :     glad_glClearTexImage = (PFNGLCLEARTEXIMAGEPROC)load("glClearTexImage");

  0003a	48 8d 0d 00 00
	00 00		 lea	 rcx, OFFSET FLAT:??_C@_0BA@FNPOIBAF@glClearTexImage@
  00041	ff 55 50	 call	 QWORD PTR load$[rbp]
  00044	48 89 05 00 00
	00 00		 mov	 QWORD PTR glad_glClearTexImage, rax

; 1688 :     glad_glClearTexSubImage = (PFNGLCLEARTEXSUBIMAGEPROC)load("glClearTexSubImage");

  0004b	48 8d 0d 00 00
	00 00		 lea	 rcx, OFFSET FLAT:??_C@_0BD@CFALBON@glClearTexSubImage@
  00052	ff 55 50	 call	 QWORD PTR load$[rbp]
  00055	48 89 05 00 00
	00 00		 mov	 QWORD PTR glad_glClearTexSubImage, rax

; 1689 :     glad_glBindBuffersBase = (PFNGLBINDBUFFERSBASEPROC)load("glBindBuffersBase");

  0005c	48 8d 0d 00 00
	00 00		 lea	 rcx, OFFSET FLAT:??_C@_0BC@ENBBLPHM@glBindBuffersBase@
  00063	ff 55 50	 call	 QWORD PTR load$[rbp]
  00066	48 89 05 00 00
	00 00		 mov	 QWORD PTR glad_glBindBuffersBase, rax

; 1690 :     glad_glBindBuffersRange = (PFNGLBINDBUFFERSRANGEPROC)load("glBindBuffersRange");

  0006d	48 8d 0d 00 00
	00 00		 lea	 rcx, OFFSET FLAT:??_C@_0BD@ODFFOKPN@glBindBuffersRange@
  00074	ff 55 50	 call	 QWORD PTR load$[rbp]
  00077	48 89 05 00 00
	00 00		 mov	 QWORD PTR glad_glBindBuffersRange, rax

; 1691 :     glad_glBindTextures = (PFNGLBINDTEXTURESPROC)load("glBindTextures");

  0007e	48 8d 0d 00 00
	00 00		 lea	 rcx, OFFSET FLAT:??_C@_0P@KHDEIIMA@glBindTextures@
  00085	ff 55 50	 call	 QWORD PTR load$[rbp]
  00088	48 89 05 00 00
	00 00		 mov	 QWORD PTR glad_glBindTextures, rax

; 1692 :     glad_glBindSamplers = (PFNGLBINDSAMPLERSPROC)load("glBindSamplers");

  0008f	48 8d 0d 00 00
	00 00		 lea	 rcx, OFFSET FLAT:??_C@_0P@FADPDFKM@glBindSamplers@
  00096	ff 55 50	 call	 QWORD PTR load$[rbp]
  00099	48 89 05 00 00
	00 00		 mov	 QWORD PTR glad_glBindSamplers, rax

; 1693 :     glad_glBindImageTextures = (PFNGLBINDIMAGETEXTURESPROC)load("glBindImageTextures");

  000a0	48 8d 0d 00 00
	00 00		 lea	 rcx, OFFSET FLAT:??_C@_0BE@NAMJLOCK@glBindImageTextures@
  000a7	ff 55 50	 call	 QWORD PTR load$[rbp]
  000aa	48 89 05 00 00
	00 00		 mov	 QWORD PTR glad_glBindImageTextures, rax

; 1694 :     glad_glBindVertexBuffers = (PFNGLBINDVERTEXBUFFERSPROC)load("glBindVertexBuffers");

  000b1	48 8d 0d 00 00
	00 00		 lea	 rcx, OFFSET FLAT:??_C@_0BE@LNCGJHDC@glBindVertexBuffers@
  000b8	ff 55 50	 call	 QWORD PTR load$[rbp]
  000bb	48 89 05 00 00
	00 00		 mov	 QWORD PTR glad_glBindVertexBuffers, rax
$LN1@load_GL_VE:

; 1695 : }

  000c2	48 8d 65 40	 lea	 rsp, QWORD PTR [rbp+64]
  000c6	5d		 pop	 rbp
  000c7	c3		 ret	 0
load_GL_VERSION_4_4 ENDP
_TEXT	ENDS
; Function compile flags: /Odtp /ZI
; File D:\Programmer\GLenv\glad.c
;	COMDAT load_GL_VERSION_4_3
_TEXT	SEGMENT
load$ = 80
load_GL_VERSION_4_3 PROC				; COMDAT

; 1637 : static void load_GL_VERSION_4_3(GLADloadproc load) {

  00000	48 89 4c 24 08	 mov	 QWORD PTR [rsp+8], rcx
  00005	55		 push	 rbp
  00006	48 83 ec 60	 sub	 rsp, 96			; 00000060H
  0000a	48 8d 6c 24 20	 lea	 rbp, QWORD PTR [rsp+32]
  0000f	48 8d 0d 00 00
	00 00		 lea	 rcx, OFFSET FLAT:__2B68C239_glad@c
  00016	e8 00 00 00 00	 call	 __CheckForDebuggerJustMyCode

; 1638 :     if (!GLAD_GL_VERSION_4_3) return;

  0001b	83 3d 00 00 00
	00 00		 cmp	 DWORD PTR GLAD_GL_VERSION_4_3, 0
  00022	75 05		 jne	 SHORT $LN2@load_GL_VE
  00024	e9 ec 02 00 00	 jmp	 $LN1@load_GL_VE
$LN2@load_GL_VE:

; 1639 :     glad_glClearBufferData = (PFNGLCLEARBUFFERDATAPROC)load("glClearBufferData");

  00029	48 8d 0d 00 00
	00 00		 lea	 rcx, OFFSET FLAT:??_C@_0BC@FCMBBKMP@glClearBufferData@
  00030	ff 55 50	 call	 QWORD PTR load$[rbp]
  00033	48 89 05 00 00
	00 00		 mov	 QWORD PTR glad_glClearBufferData, rax

; 1640 :     glad_glClearBufferSubData = (PFNGLCLEARBUFFERSUBDATAPROC)load("glClearBufferSubData");

  0003a	48 8d 0d 00 00
	00 00		 lea	 rcx, OFFSET FLAT:??_C@_0BF@FDHIBCMD@glClearBufferSubData@
  00041	ff 55 50	 call	 QWORD PTR load$[rbp]
  00044	48 89 05 00 00
	00 00		 mov	 QWORD PTR glad_glClearBufferSubData, rax

; 1641 :     glad_glDispatchCompute = (PFNGLDISPATCHCOMPUTEPROC)load("glDispatchCompute");

  0004b	48 8d 0d 00 00
	00 00		 lea	 rcx, OFFSET FLAT:??_C@_0BC@DKKFFIGC@glDispatchCompute@
  00052	ff 55 50	 call	 QWORD PTR load$[rbp]
  00055	48 89 05 00 00
	00 00		 mov	 QWORD PTR glad_glDispatchCompute, rax

; 1642 :     glad_glDispatchComputeIndirect = (PFNGLDISPATCHCOMPUTEINDIRECTPROC)load("glDispatchComputeIndirect");

  0005c	48 8d 0d 00 00
	00 00		 lea	 rcx, OFFSET FLAT:??_C@_0BK@EJMOGMMI@glDispatchComputeIndirect@
  00063	ff 55 50	 call	 QWORD PTR load$[rbp]
  00066	48 89 05 00 00
	00 00		 mov	 QWORD PTR glad_glDispatchComputeIndirect, rax

; 1643 :     glad_glCopyImageSubData = (PFNGLCOPYIMAGESUBDATAPROC)load("glCopyImageSubData");

  0006d	48 8d 0d 00 00
	00 00		 lea	 rcx, OFFSET FLAT:??_C@_0BD@BNCHOBBL@glCopyImageSubData@
  00074	ff 55 50	 call	 QWORD PTR load$[rbp]
  00077	48 89 05 00 00
	00 00		 mov	 QWORD PTR glad_glCopyImageSubData, rax

; 1644 :     glad_glFramebufferParameteri = (PFNGLFRAMEBUFFERPARAMETERIPROC)load("glFramebufferParameteri");

  0007e	48 8d 0d 00 00
	00 00		 lea	 rcx, OFFSET FLAT:??_C@_0BI@MLACHGDK@glFramebufferParameteri@
  00085	ff 55 50	 call	 QWORD PTR load$[rbp]
  00088	48 89 05 00 00
	00 00		 mov	 QWORD PTR glad_glFramebufferParameteri, rax

; 1645 :     glad_glGetFramebufferParameteriv = (PFNGLGETFRAMEBUFFERPARAMETERIVPROC)load("glGetFramebufferParameteriv");

  0008f	48 8d 0d 00 00
	00 00		 lea	 rcx, OFFSET FLAT:??_C@_0BM@BFEEFCMK@glGetFramebufferParameteriv@
  00096	ff 55 50	 call	 QWORD PTR load$[rbp]
  00099	48 89 05 00 00
	00 00		 mov	 QWORD PTR glad_glGetFramebufferParameteriv, rax

; 1646 :     glad_glGetInternalformati64v = (PFNGLGETINTERNALFORMATI64VPROC)load("glGetInternalformati64v");

  000a0	48 8d 0d 00 00
	00 00		 lea	 rcx, OFFSET FLAT:??_C@_0BI@PHNNEGBD@glGetInternalformati64v@
  000a7	ff 55 50	 call	 QWORD PTR load$[rbp]
  000aa	48 89 05 00 00
	00 00		 mov	 QWORD PTR glad_glGetInternalformati64v, rax

; 1647 :     glad_glInvalidateTexSubImage = (PFNGLINVALIDATETEXSUBIMAGEPROC)load("glInvalidateTexSubImage");

  000b1	48 8d 0d 00 00
	00 00		 lea	 rcx, OFFSET FLAT:??_C@_0BI@FJDKFLGL@glInvalidateTexSubImage@
  000b8	ff 55 50	 call	 QWORD PTR load$[rbp]
  000bb	48 89 05 00 00
	00 00		 mov	 QWORD PTR glad_glInvalidateTexSubImage, rax

; 1648 :     glad_glInvalidateTexImage = (PFNGLINVALIDATETEXIMAGEPROC)load("glInvalidateTexImage");

  000c2	48 8d 0d 00 00
	00 00		 lea	 rcx, OFFSET FLAT:??_C@_0BF@KHIECPKG@glInvalidateTexImage@
  000c9	ff 55 50	 call	 QWORD PTR load$[rbp]
  000cc	48 89 05 00 00
	00 00		 mov	 QWORD PTR glad_glInvalidateTexImage, rax

; 1649 :     glad_glInvalidateBufferSubData = (PFNGLINVALIDATEBUFFERSUBDATAPROC)load("glInvalidateBufferSubData");

  000d3	48 8d 0d 00 00
	00 00		 lea	 rcx, OFFSET FLAT:??_C@_0BK@HOHOHNAC@glInvalidateBufferSubData@
  000da	ff 55 50	 call	 QWORD PTR load$[rbp]
  000dd	48 89 05 00 00
	00 00		 mov	 QWORD PTR glad_glInvalidateBufferSubData, rax

; 1650 :     glad_glInvalidateBufferData = (PFNGLINVALIDATEBUFFERDATAPROC)load("glInvalidateBufferData");

  000e4	48 8d 0d 00 00
	00 00		 lea	 rcx, OFFSET FLAT:??_C@_0BH@OGIFIBHA@glInvalidateBufferData@
  000eb	ff 55 50	 call	 QWORD PTR load$[rbp]
  000ee	48 89 05 00 00
	00 00		 mov	 QWORD PTR glad_glInvalidateBufferData, rax

; 1651 :     glad_glInvalidateFramebuffer = (PFNGLINVALIDATEFRAMEBUFFERPROC)load("glInvalidateFramebuffer");

  000f5	48 8d 0d 00 00
	00 00		 lea	 rcx, OFFSET FLAT:??_C@_0BI@OAJPOHIP@glInvalidateFramebuffer@
  000fc	ff 55 50	 call	 QWORD PTR load$[rbp]
  000ff	48 89 05 00 00
	00 00		 mov	 QWORD PTR glad_glInvalidateFramebuffer, rax

; 1652 :     glad_glInvalidateSubFramebuffer = (PFNGLINVALIDATESUBFRAMEBUFFERPROC)load("glInvalidateSubFramebuffer");

  00106	48 8d 0d 00 00
	00 00		 lea	 rcx, OFFSET FLAT:??_C@_0BL@IHGLAPPE@glInvalidateSubFramebuffer@
  0010d	ff 55 50	 call	 QWORD PTR load$[rbp]
  00110	48 89 05 00 00
	00 00		 mov	 QWORD PTR glad_glInvalidateSubFramebuffer, rax

; 1653 :     glad_glMultiDrawArraysIndirect = (PFNGLMULTIDRAWARRAYSINDIRECTPROC)load("glMultiDrawArraysIndirect");

  00117	48 8d 0d 00 00
	00 00		 lea	 rcx, OFFSET FLAT:??_C@_0BK@IKGAIKOP@glMultiDrawArraysIndirect@
  0011e	ff 55 50	 call	 QWORD PTR load$[rbp]
  00121	48 89 05 00 00
	00 00		 mov	 QWORD PTR glad_glMultiDrawArraysIndirect, rax

; 1654 :     glad_glMultiDrawElementsIndirect = (PFNGLMULTIDRAWELEMENTSINDIRECTPROC)load("glMultiDrawElementsIndirect");

  00128	48 8d 0d 00 00
	00 00		 lea	 rcx, OFFSET FLAT:??_C@_0BM@KHEEFMKO@glMultiDrawElementsIndirect@
  0012f	ff 55 50	 call	 QWORD PTR load$[rbp]
  00132	48 89 05 00 00
	00 00		 mov	 QWORD PTR glad_glMultiDrawElementsIndirect, rax

; 1655 :     glad_glGetProgramInterfaceiv = (PFNGLGETPROGRAMINTERFACEIVPROC)load("glGetProgramInterfaceiv");

  00139	48 8d 0d 00 00
	00 00		 lea	 rcx, OFFSET FLAT:??_C@_0BI@ICGPDPK@glGetProgramInterfaceiv@
  00140	ff 55 50	 call	 QWORD PTR load$[rbp]
  00143	48 89 05 00 00
	00 00		 mov	 QWORD PTR glad_glGetProgramInterfaceiv, rax

; 1656 :     glad_glGetProgramResourceIndex = (PFNGLGETPROGRAMRESOURCEINDEXPROC)load("glGetProgramResourceIndex");

  0014a	48 8d 0d 00 00
	00 00		 lea	 rcx, OFFSET FLAT:??_C@_0BK@DBDCONKB@glGetProgramResourceIndex@
  00151	ff 55 50	 call	 QWORD PTR load$[rbp]
  00154	48 89 05 00 00
	00 00		 mov	 QWORD PTR glad_glGetProgramResourceIndex, rax

; 1657 :     glad_glGetProgramResourceName = (PFNGLGETPROGRAMRESOURCENAMEPROC)load("glGetProgramResourceName");

  0015b	48 8d 0d 00 00
	00 00		 lea	 rcx, OFFSET FLAT:??_C@_0BJ@OHCPEAGJ@glGetProgramResourceName@
  00162	ff 55 50	 call	 QWORD PTR load$[rbp]
  00165	48 89 05 00 00
	00 00		 mov	 QWORD PTR glad_glGetProgramResourceName, rax

; 1658 :     glad_glGetProgramResourceiv = (PFNGLGETPROGRAMRESOURCEIVPROC)load("glGetProgramResourceiv");

  0016c	48 8d 0d 00 00
	00 00		 lea	 rcx, OFFSET FLAT:??_C@_0BH@LEDFEPHI@glGetProgramResourceiv@
  00173	ff 55 50	 call	 QWORD PTR load$[rbp]
  00176	48 89 05 00 00
	00 00		 mov	 QWORD PTR glad_glGetProgramResourceiv, rax

; 1659 :     glad_glGetProgramResourceLocation = (PFNGLGETPROGRAMRESOURCELOCATIONPROC)load("glGetProgramResourceLocation");

  0017d	48 8d 0d 00 00
	00 00		 lea	 rcx, OFFSET FLAT:??_C@_0BN@BIJNENLC@glGetProgramResourceLocation@
  00184	ff 55 50	 call	 QWORD PTR load$[rbp]
  00187	48 89 05 00 00
	00 00		 mov	 QWORD PTR glad_glGetProgramResourceLocation, rax

; 1660 :     glad_glGetProgramResourceLocationIndex = (PFNGLGETPROGRAMRESOURCELOCATIONINDEXPROC)load("glGetProgramResourceLocationIndex");

  0018e	48 8d 0d 00 00
	00 00		 lea	 rcx, OFFSET FLAT:??_C@_0CC@GHECGAIH@glGetProgramResourceLocationInd@
  00195	ff 55 50	 call	 QWORD PTR load$[rbp]
  00198	48 89 05 00 00
	00 00		 mov	 QWORD PTR glad_glGetProgramResourceLocationIndex, rax

; 1661 :     glad_glShaderStorageBlockBinding = (PFNGLSHADERSTORAGEBLOCKBINDINGPROC)load("glShaderStorageBlockBinding");

  0019f	48 8d 0d 00 00
	00 00		 lea	 rcx, OFFSET FLAT:??_C@_0BM@GDDCNIBO@glShaderStorageBlockBinding@
  001a6	ff 55 50	 call	 QWORD PTR load$[rbp]
  001a9	48 89 05 00 00
	00 00		 mov	 QWORD PTR glad_glShaderStorageBlockBinding, rax

; 1662 :     glad_glTexBufferRange = (PFNGLTEXBUFFERRANGEPROC)load("glTexBufferRange");

  001b0	48 8d 0d 00 00
	00 00		 lea	 rcx, OFFSET FLAT:??_C@_0BB@DPMGLFNI@glTexBufferRange@
  001b7	ff 55 50	 call	 QWORD PTR load$[rbp]
  001ba	48 89 05 00 00
	00 00		 mov	 QWORD PTR glad_glTexBufferRange, rax

; 1663 :     glad_glTexStorage2DMultisample = (PFNGLTEXSTORAGE2DMULTISAMPLEPROC)load("glTexStorage2DMultisample");

  001c1	48 8d 0d 00 00
	00 00		 lea	 rcx, OFFSET FLAT:??_C@_0BK@PDJAKDKP@glTexStorage2DMultisample@
  001c8	ff 55 50	 call	 QWORD PTR load$[rbp]
  001cb	48 89 05 00 00
	00 00		 mov	 QWORD PTR glad_glTexStorage2DMultisample, rax

; 1664 :     glad_glTexStorage3DMultisample = (PFNGLTEXSTORAGE3DMULTISAMPLEPROC)load("glTexStorage3DMultisample");

  001d2	48 8d 0d 00 00
	00 00		 lea	 rcx, OFFSET FLAT:??_C@_0BK@GOJPECNJ@glTexStorage3DMultisample@
  001d9	ff 55 50	 call	 QWORD PTR load$[rbp]
  001dc	48 89 05 00 00
	00 00		 mov	 QWORD PTR glad_glTexStorage3DMultisample, rax

; 1665 :     glad_glTextureView = (PFNGLTEXTUREVIEWPROC)load("glTextureView");

  001e3	48 8d 0d 00 00
	00 00		 lea	 rcx, OFFSET FLAT:??_C@_0O@BNFDGIMP@glTextureView@
  001ea	ff 55 50	 call	 QWORD PTR load$[rbp]
  001ed	48 89 05 00 00
	00 00		 mov	 QWORD PTR glad_glTextureView, rax

; 1666 :     glad_glBindVertexBuffer = (PFNGLBINDVERTEXBUFFERPROC)load("glBindVertexBuffer");

  001f4	48 8d 0d 00 00
	00 00		 lea	 rcx, OFFSET FLAT:??_C@_0BD@FCGJAOHG@glBindVertexBuffer@
  001fb	ff 55 50	 call	 QWORD PTR load$[rbp]
  001fe	48 89 05 00 00
	00 00		 mov	 QWORD PTR glad_glBindVertexBuffer, rax

; 1667 :     glad_glVertexAttribFormat = (PFNGLVERTEXATTRIBFORMATPROC)load("glVertexAttribFormat");

  00205	48 8d 0d 00 00
	00 00		 lea	 rcx, OFFSET FLAT:??_C@_0BF@JEIPPBFE@glVertexAttribFormat@
  0020c	ff 55 50	 call	 QWORD PTR load$[rbp]
  0020f	48 89 05 00 00
	00 00		 mov	 QWORD PTR glad_glVertexAttribFormat, rax

; 1668 :     glad_glVertexAttribIFormat = (PFNGLVERTEXATTRIBIFORMATPROC)load("glVertexAttribIFormat");

  00216	48 8d 0d 00 00
	00 00		 lea	 rcx, OFFSET FLAT:??_C@_0BG@KJAHAHDI@glVertexAttribIFormat@
  0021d	ff 55 50	 call	 QWORD PTR load$[rbp]
  00220	48 89 05 00 00
	00 00		 mov	 QWORD PTR glad_glVertexAttribIFormat, rax

; 1669 :     glad_glVertexAttribLFormat = (PFNGLVERTEXATTRIBLFORMATPROC)load("glVertexAttribLFormat");

  00227	48 8d 0d 00 00
	00 00		 lea	 rcx, OFFSET FLAT:??_C@_0BG@OBOHAJFM@glVertexAttribLFormat@
  0022e	ff 55 50	 call	 QWORD PTR load$[rbp]
  00231	48 89 05 00 00
	00 00		 mov	 QWORD PTR glad_glVertexAttribLFormat, rax

; 1670 :     glad_glVertexAttribBinding = (PFNGLVERTEXATTRIBBINDINGPROC)load("glVertexAttribBinding");

  00238	48 8d 0d 00 00
	00 00		 lea	 rcx, OFFSET FLAT:??_C@_0BG@MLFHCGE@glVertexAttribBinding@
  0023f	ff 55 50	 call	 QWORD PTR load$[rbp]
  00242	48 89 05 00 00
	00 00		 mov	 QWORD PTR glad_glVertexAttribBinding, rax

; 1671 :     glad_glVertexBindingDivisor = (PFNGLVERTEXBINDINGDIVISORPROC)load("glVertexBindingDivisor");

  00249	48 8d 0d 00 00
	00 00		 lea	 rcx, OFFSET FLAT:??_C@_0BH@GNGCLGOI@glVertexBindingDivisor@
  00250	ff 55 50	 call	 QWORD PTR load$[rbp]
  00253	48 89 05 00 00
	00 00		 mov	 QWORD PTR glad_glVertexBindingDivisor, rax

; 1672 :     glad_glDebugMessageControl = (PFNGLDEBUGMESSAGECONTROLPROC)load("glDebugMessageControl");

  0025a	48 8d 0d 00 00
	00 00		 lea	 rcx, OFFSET FLAT:??_C@_0BG@MNBDCEEP@glDebugMessageControl@
  00261	ff 55 50	 call	 QWORD PTR load$[rbp]
  00264	48 89 05 00 00
	00 00		 mov	 QWORD PTR glad_glDebugMessageControl, rax

; 1673 :     glad_glDebugMessageInsert = (PFNGLDEBUGMESSAGEINSERTPROC)load("glDebugMessageInsert");

  0026b	48 8d 0d 00 00
	00 00		 lea	 rcx, OFFSET FLAT:??_C@_0BF@DGOJNFDO@glDebugMessageInsert@
  00272	ff 55 50	 call	 QWORD PTR load$[rbp]
  00275	48 89 05 00 00
	00 00		 mov	 QWORD PTR glad_glDebugMessageInsert, rax

; 1674 :     glad_glDebugMessageCallback = (PFNGLDEBUGMESSAGECALLBACKPROC)load("glDebugMessageCallback");

  0027c	48 8d 0d 00 00
	00 00		 lea	 rcx, OFFSET FLAT:??_C@_0BH@IGFENJCI@glDebugMessageCallback@
  00283	ff 55 50	 call	 QWORD PTR load$[rbp]
  00286	48 89 05 00 00
	00 00		 mov	 QWORD PTR glad_glDebugMessageCallback, rax

; 1675 :     glad_glGetDebugMessageLog = (PFNGLGETDEBUGMESSAGELOGPROC)load("glGetDebugMessageLog");

  0028d	48 8d 0d 00 00
	00 00		 lea	 rcx, OFFSET FLAT:??_C@_0BF@FGBMJKND@glGetDebugMessageLog@
  00294	ff 55 50	 call	 QWORD PTR load$[rbp]
  00297	48 89 05 00 00
	00 00		 mov	 QWORD PTR glad_glGetDebugMessageLog, rax

; 1676 :     glad_glPushDebugGroup = (PFNGLPUSHDEBUGGROUPPROC)load("glPushDebugGroup");

  0029e	48 8d 0d 00 00
	00 00		 lea	 rcx, OFFSET FLAT:??_C@_0BB@DEFFBEGJ@glPushDebugGroup@
  002a5	ff 55 50	 call	 QWORD PTR load$[rbp]
  002a8	48 89 05 00 00
	00 00		 mov	 QWORD PTR glad_glPushDebugGroup, rax

; 1677 :     glad_glPopDebugGroup = (PFNGLPOPDEBUGGROUPPROC)load("glPopDebugGroup");

  002af	48 8d 0d 00 00
	00 00		 lea	 rcx, OFFSET FLAT:??_C@_0BA@PMJBDENK@glPopDebugGroup@
  002b6	ff 55 50	 call	 QWORD PTR load$[rbp]
  002b9	48 89 05 00 00
	00 00		 mov	 QWORD PTR glad_glPopDebugGroup, rax

; 1678 :     glad_glObjectLabel = (PFNGLOBJECTLABELPROC)load("glObjectLabel");

  002c0	48 8d 0d 00 00
	00 00		 lea	 rcx, OFFSET FLAT:??_C@_0O@EFJDECDM@glObjectLabel@
  002c7	ff 55 50	 call	 QWORD PTR load$[rbp]
  002ca	48 89 05 00 00
	00 00		 mov	 QWORD PTR glad_glObjectLabel, rax

; 1679 :     glad_glGetObjectLabel = (PFNGLGETOBJECTLABELPROC)load("glGetObjectLabel");

  002d1	48 8d 0d 00 00
	00 00		 lea	 rcx, OFFSET FLAT:??_C@_0BB@MOEDHKDB@glGetObjectLabel@
  002d8	ff 55 50	 call	 QWORD PTR load$[rbp]
  002db	48 89 05 00 00
	00 00		 mov	 QWORD PTR glad_glGetObjectLabel, rax

; 1680 :     glad_glObjectPtrLabel = (PFNGLOBJECTPTRLABELPROC)load("glObjectPtrLabel");

  002e2	48 8d 0d 00 00
	00 00		 lea	 rcx, OFFSET FLAT:??_C@_0BB@FBABGDIL@glObjectPtrLabel@
  002e9	ff 55 50	 call	 QWORD PTR load$[rbp]
  002ec	48 89 05 00 00
	00 00		 mov	 QWORD PTR glad_glObjectPtrLabel, rax

; 1681 :     glad_glGetObjectPtrLabel = (PFNGLGETOBJECTPTRLABELPROC)load("glGetObjectPtrLabel");

  002f3	48 8d 0d 00 00
	00 00		 lea	 rcx, OFFSET FLAT:??_C@_0BE@MIJFJOHM@glGetObjectPtrLabel@
  002fa	ff 55 50	 call	 QWORD PTR load$[rbp]
  002fd	48 89 05 00 00
	00 00		 mov	 QWORD PTR glad_glGetObjectPtrLabel, rax

; 1682 :     glad_glGetPointerv = (PFNGLGETPOINTERVPROC)load("glGetPointerv");

  00304	48 8d 0d 00 00
	00 00		 lea	 rcx, OFFSET FLAT:??_C@_0O@LADEDGJO@glGetPointerv@
  0030b	ff 55 50	 call	 QWORD PTR load$[rbp]
  0030e	48 89 05 00 00
	00 00		 mov	 QWORD PTR glad_glGetPointerv, rax
$LN1@load_GL_VE:

; 1683 : }

  00315	48 8d 65 40	 lea	 rsp, QWORD PTR [rbp+64]
  00319	5d		 pop	 rbp
  0031a	c3		 ret	 0
load_GL_VERSION_4_3 ENDP
_TEXT	ENDS
; Function compile flags: /Odtp /ZI
; File D:\Programmer\GLenv\glad.c
;	COMDAT load_GL_VERSION_4_2
_TEXT	SEGMENT
load$ = 80
load_GL_VERSION_4_2 PROC				; COMDAT

; 1622 : static void load_GL_VERSION_4_2(GLADloadproc load) {

  00000	48 89 4c 24 08	 mov	 QWORD PTR [rsp+8], rcx
  00005	55		 push	 rbp
  00006	48 83 ec 60	 sub	 rsp, 96			; 00000060H
  0000a	48 8d 6c 24 20	 lea	 rbp, QWORD PTR [rsp+32]
  0000f	48 8d 0d 00 00
	00 00		 lea	 rcx, OFFSET FLAT:__2B68C239_glad@c
  00016	e8 00 00 00 00	 call	 __CheckForDebuggerJustMyCode

; 1623 :     if (!GLAD_GL_VERSION_4_2) return;

  0001b	83 3d 00 00 00
	00 00		 cmp	 DWORD PTR GLAD_GL_VERSION_4_2, 0
  00022	75 05		 jne	 SHORT $LN2@load_GL_VE
  00024	e9 cc 00 00 00	 jmp	 $LN1@load_GL_VE
$LN2@load_GL_VE:

; 1624 :     glad_glDrawArraysInstancedBaseInstance = (PFNGLDRAWARRAYSINSTANCEDBASEINSTANCEPROC)load("glDrawArraysInstancedBaseInstance");

  00029	48 8d 0d 00 00
	00 00		 lea	 rcx, OFFSET FLAT:??_C@_0CC@FBJBJHCN@glDrawArraysInstancedBaseInstan@
  00030	ff 55 50	 call	 QWORD PTR load$[rbp]
  00033	48 89 05 00 00
	00 00		 mov	 QWORD PTR glad_glDrawArraysInstancedBaseInstance, rax

; 1625 :     glad_glDrawElementsInstancedBaseInstance = (PFNGLDRAWELEMENTSINSTANCEDBASEINSTANCEPROC)load("glDrawElementsInstancedBaseInstance");

  0003a	48 8d 0d 00 00
	00 00		 lea	 rcx, OFFSET FLAT:??_C@_0CE@NGNINKJD@glDrawElementsInstancedBaseInst@
  00041	ff 55 50	 call	 QWORD PTR load$[rbp]
  00044	48 89 05 00 00
	00 00		 mov	 QWORD PTR glad_glDrawElementsInstancedBaseInstance, rax

; 1626 :     glad_glDrawElementsInstancedBaseVertexBaseInstance = (PFNGLDRAWELEMENTSINSTANCEDBASEVERTEXBASEINSTANCEPROC)load("glDrawElementsInstancedBaseVertexBaseInstance");

  0004b	48 8d 0d 00 00
	00 00		 lea	 rcx, OFFSET FLAT:??_C@_0CO@GCMNEAOA@glDrawElementsInstancedBaseVert@
  00052	ff 55 50	 call	 QWORD PTR load$[rbp]
  00055	48 89 05 00 00
	00 00		 mov	 QWORD PTR glad_glDrawElementsInstancedBaseVertexBaseInstance, rax

; 1627 :     glad_glGetInternalformativ = (PFNGLGETINTERNALFORMATIVPROC)load("glGetInternalformativ");

  0005c	48 8d 0d 00 00
	00 00		 lea	 rcx, OFFSET FLAT:??_C@_0BG@BAOCDJPF@glGetInternalformativ@
  00063	ff 55 50	 call	 QWORD PTR load$[rbp]
  00066	48 89 05 00 00
	00 00		 mov	 QWORD PTR glad_glGetInternalformativ, rax

; 1628 :     glad_glGetActiveAtomicCounterBufferiv = (PFNGLGETACTIVEATOMICCOUNTERBUFFERIVPROC)load("glGetActiveAtomicCounterBufferiv");

  0006d	48 8d 0d 00 00
	00 00		 lea	 rcx, OFFSET FLAT:??_C@_0CB@CEHFMJFN@glGetActiveAtomicCounterBufferi@
  00074	ff 55 50	 call	 QWORD PTR load$[rbp]
  00077	48 89 05 00 00
	00 00		 mov	 QWORD PTR glad_glGetActiveAtomicCounterBufferiv, rax

; 1629 :     glad_glBindImageTexture = (PFNGLBINDIMAGETEXTUREPROC)load("glBindImageTexture");

  0007e	48 8d 0d 00 00
	00 00		 lea	 rcx, OFFSET FLAT:??_C@_0BD@GAKEPNGD@glBindImageTexture@
  00085	ff 55 50	 call	 QWORD PTR load$[rbp]
  00088	48 89 05 00 00
	00 00		 mov	 QWORD PTR glad_glBindImageTexture, rax

; 1630 :     glad_glMemoryBarrier = (PFNGLMEMORYBARRIERPROC)load("glMemoryBarrier");

  0008f	48 8d 0d 00 00
	00 00		 lea	 rcx, OFFSET FLAT:??_C@_0BA@HIHPNLBJ@glMemoryBarrier@
  00096	ff 55 50	 call	 QWORD PTR load$[rbp]
  00099	48 89 05 00 00
	00 00		 mov	 QWORD PTR glad_glMemoryBarrier, rax

; 1631 :     glad_glTexStorage1D = (PFNGLTEXSTORAGE1DPROC)load("glTexStorage1D");

  000a0	48 8d 0d 00 00
	00 00		 lea	 rcx, OFFSET FLAT:??_C@_0P@LCLGPEBO@glTexStorage1D@
  000a7	ff 55 50	 call	 QWORD PTR load$[rbp]
  000aa	48 89 05 00 00
	00 00		 mov	 QWORD PTR glad_glTexStorage1D, rax

; 1632 :     glad_glTexStorage2D = (PFNGLTEXSTORAGE2DPROC)load("glTexStorage2D");

  000b1	48 8d 0d 00 00
	00 00		 lea	 rcx, OFFSET FLAT:??_C@_0P@LAPAEKEH@glTexStorage2D@
  000b8	ff 55 50	 call	 QWORD PTR load$[rbp]
  000bb	48 89 05 00 00
	00 00		 mov	 QWORD PTR glad_glTexStorage2D, rax

; 1633 :     glad_glTexStorage3D = (PFNGLTEXSTORAGE3DPROC)load("glTexStorage3D");

  000c2	48 8d 0d 00 00
	00 00		 lea	 rcx, OFFSET FLAT:??_C@_0P@LBDCCAHA@glTexStorage3D@
  000c9	ff 55 50	 call	 QWORD PTR load$[rbp]
  000cc	48 89 05 00 00
	00 00		 mov	 QWORD PTR glad_glTexStorage3D, rax

; 1634 :     glad_glDrawTransformFeedbackInstanced = (PFNGLDRAWTRANSFORMFEEDBACKINSTANCEDPROC)load("glDrawTransformFeedbackInstanced");

  000d3	48 8d 0d 00 00
	00 00		 lea	 rcx, OFFSET FLAT:??_C@_0CB@NDMLCEF@glDrawTransformFeedbackInstance@
  000da	ff 55 50	 call	 QWORD PTR load$[rbp]
  000dd	48 89 05 00 00
	00 00		 mov	 QWORD PTR glad_glDrawTransformFeedbackInstanced, rax

; 1635 :     glad_glDrawTransformFeedbackStreamInstanced = (PFNGLDRAWTRANSFORMFEEDBACKSTREAMINSTANCEDPROC)load("glDrawTransformFeedbackStreamInstanced");

  000e4	48 8d 0d 00 00
	00 00		 lea	 rcx, OFFSET FLAT:??_C@_0CH@OMPFKBLK@glDrawTransformFeedbackStreamIn@
  000eb	ff 55 50	 call	 QWORD PTR load$[rbp]
  000ee	48 89 05 00 00
	00 00		 mov	 QWORD PTR glad_glDrawTransformFeedbackStreamInstanced, rax
$LN1@load_GL_VE:

; 1636 : }

  000f5	48 8d 65 40	 lea	 rsp, QWORD PTR [rbp+64]
  000f9	5d		 pop	 rbp
  000fa	c3		 ret	 0
load_GL_VERSION_4_2 ENDP
_TEXT	ENDS
; Function compile flags: /Odtp /ZI
; File D:\Programmer\GLenv\glad.c
;	COMDAT load_GL_VERSION_4_1
_TEXT	SEGMENT
load$ = 80
load_GL_VERSION_4_1 PROC				; COMDAT

; 1530 : static void load_GL_VERSION_4_1(GLADloadproc load) {

  00000	48 89 4c 24 08	 mov	 QWORD PTR [rsp+8], rcx
  00005	55		 push	 rbp
  00006	48 83 ec 60	 sub	 rsp, 96			; 00000060H
  0000a	48 8d 6c 24 20	 lea	 rbp, QWORD PTR [rsp+32]
  0000f	48 8d 0d 00 00
	00 00		 lea	 rcx, OFFSET FLAT:__2B68C239_glad@c
  00016	e8 00 00 00 00	 call	 __CheckForDebuggerJustMyCode

; 1531 :     if (!GLAD_GL_VERSION_4_1) return;

  0001b	83 3d 00 00 00
	00 00		 cmp	 DWORD PTR GLAD_GL_VERSION_4_1, 0
  00022	75 05		 jne	 SHORT $LN2@load_GL_VE
  00024	e9 e9 05 00 00	 jmp	 $LN1@load_GL_VE
$LN2@load_GL_VE:

; 1532 :     glad_glReleaseShaderCompiler = (PFNGLRELEASESHADERCOMPILERPROC)load("glReleaseShaderCompiler");

  00029	48 8d 0d 00 00
	00 00		 lea	 rcx, OFFSET FLAT:??_C@_0BI@HGKABJPJ@glReleaseShaderCompiler@
  00030	ff 55 50	 call	 QWORD PTR load$[rbp]
  00033	48 89 05 00 00
	00 00		 mov	 QWORD PTR glad_glReleaseShaderCompiler, rax

; 1533 :     glad_glShaderBinary = (PFNGLSHADERBINARYPROC)load("glShaderBinary");

  0003a	48 8d 0d 00 00
	00 00		 lea	 rcx, OFFSET FLAT:??_C@_0P@IMINELFB@glShaderBinary@
  00041	ff 55 50	 call	 QWORD PTR load$[rbp]
  00044	48 89 05 00 00
	00 00		 mov	 QWORD PTR glad_glShaderBinary, rax

; 1534 :     glad_glGetShaderPrecisionFormat = (PFNGLGETSHADERPRECISIONFORMATPROC)load("glGetShaderPrecisionFormat");

  0004b	48 8d 0d 00 00
	00 00		 lea	 rcx, OFFSET FLAT:??_C@_0BL@MLAOOHPD@glGetShaderPrecisionFormat@
  00052	ff 55 50	 call	 QWORD PTR load$[rbp]
  00055	48 89 05 00 00
	00 00		 mov	 QWORD PTR glad_glGetShaderPrecisionFormat, rax

; 1535 :     glad_glDepthRangef = (PFNGLDEPTHRANGEFPROC)load("glDepthRangef");

  0005c	48 8d 0d 00 00
	00 00		 lea	 rcx, OFFSET FLAT:??_C@_0O@JDFJDNND@glDepthRangef@
  00063	ff 55 50	 call	 QWORD PTR load$[rbp]
  00066	48 89 05 00 00
	00 00		 mov	 QWORD PTR glad_glDepthRangef, rax

; 1536 :     glad_glClearDepthf = (PFNGLCLEARDEPTHFPROC)load("glClearDepthf");

  0006d	48 8d 0d 00 00
	00 00		 lea	 rcx, OFFSET FLAT:??_C@_0O@FMBMCDIL@glClearDepthf@
  00074	ff 55 50	 call	 QWORD PTR load$[rbp]
  00077	48 89 05 00 00
	00 00		 mov	 QWORD PTR glad_glClearDepthf, rax

; 1537 :     glad_glGetProgramBinary = (PFNGLGETPROGRAMBINARYPROC)load("glGetProgramBinary");

  0007e	48 8d 0d 00 00
	00 00		 lea	 rcx, OFFSET FLAT:??_C@_0BD@JBCEHKON@glGetProgramBinary@
  00085	ff 55 50	 call	 QWORD PTR load$[rbp]
  00088	48 89 05 00 00
	00 00		 mov	 QWORD PTR glad_glGetProgramBinary, rax

; 1538 :     glad_glProgramBinary = (PFNGLPROGRAMBINARYPROC)load("glProgramBinary");

  0008f	48 8d 0d 00 00
	00 00		 lea	 rcx, OFFSET FLAT:??_C@_0BA@MIIDHOO@glProgramBinary@
  00096	ff 55 50	 call	 QWORD PTR load$[rbp]
  00099	48 89 05 00 00
	00 00		 mov	 QWORD PTR glad_glProgramBinary, rax

; 1539 :     glad_glProgramParameteri = (PFNGLPROGRAMPARAMETERIPROC)load("glProgramParameteri");

  000a0	48 8d 0d 00 00
	00 00		 lea	 rcx, OFFSET FLAT:??_C@_0BE@EELDBEME@glProgramParameteri@
  000a7	ff 55 50	 call	 QWORD PTR load$[rbp]
  000aa	48 89 05 00 00
	00 00		 mov	 QWORD PTR glad_glProgramParameteri, rax

; 1540 :     glad_glUseProgramStages = (PFNGLUSEPROGRAMSTAGESPROC)load("glUseProgramStages");

  000b1	48 8d 0d 00 00
	00 00		 lea	 rcx, OFFSET FLAT:??_C@_0BD@CADKHDMH@glUseProgramStages@
  000b8	ff 55 50	 call	 QWORD PTR load$[rbp]
  000bb	48 89 05 00 00
	00 00		 mov	 QWORD PTR glad_glUseProgramStages, rax

; 1541 :     glad_glActiveShaderProgram = (PFNGLACTIVESHADERPROGRAMPROC)load("glActiveShaderProgram");

  000c2	48 8d 0d 00 00
	00 00		 lea	 rcx, OFFSET FLAT:??_C@_0BG@IAIOGMEB@glActiveShaderProgram@
  000c9	ff 55 50	 call	 QWORD PTR load$[rbp]
  000cc	48 89 05 00 00
	00 00		 mov	 QWORD PTR glad_glActiveShaderProgram, rax

; 1542 :     glad_glCreateShaderProgramv = (PFNGLCREATESHADERPROGRAMVPROC)load("glCreateShaderProgramv");

  000d3	48 8d 0d 00 00
	00 00		 lea	 rcx, OFFSET FLAT:??_C@_0BH@BOJGDFJN@glCreateShaderProgramv@
  000da	ff 55 50	 call	 QWORD PTR load$[rbp]
  000dd	48 89 05 00 00
	00 00		 mov	 QWORD PTR glad_glCreateShaderProgramv, rax

; 1543 :     glad_glBindProgramPipeline = (PFNGLBINDPROGRAMPIPELINEPROC)load("glBindProgramPipeline");

  000e4	48 8d 0d 00 00
	00 00		 lea	 rcx, OFFSET FLAT:??_C@_0BG@GLPOKNCG@glBindProgramPipeline@
  000eb	ff 55 50	 call	 QWORD PTR load$[rbp]
  000ee	48 89 05 00 00
	00 00		 mov	 QWORD PTR glad_glBindProgramPipeline, rax

; 1544 :     glad_glDeleteProgramPipelines = (PFNGLDELETEPROGRAMPIPELINESPROC)load("glDeleteProgramPipelines");

  000f5	48 8d 0d 00 00
	00 00		 lea	 rcx, OFFSET FLAT:??_C@_0BJ@CHBGABHE@glDeleteProgramPipelines@
  000fc	ff 55 50	 call	 QWORD PTR load$[rbp]
  000ff	48 89 05 00 00
	00 00		 mov	 QWORD PTR glad_glDeleteProgramPipelines, rax

; 1545 :     glad_glGenProgramPipelines = (PFNGLGENPROGRAMPIPELINESPROC)load("glGenProgramPipelines");

  00106	48 8d 0d 00 00
	00 00		 lea	 rcx, OFFSET FLAT:??_C@_0BG@CCBKOCA@glGenProgramPipelines@
  0010d	ff 55 50	 call	 QWORD PTR load$[rbp]
  00110	48 89 05 00 00
	00 00		 mov	 QWORD PTR glad_glGenProgramPipelines, rax

; 1546 :     glad_glIsProgramPipeline = (PFNGLISPROGRAMPIPELINEPROC)load("glIsProgramPipeline");

  00117	48 8d 0d 00 00
	00 00		 lea	 rcx, OFFSET FLAT:??_C@_0BE@DLHPDHCH@glIsProgramPipeline@
  0011e	ff 55 50	 call	 QWORD PTR load$[rbp]
  00121	48 89 05 00 00
	00 00		 mov	 QWORD PTR glad_glIsProgramPipeline, rax

; 1547 :     glad_glGetProgramPipelineiv = (PFNGLGETPROGRAMPIPELINEIVPROC)load("glGetProgramPipelineiv");

  00128	48 8d 0d 00 00
	00 00		 lea	 rcx, OFFSET FLAT:??_C@_0BH@DNOPNJMO@glGetProgramPipelineiv@
  0012f	ff 55 50	 call	 QWORD PTR load$[rbp]
  00132	48 89 05 00 00
	00 00		 mov	 QWORD PTR glad_glGetProgramPipelineiv, rax

; 1548 :     glad_glProgramParameteri = (PFNGLPROGRAMPARAMETERIPROC)load("glProgramParameteri");

  00139	48 8d 0d 00 00
	00 00		 lea	 rcx, OFFSET FLAT:??_C@_0BE@EELDBEME@glProgramParameteri@
  00140	ff 55 50	 call	 QWORD PTR load$[rbp]
  00143	48 89 05 00 00
	00 00		 mov	 QWORD PTR glad_glProgramParameteri, rax

; 1549 :     glad_glProgramUniform1i = (PFNGLPROGRAMUNIFORM1IPROC)load("glProgramUniform1i");

  0014a	48 8d 0d 00 00
	00 00		 lea	 rcx, OFFSET FLAT:??_C@_0BD@COCLMGIM@glProgramUniform1i@
  00151	ff 55 50	 call	 QWORD PTR load$[rbp]
  00154	48 89 05 00 00
	00 00		 mov	 QWORD PTR glad_glProgramUniform1i, rax

; 1550 :     glad_glProgramUniform1iv = (PFNGLPROGRAMUNIFORM1IVPROC)load("glProgramUniform1iv");

  0015b	48 8d 0d 00 00
	00 00		 lea	 rcx, OFFSET FLAT:??_C@_0BE@JNEFDKLN@glProgramUniform1iv@
  00162	ff 55 50	 call	 QWORD PTR load$[rbp]
  00165	48 89 05 00 00
	00 00		 mov	 QWORD PTR glad_glProgramUniform1iv, rax

; 1551 :     glad_glProgramUniform1f = (PFNGLPROGRAMUNIFORM1FPROC)load("glProgramUniform1f");

  0016c	48 8d 0d 00 00
	00 00		 lea	 rcx, OFFSET FLAT:??_C@_0BD@KJLDNKED@glProgramUniform1f@
  00173	ff 55 50	 call	 QWORD PTR load$[rbp]
  00176	48 89 05 00 00
	00 00		 mov	 QWORD PTR glad_glProgramUniform1f, rax

; 1552 :     glad_glProgramUniform1fv = (PFNGLPROGRAMUNIFORM1FVPROC)load("glProgramUniform1fv");

  0017d	48 8d 0d 00 00
	00 00		 lea	 rcx, OFFSET FLAT:??_C@_0BE@JGBJHNIA@glProgramUniform1fv@
  00184	ff 55 50	 call	 QWORD PTR load$[rbp]
  00187	48 89 05 00 00
	00 00		 mov	 QWORD PTR glad_glProgramUniform1fv, rax

; 1553 :     glad_glProgramUniform1d = (PFNGLPROGRAMUNIFORM1DPROC)load("glProgramUniform1d");

  0018e	48 8d 0d 00 00
	00 00		 lea	 rcx, OFFSET FLAT:??_C@_0BD@JLIFLIMB@glProgramUniform1d@
  00195	ff 55 50	 call	 QWORD PTR load$[rbp]
  00198	48 89 05 00 00
	00 00		 mov	 QWORD PTR glad_glProgramUniform1d, rax

; 1554 :     glad_glProgramUniform1dv = (PFNGLPROGRAMUNIFORM1DVPROC)load("glProgramUniform1dv");

  0019f	48 8d 0d 00 00
	00 00		 lea	 rcx, OFFSET FLAT:??_C@_0BE@JFJNKJOO@glProgramUniform1dv@
  001a6	ff 55 50	 call	 QWORD PTR load$[rbp]
  001a9	48 89 05 00 00
	00 00		 mov	 QWORD PTR glad_glProgramUniform1dv, rax

; 1555 :     glad_glProgramUniform1ui = (PFNGLPROGRAMUNIFORM1UIPROC)load("glProgramUniform1ui");

  001b0	48 8d 0d 00 00
	00 00		 lea	 rcx, OFFSET FLAT:??_C@_0BE@EFCDGODH@glProgramUniform1ui@
  001b7	ff 55 50	 call	 QWORD PTR load$[rbp]
  001ba	48 89 05 00 00
	00 00		 mov	 QWORD PTR glad_glProgramUniform1ui, rax

; 1556 :     glad_glProgramUniform1uiv = (PFNGLPROGRAMUNIFORM1UIVPROC)load("glProgramUniform1uiv");

  001c1	48 8d 0d 00 00
	00 00		 lea	 rcx, OFFSET FLAT:??_C@_0BF@MBJNFIBB@glProgramUniform1uiv@
  001c8	ff 55 50	 call	 QWORD PTR load$[rbp]
  001cb	48 89 05 00 00
	00 00		 mov	 QWORD PTR glad_glProgramUniform1uiv, rax

; 1557 :     glad_glProgramUniform2i = (PFNGLPROGRAMUNIFORM2IPROC)load("glProgramUniform2i");

  001d2	48 8d 0d 00 00
	00 00		 lea	 rcx, OFFSET FLAT:??_C@_0BD@CMGNHINF@glProgramUniform2i@
  001d9	ff 55 50	 call	 QWORD PTR load$[rbp]
  001dc	48 89 05 00 00
	00 00		 mov	 QWORD PTR glad_glProgramUniform2i, rax

; 1558 :     glad_glProgramUniform2iv = (PFNGLPROGRAMUNIFORM2IVPROC)load("glProgramUniform2iv");

  001e3	48 8d 0d 00 00
	00 00		 lea	 rcx, OFFSET FLAT:??_C@_0BE@IPPAJFFD@glProgramUniform2iv@
  001ea	ff 55 50	 call	 QWORD PTR load$[rbp]
  001ed	48 89 05 00 00
	00 00		 mov	 QWORD PTR glad_glProgramUniform2iv, rax

; 1559 :     glad_glProgramUniform2f = (PFNGLPROGRAMUNIFORM2FPROC)load("glProgramUniform2f");

  001f4	48 8d 0d 00 00
	00 00		 lea	 rcx, OFFSET FLAT:??_C@_0BD@KLPFGEBK@glProgramUniform2f@
  001fb	ff 55 50	 call	 QWORD PTR load$[rbp]
  001fe	48 89 05 00 00
	00 00		 mov	 QWORD PTR glad_glProgramUniform2f, rax

; 1560 :     glad_glProgramUniform2fv = (PFNGLPROGRAMUNIFORM2FVPROC)load("glProgramUniform2fv");

  00205	48 8d 0d 00 00
	00 00		 lea	 rcx, OFFSET FLAT:??_C@_0BE@IEKMNCGO@glProgramUniform2fv@
  0020c	ff 55 50	 call	 QWORD PTR load$[rbp]
  0020f	48 89 05 00 00
	00 00		 mov	 QWORD PTR glad_glProgramUniform2fv, rax

; 1561 :     glad_glProgramUniform2d = (PFNGLPROGRAMUNIFORM2DPROC)load("glProgramUniform2d");

  00216	48 8d 0d 00 00
	00 00		 lea	 rcx, OFFSET FLAT:??_C@_0BD@JJMDAGJI@glProgramUniform2d@
  0021d	ff 55 50	 call	 QWORD PTR load$[rbp]
  00220	48 89 05 00 00
	00 00		 mov	 QWORD PTR glad_glProgramUniform2d, rax

; 1562 :     glad_glProgramUniform2dv = (PFNGLPROGRAMUNIFORM2DVPROC)load("glProgramUniform2dv");

  00227	48 8d 0d 00 00
	00 00		 lea	 rcx, OFFSET FLAT:??_C@_0BE@IHCIAGAA@glProgramUniform2dv@
  0022e	ff 55 50	 call	 QWORD PTR load$[rbp]
  00231	48 89 05 00 00
	00 00		 mov	 QWORD PTR glad_glProgramUniform2dv, rax

; 1563 :     glad_glProgramUniform2ui = (PFNGLPROGRAMUNIFORM2UIPROC)load("glProgramUniform2ui");

  00238	48 8d 0d 00 00
	00 00		 lea	 rcx, OFFSET FLAT:??_C@_0BE@FHJGMBNJ@glProgramUniform2ui@
  0023f	ff 55 50	 call	 QWORD PTR load$[rbp]
  00242	48 89 05 00 00
	00 00		 mov	 QWORD PTR glad_glProgramUniform2ui, rax

; 1564 :     glad_glProgramUniform2uiv = (PFNGLPROGRAMUNIFORM2UIVPROC)load("glProgramUniform2uiv");

  00249	48 8d 0d 00 00
	00 00		 lea	 rcx, OFFSET FLAT:??_C@_0BF@IGDNCCMB@glProgramUniform2uiv@
  00250	ff 55 50	 call	 QWORD PTR load$[rbp]
  00253	48 89 05 00 00
	00 00		 mov	 QWORD PTR glad_glProgramUniform2uiv, rax

; 1565 :     glad_glProgramUniform3i = (PFNGLPROGRAMUNIFORM3IPROC)load("glProgramUniform3i");

  0025a	48 8d 0d 00 00
	00 00		 lea	 rcx, OFFSET FLAT:??_C@_0BD@CNKPBCOC@glProgramUniform3i@
  00261	ff 55 50	 call	 QWORD PTR load$[rbp]
  00264	48 89 05 00 00
	00 00		 mov	 QWORD PTR glad_glProgramUniform3i, rax

; 1566 :     glad_glProgramUniform3iv = (PFNGLPROGRAMUNIFORM3IVPROC)load("glProgramUniform3iv");

  0026b	48 8d 0d 00 00
	00 00		 lea	 rcx, OFFSET FLAT:??_C@_0BE@DHEMPCDG@glProgramUniform3iv@
  00272	ff 55 50	 call	 QWORD PTR load$[rbp]
  00275	48 89 05 00 00
	00 00		 mov	 QWORD PTR glad_glProgramUniform3iv, rax

; 1567 :     glad_glProgramUniform3f = (PFNGLPROGRAMUNIFORM3FPROC)load("glProgramUniform3f");

  0027c	48 8d 0d 00 00
	00 00		 lea	 rcx, OFFSET FLAT:??_C@_0BD@KKDHAOCN@glProgramUniform3f@
  00283	ff 55 50	 call	 QWORD PTR load$[rbp]
  00286	48 89 05 00 00
	00 00		 mov	 QWORD PTR glad_glProgramUniform3f, rax

; 1568 :     glad_glProgramUniform3fv = (PFNGLPROGRAMUNIFORM3FVPROC)load("glProgramUniform3fv");

  0028d	48 8d 0d 00 00
	00 00		 lea	 rcx, OFFSET FLAT:??_C@_0BE@DMBALFAL@glProgramUniform3fv@
  00294	ff 55 50	 call	 QWORD PTR load$[rbp]
  00297	48 89 05 00 00
	00 00		 mov	 QWORD PTR glad_glProgramUniform3fv, rax

; 1569 :     glad_glProgramUniform3d = (PFNGLPROGRAMUNIFORM3DPROC)load("glProgramUniform3d");

  0029e	48 8d 0d 00 00
	00 00		 lea	 rcx, OFFSET FLAT:??_C@_0BD@JIABGMKP@glProgramUniform3d@
  002a5	ff 55 50	 call	 QWORD PTR load$[rbp]
  002a8	48 89 05 00 00
	00 00		 mov	 QWORD PTR glad_glProgramUniform3d, rax

; 1570 :     glad_glProgramUniform3dv = (PFNGLPROGRAMUNIFORM3DVPROC)load("glProgramUniform3dv");

  002af	48 8d 0d 00 00
	00 00		 lea	 rcx, OFFSET FLAT:??_C@_0BE@DPJEGBGF@glProgramUniform3dv@
  002b6	ff 55 50	 call	 QWORD PTR load$[rbp]
  002b9	48 89 05 00 00
	00 00		 mov	 QWORD PTR glad_glProgramUniform3dv, rax

; 1571 :     glad_glProgramUniform3ui = (PFNGLPROGRAMUNIFORM3UIPROC)load("glProgramUniform3ui");

  002c0	48 8d 0d 00 00
	00 00		 lea	 rcx, OFFSET FLAT:??_C@_0BE@OPCKKGLM@glProgramUniform3ui@
  002c7	ff 55 50	 call	 QWORD PTR load$[rbp]
  002ca	48 89 05 00 00
	00 00		 mov	 QWORD PTR glad_glProgramUniform3ui, rax

; 1572 :     glad_glProgramUniform3uiv = (PFNGLPROGRAMUNIFORM3UIVPROC)load("glProgramUniform3uiv");

  002d1	48 8d 0d 00 00
	00 00		 lea	 rcx, OFFSET FLAT:??_C@_0BF@LLFNALHB@glProgramUniform3uiv@
  002d8	ff 55 50	 call	 QWORD PTR load$[rbp]
  002db	48 89 05 00 00
	00 00		 mov	 QWORD PTR glad_glProgramUniform3uiv, rax

; 1573 :     glad_glProgramUniform4i = (PFNGLPROGRAMUNIFORM4IPROC)load("glProgramUniform4i");

  002e2	48 8d 0d 00 00
	00 00		 lea	 rcx, OFFSET FLAT:??_C@_0BD@CIOAAEGH@glProgramUniform4i@
  002e9	ff 55 50	 call	 QWORD PTR load$[rbp]
  002ec	48 89 05 00 00
	00 00		 mov	 QWORD PTR glad_glProgramUniform4i, rax

; 1574 :     glad_glProgramUniform4iv = (PFNGLPROGRAMUNIFORM4IVPROC)load("glProgramUniform4iv");

  002f3	48 8d 0d 00 00
	00 00		 lea	 rcx, OFFSET FLAT:??_C@_0BE@KKJLMKIP@glProgramUniform4iv@
  002fa	ff 55 50	 call	 QWORD PTR load$[rbp]
  002fd	48 89 05 00 00
	00 00		 mov	 QWORD PTR glad_glProgramUniform4iv, rax

; 1575 :     glad_glProgramUniform4f = (PFNGLPROGRAMUNIFORM4FPROC)load("glProgramUniform4f");

  00304	48 8d 0d 00 00
	00 00		 lea	 rcx, OFFSET FLAT:??_C@_0BD@KPHIBIKI@glProgramUniform4f@
  0030b	ff 55 50	 call	 QWORD PTR load$[rbp]
  0030e	48 89 05 00 00
	00 00		 mov	 QWORD PTR glad_glProgramUniform4f, rax

; 1576 :     glad_glProgramUniform4fv = (PFNGLPROGRAMUNIFORM4FVPROC)load("glProgramUniform4fv");

  00315	48 8d 0d 00 00
	00 00		 lea	 rcx, OFFSET FLAT:??_C@_0BE@KBMHINLC@glProgramUniform4fv@
  0031c	ff 55 50	 call	 QWORD PTR load$[rbp]
  0031f	48 89 05 00 00
	00 00		 mov	 QWORD PTR glad_glProgramUniform4fv, rax

; 1577 :     glad_glProgramUniform4d = (PFNGLPROGRAMUNIFORM4DPROC)load("glProgramUniform4d");

  00326	48 8d 0d 00 00
	00 00		 lea	 rcx, OFFSET FLAT:??_C@_0BD@JNEOHKCK@glProgramUniform4d@
  0032d	ff 55 50	 call	 QWORD PTR load$[rbp]
  00330	48 89 05 00 00
	00 00		 mov	 QWORD PTR glad_glProgramUniform4d, rax

; 1578 :     glad_glProgramUniform4dv = (PFNGLPROGRAMUNIFORM4DVPROC)load("glProgramUniform4dv");

  00337	48 8d 0d 00 00
	00 00		 lea	 rcx, OFFSET FLAT:??_C@_0BE@KCEDFJNM@glProgramUniform4dv@
  0033e	ff 55 50	 call	 QWORD PTR load$[rbp]
  00341	48 89 05 00 00
	00 00		 mov	 QWORD PTR glad_glProgramUniform4dv, rax

; 1579 :     glad_glProgramUniform4ui = (PFNGLPROGRAMUNIFORM4UIPROC)load("glProgramUniform4ui");

  00348	48 8d 0d 00 00
	00 00		 lea	 rcx, OFFSET FLAT:??_C@_0BE@HCPNJOAF@glProgramUniform4ui@
  0034f	ff 55 50	 call	 QWORD PTR load$[rbp]
  00352	48 89 05 00 00
	00 00		 mov	 QWORD PTR glad_glProgramUniform4ui, rax

; 1580 :     glad_glProgramUniform4uiv = (PFNGLPROGRAMUNIFORM4UIVPROC)load("glProgramUniform4uiv");

  00359	48 8d 0d 00 00
	00 00		 lea	 rcx, OFFSET FLAT:??_C@_0BF@JHNNHGB@glProgramUniform4uiv@
  00360	ff 55 50	 call	 QWORD PTR load$[rbp]
  00363	48 89 05 00 00
	00 00		 mov	 QWORD PTR glad_glProgramUniform4uiv, rax

; 1581 :     glad_glProgramUniformMatrix2fv = (PFNGLPROGRAMUNIFORMMATRIX2FVPROC)load("glProgramUniformMatrix2fv");

  0036a	48 8d 0d 00 00
	00 00		 lea	 rcx, OFFSET FLAT:??_C@_0BK@PDPPIOAF@glProgramUniformMatrix2fv@
  00371	ff 55 50	 call	 QWORD PTR load$[rbp]
  00374	48 89 05 00 00
	00 00		 mov	 QWORD PTR glad_glProgramUniformMatrix2fv, rax

; 1582 :     glad_glProgramUniformMatrix3fv = (PFNGLPROGRAMUNIFORMMATRIX3FVPROC)load("glProgramUniformMatrix3fv");

  0037b	48 8d 0d 00 00
	00 00		 lea	 rcx, OFFSET FLAT:??_C@_0BK@ELEDOJGA@glProgramUniformMatrix3fv@
  00382	ff 55 50	 call	 QWORD PTR load$[rbp]
  00385	48 89 05 00 00
	00 00		 mov	 QWORD PTR glad_glProgramUniformMatrix3fv, rax

; 1583 :     glad_glProgramUniformMatrix4fv = (PFNGLPROGRAMUNIFORMMATRIX4FVPROC)load("glProgramUniformMatrix4fv");

  0038c	48 8d 0d 00 00
	00 00		 lea	 rcx, OFFSET FLAT:??_C@_0BK@NGJENBNJ@glProgramUniformMatrix4fv@
  00393	ff 55 50	 call	 QWORD PTR load$[rbp]
  00396	48 89 05 00 00
	00 00		 mov	 QWORD PTR glad_glProgramUniformMatrix4fv, rax

; 1584 :     glad_glProgramUniformMatrix2dv = (PFNGLPROGRAMUNIFORMMATRIX2DVPROC)load("glProgramUniformMatrix2dv");

  0039d	48 8d 0d 00 00
	00 00		 lea	 rcx, OFFSET FLAT:??_C@_0BK@PAHLFKGL@glProgramUniformMatrix2dv@
  003a4	ff 55 50	 call	 QWORD PTR load$[rbp]
  003a7	48 89 05 00 00
	00 00		 mov	 QWORD PTR glad_glProgramUniformMatrix2dv, rax

; 1585 :     glad_glProgramUniformMatrix3dv = (PFNGLPROGRAMUNIFORMMATRIX3DVPROC)load("glProgramUniformMatrix3dv");

  003ae	48 8d 0d 00 00
	00 00		 lea	 rcx, OFFSET FLAT:??_C@_0BK@EIMHDNAO@glProgramUniformMatrix3dv@
  003b5	ff 55 50	 call	 QWORD PTR load$[rbp]
  003b8	48 89 05 00 00
	00 00		 mov	 QWORD PTR glad_glProgramUniformMatrix3dv, rax

; 1586 :     glad_glProgramUniformMatrix4dv = (PFNGLPROGRAMUNIFORMMATRIX4DVPROC)load("glProgramUniformMatrix4dv");

  003bf	48 8d 0d 00 00
	00 00		 lea	 rcx, OFFSET FLAT:??_C@_0BK@NFBAAFLH@glProgramUniformMatrix4dv@
  003c6	ff 55 50	 call	 QWORD PTR load$[rbp]
  003c9	48 89 05 00 00
	00 00		 mov	 QWORD PTR glad_glProgramUniformMatrix4dv, rax

; 1587 :     glad_glProgramUniformMatrix2x3fv = (PFNGLPROGRAMUNIFORMMATRIX2X3FVPROC)load("glProgramUniformMatrix2x3fv");

  003d0	48 8d 0d 00 00
	00 00		 lea	 rcx, OFFSET FLAT:??_C@_0BM@DBFCEBJD@glProgramUniformMatrix2x3fv@
  003d7	ff 55 50	 call	 QWORD PTR load$[rbp]
  003da	48 89 05 00 00
	00 00		 mov	 QWORD PTR glad_glProgramUniformMatrix2x3fv, rax

; 1588 :     glad_glProgramUniformMatrix3x2fv = (PFNGLPROGRAMUNIFORMMATRIX3X2FVPROC)load("glProgramUniformMatrix3x2fv");

  003e1	48 8d 0d 00 00
	00 00		 lea	 rcx, OFFSET FLAT:??_C@_0BM@ECLCPFFD@glProgramUniformMatrix3x2fv@
  003e8	ff 55 50	 call	 QWORD PTR load$[rbp]
  003eb	48 89 05 00 00
	00 00		 mov	 QWORD PTR glad_glProgramUniformMatrix3x2fv, rax

; 1589 :     glad_glProgramUniformMatrix2x4fv = (PFNGLPROGRAMUNIFORMMATRIX2X4FVPROC)load("glProgramUniformMatrix2x4fv");

  003f2	48 8d 0d 00 00
	00 00		 lea	 rcx, OFFSET FLAT:??_C@_0BM@KMIFHJCK@glProgramUniformMatrix2x4fv@
  003f9	ff 55 50	 call	 QWORD PTR load$[rbp]
  003fc	48 89 05 00 00
	00 00		 mov	 QWORD PTR glad_glProgramUniformMatrix2x4fv, rax

; 1590 :     glad_glProgramUniformMatrix4x2fv = (PFNGLPROGRAMUNIFORMMATRIX4X2FVPROC)load("glProgramUniformMatrix4x2fv");

  00403	48 8d 0d 00 00
	00 00		 lea	 rcx, OFFSET FLAT:??_C@_0BM@FPLHMFOL@glProgramUniformMatrix4x2fv@
  0040a	ff 55 50	 call	 QWORD PTR load$[rbp]
  0040d	48 89 05 00 00
	00 00		 mov	 QWORD PTR glad_glProgramUniformMatrix4x2fv, rax

; 1591 :     glad_glProgramUniformMatrix3x4fv = (PFNGLPROGRAMUNIFORMMATRIX3X4FVPROC)load("glProgramUniformMatrix3x4fv");

  00414	48 8d 0d 00 00
	00 00		 lea	 rcx, OFFSET FLAT:??_C@_0BM@GHNJKKIP@glProgramUniformMatrix3x4fv@
  0041b	ff 55 50	 call	 QWORD PTR load$[rbp]
  0041e	48 89 05 00 00
	00 00		 mov	 QWORD PTR glad_glProgramUniformMatrix3x4fv, rax

; 1592 :     glad_glProgramUniformMatrix4x3fv = (PFNGLPROGRAMUNIFORMMATRIX4X3FVPROC)load("glProgramUniformMatrix4x3fv");

  00425	48 8d 0d 00 00
	00 00		 lea	 rcx, OFFSET FLAT:??_C@_0BM@OHALKCIO@glProgramUniformMatrix4x3fv@
  0042c	ff 55 50	 call	 QWORD PTR load$[rbp]
  0042f	48 89 05 00 00
	00 00		 mov	 QWORD PTR glad_glProgramUniformMatrix4x3fv, rax

; 1593 :     glad_glProgramUniformMatrix2x3dv = (PFNGLPROGRAMUNIFORMMATRIX2X3DVPROC)load("glProgramUniformMatrix2x3dv");

  00436	48 8d 0d 00 00
	00 00		 lea	 rcx, OFFSET FLAT:??_C@_0BM@DCNGJFPN@glProgramUniformMatrix2x3dv@
  0043d	ff 55 50	 call	 QWORD PTR load$[rbp]
  00440	48 89 05 00 00
	00 00		 mov	 QWORD PTR glad_glProgramUniformMatrix2x3dv, rax

; 1594 :     glad_glProgramUniformMatrix3x2dv = (PFNGLPROGRAMUNIFORMMATRIX3X2DVPROC)load("glProgramUniformMatrix3x2dv");

  00447	48 8d 0d 00 00
	00 00		 lea	 rcx, OFFSET FLAT:??_C@_0BM@EBDGCBDN@glProgramUniformMatrix3x2dv@
  0044e	ff 55 50	 call	 QWORD PTR load$[rbp]
  00451	48 89 05 00 00
	00 00		 mov	 QWORD PTR glad_glProgramUniformMatrix3x2dv, rax

; 1595 :     glad_glProgramUniformMatrix2x4dv = (PFNGLPROGRAMUNIFORMMATRIX2X4DVPROC)load("glProgramUniformMatrix2x4dv");

  00458	48 8d 0d 00 00
	00 00		 lea	 rcx, OFFSET FLAT:??_C@_0BM@KPABKNEE@glProgramUniformMatrix2x4dv@
  0045f	ff 55 50	 call	 QWORD PTR load$[rbp]
  00462	48 89 05 00 00
	00 00		 mov	 QWORD PTR glad_glProgramUniformMatrix2x4dv, rax

; 1596 :     glad_glProgramUniformMatrix4x2dv = (PFNGLPROGRAMUNIFORMMATRIX4X2DVPROC)load("glProgramUniformMatrix4x2dv");

  00469	48 8d 0d 00 00
	00 00		 lea	 rcx, OFFSET FLAT:??_C@_0BM@FMDDBBIF@glProgramUniformMatrix4x2dv@
  00470	ff 55 50	 call	 QWORD PTR load$[rbp]
  00473	48 89 05 00 00
	00 00		 mov	 QWORD PTR glad_glProgramUniformMatrix4x2dv, rax

; 1597 :     glad_glProgramUniformMatrix3x4dv = (PFNGLPROGRAMUNIFORMMATRIX3X4DVPROC)load("glProgramUniformMatrix3x4dv");

  0047a	48 8d 0d 00 00
	00 00		 lea	 rcx, OFFSET FLAT:??_C@_0BM@GEFNHOOB@glProgramUniformMatrix3x4dv@
  00481	ff 55 50	 call	 QWORD PTR load$[rbp]
  00484	48 89 05 00 00
	00 00		 mov	 QWORD PTR glad_glProgramUniformMatrix3x4dv, rax

; 1598 :     glad_glProgramUniformMatrix4x3dv = (PFNGLPROGRAMUNIFORMMATRIX4X3DVPROC)load("glProgramUniformMatrix4x3dv");

  0048b	48 8d 0d 00 00
	00 00		 lea	 rcx, OFFSET FLAT:??_C@_0BM@OEIPHGOA@glProgramUniformMatrix4x3dv@
  00492	ff 55 50	 call	 QWORD PTR load$[rbp]
  00495	48 89 05 00 00
	00 00		 mov	 QWORD PTR glad_glProgramUniformMatrix4x3dv, rax

; 1599 :     glad_glValidateProgramPipeline = (PFNGLVALIDATEPROGRAMPIPELINEPROC)load("glValidateProgramPipeline");

  0049c	48 8d 0d 00 00
	00 00		 lea	 rcx, OFFSET FLAT:??_C@_0BK@HHHCKEGH@glValidateProgramPipeline@
  004a3	ff 55 50	 call	 QWORD PTR load$[rbp]
  004a6	48 89 05 00 00
	00 00		 mov	 QWORD PTR glad_glValidateProgramPipeline, rax

; 1600 :     glad_glGetProgramPipelineInfoLog = (PFNGLGETPROGRAMPIPELINEINFOLOGPROC)load("glGetProgramPipelineInfoLog");

  004ad	48 8d 0d 00 00
	00 00		 lea	 rcx, OFFSET FLAT:??_C@_0BM@BFFCFFFG@glGetProgramPipelineInfoLog@
  004b4	ff 55 50	 call	 QWORD PTR load$[rbp]
  004b7	48 89 05 00 00
	00 00		 mov	 QWORD PTR glad_glGetProgramPipelineInfoLog, rax

; 1601 :     glad_glVertexAttribL1d = (PFNGLVERTEXATTRIBL1DPROC)load("glVertexAttribL1d");

  004be	48 8d 0d 00 00
	00 00		 lea	 rcx, OFFSET FLAT:??_C@_0BC@KBPIECHE@glVertexAttribL1d@
  004c5	ff 55 50	 call	 QWORD PTR load$[rbp]
  004c8	48 89 05 00 00
	00 00		 mov	 QWORD PTR glad_glVertexAttribL1d, rax

; 1602 :     glad_glVertexAttribL2d = (PFNGLVERTEXATTRIBL2DPROC)load("glVertexAttribL2d");

  004cf	48 8d 0d 00 00
	00 00		 lea	 rcx, OFFSET FLAT:??_C@_0BC@KDLOPMCN@glVertexAttribL2d@
  004d6	ff 55 50	 call	 QWORD PTR load$[rbp]
  004d9	48 89 05 00 00
	00 00		 mov	 QWORD PTR glad_glVertexAttribL2d, rax

; 1603 :     glad_glVertexAttribL3d = (PFNGLVERTEXATTRIBL3DPROC)load("glVertexAttribL3d");

  004e0	48 8d 0d 00 00
	00 00		 lea	 rcx, OFFSET FLAT:??_C@_0BC@KCHMJGBK@glVertexAttribL3d@
  004e7	ff 55 50	 call	 QWORD PTR load$[rbp]
  004ea	48 89 05 00 00
	00 00		 mov	 QWORD PTR glad_glVertexAttribL3d, rax

; 1604 :     glad_glVertexAttribL4d = (PFNGLVERTEXATTRIBL4DPROC)load("glVertexAttribL4d");

  004f1	48 8d 0d 00 00
	00 00		 lea	 rcx, OFFSET FLAT:??_C@_0BC@KHDDIAJP@glVertexAttribL4d@
  004f8	ff 55 50	 call	 QWORD PTR load$[rbp]
  004fb	48 89 05 00 00
	00 00		 mov	 QWORD PTR glad_glVertexAttribL4d, rax

; 1605 :     glad_glVertexAttribL1dv = (PFNGLVERTEXATTRIBL1DVPROC)load("glVertexAttribL1dv");

  00502	48 8d 0d 00 00
	00 00		 lea	 rcx, OFFSET FLAT:??_C@_0BD@COKMJDBH@glVertexAttribL1dv@
  00509	ff 55 50	 call	 QWORD PTR load$[rbp]
  0050c	48 89 05 00 00
	00 00		 mov	 QWORD PTR glad_glVertexAttribL1dv, rax

; 1606 :     glad_glVertexAttribL2dv = (PFNGLVERTEXATTRIBL2DVPROC)load("glVertexAttribL2dv");

  00513	48 8d 0d 00 00
	00 00		 lea	 rcx, OFFSET FLAT:??_C@_0BD@DMBJDMPJ@glVertexAttribL2dv@
  0051a	ff 55 50	 call	 QWORD PTR load$[rbp]
  0051d	48 89 05 00 00
	00 00		 mov	 QWORD PTR glad_glVertexAttribL2dv, rax

; 1607 :     glad_glVertexAttribL3dv = (PFNGLVERTEXATTRIBL3DVPROC)load("glVertexAttribL3dv");

  00524	48 8d 0d 00 00
	00 00		 lea	 rcx, OFFSET FLAT:??_C@_0BD@IEKFFLJM@glVertexAttribL3dv@
  0052b	ff 55 50	 call	 QWORD PTR load$[rbp]
  0052e	48 89 05 00 00
	00 00		 mov	 QWORD PTR glad_glVertexAttribL3dv, rax

; 1608 :     glad_glVertexAttribL4dv = (PFNGLVERTEXATTRIBL4DVPROC)load("glVertexAttribL4dv");

  00535	48 8d 0d 00 00
	00 00		 lea	 rcx, OFFSET FLAT:??_C@_0BD@BJHCGDCF@glVertexAttribL4dv@
  0053c	ff 55 50	 call	 QWORD PTR load$[rbp]
  0053f	48 89 05 00 00
	00 00		 mov	 QWORD PTR glad_glVertexAttribL4dv, rax

; 1609 :     glad_glVertexAttribLPointer = (PFNGLVERTEXATTRIBLPOINTERPROC)load("glVertexAttribLPointer");

  00546	48 8d 0d 00 00
	00 00		 lea	 rcx, OFFSET FLAT:??_C@_0BH@JBHDDPGM@glVertexAttribLPointer@
  0054d	ff 55 50	 call	 QWORD PTR load$[rbp]
  00550	48 89 05 00 00
	00 00		 mov	 QWORD PTR glad_glVertexAttribLPointer, rax

; 1610 :     glad_glGetVertexAttribLdv = (PFNGLGETVERTEXATTRIBLDVPROC)load("glGetVertexAttribLdv");

  00557	48 8d 0d 00 00
	00 00		 lea	 rcx, OFFSET FLAT:??_C@_0BF@JADLCNLO@glGetVertexAttribLdv@
  0055e	ff 55 50	 call	 QWORD PTR load$[rbp]
  00561	48 89 05 00 00
	00 00		 mov	 QWORD PTR glad_glGetVertexAttribLdv, rax

; 1611 :     glad_glViewportArrayv = (PFNGLVIEWPORTARRAYVPROC)load("glViewportArrayv");

  00568	48 8d 0d 00 00
	00 00		 lea	 rcx, OFFSET FLAT:??_C@_0BB@JIDIDPIB@glViewportArrayv@
  0056f	ff 55 50	 call	 QWORD PTR load$[rbp]
  00572	48 89 05 00 00
	00 00		 mov	 QWORD PTR glad_glViewportArrayv, rax

; 1612 :     glad_glViewportIndexedf = (PFNGLVIEWPORTINDEXEDFPROC)load("glViewportIndexedf");

  00579	48 8d 0d 00 00
	00 00		 lea	 rcx, OFFSET FLAT:??_C@_0BD@JIBIAPIN@glViewportIndexedf@
  00580	ff 55 50	 call	 QWORD PTR load$[rbp]
  00583	48 89 05 00 00
	00 00		 mov	 QWORD PTR glad_glViewportIndexedf, rax

; 1613 :     glad_glViewportIndexedfv = (PFNGLVIEWPORTINDEXEDFVPROC)load("glViewportIndexedfv");

  0058a	48 8d 0d 00 00
	00 00		 lea	 rcx, OFFSET FLAT:??_C@_0BE@OKPEDJOC@glViewportIndexedfv@
  00591	ff 55 50	 call	 QWORD PTR load$[rbp]
  00594	48 89 05 00 00
	00 00		 mov	 QWORD PTR glad_glViewportIndexedfv, rax

; 1614 :     glad_glScissorArrayv = (PFNGLSCISSORARRAYVPROC)load("glScissorArrayv");

  0059b	48 8d 0d 00 00
	00 00		 lea	 rcx, OFFSET FLAT:??_C@_0BA@BMNFINIA@glScissorArrayv@
  005a2	ff 55 50	 call	 QWORD PTR load$[rbp]
  005a5	48 89 05 00 00
	00 00		 mov	 QWORD PTR glad_glScissorArrayv, rax

; 1615 :     glad_glScissorIndexed = (PFNGLSCISSORINDEXEDPROC)load("glScissorIndexed");

  005ac	48 8d 0d 00 00
	00 00		 lea	 rcx, OFFSET FLAT:??_C@_0BB@BJHNCIAL@glScissorIndexed@
  005b3	ff 55 50	 call	 QWORD PTR load$[rbp]
  005b6	48 89 05 00 00
	00 00		 mov	 QWORD PTR glad_glScissorIndexed, rax

; 1616 :     glad_glScissorIndexedv = (PFNGLSCISSORINDEXEDVPROC)load("glScissorIndexedv");

  005bd	48 8d 0d 00 00
	00 00		 lea	 rcx, OFFSET FLAT:??_C@_0BC@OOKOHKNA@glScissorIndexedv@
  005c4	ff 55 50	 call	 QWORD PTR load$[rbp]
  005c7	48 89 05 00 00
	00 00		 mov	 QWORD PTR glad_glScissorIndexedv, rax

; 1617 :     glad_glDepthRangeArrayv = (PFNGLDEPTHRANGEARRAYVPROC)load("glDepthRangeArrayv");

  005ce	48 8d 0d 00 00
	00 00		 lea	 rcx, OFFSET FLAT:??_C@_0BD@JLCIOMKN@glDepthRangeArrayv@
  005d5	ff 55 50	 call	 QWORD PTR load$[rbp]
  005d8	48 89 05 00 00
	00 00		 mov	 QWORD PTR glad_glDepthRangeArrayv, rax

; 1618 :     glad_glDepthRangeIndexed = (PFNGLDEPTHRANGEINDEXEDPROC)load("glDepthRangeIndexed");

  005df	48 8d 0d 00 00
	00 00		 lea	 rcx, OFFSET FLAT:??_C@_0BE@FMCFIJBP@glDepthRangeIndexed@
  005e6	ff 55 50	 call	 QWORD PTR load$[rbp]
  005e9	48 89 05 00 00
	00 00		 mov	 QWORD PTR glad_glDepthRangeIndexed, rax

; 1619 :     glad_glGetFloati_v = (PFNGLGETFLOATI_VPROC)load("glGetFloati_v");

  005f0	48 8d 0d 00 00
	00 00		 lea	 rcx, OFFSET FLAT:??_C@_0O@JKEOHGC@glGetFloati_v@
  005f7	ff 55 50	 call	 QWORD PTR load$[rbp]
  005fa	48 89 05 00 00
	00 00		 mov	 QWORD PTR glad_glGetFloati_v, rax

; 1620 :     glad_glGetDoublei_v = (PFNGLGETDOUBLEI_VPROC)load("glGetDoublei_v");

  00601	48 8d 0d 00 00
	00 00		 lea	 rcx, OFFSET FLAT:??_C@_0P@PDJCBGIA@glGetDoublei_v@
  00608	ff 55 50	 call	 QWORD PTR load$[rbp]
  0060b	48 89 05 00 00
	00 00		 mov	 QWORD PTR glad_glGetDoublei_v, rax
$LN1@load_GL_VE:

; 1621 : }

  00612	48 8d 65 40	 lea	 rsp, QWORD PTR [rbp+64]
  00616	5d		 pop	 rbp
  00617	c3		 ret	 0
load_GL_VERSION_4_1 ENDP
_TEXT	ENDS
; Function compile flags: /Odtp /ZI
; File D:\Programmer\GLenv\glad.c
;	COMDAT load_GL_VERSION_4_0
_TEXT	SEGMENT
load$ = 80
load_GL_VERSION_4_0 PROC				; COMDAT

; 1481 : static void load_GL_VERSION_4_0(GLADloadproc load) {

  00000	48 89 4c 24 08	 mov	 QWORD PTR [rsp+8], rcx
  00005	55		 push	 rbp
  00006	48 83 ec 60	 sub	 rsp, 96			; 00000060H
  0000a	48 8d 6c 24 20	 lea	 rbp, QWORD PTR [rsp+32]
  0000f	48 8d 0d 00 00
	00 00		 lea	 rcx, OFFSET FLAT:__2B68C239_glad@c
  00016	e8 00 00 00 00	 call	 __CheckForDebuggerJustMyCode

; 1482 :     if (!GLAD_GL_VERSION_4_0) return;

  0001b	83 3d 00 00 00
	00 00		 cmp	 DWORD PTR GLAD_GL_VERSION_4_0, 0
  00022	75 05		 jne	 SHORT $LN2@load_GL_VE
  00024	e9 0e 03 00 00	 jmp	 $LN1@load_GL_VE
$LN2@load_GL_VE:

; 1483 :     glad_glMinSampleShading = (PFNGLMINSAMPLESHADINGPROC)load("glMinSampleShading");

  00029	48 8d 0d 00 00
	00 00		 lea	 rcx, OFFSET FLAT:??_C@_0BD@EDGCEBP@glMinSampleShading@
  00030	ff 55 50	 call	 QWORD PTR load$[rbp]
  00033	48 89 05 00 00
	00 00		 mov	 QWORD PTR glad_glMinSampleShading, rax

; 1484 :     glad_glBlendEquationi = (PFNGLBLENDEQUATIONIPROC)load("glBlendEquationi");

  0003a	48 8d 0d 00 00
	00 00		 lea	 rcx, OFFSET FLAT:??_C@_0BB@MKHLNEOM@glBlendEquationi@
  00041	ff 55 50	 call	 QWORD PTR load$[rbp]
  00044	48 89 05 00 00
	00 00		 mov	 QWORD PTR glad_glBlendEquationi, rax

; 1485 :     glad_glBlendEquationSeparatei = (PFNGLBLENDEQUATIONSEPARATEIPROC)load("glBlendEquationSeparatei");

  0004b	48 8d 0d 00 00
	00 00		 lea	 rcx, OFFSET FLAT:??_C@_0BJ@FNMBAGAC@glBlendEquationSeparatei@
  00052	ff 55 50	 call	 QWORD PTR load$[rbp]
  00055	48 89 05 00 00
	00 00		 mov	 QWORD PTR glad_glBlendEquationSeparatei, rax

; 1486 :     glad_glBlendFunci = (PFNGLBLENDFUNCIPROC)load("glBlendFunci");

  0005c	48 8d 0d 00 00
	00 00		 lea	 rcx, OFFSET FLAT:??_C@_0N@IKKELNNP@glBlendFunci@
  00063	ff 55 50	 call	 QWORD PTR load$[rbp]
  00066	48 89 05 00 00
	00 00		 mov	 QWORD PTR glad_glBlendFunci, rax

; 1487 :     glad_glBlendFuncSeparatei = (PFNGLBLENDFUNCSEPARATEIPROC)load("glBlendFuncSeparatei");

  0006d	48 8d 0d 00 00
	00 00		 lea	 rcx, OFFSET FLAT:??_C@_0BF@PDDGKNBJ@glBlendFuncSeparatei@
  00074	ff 55 50	 call	 QWORD PTR load$[rbp]
  00077	48 89 05 00 00
	00 00		 mov	 QWORD PTR glad_glBlendFuncSeparatei, rax

; 1488 :     glad_glDrawArraysIndirect = (PFNGLDRAWARRAYSINDIRECTPROC)load("glDrawArraysIndirect");

  0007e	48 8d 0d 00 00
	00 00		 lea	 rcx, OFFSET FLAT:??_C@_0BF@BGDCPAEP@glDrawArraysIndirect@
  00085	ff 55 50	 call	 QWORD PTR load$[rbp]
  00088	48 89 05 00 00
	00 00		 mov	 QWORD PTR glad_glDrawArraysIndirect, rax

; 1489 :     glad_glDrawElementsIndirect = (PFNGLDRAWELEMENTSINDIRECTPROC)load("glDrawElementsIndirect");

  0008f	48 8d 0d 00 00
	00 00		 lea	 rcx, OFFSET FLAT:??_C@_0BH@LJJDOEDH@glDrawElementsIndirect@
  00096	ff 55 50	 call	 QWORD PTR load$[rbp]
  00099	48 89 05 00 00
	00 00		 mov	 QWORD PTR glad_glDrawElementsIndirect, rax

; 1490 :     glad_glUniform1d = (PFNGLUNIFORM1DPROC)load("glUniform1d");

  000a0	48 8d 0d 00 00
	00 00		 lea	 rcx, OFFSET FLAT:??_C@_0M@PJLEGNGH@glUniform1d@
  000a7	ff 55 50	 call	 QWORD PTR load$[rbp]
  000aa	48 89 05 00 00
	00 00		 mov	 QWORD PTR glad_glUniform1d, rax

; 1491 :     glad_glUniform2d = (PFNGLUNIFORM2DPROC)load("glUniform2d");

  000b1	48 8d 0d 00 00
	00 00		 lea	 rcx, OFFSET FLAT:??_C@_0M@PLPCNDDO@glUniform2d@
  000b8	ff 55 50	 call	 QWORD PTR load$[rbp]
  000bb	48 89 05 00 00
	00 00		 mov	 QWORD PTR glad_glUniform2d, rax

; 1492 :     glad_glUniform3d = (PFNGLUNIFORM3DPROC)load("glUniform3d");

  000c2	48 8d 0d 00 00
	00 00		 lea	 rcx, OFFSET FLAT:??_C@_0M@PKDALJAJ@glUniform3d@
  000c9	ff 55 50	 call	 QWORD PTR load$[rbp]
  000cc	48 89 05 00 00
	00 00		 mov	 QWORD PTR glad_glUniform3d, rax

; 1493 :     glad_glUniform4d = (PFNGLUNIFORM4DPROC)load("glUniform4d");

  000d3	48 8d 0d 00 00
	00 00		 lea	 rcx, OFFSET FLAT:??_C@_0M@PPHPKPIM@glUniform4d@
  000da	ff 55 50	 call	 QWORD PTR load$[rbp]
  000dd	48 89 05 00 00
	00 00		 mov	 QWORD PTR glad_glUniform4d, rax

; 1494 :     glad_glUniform1dv = (PFNGLUNIFORM1DVPROC)load("glUniform1dv");

  000e4	48 8d 0d 00 00
	00 00		 lea	 rcx, OFFSET FLAT:??_C@_0N@KKEKJOOG@glUniform1dv@
  000eb	ff 55 50	 call	 QWORD PTR load$[rbp]
  000ee	48 89 05 00 00
	00 00		 mov	 QWORD PTR glad_glUniform1dv, rax

; 1495 :     glad_glUniform2dv = (PFNGLUNIFORM2DVPROC)load("glUniform2dv");

  000f5	48 8d 0d 00 00
	00 00		 lea	 rcx, OFFSET FLAT:??_C@_0N@LIPPDBAI@glUniform2dv@
  000fc	ff 55 50	 call	 QWORD PTR load$[rbp]
  000ff	48 89 05 00 00
	00 00		 mov	 QWORD PTR glad_glUniform2dv, rax

; 1496 :     glad_glUniform3dv = (PFNGLUNIFORM3DVPROC)load("glUniform3dv");

  00106	48 8d 0d 00 00
	00 00		 lea	 rcx, OFFSET FLAT:??_C@_0N@EDFGGN@glUniform3dv@
  0010d	ff 55 50	 call	 QWORD PTR load$[rbp]
  00110	48 89 05 00 00
	00 00		 mov	 QWORD PTR glad_glUniform3dv, rax

; 1497 :     glad_glUniform4dv = (PFNGLUNIFORM4DVPROC)load("glUniform4dv");

  00117	48 8d 0d 00 00
	00 00		 lea	 rcx, OFFSET FLAT:??_C@_0N@JNJEGONE@glUniform4dv@
  0011e	ff 55 50	 call	 QWORD PTR load$[rbp]
  00121	48 89 05 00 00
	00 00		 mov	 QWORD PTR glad_glUniform4dv, rax

; 1498 :     glad_glUniformMatrix2dv = (PFNGLUNIFORMMATRIX2DVPROC)load("glUniformMatrix2dv");

  00128	48 8d 0d 00 00
	00 00		 lea	 rcx, OFFSET FLAT:??_C@_0BD@JLJNJPBN@glUniformMatrix2dv@
  0012f	ff 55 50	 call	 QWORD PTR load$[rbp]
  00132	48 89 05 00 00
	00 00		 mov	 QWORD PTR glad_glUniformMatrix2dv, rax

; 1499 :     glad_glUniformMatrix3dv = (PFNGLUNIFORMMATRIX3DVPROC)load("glUniformMatrix3dv");

  00139	48 8d 0d 00 00
	00 00		 lea	 rcx, OFFSET FLAT:??_C@_0BD@CDCBPIHI@glUniformMatrix3dv@
  00140	ff 55 50	 call	 QWORD PTR load$[rbp]
  00143	48 89 05 00 00
	00 00		 mov	 QWORD PTR glad_glUniformMatrix3dv, rax

; 1500 :     glad_glUniformMatrix4dv = (PFNGLUNIFORMMATRIX4DVPROC)load("glUniformMatrix4dv");

  0014a	48 8d 0d 00 00
	00 00		 lea	 rcx, OFFSET FLAT:??_C@_0BD@LOPGMAMB@glUniformMatrix4dv@
  00151	ff 55 50	 call	 QWORD PTR load$[rbp]
  00154	48 89 05 00 00
	00 00		 mov	 QWORD PTR glad_glUniformMatrix4dv, rax

; 1501 :     glad_glUniformMatrix2x3dv = (PFNGLUNIFORMMATRIX2X3DVPROC)load("glUniformMatrix2x3dv");

  0015b	48 8d 0d 00 00
	00 00		 lea	 rcx, OFFSET FLAT:??_C@_0BF@KALNBGFE@glUniformMatrix2x3dv@
  00162	ff 55 50	 call	 QWORD PTR load$[rbp]
  00165	48 89 05 00 00
	00 00		 mov	 QWORD PTR glad_glUniformMatrix2x3dv, rax

; 1502 :     glad_glUniformMatrix2x4dv = (PFNGLUNIFORMMATRIX2X4DVPROC)load("glUniformMatrix2x4dv");

  0016c	48 8d 0d 00 00
	00 00		 lea	 rcx, OFFSET FLAT:??_C@_0BF@DNGKCOON@glUniformMatrix2x4dv@
  00173	ff 55 50	 call	 QWORD PTR load$[rbp]
  00176	48 89 05 00 00
	00 00		 mov	 QWORD PTR glad_glUniformMatrix2x4dv, rax

; 1503 :     glad_glUniformMatrix3x2dv = (PFNGLUNIFORMMATRIX3X2DVPROC)load("glUniformMatrix3x2dv");

  0017d	48 8d 0d 00 00
	00 00		 lea	 rcx, OFFSET FLAT:??_C@_0BF@NDFNKCJE@glUniformMatrix3x2dv@
  00184	ff 55 50	 call	 QWORD PTR load$[rbp]
  00187	48 89 05 00 00
	00 00		 mov	 QWORD PTR glad_glUniformMatrix3x2dv, rax

; 1504 :     glad_glUniformMatrix3x4dv = (PFNGLUNIFORMMATRIX3X4DVPROC)load("glUniformMatrix3x4dv");

  0018e	48 8d 0d 00 00
	00 00		 lea	 rcx, OFFSET FLAT:??_C@_0BF@PGDGPNEI@glUniformMatrix3x4dv@
  00195	ff 55 50	 call	 QWORD PTR load$[rbp]
  00198	48 89 05 00 00
	00 00		 mov	 QWORD PTR glad_glUniformMatrix3x4dv, rax

; 1505 :     glad_glUniformMatrix4x2dv = (PFNGLUNIFORMMATRIX4X2DVPROC)load("glUniformMatrix4x2dv");

  0019f	48 8d 0d 00 00
	00 00		 lea	 rcx, OFFSET FLAT:??_C@_0BF@MOFIJCCM@glUniformMatrix4x2dv@
  001a6	ff 55 50	 call	 QWORD PTR load$[rbp]
  001a9	48 89 05 00 00
	00 00		 mov	 QWORD PTR glad_glUniformMatrix4x2dv, rax

; 1506 :     glad_glUniformMatrix4x3dv = (PFNGLUNIFORMMATRIX4X3DVPROC)load("glUniformMatrix4x3dv");

  001b0	48 8d 0d 00 00
	00 00		 lea	 rcx, OFFSET FLAT:??_C@_0BF@HGOEPFEJ@glUniformMatrix4x3dv@
  001b7	ff 55 50	 call	 QWORD PTR load$[rbp]
  001ba	48 89 05 00 00
	00 00		 mov	 QWORD PTR glad_glUniformMatrix4x3dv, rax

; 1507 :     glad_glGetUniformdv = (PFNGLGETUNIFORMDVPROC)load("glGetUniformdv");

  001c1	48 8d 0d 00 00
	00 00		 lea	 rcx, OFFSET FLAT:??_C@_0P@NGEMHI@glGetUniformdv@
  001c8	ff 55 50	 call	 QWORD PTR load$[rbp]
  001cb	48 89 05 00 00
	00 00		 mov	 QWORD PTR glad_glGetUniformdv, rax

; 1508 :     glad_glGetSubroutineUniformLocation = (PFNGLGETSUBROUTINEUNIFORMLOCATIONPROC)load("glGetSubroutineUniformLocation");

  001d2	48 8d 0d 00 00
	00 00		 lea	 rcx, OFFSET FLAT:??_C@_0BP@IBIPLDOA@glGetSubroutineUniformLocation@
  001d9	ff 55 50	 call	 QWORD PTR load$[rbp]
  001dc	48 89 05 00 00
	00 00		 mov	 QWORD PTR glad_glGetSubroutineUniformLocation, rax

; 1509 :     glad_glGetSubroutineIndex = (PFNGLGETSUBROUTINEINDEXPROC)load("glGetSubroutineIndex");

  001e3	48 8d 0d 00 00
	00 00		 lea	 rcx, OFFSET FLAT:??_C@_0BF@ONDIGCJG@glGetSubroutineIndex@
  001ea	ff 55 50	 call	 QWORD PTR load$[rbp]
  001ed	48 89 05 00 00
	00 00		 mov	 QWORD PTR glad_glGetSubroutineIndex, rax

; 1510 :     glad_glGetActiveSubroutineUniformiv = (PFNGLGETACTIVESUBROUTINEUNIFORMIVPROC)load("glGetActiveSubroutineUniformiv");

  001f4	48 8d 0d 00 00
	00 00		 lea	 rcx, OFFSET FLAT:??_C@_0BP@FAPFAJFP@glGetActiveSubroutineUniformiv@
  001fb	ff 55 50	 call	 QWORD PTR load$[rbp]
  001fe	48 89 05 00 00
	00 00		 mov	 QWORD PTR glad_glGetActiveSubroutineUniformiv, rax

; 1511 :     glad_glGetActiveSubroutineUniformName = (PFNGLGETACTIVESUBROUTINEUNIFORMNAMEPROC)load("glGetActiveSubroutineUniformName");

  00205	48 8d 0d 00 00
	00 00		 lea	 rcx, OFFSET FLAT:??_C@_0CB@KCFFPCGJ@glGetActiveSubroutineUniformNam@
  0020c	ff 55 50	 call	 QWORD PTR load$[rbp]
  0020f	48 89 05 00 00
	00 00		 mov	 QWORD PTR glad_glGetActiveSubroutineUniformName, rax

; 1512 :     glad_glGetActiveSubroutineName = (PFNGLGETACTIVESUBROUTINENAMEPROC)load("glGetActiveSubroutineName");

  00216	48 8d 0d 00 00
	00 00		 lea	 rcx, OFFSET FLAT:??_C@_0BK@JPHEACLL@glGetActiveSubroutineName@
  0021d	ff 55 50	 call	 QWORD PTR load$[rbp]
  00220	48 89 05 00 00
	00 00		 mov	 QWORD PTR glad_glGetActiveSubroutineName, rax

; 1513 :     glad_glUniformSubroutinesuiv = (PFNGLUNIFORMSUBROUTINESUIVPROC)load("glUniformSubroutinesuiv");

  00227	48 8d 0d 00 00
	00 00		 lea	 rcx, OFFSET FLAT:??_C@_0BI@CDPOBBHI@glUniformSubroutinesuiv@
  0022e	ff 55 50	 call	 QWORD PTR load$[rbp]
  00231	48 89 05 00 00
	00 00		 mov	 QWORD PTR glad_glUniformSubroutinesuiv, rax

; 1514 :     glad_glGetUniformSubroutineuiv = (PFNGLGETUNIFORMSUBROUTINEUIVPROC)load("glGetUniformSubroutineuiv");

  00238	48 8d 0d 00 00
	00 00		 lea	 rcx, OFFSET FLAT:??_C@_0BK@BLMOFAGJ@glGetUniformSubroutineuiv@
  0023f	ff 55 50	 call	 QWORD PTR load$[rbp]
  00242	48 89 05 00 00
	00 00		 mov	 QWORD PTR glad_glGetUniformSubroutineuiv, rax

; 1515 :     glad_glGetProgramStageiv = (PFNGLGETPROGRAMSTAGEIVPROC)load("glGetProgramStageiv");

  00249	48 8d 0d 00 00
	00 00		 lea	 rcx, OFFSET FLAT:??_C@_0BE@LOKJCDFH@glGetProgramStageiv@
  00250	ff 55 50	 call	 QWORD PTR load$[rbp]
  00253	48 89 05 00 00
	00 00		 mov	 QWORD PTR glad_glGetProgramStageiv, rax

; 1516 :     glad_glPatchParameteri = (PFNGLPATCHPARAMETERIPROC)load("glPatchParameteri");

  0025a	48 8d 0d 00 00
	00 00		 lea	 rcx, OFFSET FLAT:??_C@_0BC@PAPDGMLA@glPatchParameteri@
  00261	ff 55 50	 call	 QWORD PTR load$[rbp]
  00264	48 89 05 00 00
	00 00		 mov	 QWORD PTR glad_glPatchParameteri, rax

; 1517 :     glad_glPatchParameterfv = (PFNGLPATCHPARAMETERFVPROC)load("glPatchParameterfv");

  0026b	48 8d 0d 00 00
	00 00		 lea	 rcx, OFFSET FLAT:??_C@_0BD@LJKINJKN@glPatchParameterfv@
  00272	ff 55 50	 call	 QWORD PTR load$[rbp]
  00275	48 89 05 00 00
	00 00		 mov	 QWORD PTR glad_glPatchParameterfv, rax

; 1518 :     glad_glBindTransformFeedback = (PFNGLBINDTRANSFORMFEEDBACKPROC)load("glBindTransformFeedback");

  0027c	48 8d 0d 00 00
	00 00		 lea	 rcx, OFFSET FLAT:??_C@_0BI@BPJKLMIG@glBindTransformFeedback@
  00283	ff 55 50	 call	 QWORD PTR load$[rbp]
  00286	48 89 05 00 00
	00 00		 mov	 QWORD PTR glad_glBindTransformFeedback, rax

; 1519 :     glad_glDeleteTransformFeedbacks = (PFNGLDELETETRANSFORMFEEDBACKSPROC)load("glDeleteTransformFeedbacks");

  0028d	48 8d 0d 00 00
	00 00		 lea	 rcx, OFFSET FLAT:??_C@_0BL@DIGEBFBK@glDeleteTransformFeedbacks@
  00294	ff 55 50	 call	 QWORD PTR load$[rbp]
  00297	48 89 05 00 00
	00 00		 mov	 QWORD PTR glad_glDeleteTransformFeedbacks, rax

; 1520 :     glad_glGenTransformFeedbacks = (PFNGLGENTRANSFORMFEEDBACKSPROC)load("glGenTransformFeedbacks");

  0029e	48 8d 0d 00 00
	00 00		 lea	 rcx, OFFSET FLAT:??_C@_0BI@KANKBGAE@glGenTransformFeedbacks@
  002a5	ff 55 50	 call	 QWORD PTR load$[rbp]
  002a8	48 89 05 00 00
	00 00		 mov	 QWORD PTR glad_glGenTransformFeedbacks, rax

; 1521 :     glad_glIsTransformFeedback = (PFNGLISTRANSFORMFEEDBACKPROC)load("glIsTransformFeedback");

  002af	48 8d 0d 00 00
	00 00		 lea	 rcx, OFFSET FLAT:??_C@_0BG@BGFLKHBM@glIsTransformFeedback@
  002b6	ff 55 50	 call	 QWORD PTR load$[rbp]
  002b9	48 89 05 00 00
	00 00		 mov	 QWORD PTR glad_glIsTransformFeedback, rax

; 1522 :     glad_glPauseTransformFeedback = (PFNGLPAUSETRANSFORMFEEDBACKPROC)load("glPauseTransformFeedback");

  002c0	48 8d 0d 00 00
	00 00		 lea	 rcx, OFFSET FLAT:??_C@_0BJ@FFNLKBCB@glPauseTransformFeedback@
  002c7	ff 55 50	 call	 QWORD PTR load$[rbp]
  002ca	48 89 05 00 00
	00 00		 mov	 QWORD PTR glad_glPauseTransformFeedback, rax

; 1523 :     glad_glResumeTransformFeedback = (PFNGLRESUMETRANSFORMFEEDBACKPROC)load("glResumeTransformFeedback");

  002d1	48 8d 0d 00 00
	00 00		 lea	 rcx, OFFSET FLAT:??_C@_0BK@JMHONFHF@glResumeTransformFeedback@
  002d8	ff 55 50	 call	 QWORD PTR load$[rbp]
  002db	48 89 05 00 00
	00 00		 mov	 QWORD PTR glad_glResumeTransformFeedback, rax

; 1524 :     glad_glDrawTransformFeedback = (PFNGLDRAWTRANSFORMFEEDBACKPROC)load("glDrawTransformFeedback");

  002e2	48 8d 0d 00 00
	00 00		 lea	 rcx, OFFSET FLAT:??_C@_0BI@LEOILCPN@glDrawTransformFeedback@
  002e9	ff 55 50	 call	 QWORD PTR load$[rbp]
  002ec	48 89 05 00 00
	00 00		 mov	 QWORD PTR glad_glDrawTransformFeedback, rax

; 1525 :     glad_glDrawTransformFeedbackStream = (PFNGLDRAWTRANSFORMFEEDBACKSTREAMPROC)load("glDrawTransformFeedbackStream");

  002f3	48 8d 0d 00 00
	00 00		 lea	 rcx, OFFSET FLAT:??_C@_0BO@IGLFNCDG@glDrawTransformFeedbackStream@
  002fa	ff 55 50	 call	 QWORD PTR load$[rbp]
  002fd	48 89 05 00 00
	00 00		 mov	 QWORD PTR glad_glDrawTransformFeedbackStream, rax

; 1526 :     glad_glBeginQueryIndexed = (PFNGLBEGINQUERYINDEXEDPROC)load("glBeginQueryIndexed");

  00304	48 8d 0d 00 00
	00 00		 lea	 rcx, OFFSET FLAT:??_C@_0BE@BDKPJDEE@glBeginQueryIndexed@
  0030b	ff 55 50	 call	 QWORD PTR load$[rbp]
  0030e	48 89 05 00 00
	00 00		 mov	 QWORD PTR glad_glBeginQueryIndexed, rax

; 1527 :     glad_glEndQueryIndexed = (PFNGLENDQUERYINDEXEDPROC)load("glEndQueryIndexed");

  00315	48 8d 0d 00 00
	00 00		 lea	 rcx, OFFSET FLAT:??_C@_0BC@DPMHMNME@glEndQueryIndexed@
  0031c	ff 55 50	 call	 QWORD PTR load$[rbp]
  0031f	48 89 05 00 00
	00 00		 mov	 QWORD PTR glad_glEndQueryIndexed, rax

; 1528 :     glad_glGetQueryIndexediv = (PFNGLGETQUERYINDEXEDIVPROC)load("glGetQueryIndexediv");

  00326	48 8d 0d 00 00
	00 00		 lea	 rcx, OFFSET FLAT:??_C@_0BE@CCFJPMFI@glGetQueryIndexediv@
  0032d	ff 55 50	 call	 QWORD PTR load$[rbp]
  00330	48 89 05 00 00
	00 00		 mov	 QWORD PTR glad_glGetQueryIndexediv, rax
$LN1@load_GL_VE:

; 1529 : }

  00337	48 8d 65 40	 lea	 rsp, QWORD PTR [rbp+64]
  0033b	5d		 pop	 rbp
  0033c	c3		 ret	 0
load_GL_VERSION_4_0 ENDP
_TEXT	ENDS
; Function compile flags: /Odtp /ZI
; File D:\Programmer\GLenv\glad.c
;	COMDAT load_GL_VERSION_3_3
_TEXT	SEGMENT
load$ = 80
load_GL_VERSION_3_3 PROC				; COMDAT

; 1420 : static void load_GL_VERSION_3_3(GLADloadproc load) {

  00000	48 89 4c 24 08	 mov	 QWORD PTR [rsp+8], rcx
  00005	55		 push	 rbp
  00006	48 83 ec 60	 sub	 rsp, 96			; 00000060H
  0000a	48 8d 6c 24 20	 lea	 rbp, QWORD PTR [rsp+32]
  0000f	48 8d 0d 00 00
	00 00		 lea	 rcx, OFFSET FLAT:__2B68C239_glad@c
  00016	e8 00 00 00 00	 call	 __CheckForDebuggerJustMyCode

; 1421 :     if (!GLAD_GL_VERSION_3_3) return;

  0001b	83 3d 00 00 00
	00 00		 cmp	 DWORD PTR GLAD_GL_VERSION_3_3, 0
  00022	75 05		 jne	 SHORT $LN2@load_GL_VE
  00024	e9 da 03 00 00	 jmp	 $LN1@load_GL_VE
$LN2@load_GL_VE:

; 1422 :     glad_glBindFragDataLocationIndexed = (PFNGLBINDFRAGDATALOCATIONINDEXEDPROC)load("glBindFragDataLocationIndexed");

  00029	48 8d 0d 00 00
	00 00		 lea	 rcx, OFFSET FLAT:??_C@_0BO@POJBGCGG@glBindFragDataLocationIndexed@
  00030	ff 55 50	 call	 QWORD PTR load$[rbp]
  00033	48 89 05 00 00
	00 00		 mov	 QWORD PTR glad_glBindFragDataLocationIndexed, rax

; 1423 :     glad_glGetFragDataIndex = (PFNGLGETFRAGDATAINDEXPROC)load("glGetFragDataIndex");

  0003a	48 8d 0d 00 00
	00 00		 lea	 rcx, OFFSET FLAT:??_C@_0BD@COCJFEOH@glGetFragDataIndex@
  00041	ff 55 50	 call	 QWORD PTR load$[rbp]
  00044	48 89 05 00 00
	00 00		 mov	 QWORD PTR glad_glGetFragDataIndex, rax

; 1424 :     glad_glGenSamplers = (PFNGLGENSAMPLERSPROC)load("glGenSamplers");

  0004b	48 8d 0d 00 00
	00 00		 lea	 rcx, OFFSET FLAT:??_C@_0O@EMMLGGLG@glGenSamplers@
  00052	ff 55 50	 call	 QWORD PTR load$[rbp]
  00055	48 89 05 00 00
	00 00		 mov	 QWORD PTR glad_glGenSamplers, rax

; 1425 :     glad_glDeleteSamplers = (PFNGLDELETESAMPLERSPROC)load("glDeleteSamplers");

  0005c	48 8d 0d 00 00
	00 00		 lea	 rcx, OFFSET FLAT:??_C@_0BB@FLPAOEOO@glDeleteSamplers@
  00063	ff 55 50	 call	 QWORD PTR load$[rbp]
  00066	48 89 05 00 00
	00 00		 mov	 QWORD PTR glad_glDeleteSamplers, rax

; 1426 :     glad_glIsSampler = (PFNGLISSAMPLERPROC)load("glIsSampler");

  0006d	48 8d 0d 00 00
	00 00		 lea	 rcx, OFFSET FLAT:??_C@_0M@LAJKHOKJ@glIsSampler@
  00074	ff 55 50	 call	 QWORD PTR load$[rbp]
  00077	48 89 05 00 00
	00 00		 mov	 QWORD PTR glad_glIsSampler, rax

; 1427 :     glad_glBindSampler = (PFNGLBINDSAMPLERPROC)load("glBindSampler");

  0007e	48 8d 0d 00 00
	00 00		 lea	 rcx, OFFSET FLAT:??_C@_0O@PDEILAPG@glBindSampler@
  00085	ff 55 50	 call	 QWORD PTR load$[rbp]
  00088	48 89 05 00 00
	00 00		 mov	 QWORD PTR glad_glBindSampler, rax

; 1428 :     glad_glSamplerParameteri = (PFNGLSAMPLERPARAMETERIPROC)load("glSamplerParameteri");

  0008f	48 8d 0d 00 00
	00 00		 lea	 rcx, OFFSET FLAT:??_C@_0BE@KBCBMPJO@glSamplerParameteri@
  00096	ff 55 50	 call	 QWORD PTR load$[rbp]
  00099	48 89 05 00 00
	00 00		 mov	 QWORD PTR glad_glSamplerParameteri, rax

; 1429 :     glad_glSamplerParameteriv = (PFNGLSAMPLERPARAMETERIVPROC)load("glSamplerParameteriv");

  000a0	48 8d 0d 00 00
	00 00		 lea	 rcx, OFFSET FLAT:??_C@_0BF@GOHDEBPM@glSamplerParameteriv@
  000a7	ff 55 50	 call	 QWORD PTR load$[rbp]
  000aa	48 89 05 00 00
	00 00		 mov	 QWORD PTR glad_glSamplerParameteriv, rax

; 1430 :     glad_glSamplerParameterf = (PFNGLSAMPLERPARAMETERFPROC)load("glSamplerParameterf");

  000b1	48 8d 0d 00 00
	00 00		 lea	 rcx, OFFSET FLAT:??_C@_0BE@CGLJNDFB@glSamplerParameterf@
  000b8	ff 55 50	 call	 QWORD PTR load$[rbp]
  000bb	48 89 05 00 00
	00 00		 mov	 QWORD PTR glad_glSamplerParameterf, rax

; 1431 :     glad_glSamplerParameterfv = (PFNGLSAMPLERPARAMETERFVPROC)load("glSamplerParameterfv");

  000c2	48 8d 0d 00 00
	00 00		 lea	 rcx, OFFSET FLAT:??_C@_0BF@GFCPAGMB@glSamplerParameterfv@
  000c9	ff 55 50	 call	 QWORD PTR load$[rbp]
  000cc	48 89 05 00 00
	00 00		 mov	 QWORD PTR glad_glSamplerParameterfv, rax

; 1432 :     glad_glSamplerParameterIiv = (PFNGLSAMPLERPARAMETERIIVPROC)load("glSamplerParameterIiv");

  000d3	48 8d 0d 00 00
	00 00		 lea	 rcx, OFFSET FLAT:??_C@_0BG@HKEIFIHF@glSamplerParameterIiv@
  000da	ff 55 50	 call	 QWORD PTR load$[rbp]
  000dd	48 89 05 00 00
	00 00		 mov	 QWORD PTR glad_glSamplerParameterIiv, rax

; 1433 :     glad_glSamplerParameterIuiv = (PFNGLSAMPLERPARAMETERIUIVPROC)load("glSamplerParameterIuiv");

  000e4	48 8d 0d 00 00
	00 00		 lea	 rcx, OFFSET FLAT:??_C@_0BH@FEMFBPPB@glSamplerParameterIuiv@
  000eb	ff 55 50	 call	 QWORD PTR load$[rbp]
  000ee	48 89 05 00 00
	00 00		 mov	 QWORD PTR glad_glSamplerParameterIuiv, rax

; 1434 :     glad_glGetSamplerParameteriv = (PFNGLGETSAMPLERPARAMETERIVPROC)load("glGetSamplerParameteriv");

  000f5	48 8d 0d 00 00
	00 00		 lea	 rcx, OFFSET FLAT:??_C@_0BI@FECAOLJP@glGetSamplerParameteriv@
  000fc	ff 55 50	 call	 QWORD PTR load$[rbp]
  000ff	48 89 05 00 00
	00 00		 mov	 QWORD PTR glad_glGetSamplerParameteriv, rax

; 1435 :     glad_glGetSamplerParameterIiv = (PFNGLGETSAMPLERPARAMETERIIVPROC)load("glGetSamplerParameterIiv");

  00106	48 8d 0d 00 00
	00 00		 lea	 rcx, OFFSET FLAT:??_C@_0BJ@KOMJDLDN@glGetSamplerParameterIiv@
  0010d	ff 55 50	 call	 QWORD PTR load$[rbp]
  00110	48 89 05 00 00
	00 00		 mov	 QWORD PTR glad_glGetSamplerParameterIiv, rax

; 1436 :     glad_glGetSamplerParameterfv = (PFNGLGETSAMPLERPARAMETERFVPROC)load("glGetSamplerParameterfv");

  00117	48 8d 0d 00 00
	00 00		 lea	 rcx, OFFSET FLAT:??_C@_0BI@FPHMKMKC@glGetSamplerParameterfv@
  0011e	ff 55 50	 call	 QWORD PTR load$[rbp]
  00121	48 89 05 00 00
	00 00		 mov	 QWORD PTR glad_glGetSamplerParameterfv, rax

; 1437 :     glad_glGetSamplerParameterIuiv = (PFNGLGETSAMPLERPARAMETERIUIVPROC)load("glGetSamplerParameterIuiv");

  00128	48 8d 0d 00 00
	00 00		 lea	 rcx, OFFSET FLAT:??_C@_0BK@CMBGFHDA@glGetSamplerParameterIuiv@
  0012f	ff 55 50	 call	 QWORD PTR load$[rbp]
  00132	48 89 05 00 00
	00 00		 mov	 QWORD PTR glad_glGetSamplerParameterIuiv, rax

; 1438 :     glad_glQueryCounter = (PFNGLQUERYCOUNTERPROC)load("glQueryCounter");

  00139	48 8d 0d 00 00
	00 00		 lea	 rcx, OFFSET FLAT:??_C@_0P@KALICDIM@glQueryCounter@
  00140	ff 55 50	 call	 QWORD PTR load$[rbp]
  00143	48 89 05 00 00
	00 00		 mov	 QWORD PTR glad_glQueryCounter, rax

; 1439 :     glad_glGetQueryObjecti64v = (PFNGLGETQUERYOBJECTI64VPROC)load("glGetQueryObjecti64v");

  0014a	48 8d 0d 00 00
	00 00		 lea	 rcx, OFFSET FLAT:??_C@_0BF@JDAPDEPE@glGetQueryObjecti64v@
  00151	ff 55 50	 call	 QWORD PTR load$[rbp]
  00154	48 89 05 00 00
	00 00		 mov	 QWORD PTR glad_glGetQueryObjecti64v, rax

; 1440 :     glad_glGetQueryObjectui64v = (PFNGLGETQUERYOBJECTUI64VPROC)load("glGetQueryObjectui64v");

  0015b	48 8d 0d 00 00
	00 00		 lea	 rcx, OFFSET FLAT:??_C@_0BG@NEGGOMJO@glGetQueryObjectui64v@
  00162	ff 55 50	 call	 QWORD PTR load$[rbp]
  00165	48 89 05 00 00
	00 00		 mov	 QWORD PTR glad_glGetQueryObjectui64v, rax

; 1441 :     glad_glVertexAttribDivisor = (PFNGLVERTEXATTRIBDIVISORPROC)load("glVertexAttribDivisor");

  0016c	48 8d 0d 00 00
	00 00		 lea	 rcx, OFFSET FLAT:??_C@_0BG@NEBMAEHM@glVertexAttribDivisor@
  00173	ff 55 50	 call	 QWORD PTR load$[rbp]
  00176	48 89 05 00 00
	00 00		 mov	 QWORD PTR glad_glVertexAttribDivisor, rax

; 1442 :     glad_glVertexAttribP1ui = (PFNGLVERTEXATTRIBP1UIPROC)load("glVertexAttribP1ui");

  0017d	48 8d 0d 00 00
	00 00		 lea	 rcx, OFFSET FLAT:??_C@_0BD@FLACCOEN@glVertexAttribP1ui@
  00184	ff 55 50	 call	 QWORD PTR load$[rbp]
  00187	48 89 05 00 00
	00 00		 mov	 QWORD PTR glad_glVertexAttribP1ui, rax

; 1443 :     glad_glVertexAttribP1uiv = (PFNGLVERTEXATTRIBP1UIVPROC)load("glVertexAttribP1uiv");

  0018e	48 8d 0d 00 00
	00 00		 lea	 rcx, OFFSET FLAT:??_C@_0BE@HBFDOBHD@glVertexAttribP1uiv@
  00195	ff 55 50	 call	 QWORD PTR load$[rbp]
  00198	48 89 05 00 00
	00 00		 mov	 QWORD PTR glad_glVertexAttribP1uiv, rax

; 1444 :     glad_glVertexAttribP2ui = (PFNGLVERTEXATTRIBP2UIPROC)load("glVertexAttribP2ui");

  0019f	48 8d 0d 00 00
	00 00		 lea	 rcx, OFFSET FLAT:??_C@_0BD@EJLHIBKD@glVertexAttribP2ui@
  001a6	ff 55 50	 call	 QWORD PTR load$[rbp]
  001a9	48 89 05 00 00
	00 00		 mov	 QWORD PTR glad_glVertexAttribP2ui, rax

; 1445 :     glad_glVertexAttribP2uiv = (PFNGLVERTEXATTRIBP2UIVPROC)load("glVertexAttribP2uiv");

  001b0	48 8d 0d 00 00
	00 00		 lea	 rcx, OFFSET FLAT:??_C@_0BE@DGPDJLKD@glVertexAttribP2uiv@
  001b7	ff 55 50	 call	 QWORD PTR load$[rbp]
  001ba	48 89 05 00 00
	00 00		 mov	 QWORD PTR glad_glVertexAttribP2uiv, rax

; 1446 :     glad_glVertexAttribP3ui = (PFNGLVERTEXATTRIBP3UIPROC)load("glVertexAttribP3ui");

  001c1	48 8d 0d 00 00
	00 00		 lea	 rcx, OFFSET FLAT:??_C@_0BD@PBALOGMG@glVertexAttribP3ui@
  001c8	ff 55 50	 call	 QWORD PTR load$[rbp]
  001cb	48 89 05 00 00
	00 00		 mov	 QWORD PTR glad_glVertexAttribP3ui, rax

; 1447 :     glad_glVertexAttribP3uiv = (PFNGLVERTEXATTRIBP3UIVPROC)load("glVertexAttribP3uiv");

  001d2	48 8d 0d 00 00
	00 00		 lea	 rcx, OFFSET FLAT:??_C@_0BE@LJDLCBD@glVertexAttribP3uiv@
  001d9	ff 55 50	 call	 QWORD PTR load$[rbp]
  001dc	48 89 05 00 00
	00 00		 mov	 QWORD PTR glad_glVertexAttribP3uiv, rax

; 1448 :     glad_glVertexAttribP4ui = (PFNGLVERTEXATTRIBP4UIPROC)load("glVertexAttribP4ui");

  001e3	48 8d 0d 00 00
	00 00		 lea	 rcx, OFFSET FLAT:??_C@_0BD@GMNMNOHP@glVertexAttribP4ui@
  001ea	ff 55 50	 call	 QWORD PTR load$[rbp]
  001ed	48 89 05 00 00
	00 00		 mov	 QWORD PTR glad_glVertexAttribP4ui, rax

; 1449 :     glad_glVertexAttribP4uiv = (PFNGLVERTEXATTRIBP4UIVPROC)load("glVertexAttribP4uiv");

  001f4	48 8d 0d 00 00
	00 00		 lea	 rcx, OFFSET FLAT:??_C@_0BE@LJLDGOAD@glVertexAttribP4uiv@
  001fb	ff 55 50	 call	 QWORD PTR load$[rbp]
  001fe	48 89 05 00 00
	00 00		 mov	 QWORD PTR glad_glVertexAttribP4uiv, rax

; 1450 :     glad_glVertexP2ui = (PFNGLVERTEXP2UIPROC)load("glVertexP2ui");

  00205	48 8d 0d 00 00
	00 00		 lea	 rcx, OFFSET FLAT:??_C@_0N@EFBCIBMC@glVertexP2ui@
  0020c	ff 55 50	 call	 QWORD PTR load$[rbp]
  0020f	48 89 05 00 00
	00 00		 mov	 QWORD PTR glad_glVertexP2ui, rax

; 1451 :     glad_glVertexP2uiv = (PFNGLVERTEXP2UIVPROC)load("glVertexP2uiv");

  00216	48 8d 0d 00 00
	00 00		 lea	 rcx, OFFSET FLAT:??_C@_0O@MEKGPGN@glVertexP2uiv@
  0021d	ff 55 50	 call	 QWORD PTR load$[rbp]
  00220	48 89 05 00 00
	00 00		 mov	 QWORD PTR glad_glVertexP2uiv, rax

; 1452 :     glad_glVertexP3ui = (PFNGLVERTEXP3UIPROC)load("glVertexP3ui");

  00227	48 8d 0d 00 00
	00 00		 lea	 rcx, OFFSET FLAT:??_C@_0N@PNKOOGKH@glVertexP3ui@
  0022e	ff 55 50	 call	 QWORD PTR load$[rbp]
  00231	48 89 05 00 00
	00 00		 mov	 QWORD PTR glad_glVertexP3ui, rax

; 1453 :     glad_glVertexP3uiv = (PFNGLVERTEXP3UIVPROC)load("glVertexP3uiv");

  00238	48 8d 0d 00 00
	00 00		 lea	 rcx, OFFSET FLAT:??_C@_0O@DBCKEGNN@glVertexP3uiv@
  0023f	ff 55 50	 call	 QWORD PTR load$[rbp]
  00242	48 89 05 00 00
	00 00		 mov	 QWORD PTR glad_glVertexP3uiv, rax

; 1454 :     glad_glVertexP4ui = (PFNGLVERTEXP4UIPROC)load("glVertexP4ui");

  00249	48 8d 0d 00 00
	00 00		 lea	 rcx, OFFSET FLAT:??_C@_0N@GAHJNOBO@glVertexP4ui@
  00250	ff 55 50	 call	 QWORD PTR load$[rbp]
  00253	48 89 05 00 00
	00 00		 mov	 QWORD PTR glad_glVertexP4ui, rax

; 1455 :     glad_glVertexP4uiv = (PFNGLVERTEXP4UIVPROC)load("glVertexP4uiv");

  0025a	48 8d 0d 00 00
	00 00		 lea	 rcx, OFFSET FLAT:??_C@_0O@IDAKJKMN@glVertexP4uiv@
  00261	ff 55 50	 call	 QWORD PTR load$[rbp]
  00264	48 89 05 00 00
	00 00		 mov	 QWORD PTR glad_glVertexP4uiv, rax

; 1456 :     glad_glTexCoordP1ui = (PFNGLTEXCOORDP1UIPROC)load("glTexCoordP1ui");

  0026b	48 8d 0d 00 00
	00 00		 lea	 rcx, OFFSET FLAT:??_C@_0P@OLJHLLHJ@glTexCoordP1ui@
  00272	ff 55 50	 call	 QWORD PTR load$[rbp]
  00275	48 89 05 00 00
	00 00		 mov	 QWORD PTR glad_glTexCoordP1ui, rax

; 1457 :     glad_glTexCoordP1uiv = (PFNGLTEXCOORDP1UIVPROC)load("glTexCoordP1uiv");

  0027c	48 8d 0d 00 00
	00 00		 lea	 rcx, OFFSET FLAT:??_C@_0BA@FAFHIAFD@glTexCoordP1uiv@
  00283	ff 55 50	 call	 QWORD PTR load$[rbp]
  00286	48 89 05 00 00
	00 00		 mov	 QWORD PTR glad_glTexCoordP1uiv, rax

; 1458 :     glad_glTexCoordP2ui = (PFNGLTEXCOORDP2UIPROC)load("glTexCoordP2ui");

  0028d	48 8d 0d 00 00
	00 00		 lea	 rcx, OFFSET FLAT:??_C@_0P@PJCCBEJH@glTexCoordP2ui@
  00294	ff 55 50	 call	 QWORD PTR load$[rbp]
  00297	48 89 05 00 00
	00 00		 mov	 QWORD PTR glad_glTexCoordP2ui, rax

; 1459 :     glad_glTexCoordP2uiv = (PFNGLTEXCOORDP2UIVPROC)load("glTexCoordP2uiv");

  0029e	48 8d 0d 00 00
	00 00		 lea	 rcx, OFFSET FLAT:??_C@_0BA@BHPHPKID@glTexCoordP2uiv@
  002a5	ff 55 50	 call	 QWORD PTR load$[rbp]
  002a8	48 89 05 00 00
	00 00		 mov	 QWORD PTR glad_glTexCoordP2uiv, rax

; 1460 :     glad_glTexCoordP3ui = (PFNGLTEXCOORDP3UIPROC)load("glTexCoordP3ui");

  002af	48 8d 0d 00 00
	00 00		 lea	 rcx, OFFSET FLAT:??_C@_0P@EBJOHDPC@glTexCoordP3ui@
  002b6	ff 55 50	 call	 QWORD PTR load$[rbp]
  002b9	48 89 05 00 00
	00 00		 mov	 QWORD PTR glad_glTexCoordP3ui, rax

; 1461 :     glad_glTexCoordP3uiv = (PFNGLTEXCOORDP3UIVPROC)load("glTexCoordP3uiv");

  002c0	48 8d 0d 00 00
	00 00		 lea	 rcx, OFFSET FLAT:??_C@_0BA@CKJHNDDD@glTexCoordP3uiv@
  002c7	ff 55 50	 call	 QWORD PTR load$[rbp]
  002ca	48 89 05 00 00
	00 00		 mov	 QWORD PTR glad_glTexCoordP3uiv, rax

; 1462 :     glad_glTexCoordP4ui = (PFNGLTEXCOORDP4UIPROC)load("glTexCoordP4ui");

  002d1	48 8d 0d 00 00
	00 00		 lea	 rcx, OFFSET FLAT:??_C@_0P@NMEJELEL@glTexCoordP4ui@
  002d8	ff 55 50	 call	 QWORD PTR load$[rbp]
  002db	48 89 05 00 00
	00 00		 mov	 QWORD PTR glad_glTexCoordP4ui, rax

; 1463 :     glad_glTexCoordP4uiv = (PFNGLTEXCOORDP4UIVPROC)load("glTexCoordP4uiv");

  002e2	48 8d 0d 00 00
	00 00		 lea	 rcx, OFFSET FLAT:??_C@_0BA@JILHAPCD@glTexCoordP4uiv@
  002e9	ff 55 50	 call	 QWORD PTR load$[rbp]
  002ec	48 89 05 00 00
	00 00		 mov	 QWORD PTR glad_glTexCoordP4uiv, rax

; 1464 :     glad_glMultiTexCoordP1ui = (PFNGLMULTITEXCOORDP1UIPROC)load("glMultiTexCoordP1ui");

  002f3	48 8d 0d 00 00
	00 00		 lea	 rcx, OFFSET FLAT:??_C@_0BE@OAHHKHKG@glMultiTexCoordP1ui@
  002fa	ff 55 50	 call	 QWORD PTR load$[rbp]
  002fd	48 89 05 00 00
	00 00		 mov	 QWORD PTR glad_glMultiTexCoordP1ui, rax

; 1465 :     glad_glMultiTexCoordP1uiv = (PFNGLMULTITEXCOORDP1UIVPROC)load("glMultiTexCoordP1uiv");

  00304	48 8d 0d 00 00
	00 00		 lea	 rcx, OFFSET FLAT:??_C@_0BF@EGDAKPAK@glMultiTexCoordP1uiv@
  0030b	ff 55 50	 call	 QWORD PTR load$[rbp]
  0030e	48 89 05 00 00
	00 00		 mov	 QWORD PTR glad_glMultiTexCoordP1uiv, rax

; 1466 :     glad_glMultiTexCoordP2ui = (PFNGLMULTITEXCOORDP2UIPROC)load("glMultiTexCoordP2ui");

  00315	48 8d 0d 00 00
	00 00		 lea	 rcx, OFFSET FLAT:??_C@_0BE@PCMCAIEI@glMultiTexCoordP2ui@
  0031c	ff 55 50	 call	 QWORD PTR load$[rbp]
  0031f	48 89 05 00 00
	00 00		 mov	 QWORD PTR glad_glMultiTexCoordP2ui, rax

; 1467 :     glad_glMultiTexCoordP2uiv = (PFNGLMULTITEXCOORDP2UIVPROC)load("glMultiTexCoordP2uiv");

  00326	48 8d 0d 00 00
	00 00		 lea	 rcx, OFFSET FLAT:??_C@_0BF@BJANFNK@glMultiTexCoordP2uiv@
  0032d	ff 55 50	 call	 QWORD PTR load$[rbp]
  00330	48 89 05 00 00
	00 00		 mov	 QWORD PTR glad_glMultiTexCoordP2uiv, rax

; 1468 :     glad_glMultiTexCoordP3ui = (PFNGLMULTITEXCOORDP3UIPROC)load("glMultiTexCoordP3ui");

  00337	48 8d 0d 00 00
	00 00		 lea	 rcx, OFFSET FLAT:??_C@_0BE@EKHOGPCN@glMultiTexCoordP3ui@
  0033e	ff 55 50	 call	 QWORD PTR load$[rbp]
  00341	48 89 05 00 00
	00 00		 mov	 QWORD PTR glad_glMultiTexCoordP3ui, rax

; 1469 :     glad_glMultiTexCoordP3uiv = (PFNGLMULTITEXCOORDP3UIVPROC)load("glMultiTexCoordP3uiv");

  00348	48 8d 0d 00 00
	00 00		 lea	 rcx, OFFSET FLAT:??_C@_0BF@DMPAPMGK@glMultiTexCoordP3uiv@
  0034f	ff 55 50	 call	 QWORD PTR load$[rbp]
  00352	48 89 05 00 00
	00 00		 mov	 QWORD PTR glad_glMultiTexCoordP3uiv, rax

; 1470 :     glad_glMultiTexCoordP4ui = (PFNGLMULTITEXCOORDP4UIPROC)load("glMultiTexCoordP4ui");

  00359	48 8d 0d 00 00
	00 00		 lea	 rcx, OFFSET FLAT:??_C@_0BE@NHKJFHJE@glMultiTexCoordP4ui@
  00360	ff 55 50	 call	 QWORD PTR load$[rbp]
  00363	48 89 05 00 00
	00 00		 mov	 QWORD PTR glad_glMultiTexCoordP4ui, rax

; 1471 :     glad_glMultiTexCoordP4uiv = (PFNGLMULTITEXCOORDP4UIVPROC)load("glMultiTexCoordP4uiv");

  0036a	48 8d 0d 00 00
	00 00		 lea	 rcx, OFFSET FLAT:??_C@_0BF@IONACAHK@glMultiTexCoordP4uiv@
  00371	ff 55 50	 call	 QWORD PTR load$[rbp]
  00374	48 89 05 00 00
	00 00		 mov	 QWORD PTR glad_glMultiTexCoordP4uiv, rax

; 1472 :     glad_glNormalP3ui = (PFNGLNORMALP3UIPROC)load("glNormalP3ui");

  0037b	48 8d 0d 00 00
	00 00		 lea	 rcx, OFFSET FLAT:??_C@_0N@PBEFBNHO@glNormalP3ui@
  00382	ff 55 50	 call	 QWORD PTR load$[rbp]
  00385	48 89 05 00 00
	00 00		 mov	 QWORD PTR glad_glNormalP3ui, rax

; 1473 :     glad_glNormalP3uiv = (PFNGLNORMALP3UIVPROC)load("glNormalP3uiv");

  0038c	48 8d 0d 00 00
	00 00		 lea	 rcx, OFFSET FLAT:??_C@_0O@MOCJMHFG@glNormalP3uiv@
  00393	ff 55 50	 call	 QWORD PTR load$[rbp]
  00396	48 89 05 00 00
	00 00		 mov	 QWORD PTR glad_glNormalP3uiv, rax

; 1474 :     glad_glColorP3ui = (PFNGLCOLORP3UIPROC)load("glColorP3ui");

  0039d	48 8d 0d 00 00
	00 00		 lea	 rcx, OFFSET FLAT:??_C@_0M@PEKBINNN@glColorP3ui@
  003a4	ff 55 50	 call	 QWORD PTR load$[rbp]
  003a7	48 89 05 00 00
	00 00		 mov	 QWORD PTR glad_glColorP3ui, rax

; 1475 :     glad_glColorP3uiv = (PFNGLCOLORP3UIVPROC)load("glColorP3uiv");

  003ae	48 8d 0d 00 00
	00 00		 lea	 rcx, OFFSET FLAT:??_C@_0N@IBPDNBJE@glColorP3uiv@
  003b5	ff 55 50	 call	 QWORD PTR load$[rbp]
  003b8	48 89 05 00 00
	00 00		 mov	 QWORD PTR glad_glColorP3uiv, rax

; 1476 :     glad_glColorP4ui = (PFNGLCOLORP4UIPROC)load("glColorP4ui");

  003bf	48 8d 0d 00 00
	00 00		 lea	 rcx, OFFSET FLAT:??_C@_0M@GJHGLFGE@glColorP4ui@
  003c6	ff 55 50	 call	 QWORD PTR load$[rbp]
  003c9	48 89 05 00 00
	00 00		 mov	 QWORD PTR glad_glColorP4ui, rax

; 1477 :     glad_glColorP4uiv = (PFNGLCOLORP4UIVPROC)load("glColorP4uiv");

  003d0	48 8d 0d 00 00
	00 00		 lea	 rcx, OFFSET FLAT:??_C@_0N@DDNDANIE@glColorP4uiv@
  003d7	ff 55 50	 call	 QWORD PTR load$[rbp]
  003da	48 89 05 00 00
	00 00		 mov	 QWORD PTR glad_glColorP4uiv, rax

; 1478 :     glad_glSecondaryColorP3ui = (PFNGLSECONDARYCOLORP3UIPROC)load("glSecondaryColorP3ui");

  003e1	48 8d 0d 00 00
	00 00		 lea	 rcx, OFFSET FLAT:??_C@_0BF@PDDGBPKP@glSecondaryColorP3ui@
  003e8	ff 55 50	 call	 QWORD PTR load$[rbp]
  003eb	48 89 05 00 00
	00 00		 mov	 QWORD PTR glad_glSecondaryColorP3ui, rax

; 1479 :     glad_glSecondaryColorP3uiv = (PFNGLSECONDARYCOLORP3UIVPROC)load("glSecondaryColorP3uiv");

  003f2	48 8d 0d 00 00
	00 00		 lea	 rcx, OFFSET FLAT:??_C@_0BG@DPPPFGBG@glSecondaryColorP3uiv@
  003f9	ff 55 50	 call	 QWORD PTR load$[rbp]
  003fc	48 89 05 00 00
	00 00		 mov	 QWORD PTR glad_glSecondaryColorP3uiv, rax
$LN1@load_GL_VE:

; 1480 : }

  00403	48 8d 65 40	 lea	 rsp, QWORD PTR [rbp+64]
  00407	5d		 pop	 rbp
  00408	c3		 ret	 0
load_GL_VERSION_3_3 ENDP
_TEXT	ENDS
; Function compile flags: /Odtp /ZI
; File D:\Programmer\GLenv\glad.c
;	COMDAT load_GL_VERSION_3_2
_TEXT	SEGMENT
load$ = 80
load_GL_VERSION_3_2 PROC				; COMDAT

; 1398 : static void load_GL_VERSION_3_2(GLADloadproc load) {

  00000	48 89 4c 24 08	 mov	 QWORD PTR [rsp+8], rcx
  00005	55		 push	 rbp
  00006	48 83 ec 60	 sub	 rsp, 96			; 00000060H
  0000a	48 8d 6c 24 20	 lea	 rbp, QWORD PTR [rsp+32]
  0000f	48 8d 0d 00 00
	00 00		 lea	 rcx, OFFSET FLAT:__2B68C239_glad@c
  00016	e8 00 00 00 00	 call	 __CheckForDebuggerJustMyCode

; 1399 :     if (!GLAD_GL_VERSION_3_2) return;

  0001b	83 3d 00 00 00
	00 00		 cmp	 DWORD PTR GLAD_GL_VERSION_3_2, 0
  00022	75 05		 jne	 SHORT $LN2@load_GL_VE
  00024	e9 43 01 00 00	 jmp	 $LN1@load_GL_VE
$LN2@load_GL_VE:

; 1400 :     glad_glDrawElementsBaseVertex = (PFNGLDRAWELEMENTSBASEVERTEXPROC)load("glDrawElementsBaseVertex");

  00029	48 8d 0d 00 00
	00 00		 lea	 rcx, OFFSET FLAT:??_C@_0BJ@LFMMIAHA@glDrawElementsBaseVertex@
  00030	ff 55 50	 call	 QWORD PTR load$[rbp]
  00033	48 89 05 00 00
	00 00		 mov	 QWORD PTR glad_glDrawElementsBaseVertex, rax

; 1401 :     glad_glDrawRangeElementsBaseVertex = (PFNGLDRAWRANGEELEMENTSBASEVERTEXPROC)load("glDrawRangeElementsBaseVertex");

  0003a	48 8d 0d 00 00
	00 00		 lea	 rcx, OFFSET FLAT:??_C@_0BO@KBDDBILP@glDrawRangeElementsBaseVertex@
  00041	ff 55 50	 call	 QWORD PTR load$[rbp]
  00044	48 89 05 00 00
	00 00		 mov	 QWORD PTR glad_glDrawRangeElementsBaseVertex, rax

; 1402 :     glad_glDrawElementsInstancedBaseVertex = (PFNGLDRAWELEMENTSINSTANCEDBASEVERTEXPROC)load("glDrawElementsInstancedBaseVertex");

  0004b	48 8d 0d 00 00
	00 00		 lea	 rcx, OFFSET FLAT:??_C@_0CC@KLOIIKNA@glDrawElementsInstancedBaseVert@
  00052	ff 55 50	 call	 QWORD PTR load$[rbp]
  00055	48 89 05 00 00
	00 00		 mov	 QWORD PTR glad_glDrawElementsInstancedBaseVertex, rax

; 1403 :     glad_glMultiDrawElementsBaseVertex = (PFNGLMULTIDRAWELEMENTSBASEVERTEXPROC)load("glMultiDrawElementsBaseVertex");

  0005c	48 8d 0d 00 00
	00 00		 lea	 rcx, OFFSET FLAT:??_C@_0BO@NAPFJEEK@glMultiDrawElementsBaseVertex@
  00063	ff 55 50	 call	 QWORD PTR load$[rbp]
  00066	48 89 05 00 00
	00 00		 mov	 QWORD PTR glad_glMultiDrawElementsBaseVertex, rax

; 1404 :     glad_glProvokingVertex = (PFNGLPROVOKINGVERTEXPROC)load("glProvokingVertex");

  0006d	48 8d 0d 00 00
	00 00		 lea	 rcx, OFFSET FLAT:??_C@_0BC@ECOAPEBI@glProvokingVertex@
  00074	ff 55 50	 call	 QWORD PTR load$[rbp]
  00077	48 89 05 00 00
	00 00		 mov	 QWORD PTR glad_glProvokingVertex, rax

; 1405 :     glad_glFenceSync = (PFNGLFENCESYNCPROC)load("glFenceSync");

  0007e	48 8d 0d 00 00
	00 00		 lea	 rcx, OFFSET FLAT:??_C@_0M@EFGFPFLP@glFenceSync@
  00085	ff 55 50	 call	 QWORD PTR load$[rbp]
  00088	48 89 05 00 00
	00 00		 mov	 QWORD PTR glad_glFenceSync, rax

; 1406 :     glad_glIsSync = (PFNGLISSYNCPROC)load("glIsSync");

  0008f	48 8d 0d 00 00
	00 00		 lea	 rcx, OFFSET FLAT:??_C@_08JPIIHJEO@glIsSync@
  00096	ff 55 50	 call	 QWORD PTR load$[rbp]
  00099	48 89 05 00 00
	00 00		 mov	 QWORD PTR glad_glIsSync, rax

; 1407 :     glad_glDeleteSync = (PFNGLDELETESYNCPROC)load("glDeleteSync");

  000a0	48 8d 0d 00 00
	00 00		 lea	 rcx, OFFSET FLAT:??_C@_0N@PIFDNDFG@glDeleteSync@
  000a7	ff 55 50	 call	 QWORD PTR load$[rbp]
  000aa	48 89 05 00 00
	00 00		 mov	 QWORD PTR glad_glDeleteSync, rax

; 1408 :     glad_glClientWaitSync = (PFNGLCLIENTWAITSYNCPROC)load("glClientWaitSync");

  000b1	48 8d 0d 00 00
	00 00		 lea	 rcx, OFFSET FLAT:??_C@_0BB@KDMPGJAC@glClientWaitSync@
  000b8	ff 55 50	 call	 QWORD PTR load$[rbp]
  000bb	48 89 05 00 00
	00 00		 mov	 QWORD PTR glad_glClientWaitSync, rax

; 1409 :     glad_glWaitSync = (PFNGLWAITSYNCPROC)load("glWaitSync");

  000c2	48 8d 0d 00 00
	00 00		 lea	 rcx, OFFSET FLAT:??_C@_0L@MHLOGHGO@glWaitSync@
  000c9	ff 55 50	 call	 QWORD PTR load$[rbp]
  000cc	48 89 05 00 00
	00 00		 mov	 QWORD PTR glad_glWaitSync, rax

; 1410 :     glad_glGetInteger64v = (PFNGLGETINTEGER64VPROC)load("glGetInteger64v");

  000d3	48 8d 0d 00 00
	00 00		 lea	 rcx, OFFSET FLAT:??_C@_0BA@INMBOHGL@glGetInteger64v@
  000da	ff 55 50	 call	 QWORD PTR load$[rbp]
  000dd	48 89 05 00 00
	00 00		 mov	 QWORD PTR glad_glGetInteger64v, rax

; 1411 :     glad_glGetSynciv = (PFNGLGETSYNCIVPROC)load("glGetSynciv");

  000e4	48 8d 0d 00 00
	00 00		 lea	 rcx, OFFSET FLAT:??_C@_0M@MPEEOPIN@glGetSynciv@
  000eb	ff 55 50	 call	 QWORD PTR load$[rbp]
  000ee	48 89 05 00 00
	00 00		 mov	 QWORD PTR glad_glGetSynciv, rax

; 1412 :     glad_glGetInteger64i_v = (PFNGLGETINTEGER64I_VPROC)load("glGetInteger64i_v");

  000f5	48 8d 0d 00 00
	00 00		 lea	 rcx, OFFSET FLAT:??_C@_0BC@KOJILIEC@glGetInteger64i_v@
  000fc	ff 55 50	 call	 QWORD PTR load$[rbp]
  000ff	48 89 05 00 00
	00 00		 mov	 QWORD PTR glad_glGetInteger64i_v, rax

; 1413 :     glad_glGetBufferParameteri64v = (PFNGLGETBUFFERPARAMETERI64VPROC)load("glGetBufferParameteri64v");

  00106	48 8d 0d 00 00
	00 00		 lea	 rcx, OFFSET FLAT:??_C@_0BJ@KKBIDGPP@glGetBufferParameteri64v@
  0010d	ff 55 50	 call	 QWORD PTR load$[rbp]
  00110	48 89 05 00 00
	00 00		 mov	 QWORD PTR glad_glGetBufferParameteri64v, rax

; 1414 :     glad_glFramebufferTexture = (PFNGLFRAMEBUFFERTEXTUREPROC)load("glFramebufferTexture");

  00117	48 8d 0d 00 00
	00 00		 lea	 rcx, OFFSET FLAT:??_C@_0BF@ENLMLILA@glFramebufferTexture@
  0011e	ff 55 50	 call	 QWORD PTR load$[rbp]
  00121	48 89 05 00 00
	00 00		 mov	 QWORD PTR glad_glFramebufferTexture, rax

; 1415 :     glad_glTexImage2DMultisample = (PFNGLTEXIMAGE2DMULTISAMPLEPROC)load("glTexImage2DMultisample");

  00128	48 8d 0d 00 00
	00 00		 lea	 rcx, OFFSET FLAT:??_C@_0BI@FHDFLFA@glTexImage2DMultisample@
  0012f	ff 55 50	 call	 QWORD PTR load$[rbp]
  00132	48 89 05 00 00
	00 00		 mov	 QWORD PTR glad_glTexImage2DMultisample, rax

; 1416 :     glad_glTexImage3DMultisample = (PFNGLTEXIMAGE3DMULTISAMPLEPROC)load("glTexImage3DMultisample");

  00139	48 8d 0d 00 00
	00 00		 lea	 rcx, OFFSET FLAT:??_C@_0BI@JIHMLKCG@glTexImage3DMultisample@
  00140	ff 55 50	 call	 QWORD PTR load$[rbp]
  00143	48 89 05 00 00
	00 00		 mov	 QWORD PTR glad_glTexImage3DMultisample, rax

; 1417 :     glad_glGetMultisamplefv = (PFNGLGETMULTISAMPLEFVPROC)load("glGetMultisamplefv");

  0014a	48 8d 0d 00 00
	00 00		 lea	 rcx, OFFSET FLAT:??_C@_0BD@DHLIMGN@glGetMultisamplefv@
  00151	ff 55 50	 call	 QWORD PTR load$[rbp]
  00154	48 89 05 00 00
	00 00		 mov	 QWORD PTR glad_glGetMultisamplefv, rax

; 1418 :     glad_glSampleMaski = (PFNGLSAMPLEMASKIPROC)load("glSampleMaski");

  0015b	48 8d 0d 00 00
	00 00		 lea	 rcx, OFFSET FLAT:??_C@_0O@JNHBCHMB@glSampleMaski@
  00162	ff 55 50	 call	 QWORD PTR load$[rbp]
  00165	48 89 05 00 00
	00 00		 mov	 QWORD PTR glad_glSampleMaski, rax
$LN1@load_GL_VE:

; 1419 : }

  0016c	48 8d 65 40	 lea	 rsp, QWORD PTR [rbp+64]
  00170	5d		 pop	 rbp
  00171	c3		 ret	 0
load_GL_VERSION_3_2 ENDP
_TEXT	ENDS
; Function compile flags: /Odtp /ZI
; File D:\Programmer\GLenv\glad.c
;	COMDAT load_GL_VERSION_3_1
_TEXT	SEGMENT
load$ = 80
load_GL_VERSION_3_1 PROC				; COMDAT

; 1380 : static void load_GL_VERSION_3_1(GLADloadproc load) {

  00000	48 89 4c 24 08	 mov	 QWORD PTR [rsp+8], rcx
  00005	55		 push	 rbp
  00006	48 83 ec 60	 sub	 rsp, 96			; 00000060H
  0000a	48 8d 6c 24 20	 lea	 rbp, QWORD PTR [rsp+32]
  0000f	48 8d 0d 00 00
	00 00		 lea	 rcx, OFFSET FLAT:__2B68C239_glad@c
  00016	e8 00 00 00 00	 call	 __CheckForDebuggerJustMyCode

; 1381 :     if (!GLAD_GL_VERSION_3_1) return;

  0001b	83 3d 00 00 00
	00 00		 cmp	 DWORD PTR GLAD_GL_VERSION_3_1, 0
  00022	75 05		 jne	 SHORT $LN2@load_GL_VE
  00024	e9 ff 00 00 00	 jmp	 $LN1@load_GL_VE
$LN2@load_GL_VE:

; 1382 :     glad_glDrawArraysInstanced = (PFNGLDRAWARRAYSINSTANCEDPROC)load("glDrawArraysInstanced");

  00029	48 8d 0d 00 00
	00 00		 lea	 rcx, OFFSET FLAT:??_C@_0BG@HIOFINAN@glDrawArraysInstanced@
  00030	ff 55 50	 call	 QWORD PTR load$[rbp]
  00033	48 89 05 00 00
	00 00		 mov	 QWORD PTR glad_glDrawArraysInstanced, rax

; 1383 :     glad_glDrawElementsInstanced = (PFNGLDRAWELEMENTSINSTANCEDPROC)load("glDrawElementsInstanced");

  0003a	48 8d 0d 00 00
	00 00		 lea	 rcx, OFFSET FLAT:??_C@_0BI@CGJENFBH@glDrawElementsInstanced@
  00041	ff 55 50	 call	 QWORD PTR load$[rbp]
  00044	48 89 05 00 00
	00 00		 mov	 QWORD PTR glad_glDrawElementsInstanced, rax

; 1384 :     glad_glTexBuffer = (PFNGLTEXBUFFERPROC)load("glTexBuffer");

  0004b	48 8d 0d 00 00
	00 00		 lea	 rcx, OFFSET FLAT:??_C@_0M@IIMBBALL@glTexBuffer@
  00052	ff 55 50	 call	 QWORD PTR load$[rbp]
  00055	48 89 05 00 00
	00 00		 mov	 QWORD PTR glad_glTexBuffer, rax

; 1385 :     glad_glPrimitiveRestartIndex = (PFNGLPRIMITIVERESTARTINDEXPROC)load("glPrimitiveRestartIndex");

  0005c	48 8d 0d 00 00
	00 00		 lea	 rcx, OFFSET FLAT:??_C@_0BI@LJDLNGAF@glPrimitiveRestartIndex@
  00063	ff 55 50	 call	 QWORD PTR load$[rbp]
  00066	48 89 05 00 00
	00 00		 mov	 QWORD PTR glad_glPrimitiveRestartIndex, rax

; 1386 :     glad_glCopyBufferSubData = (PFNGLCOPYBUFFERSUBDATAPROC)load("glCopyBufferSubData");

  0006d	48 8d 0d 00 00
	00 00		 lea	 rcx, OFFSET FLAT:??_C@_0BE@EPKABDOG@glCopyBufferSubData@
  00074	ff 55 50	 call	 QWORD PTR load$[rbp]
  00077	48 89 05 00 00
	00 00		 mov	 QWORD PTR glad_glCopyBufferSubData, rax

; 1387 :     glad_glGetUniformIndices = (PFNGLGETUNIFORMINDICESPROC)load("glGetUniformIndices");

  0007e	48 8d 0d 00 00
	00 00		 lea	 rcx, OFFSET FLAT:??_C@_0BE@MDPMIDEE@glGetUniformIndices@
  00085	ff 55 50	 call	 QWORD PTR load$[rbp]
  00088	48 89 05 00 00
	00 00		 mov	 QWORD PTR glad_glGetUniformIndices, rax

; 1388 :     glad_glGetActiveUniformsiv = (PFNGLGETACTIVEUNIFORMSIVPROC)load("glGetActiveUniformsiv");

  0008f	48 8d 0d 00 00
	00 00		 lea	 rcx, OFFSET FLAT:??_C@_0BG@JEHIMPCG@glGetActiveUniformsiv@
  00096	ff 55 50	 call	 QWORD PTR load$[rbp]
  00099	48 89 05 00 00
	00 00		 mov	 QWORD PTR glad_glGetActiveUniformsiv, rax

; 1389 :     glad_glGetActiveUniformName = (PFNGLGETACTIVEUNIFORMNAMEPROC)load("glGetActiveUniformName");

  000a0	48 8d 0d 00 00
	00 00		 lea	 rcx, OFFSET FLAT:??_C@_0BH@EGGFHKJJ@glGetActiveUniformName@
  000a7	ff 55 50	 call	 QWORD PTR load$[rbp]
  000aa	48 89 05 00 00
	00 00		 mov	 QWORD PTR glad_glGetActiveUniformName, rax

; 1390 :     glad_glGetUniformBlockIndex = (PFNGLGETUNIFORMBLOCKINDEXPROC)load("glGetUniformBlockIndex");

  000b1	48 8d 0d 00 00
	00 00		 lea	 rcx, OFFSET FLAT:??_C@_0BH@CBDIMHHE@glGetUniformBlockIndex@
  000b8	ff 55 50	 call	 QWORD PTR load$[rbp]
  000bb	48 89 05 00 00
	00 00		 mov	 QWORD PTR glad_glGetUniformBlockIndex, rax

; 1391 :     glad_glGetActiveUniformBlockiv = (PFNGLGETACTIVEUNIFORMBLOCKIVPROC)load("glGetActiveUniformBlockiv");

  000c2	48 8d 0d 00 00
	00 00		 lea	 rcx, OFFSET FLAT:??_C@_0BK@DMHOPJGL@glGetActiveUniformBlockiv@
  000c9	ff 55 50	 call	 QWORD PTR load$[rbp]
  000cc	48 89 05 00 00
	00 00		 mov	 QWORD PTR glad_glGetActiveUniformBlockiv, rax

; 1392 :     glad_glGetActiveUniformBlockName = (PFNGLGETACTIVEUNIFORMBLOCKNAMEPROC)load("glGetActiveUniformBlockName");

  000d3	48 8d 0d 00 00
	00 00		 lea	 rcx, OFFSET FLAT:??_C@_0BM@KEMCJPAJ@glGetActiveUniformBlockName@
  000da	ff 55 50	 call	 QWORD PTR load$[rbp]
  000dd	48 89 05 00 00
	00 00		 mov	 QWORD PTR glad_glGetActiveUniformBlockName, rax

; 1393 :     glad_glUniformBlockBinding = (PFNGLUNIFORMBLOCKBINDINGPROC)load("glUniformBlockBinding");

  000e4	48 8d 0d 00 00
	00 00		 lea	 rcx, OFFSET FLAT:??_C@_0BG@BOLEKKCP@glUniformBlockBinding@
  000eb	ff 55 50	 call	 QWORD PTR load$[rbp]
  000ee	48 89 05 00 00
	00 00		 mov	 QWORD PTR glad_glUniformBlockBinding, rax

; 1394 :     glad_glBindBufferRange = (PFNGLBINDBUFFERRANGEPROC)load("glBindBufferRange");

  000f5	48 8d 0d 00 00
	00 00		 lea	 rcx, OFFSET FLAT:??_C@_0BC@EEMMCHMB@glBindBufferRange@
  000fc	ff 55 50	 call	 QWORD PTR load$[rbp]
  000ff	48 89 05 00 00
	00 00		 mov	 QWORD PTR glad_glBindBufferRange, rax

; 1395 :     glad_glBindBufferBase = (PFNGLBINDBUFFERBASEPROC)load("glBindBufferBase");

  00106	48 8d 0d 00 00
	00 00		 lea	 rcx, OFFSET FLAT:??_C@_0BB@LDPKOCJI@glBindBufferBase@
  0010d	ff 55 50	 call	 QWORD PTR load$[rbp]
  00110	48 89 05 00 00
	00 00		 mov	 QWORD PTR glad_glBindBufferBase, rax

; 1396 :     glad_glGetIntegeri_v = (PFNGLGETINTEGERI_VPROC)load("glGetIntegeri_v");

  00117	48 8d 0d 00 00
	00 00		 lea	 rcx, OFFSET FLAT:??_C@_0BA@FKCNNMFO@glGetIntegeri_v@
  0011e	ff 55 50	 call	 QWORD PTR load$[rbp]
  00121	48 89 05 00 00
	00 00		 mov	 QWORD PTR glad_glGetIntegeri_v, rax
$LN1@load_GL_VE:

; 1397 : }

  00128	48 8d 65 40	 lea	 rsp, QWORD PTR [rbp+64]
  0012c	5d		 pop	 rbp
  0012d	c3		 ret	 0
load_GL_VERSION_3_1 ENDP
_TEXT	ENDS
; Function compile flags: /Odtp /ZI
; File D:\Programmer\GLenv\glad.c
;	COMDAT load_GL_VERSION_3_0
_TEXT	SEGMENT
load$ = 80
load_GL_VERSION_3_0 PROC				; COMDAT

; 1293 : static void load_GL_VERSION_3_0(GLADloadproc load) {

  00000	48 89 4c 24 08	 mov	 QWORD PTR [rsp+8], rcx
  00005	55		 push	 rbp
  00006	48 83 ec 60	 sub	 rsp, 96			; 00000060H
  0000a	48 8d 6c 24 20	 lea	 rbp, QWORD PTR [rsp+32]
  0000f	48 8d 0d 00 00
	00 00		 lea	 rcx, OFFSET FLAT:__2B68C239_glad@c
  00016	e8 00 00 00 00	 call	 __CheckForDebuggerJustMyCode

; 1294 :     if (!GLAD_GL_VERSION_3_0) return;

  0001b	83 3d 00 00 00
	00 00		 cmp	 DWORD PTR GLAD_GL_VERSION_3_0, 0
  00022	75 05		 jne	 SHORT $LN2@load_GL_VE
  00024	e9 94 05 00 00	 jmp	 $LN1@load_GL_VE
$LN2@load_GL_VE:

; 1295 :     glad_glColorMaski = (PFNGLCOLORMASKIPROC)load("glColorMaski");

  00029	48 8d 0d 00 00
	00 00		 lea	 rcx, OFFSET FLAT:??_C@_0N@JHNNNJFG@glColorMaski@
  00030	ff 55 50	 call	 QWORD PTR load$[rbp]
  00033	48 89 05 00 00
	00 00		 mov	 QWORD PTR glad_glColorMaski, rax

; 1296 :     glad_glGetBooleani_v = (PFNGLGETBOOLEANI_VPROC)load("glGetBooleani_v");

  0003a	48 8d 0d 00 00
	00 00		 lea	 rcx, OFFSET FLAT:??_C@_0BA@OAKNOBP@glGetBooleani_v@
  00041	ff 55 50	 call	 QWORD PTR load$[rbp]
  00044	48 89 05 00 00
	00 00		 mov	 QWORD PTR glad_glGetBooleani_v, rax

; 1297 :     glad_glGetIntegeri_v = (PFNGLGETINTEGERI_VPROC)load("glGetIntegeri_v");

  0004b	48 8d 0d 00 00
	00 00		 lea	 rcx, OFFSET FLAT:??_C@_0BA@FKCNNMFO@glGetIntegeri_v@
  00052	ff 55 50	 call	 QWORD PTR load$[rbp]
  00055	48 89 05 00 00
	00 00		 mov	 QWORD PTR glad_glGetIntegeri_v, rax

; 1298 :     glad_glEnablei = (PFNGLENABLEIPROC)load("glEnablei");

  0005c	48 8d 0d 00 00
	00 00		 lea	 rcx, OFFSET FLAT:??_C@_09IEGEGIEN@glEnablei@
  00063	ff 55 50	 call	 QWORD PTR load$[rbp]
  00066	48 89 05 00 00
	00 00		 mov	 QWORD PTR glad_glEnablei, rax

; 1299 :     glad_glDisablei = (PFNGLDISABLEIPROC)load("glDisablei");

  0006d	48 8d 0d 00 00
	00 00		 lea	 rcx, OFFSET FLAT:??_C@_0L@BMJPGDDH@glDisablei@
  00074	ff 55 50	 call	 QWORD PTR load$[rbp]
  00077	48 89 05 00 00
	00 00		 mov	 QWORD PTR glad_glDisablei, rax

; 1300 :     glad_glIsEnabledi = (PFNGLISENABLEDIPROC)load("glIsEnabledi");

  0007e	48 8d 0d 00 00
	00 00		 lea	 rcx, OFFSET FLAT:??_C@_0N@IMGKGOKN@glIsEnabledi@
  00085	ff 55 50	 call	 QWORD PTR load$[rbp]
  00088	48 89 05 00 00
	00 00		 mov	 QWORD PTR glad_glIsEnabledi, rax

; 1301 :     glad_glBeginTransformFeedback = (PFNGLBEGINTRANSFORMFEEDBACKPROC)load("glBeginTransformFeedback");

  0008f	48 8d 0d 00 00
	00 00		 lea	 rcx, OFFSET FLAT:??_C@_0BJ@FHJKOECC@glBeginTransformFeedback@
  00096	ff 55 50	 call	 QWORD PTR load$[rbp]
  00099	48 89 05 00 00
	00 00		 mov	 QWORD PTR glad_glBeginTransformFeedback, rax

; 1302 :     glad_glEndTransformFeedback = (PFNGLENDTRANSFORMFEEDBACKPROC)load("glEndTransformFeedback");

  000a0	48 8d 0d 00 00
	00 00		 lea	 rcx, OFFSET FLAT:??_C@_0BH@LCFLNNBH@glEndTransformFeedback@
  000a7	ff 55 50	 call	 QWORD PTR load$[rbp]
  000aa	48 89 05 00 00
	00 00		 mov	 QWORD PTR glad_glEndTransformFeedback, rax

; 1303 :     glad_glBindBufferRange = (PFNGLBINDBUFFERRANGEPROC)load("glBindBufferRange");

  000b1	48 8d 0d 00 00
	00 00		 lea	 rcx, OFFSET FLAT:??_C@_0BC@EEMMCHMB@glBindBufferRange@
  000b8	ff 55 50	 call	 QWORD PTR load$[rbp]
  000bb	48 89 05 00 00
	00 00		 mov	 QWORD PTR glad_glBindBufferRange, rax

; 1304 :     glad_glBindBufferBase = (PFNGLBINDBUFFERBASEPROC)load("glBindBufferBase");

  000c2	48 8d 0d 00 00
	00 00		 lea	 rcx, OFFSET FLAT:??_C@_0BB@LDPKOCJI@glBindBufferBase@
  000c9	ff 55 50	 call	 QWORD PTR load$[rbp]
  000cc	48 89 05 00 00
	00 00		 mov	 QWORD PTR glad_glBindBufferBase, rax

; 1305 :     glad_glTransformFeedbackVaryings = (PFNGLTRANSFORMFEEDBACKVARYINGSPROC)load("glTransformFeedbackVaryings");

  000d3	48 8d 0d 00 00
	00 00		 lea	 rcx, OFFSET FLAT:??_C@_0BM@IJFAKBEF@glTransformFeedbackVaryings@
  000da	ff 55 50	 call	 QWORD PTR load$[rbp]
  000dd	48 89 05 00 00
	00 00		 mov	 QWORD PTR glad_glTransformFeedbackVaryings, rax

; 1306 :     glad_glGetTransformFeedbackVarying = (PFNGLGETTRANSFORMFEEDBACKVARYINGPROC)load("glGetTransformFeedbackVarying");

  000e4	48 8d 0d 00 00
	00 00		 lea	 rcx, OFFSET FLAT:??_C@_0BO@ODFLPNG@glGetTransformFeedbackVarying@
  000eb	ff 55 50	 call	 QWORD PTR load$[rbp]
  000ee	48 89 05 00 00
	00 00		 mov	 QWORD PTR glad_glGetTransformFeedbackVarying, rax

; 1307 :     glad_glClampColor = (PFNGLCLAMPCOLORPROC)load("glClampColor");

  000f5	48 8d 0d 00 00
	00 00		 lea	 rcx, OFFSET FLAT:??_C@_0N@HLGAGIMI@glClampColor@
  000fc	ff 55 50	 call	 QWORD PTR load$[rbp]
  000ff	48 89 05 00 00
	00 00		 mov	 QWORD PTR glad_glClampColor, rax

; 1308 :     glad_glBeginConditionalRender = (PFNGLBEGINCONDITIONALRENDERPROC)load("glBeginConditionalRender");

  00106	48 8d 0d 00 00
	00 00		 lea	 rcx, OFFSET FLAT:??_C@_0BJ@EHEPIEPF@glBeginConditionalRender@
  0010d	ff 55 50	 call	 QWORD PTR load$[rbp]
  00110	48 89 05 00 00
	00 00		 mov	 QWORD PTR glad_glBeginConditionalRender, rax

; 1309 :     glad_glEndConditionalRender = (PFNGLENDCONDITIONALRENDERPROC)load("glEndConditionalRender");

  00117	48 8d 0d 00 00
	00 00		 lea	 rcx, OFFSET FLAT:??_C@_0BH@KCIOLNMA@glEndConditionalRender@
  0011e	ff 55 50	 call	 QWORD PTR load$[rbp]
  00121	48 89 05 00 00
	00 00		 mov	 QWORD PTR glad_glEndConditionalRender, rax

; 1310 :     glad_glVertexAttribIPointer = (PFNGLVERTEXATTRIBIPOINTERPROC)load("glVertexAttribIPointer");

  00128	48 8d 0d 00 00
	00 00		 lea	 rcx, OFFSET FLAT:??_C@_0BH@NLOEHKCD@glVertexAttribIPointer@
  0012f	ff 55 50	 call	 QWORD PTR load$[rbp]
  00132	48 89 05 00 00
	00 00		 mov	 QWORD PTR glad_glVertexAttribIPointer, rax

; 1311 :     glad_glGetVertexAttribIiv = (PFNGLGETVERTEXATTRIBIIVPROC)load("glGetVertexAttribIiv");

  00139	48 8d 0d 00 00
	00 00		 lea	 rcx, OFFSET FLAT:??_C@_0BF@KPDNEONP@glGetVertexAttribIiv@
  00140	ff 55 50	 call	 QWORD PTR load$[rbp]
  00143	48 89 05 00 00
	00 00		 mov	 QWORD PTR glad_glGetVertexAttribIiv, rax

; 1312 :     glad_glGetVertexAttribIuiv = (PFNGLGETVERTEXATTRIBIUIVPROC)load("glGetVertexAttribIuiv");

  0014a	48 8d 0d 00 00
	00 00		 lea	 rcx, OFFSET FLAT:??_C@_0BG@GCBDCABB@glGetVertexAttribIuiv@
  00151	ff 55 50	 call	 QWORD PTR load$[rbp]
  00154	48 89 05 00 00
	00 00		 mov	 QWORD PTR glad_glGetVertexAttribIuiv, rax

; 1313 :     glad_glVertexAttribI1i = (PFNGLVERTEXATTRIBI1IPROC)load("glVertexAttribI1i");

  0015b	48 8d 0d 00 00
	00 00		 lea	 rcx, OFFSET FLAT:??_C@_0BC@CDIIMMAL@glVertexAttribI1i@
  00162	ff 55 50	 call	 QWORD PTR load$[rbp]
  00165	48 89 05 00 00
	00 00		 mov	 QWORD PTR glad_glVertexAttribI1i, rax

; 1314 :     glad_glVertexAttribI2i = (PFNGLVERTEXATTRIBI2IPROC)load("glVertexAttribI2i");

  0016c	48 8d 0d 00 00
	00 00		 lea	 rcx, OFFSET FLAT:??_C@_0BC@CBMOHCFC@glVertexAttribI2i@
  00173	ff 55 50	 call	 QWORD PTR load$[rbp]
  00176	48 89 05 00 00
	00 00		 mov	 QWORD PTR glad_glVertexAttribI2i, rax

; 1315 :     glad_glVertexAttribI3i = (PFNGLVERTEXATTRIBI3IPROC)load("glVertexAttribI3i");

  0017d	48 8d 0d 00 00
	00 00		 lea	 rcx, OFFSET FLAT:??_C@_0BC@CAAMBIGF@glVertexAttribI3i@
  00184	ff 55 50	 call	 QWORD PTR load$[rbp]
  00187	48 89 05 00 00
	00 00		 mov	 QWORD PTR glad_glVertexAttribI3i, rax

; 1316 :     glad_glVertexAttribI4i = (PFNGLVERTEXATTRIBI4IPROC)load("glVertexAttribI4i");

  0018e	48 8d 0d 00 00
	00 00		 lea	 rcx, OFFSET FLAT:??_C@_0BC@CFEDAOOA@glVertexAttribI4i@
  00195	ff 55 50	 call	 QWORD PTR load$[rbp]
  00198	48 89 05 00 00
	00 00		 mov	 QWORD PTR glad_glVertexAttribI4i, rax

; 1317 :     glad_glVertexAttribI1ui = (PFNGLVERTEXATTRIBI1UIPROC)load("glVertexAttribI1ui");

  0019f	48 8d 0d 00 00
	00 00		 lea	 rcx, OFFSET FLAT:??_C@_0BD@DGPCNLLO@glVertexAttribI1ui@
  001a6	ff 55 50	 call	 QWORD PTR load$[rbp]
  001a9	48 89 05 00 00
	00 00		 mov	 QWORD PTR glad_glVertexAttribI1ui, rax

; 1318 :     glad_glVertexAttribI2ui = (PFNGLVERTEXATTRIBI2UIPROC)load("glVertexAttribI2ui");

  001b0	48 8d 0d 00 00
	00 00		 lea	 rcx, OFFSET FLAT:??_C@_0BD@CEEHHEFA@glVertexAttribI2ui@
  001b7	ff 55 50	 call	 QWORD PTR load$[rbp]
  001ba	48 89 05 00 00
	00 00		 mov	 QWORD PTR glad_glVertexAttribI2ui, rax

; 1319 :     glad_glVertexAttribI3ui = (PFNGLVERTEXATTRIBI3UIPROC)load("glVertexAttribI3ui");

  001c1	48 8d 0d 00 00
	00 00		 lea	 rcx, OFFSET FLAT:??_C@_0BD@JMPLBDDF@glVertexAttribI3ui@
  001c8	ff 55 50	 call	 QWORD PTR load$[rbp]
  001cb	48 89 05 00 00
	00 00		 mov	 QWORD PTR glad_glVertexAttribI3ui, rax

; 1320 :     glad_glVertexAttribI4ui = (PFNGLVERTEXATTRIBI4UIPROC)load("glVertexAttribI4ui");

  001d2	48 8d 0d 00 00
	00 00		 lea	 rcx, OFFSET FLAT:??_C@_0BD@BCMCLIM@glVertexAttribI4ui@
  001d9	ff 55 50	 call	 QWORD PTR load$[rbp]
  001dc	48 89 05 00 00
	00 00		 mov	 QWORD PTR glad_glVertexAttribI4ui, rax

; 1321 :     glad_glVertexAttribI1iv = (PFNGLVERTEXATTRIBI1IVPROC)load("glVertexAttribI1iv");

  001e3	48 8d 0d 00 00
	00 00		 lea	 rcx, OFFSET FLAT:??_C@_0BD@OOJEIPDE@glVertexAttribI1iv@
  001ea	ff 55 50	 call	 QWORD PTR load$[rbp]
  001ed	48 89 05 00 00
	00 00		 mov	 QWORD PTR glad_glVertexAttribI1iv, rax

; 1322 :     glad_glVertexAttribI2iv = (PFNGLVERTEXATTRIBI2IVPROC)load("glVertexAttribI2iv");

  001f4	48 8d 0d 00 00
	00 00		 lea	 rcx, OFFSET FLAT:??_C@_0BD@PMCBCANK@glVertexAttribI2iv@
  001fb	ff 55 50	 call	 QWORD PTR load$[rbp]
  001fe	48 89 05 00 00
	00 00		 mov	 QWORD PTR glad_glVertexAttribI2iv, rax

; 1323 :     glad_glVertexAttribI3iv = (PFNGLVERTEXATTRIBI3IVPROC)load("glVertexAttribI3iv");

  00205	48 8d 0d 00 00
	00 00		 lea	 rcx, OFFSET FLAT:??_C@_0BD@EEJNEHLP@glVertexAttribI3iv@
  0020c	ff 55 50	 call	 QWORD PTR load$[rbp]
  0020f	48 89 05 00 00
	00 00		 mov	 QWORD PTR glad_glVertexAttribI3iv, rax

; 1324 :     glad_glVertexAttribI4iv = (PFNGLVERTEXATTRIBI4IVPROC)load("glVertexAttribI4iv");

  00216	48 8d 0d 00 00
	00 00		 lea	 rcx, OFFSET FLAT:??_C@_0BD@NJEKHPAG@glVertexAttribI4iv@
  0021d	ff 55 50	 call	 QWORD PTR load$[rbp]
  00220	48 89 05 00 00
	00 00		 mov	 QWORD PTR glad_glVertexAttribI4iv, rax

; 1325 :     glad_glVertexAttribI1uiv = (PFNGLVERTEXATTRIBI1UIVPROC)load("glVertexAttribI1uiv");

  00227	48 8d 0d 00 00
	00 00		 lea	 rcx, OFFSET FLAT:??_C@_0BE@FFIKLCCA@glVertexAttribI1uiv@
  0022e	ff 55 50	 call	 QWORD PTR load$[rbp]
  00231	48 89 05 00 00
	00 00		 mov	 QWORD PTR glad_glVertexAttribI1uiv, rax

; 1326 :     glad_glVertexAttribI2uiv = (PFNGLVERTEXATTRIBI2UIVPROC)load("glVertexAttribI2uiv");

  00238	48 8d 0d 00 00
	00 00		 lea	 rcx, OFFSET FLAT:??_C@_0BE@BCCKMIPA@glVertexAttribI2uiv@
  0023f	ff 55 50	 call	 QWORD PTR load$[rbp]
  00242	48 89 05 00 00
	00 00		 mov	 QWORD PTR glad_glVertexAttribI2uiv, rax

; 1327 :     glad_glVertexAttribI3uiv = (PFNGLVERTEXATTRIBI3UIVPROC)load("glVertexAttribI3uiv");

  00249	48 8d 0d 00 00
	00 00		 lea	 rcx, OFFSET FLAT:??_C@_0BE@CPEKOBEA@glVertexAttribI3uiv@
  00250	ff 55 50	 call	 QWORD PTR load$[rbp]
  00253	48 89 05 00 00
	00 00		 mov	 QWORD PTR glad_glVertexAttribI3uiv, rax

; 1328 :     glad_glVertexAttribI4uiv = (PFNGLVERTEXATTRIBI4UIVPROC)load("glVertexAttribI4uiv");

  0025a	48 8d 0d 00 00
	00 00		 lea	 rcx, OFFSET FLAT:??_C@_0BE@JNGKDNFA@glVertexAttribI4uiv@
  00261	ff 55 50	 call	 QWORD PTR load$[rbp]
  00264	48 89 05 00 00
	00 00		 mov	 QWORD PTR glad_glVertexAttribI4uiv, rax

; 1329 :     glad_glVertexAttribI4bv = (PFNGLVERTEXATTRIBI4BVPROC)load("glVertexAttribI4bv");

  0026b	48 8d 0d 00 00
	00 00		 lea	 rcx, OFFSET FLAT:??_C@_0BD@NFBPJAOH@glVertexAttribI4bv@
  00272	ff 55 50	 call	 QWORD PTR load$[rbp]
  00275	48 89 05 00 00
	00 00		 mov	 QWORD PTR glad_glVertexAttribI4bv, rax

; 1330 :     glad_glVertexAttribI4sv = (PFNGLVERTEXATTRIBI4SVPROC)load("glVertexAttribI4sv");

  0027c	48 8d 0d 00 00
	00 00		 lea	 rcx, OFFSET FLAT:??_C@_0BD@MIPLFJKA@glVertexAttribI4sv@
  00283	ff 55 50	 call	 QWORD PTR load$[rbp]
  00286	48 89 05 00 00
	00 00		 mov	 QWORD PTR glad_glVertexAttribI4sv, rax

; 1331 :     glad_glVertexAttribI4ubv = (PFNGLVERTEXATTRIBI4UBVPROC)load("glVertexAttribI4ubv");

  0028d	48 8d 0d 00 00
	00 00		 lea	 rcx, OFFSET FLAT:??_C@_0BE@JBDPNCLB@glVertexAttribI4ubv@
  00294	ff 55 50	 call	 QWORD PTR load$[rbp]
  00297	48 89 05 00 00
	00 00		 mov	 QWORD PTR glad_glVertexAttribI4ubv, rax

; 1332 :     glad_glVertexAttribI4usv = (PFNGLVERTEXATTRIBI4USVPROC)load("glVertexAttribI4usv");

  0029e	48 8d 0d 00 00
	00 00		 lea	 rcx, OFFSET FLAT:??_C@_0BE@IMNLBLPG@glVertexAttribI4usv@
  002a5	ff 55 50	 call	 QWORD PTR load$[rbp]
  002a8	48 89 05 00 00
	00 00		 mov	 QWORD PTR glad_glVertexAttribI4usv, rax

; 1333 :     glad_glGetUniformuiv = (PFNGLGETUNIFORMUIVPROC)load("glGetUniformuiv");

  002af	48 8d 0d 00 00
	00 00		 lea	 rcx, OFFSET FLAT:??_C@_0BA@NIGECFIF@glGetUniformuiv@
  002b6	ff 55 50	 call	 QWORD PTR load$[rbp]
  002b9	48 89 05 00 00
	00 00		 mov	 QWORD PTR glad_glGetUniformuiv, rax

; 1334 :     glad_glBindFragDataLocation = (PFNGLBINDFRAGDATALOCATIONPROC)load("glBindFragDataLocation");

  002c0	48 8d 0d 00 00
	00 00		 lea	 rcx, OFFSET FLAT:??_C@_0BH@DLJLAGBA@glBindFragDataLocation@
  002c7	ff 55 50	 call	 QWORD PTR load$[rbp]
  002ca	48 89 05 00 00
	00 00		 mov	 QWORD PTR glad_glBindFragDataLocation, rax

; 1335 :     glad_glGetFragDataLocation = (PFNGLGETFRAGDATALOCATIONPROC)load("glGetFragDataLocation");

  002d1	48 8d 0d 00 00
	00 00		 lea	 rcx, OFFSET FLAT:??_C@_0BG@NDOIGAMC@glGetFragDataLocation@
  002d8	ff 55 50	 call	 QWORD PTR load$[rbp]
  002db	48 89 05 00 00
	00 00		 mov	 QWORD PTR glad_glGetFragDataLocation, rax

; 1336 :     glad_glUniform1ui = (PFNGLUNIFORM1UIPROC)load("glUniform1ui");

  002e2	48 8d 0d 00 00
	00 00		 lea	 rcx, OFFSET FLAT:??_C@_0N@HKPEFJDP@glUniform1ui@
  002e9	ff 55 50	 call	 QWORD PTR load$[rbp]
  002ec	48 89 05 00 00
	00 00		 mov	 QWORD PTR glad_glUniform1ui, rax

; 1337 :     glad_glUniform2ui = (PFNGLUNIFORM2UIPROC)load("glUniform2ui");

  002f3	48 8d 0d 00 00
	00 00		 lea	 rcx, OFFSET FLAT:??_C@_0N@GIEBPGNB@glUniform2ui@
  002fa	ff 55 50	 call	 QWORD PTR load$[rbp]
  002fd	48 89 05 00 00
	00 00		 mov	 QWORD PTR glad_glUniform2ui, rax

; 1338 :     glad_glUniform3ui = (PFNGLUNIFORM3UIPROC)load("glUniform3ui");

  00304	48 8d 0d 00 00
	00 00		 lea	 rcx, OFFSET FLAT:??_C@_0N@NAPNJBLE@glUniform3ui@
  0030b	ff 55 50	 call	 QWORD PTR load$[rbp]
  0030e	48 89 05 00 00
	00 00		 mov	 QWORD PTR glad_glUniform3ui, rax

; 1339 :     glad_glUniform4ui = (PFNGLUNIFORM4UIPROC)load("glUniform4ui");

  00315	48 8d 0d 00 00
	00 00		 lea	 rcx, OFFSET FLAT:??_C@_0N@ENCKKJAN@glUniform4ui@
  0031c	ff 55 50	 call	 QWORD PTR load$[rbp]
  0031f	48 89 05 00 00
	00 00		 mov	 QWORD PTR glad_glUniform4ui, rax

; 1340 :     glad_glUniform1uiv = (PFNGLUNIFORM1UIVPROC)load("glUniform1uiv");

  00326	48 8d 0d 00 00
	00 00		 lea	 rcx, OFFSET FLAT:??_C@_0O@MPHJAHBE@glUniform1uiv@
  0032d	ff 55 50	 call	 QWORD PTR load$[rbp]
  00330	48 89 05 00 00
	00 00		 mov	 QWORD PTR glad_glUniform1uiv, rax

; 1341 :     glad_glUniform2uiv = (PFNGLUNIFORM2UIVPROC)load("glUniform2uiv");

  00337	48 8d 0d 00 00
	00 00		 lea	 rcx, OFFSET FLAT:??_C@_0O@IINJHNME@glUniform2uiv@
  0033e	ff 55 50	 call	 QWORD PTR load$[rbp]
  00341	48 89 05 00 00
	00 00		 mov	 QWORD PTR glad_glUniform2uiv, rax

; 1342 :     glad_glUniform3uiv = (PFNGLUNIFORM3UIVPROC)load("glUniform3uiv");

  00348	48 8d 0d 00 00
	00 00		 lea	 rcx, OFFSET FLAT:??_C@_0O@LFLJFEHE@glUniform3uiv@
  0034f	ff 55 50	 call	 QWORD PTR load$[rbp]
  00352	48 89 05 00 00
	00 00		 mov	 QWORD PTR glad_glUniform3uiv, rax

; 1343 :     glad_glUniform4uiv = (PFNGLUNIFORM4UIVPROC)load("glUniform4uiv");

  00359	48 8d 0d 00 00
	00 00		 lea	 rcx, OFFSET FLAT:??_C@_0O@HJJIIGE@glUniform4uiv@
  00360	ff 55 50	 call	 QWORD PTR load$[rbp]
  00363	48 89 05 00 00
	00 00		 mov	 QWORD PTR glad_glUniform4uiv, rax

; 1344 :     glad_glTexParameterIiv = (PFNGLTEXPARAMETERIIVPROC)load("glTexParameterIiv");

  0036a	48 8d 0d 00 00
	00 00		 lea	 rcx, OFFSET FLAT:??_C@_0BC@MAFJKEHB@glTexParameterIiv@
  00371	ff 55 50	 call	 QWORD PTR load$[rbp]
  00374	48 89 05 00 00
	00 00		 mov	 QWORD PTR glad_glTexParameterIiv, rax

; 1345 :     glad_glTexParameterIuiv = (PFNGLTEXPARAMETERIUIVPROC)load("glTexParameterIuiv");

  0037b	48 8d 0d 00 00
	00 00		 lea	 rcx, OFFSET FLAT:??_C@_0BD@FDBCMKBE@glTexParameterIuiv@
  00382	ff 55 50	 call	 QWORD PTR load$[rbp]
  00385	48 89 05 00 00
	00 00		 mov	 QWORD PTR glad_glTexParameterIuiv, rax

; 1346 :     glad_glGetTexParameterIiv = (PFNGLGETTEXPARAMETERIIVPROC)load("glGetTexParameterIiv");

  0038c	48 8d 0d 00 00
	00 00		 lea	 rcx, OFFSET FLAT:??_C@_0BF@ODBJFHDD@glGetTexParameterIiv@
  00393	ff 55 50	 call	 QWORD PTR load$[rbp]
  00396	48 89 05 00 00
	00 00		 mov	 QWORD PTR glad_glGetTexParameterIiv, rax

; 1347 :     glad_glGetTexParameterIuiv = (PFNGLGETTEXPARAMETERIUIVPROC)load("glGetTexParameterIuiv");

  0039d	48 8d 0d 00 00
	00 00		 lea	 rcx, OFFSET FLAT:??_C@_0BG@MLODKKFL@glGetTexParameterIuiv@
  003a4	ff 55 50	 call	 QWORD PTR load$[rbp]
  003a7	48 89 05 00 00
	00 00		 mov	 QWORD PTR glad_glGetTexParameterIuiv, rax

; 1348 :     glad_glClearBufferiv = (PFNGLCLEARBUFFERIVPROC)load("glClearBufferiv");

  003ae	48 8d 0d 00 00
	00 00		 lea	 rcx, OFFSET FLAT:??_C@_0BA@CGCJAEIN@glClearBufferiv@
  003b5	ff 55 50	 call	 QWORD PTR load$[rbp]
  003b8	48 89 05 00 00
	00 00		 mov	 QWORD PTR glad_glClearBufferiv, rax

; 1349 :     glad_glClearBufferuiv = (PFNGLCLEARBUFFERUIVPROC)load("glClearBufferuiv");

  003bf	48 8d 0d 00 00
	00 00		 lea	 rcx, OFFSET FLAT:??_C@_0BB@OHPPAEID@glClearBufferuiv@
  003c6	ff 55 50	 call	 QWORD PTR load$[rbp]
  003c9	48 89 05 00 00
	00 00		 mov	 QWORD PTR glad_glClearBufferuiv, rax

; 1350 :     glad_glClearBufferfv = (PFNGLCLEARBUFFERFVPROC)load("glClearBufferfv");

  003d0	48 8d 0d 00 00
	00 00		 lea	 rcx, OFFSET FLAT:??_C@_0BA@CNHFEDLA@glClearBufferfv@
  003d7	ff 55 50	 call	 QWORD PTR load$[rbp]
  003da	48 89 05 00 00
	00 00		 mov	 QWORD PTR glad_glClearBufferfv, rax

; 1351 :     glad_glClearBufferfi = (PFNGLCLEARBUFFERFIPROC)load("glClearBufferfi");

  003e1	48 8d 0d 00 00
	00 00		 lea	 rcx, OFFSET FLAT:??_C@_0BA@OACPENCO@glClearBufferfi@
  003e8	ff 55 50	 call	 QWORD PTR load$[rbp]
  003eb	48 89 05 00 00
	00 00		 mov	 QWORD PTR glad_glClearBufferfi, rax

; 1352 :     glad_glGetStringi = (PFNGLGETSTRINGIPROC)load("glGetStringi");

  003f2	48 8d 0d 00 00
	00 00		 lea	 rcx, OFFSET FLAT:??_C@_0N@PILJCBOD@glGetStringi@
  003f9	ff 55 50	 call	 QWORD PTR load$[rbp]
  003fc	48 89 05 00 00
	00 00		 mov	 QWORD PTR glad_glGetStringi, rax

; 1353 :     glad_glIsRenderbuffer = (PFNGLISRENDERBUFFERPROC)load("glIsRenderbuffer");

  00403	48 8d 0d 00 00
	00 00		 lea	 rcx, OFFSET FLAT:??_C@_0BB@DGGHKKOH@glIsRenderbuffer@
  0040a	ff 55 50	 call	 QWORD PTR load$[rbp]
  0040d	48 89 05 00 00
	00 00		 mov	 QWORD PTR glad_glIsRenderbuffer, rax

; 1354 :     glad_glBindRenderbuffer = (PFNGLBINDRENDERBUFFERPROC)load("glBindRenderbuffer");

  00414	48 8d 0d 00 00
	00 00		 lea	 rcx, OFFSET FLAT:??_C@_0BD@EPOPJGFA@glBindRenderbuffer@
  0041b	ff 55 50	 call	 QWORD PTR load$[rbp]
  0041e	48 89 05 00 00
	00 00		 mov	 QWORD PTR glad_glBindRenderbuffer, rax

; 1355 :     glad_glDeleteRenderbuffers = (PFNGLDELETERENDERBUFFERSPROC)load("glDeleteRenderbuffers");

  00425	48 8d 0d 00 00
	00 00		 lea	 rcx, OFFSET FLAT:??_C@_0BG@KKOKEJDE@glDeleteRenderbuffers@
  0042c	ff 55 50	 call	 QWORD PTR load$[rbp]
  0042f	48 89 05 00 00
	00 00		 mov	 QWORD PTR glad_glDeleteRenderbuffers, rax

; 1356 :     glad_glGenRenderbuffers = (PFNGLGENRENDERBUFFERSPROC)load("glGenRenderbuffers");

  00436	48 8d 0d 00 00
	00 00		 lea	 rcx, OFFSET FLAT:??_C@_0BD@MIGEDNGJ@glGenRenderbuffers@
  0043d	ff 55 50	 call	 QWORD PTR load$[rbp]
  00440	48 89 05 00 00
	00 00		 mov	 QWORD PTR glad_glGenRenderbuffers, rax

; 1357 :     glad_glRenderbufferStorage = (PFNGLRENDERBUFFERSTORAGEPROC)load("glRenderbufferStorage");

  00447	48 8d 0d 00 00
	00 00		 lea	 rcx, OFFSET FLAT:??_C@_0BG@EOIILGMJ@glRenderbufferStorage@
  0044e	ff 55 50	 call	 QWORD PTR load$[rbp]
  00451	48 89 05 00 00
	00 00		 mov	 QWORD PTR glad_glRenderbufferStorage, rax

; 1358 :     glad_glGetRenderbufferParameteriv = (PFNGLGETRENDERBUFFERPARAMETERIVPROC)load("glGetRenderbufferParameteriv");

  00458	48 8d 0d 00 00
	00 00		 lea	 rcx, OFFSET FLAT:??_C@_0BN@FGKAECKO@glGetRenderbufferParameteriv@
  0045f	ff 55 50	 call	 QWORD PTR load$[rbp]
  00462	48 89 05 00 00
	00 00		 mov	 QWORD PTR glad_glGetRenderbufferParameteriv, rax

; 1359 :     glad_glIsFramebuffer = (PFNGLISFRAMEBUFFERPROC)load("glIsFramebuffer");

  00469	48 8d 0d 00 00
	00 00		 lea	 rcx, OFFSET FLAT:??_C@_0BA@FGBIJCNH@glIsFramebuffer@
  00470	ff 55 50	 call	 QWORD PTR load$[rbp]
  00473	48 89 05 00 00
	00 00		 mov	 QWORD PTR glad_glIsFramebuffer, rax

; 1360 :     glad_glBindFramebuffer = (PFNGLBINDFRAMEBUFFERPROC)load("glBindFramebuffer");

  0047a	48 8d 0d 00 00
	00 00		 lea	 rcx, OFFSET FLAT:??_C@_0BC@CJMIBNO@glBindFramebuffer@
  00481	ff 55 50	 call	 QWORD PTR load$[rbp]
  00484	48 89 05 00 00
	00 00		 mov	 QWORD PTR glad_glBindFramebuffer, rax

; 1361 :     glad_glDeleteFramebuffers = (PFNGLDELETEFRAMEBUFFERSPROC)load("glDeleteFramebuffers");

  0048b	48 8d 0d 00 00
	00 00		 lea	 rcx, OFFSET FLAT:??_C@_0BF@DJNJENP@glDeleteFramebuffers@
  00492	ff 55 50	 call	 QWORD PTR load$[rbp]
  00495	48 89 05 00 00
	00 00		 mov	 QWORD PTR glad_glDeleteFramebuffers, rax

; 1362 :     glad_glGenFramebuffers = (PFNGLGENFRAMEBUFFERSPROC)load("glGenFramebuffers");

  0049c	48 8d 0d 00 00
	00 00		 lea	 rcx, OFFSET FLAT:??_C@_0BC@FAPEBGID@glGenFramebuffers@
  004a3	ff 55 50	 call	 QWORD PTR load$[rbp]
  004a6	48 89 05 00 00
	00 00		 mov	 QWORD PTR glad_glGenFramebuffers, rax

; 1363 :     glad_glCheckFramebufferStatus = (PFNGLCHECKFRAMEBUFFERSTATUSPROC)load("glCheckFramebufferStatus");

  004ad	48 8d 0d 00 00
	00 00		 lea	 rcx, OFFSET FLAT:??_C@_0BJ@GIOLHEAD@glCheckFramebufferStatus@
  004b4	ff 55 50	 call	 QWORD PTR load$[rbp]
  004b7	48 89 05 00 00
	00 00		 mov	 QWORD PTR glad_glCheckFramebufferStatus, rax

; 1364 :     glad_glFramebufferTexture1D = (PFNGLFRAMEBUFFERTEXTURE1DPROC)load("glFramebufferTexture1D");

  004be	48 8d 0d 00 00
	00 00		 lea	 rcx, OFFSET FLAT:??_C@_0BH@JAMDNNBM@glFramebufferTexture1D@
  004c5	ff 55 50	 call	 QWORD PTR load$[rbp]
  004c8	48 89 05 00 00
	00 00		 mov	 QWORD PTR glad_glFramebufferTexture1D, rax

; 1365 :     glad_glFramebufferTexture2D = (PFNGLFRAMEBUFFERTEXTURE2DPROC)load("glFramebufferTexture2D");

  004cf	48 8d 0d 00 00
	00 00		 lea	 rcx, OFFSET FLAT:??_C@_0BH@JCIFGDEF@glFramebufferTexture2D@
  004d6	ff 55 50	 call	 QWORD PTR load$[rbp]
  004d9	48 89 05 00 00
	00 00		 mov	 QWORD PTR glad_glFramebufferTexture2D, rax

; 1366 :     glad_glFramebufferTexture3D = (PFNGLFRAMEBUFFERTEXTURE3DPROC)load("glFramebufferTexture3D");

  004e0	48 8d 0d 00 00
	00 00		 lea	 rcx, OFFSET FLAT:??_C@_0BH@JDEHAJHC@glFramebufferTexture3D@
  004e7	ff 55 50	 call	 QWORD PTR load$[rbp]
  004ea	48 89 05 00 00
	00 00		 mov	 QWORD PTR glad_glFramebufferTexture3D, rax

; 1367 :     glad_glFramebufferRenderbuffer = (PFNGLFRAMEBUFFERRENDERBUFFERPROC)load("glFramebufferRenderbuffer");

  004f1	48 8d 0d 00 00
	00 00		 lea	 rcx, OFFSET FLAT:??_C@_0BK@OJDINAOA@glFramebufferRenderbuffer@
  004f8	ff 55 50	 call	 QWORD PTR load$[rbp]
  004fb	48 89 05 00 00
	00 00		 mov	 QWORD PTR glad_glFramebufferRenderbuffer, rax

; 1368 :     glad_glGetFramebufferAttachmentParameteriv = (PFNGLGETFRAMEBUFFERATTACHMENTPARAMETERIVPROC)load("glGetFramebufferAttachmentParameteriv");

  00502	48 8d 0d 00 00
	00 00		 lea	 rcx, OFFSET FLAT:??_C@_0CG@KLDGJEON@glGetFramebufferAttachmentParam@
  00509	ff 55 50	 call	 QWORD PTR load$[rbp]
  0050c	48 89 05 00 00
	00 00		 mov	 QWORD PTR glad_glGetFramebufferAttachmentParameteriv, rax

; 1369 :     glad_glGenerateMipmap = (PFNGLGENERATEMIPMAPPROC)load("glGenerateMipmap");

  00513	48 8d 0d 00 00
	00 00		 lea	 rcx, OFFSET FLAT:??_C@_0BB@BHNIMGDM@glGenerateMipmap@
  0051a	ff 55 50	 call	 QWORD PTR load$[rbp]
  0051d	48 89 05 00 00
	00 00		 mov	 QWORD PTR glad_glGenerateMipmap, rax

; 1370 :     glad_glBlitFramebuffer = (PFNGLBLITFRAMEBUFFERPROC)load("glBlitFramebuffer");

  00524	48 8d 0d 00 00
	00 00		 lea	 rcx, OFFSET FLAT:??_C@_0BC@OANBDDEP@glBlitFramebuffer@
  0052b	ff 55 50	 call	 QWORD PTR load$[rbp]
  0052e	48 89 05 00 00
	00 00		 mov	 QWORD PTR glad_glBlitFramebuffer, rax

; 1371 :     glad_glRenderbufferStorageMultisample = (PFNGLRENDERBUFFERSTORAGEMULTISAMPLEPROC)load("glRenderbufferStorageMultisample");

  00535	48 8d 0d 00 00
	00 00		 lea	 rcx, OFFSET FLAT:??_C@_0CB@HNONLGJE@glRenderbufferStorageMultisampl@
  0053c	ff 55 50	 call	 QWORD PTR load$[rbp]
  0053f	48 89 05 00 00
	00 00		 mov	 QWORD PTR glad_glRenderbufferStorageMultisample, rax

; 1372 :     glad_glFramebufferTextureLayer = (PFNGLFRAMEBUFFERTEXTURELAYERPROC)load("glFramebufferTextureLayer");

  00546	48 8d 0d 00 00
	00 00		 lea	 rcx, OFFSET FLAT:??_C@_0BK@NIHIDBBO@glFramebufferTextureLayer@
  0054d	ff 55 50	 call	 QWORD PTR load$[rbp]
  00550	48 89 05 00 00
	00 00		 mov	 QWORD PTR glad_glFramebufferTextureLayer, rax

; 1373 :     glad_glMapBufferRange = (PFNGLMAPBUFFERRANGEPROC)load("glMapBufferRange");

  00557	48 8d 0d 00 00
	00 00		 lea	 rcx, OFFSET FLAT:??_C@_0BB@EOHJGBIO@glMapBufferRange@
  0055e	ff 55 50	 call	 QWORD PTR load$[rbp]
  00561	48 89 05 00 00
	00 00		 mov	 QWORD PTR glad_glMapBufferRange, rax

; 1374 :     glad_glFlushMappedBufferRange = (PFNGLFLUSHMAPPEDBUFFERRANGEPROC)load("glFlushMappedBufferRange");

  00568	48 8d 0d 00 00
	00 00		 lea	 rcx, OFFSET FLAT:??_C@_0BJ@NCDMGHKF@glFlushMappedBufferRange@
  0056f	ff 55 50	 call	 QWORD PTR load$[rbp]
  00572	48 89 05 00 00
	00 00		 mov	 QWORD PTR glad_glFlushMappedBufferRange, rax

; 1375 :     glad_glBindVertexArray = (PFNGLBINDVERTEXARRAYPROC)load("glBindVertexArray");

  00579	48 8d 0d 00 00
	00 00		 lea	 rcx, OFFSET FLAT:??_C@_0BC@LHBAHFAN@glBindVertexArray@
  00580	ff 55 50	 call	 QWORD PTR load$[rbp]
  00583	48 89 05 00 00
	00 00		 mov	 QWORD PTR glad_glBindVertexArray, rax

; 1376 :     glad_glDeleteVertexArrays = (PFNGLDELETEVERTEXARRAYSPROC)load("glDeleteVertexArrays");

  0058a	48 8d 0d 00 00
	00 00		 lea	 rcx, OFFSET FLAT:??_C@_0BF@BMPCJLEF@glDeleteVertexArrays@
  00591	ff 55 50	 call	 QWORD PTR load$[rbp]
  00594	48 89 05 00 00
	00 00		 mov	 QWORD PTR glad_glDeleteVertexArrays, rax

; 1377 :     glad_glGenVertexArrays = (PFNGLGENVERTEXARRAYSPROC)load("glGenVertexArrays");

  0059b	48 8d 0d 00 00
	00 00		 lea	 rcx, OFFSET FLAT:??_C@_0BC@EPJLBJBJ@glGenVertexArrays@
  005a2	ff 55 50	 call	 QWORD PTR load$[rbp]
  005a5	48 89 05 00 00
	00 00		 mov	 QWORD PTR glad_glGenVertexArrays, rax

; 1378 :     glad_glIsVertexArray = (PFNGLISVERTEXARRAYPROC)load("glIsVertexArray");

  005ac	48 8d 0d 00 00
	00 00		 lea	 rcx, OFFSET FLAT:??_C@_0BA@ODJEGGAE@glIsVertexArray@
  005b3	ff 55 50	 call	 QWORD PTR load$[rbp]
  005b6	48 89 05 00 00
	00 00		 mov	 QWORD PTR glad_glIsVertexArray, rax
$LN1@load_GL_VE:

; 1379 : }

  005bd	48 8d 65 40	 lea	 rsp, QWORD PTR [rbp+64]
  005c1	5d		 pop	 rbp
  005c2	c3		 ret	 0
load_GL_VERSION_3_0 ENDP
_TEXT	ENDS
; Function compile flags: /Odtp /ZI
; File D:\Programmer\GLenv\glad.c
;	COMDAT load_GL_VERSION_2_1
_TEXT	SEGMENT
load$ = 80
load_GL_VERSION_2_1 PROC				; COMDAT

; 1284 : static void load_GL_VERSION_2_1(GLADloadproc load) {

  00000	48 89 4c 24 08	 mov	 QWORD PTR [rsp+8], rcx
  00005	55		 push	 rbp
  00006	48 83 ec 60	 sub	 rsp, 96			; 00000060H
  0000a	48 8d 6c 24 20	 lea	 rbp, QWORD PTR [rsp+32]
  0000f	48 8d 0d 00 00
	00 00		 lea	 rcx, OFFSET FLAT:__2B68C239_glad@c
  00016	e8 00 00 00 00	 call	 __CheckForDebuggerJustMyCode

; 1285 :     if (!GLAD_GL_VERSION_2_1) return;

  0001b	83 3d 00 00 00
	00 00		 cmp	 DWORD PTR GLAD_GL_VERSION_2_1, 0
  00022	75 02		 jne	 SHORT $LN2@load_GL_VE
  00024	eb 66		 jmp	 SHORT $LN1@load_GL_VE
$LN2@load_GL_VE:

; 1286 :     glad_glUniformMatrix2x3fv = (PFNGLUNIFORMMATRIX2X3FVPROC)load("glUniformMatrix2x3fv");

  00026	48 8d 0d 00 00
	00 00		 lea	 rcx, OFFSET FLAT:??_C@_0BF@KDDJMCDK@glUniformMatrix2x3fv@
  0002d	ff 55 50	 call	 QWORD PTR load$[rbp]
  00030	48 89 05 00 00
	00 00		 mov	 QWORD PTR glad_glUniformMatrix2x3fv, rax

; 1287 :     glad_glUniformMatrix3x2fv = (PFNGLUNIFORMMATRIX3X2FVPROC)load("glUniformMatrix3x2fv");

  00037	48 8d 0d 00 00
	00 00		 lea	 rcx, OFFSET FLAT:??_C@_0BF@NANJHGPK@glUniformMatrix3x2fv@
  0003e	ff 55 50	 call	 QWORD PTR load$[rbp]
  00041	48 89 05 00 00
	00 00		 mov	 QWORD PTR glad_glUniformMatrix3x2fv, rax

; 1288 :     glad_glUniformMatrix2x4fv = (PFNGLUNIFORMMATRIX2X4FVPROC)load("glUniformMatrix2x4fv");

  00048	48 8d 0d 00 00
	00 00		 lea	 rcx, OFFSET FLAT:??_C@_0BF@DOOOPKID@glUniformMatrix2x4fv@
  0004f	ff 55 50	 call	 QWORD PTR load$[rbp]
  00052	48 89 05 00 00
	00 00		 mov	 QWORD PTR glad_glUniformMatrix2x4fv, rax

; 1289 :     glad_glUniformMatrix4x2fv = (PFNGLUNIFORMMATRIX4X2FVPROC)load("glUniformMatrix4x2fv");

  00059	48 8d 0d 00 00
	00 00		 lea	 rcx, OFFSET FLAT:??_C@_0BF@MNNMEGEC@glUniformMatrix4x2fv@
  00060	ff 55 50	 call	 QWORD PTR load$[rbp]
  00063	48 89 05 00 00
	00 00		 mov	 QWORD PTR glad_glUniformMatrix4x2fv, rax

; 1290 :     glad_glUniformMatrix3x4fv = (PFNGLUNIFORMMATRIX3X4FVPROC)load("glUniformMatrix3x4fv");

  0006a	48 8d 0d 00 00
	00 00		 lea	 rcx, OFFSET FLAT:??_C@_0BF@PFLCCJCG@glUniformMatrix3x4fv@
  00071	ff 55 50	 call	 QWORD PTR load$[rbp]
  00074	48 89 05 00 00
	00 00		 mov	 QWORD PTR glad_glUniformMatrix3x4fv, rax

; 1291 :     glad_glUniformMatrix4x3fv = (PFNGLUNIFORMMATRIX4X3FVPROC)load("glUniformMatrix4x3fv");

  0007b	48 8d 0d 00 00
	00 00		 lea	 rcx, OFFSET FLAT:??_C@_0BF@HFGACBCH@glUniformMatrix4x3fv@
  00082	ff 55 50	 call	 QWORD PTR load$[rbp]
  00085	48 89 05 00 00
	00 00		 mov	 QWORD PTR glad_glUniformMatrix4x3fv, rax
$LN1@load_GL_VE:

; 1292 : }

  0008c	48 8d 65 40	 lea	 rsp, QWORD PTR [rbp+64]
  00090	5d		 pop	 rbp
  00091	c3		 ret	 0
load_GL_VERSION_2_1 ENDP
_TEXT	ENDS
; Function compile flags: /Odtp /ZI
; File D:\Programmer\GLenv\glad.c
;	COMDAT load_GL_VERSION_2_0
_TEXT	SEGMENT
load$ = 80
load_GL_VERSION_2_0 PROC				; COMDAT

; 1188 : static void load_GL_VERSION_2_0(GLADloadproc load) {

  00000	48 89 4c 24 08	 mov	 QWORD PTR [rsp+8], rcx
  00005	55		 push	 rbp
  00006	48 83 ec 60	 sub	 rsp, 96			; 00000060H
  0000a	48 8d 6c 24 20	 lea	 rbp, QWORD PTR [rsp+32]
  0000f	48 8d 0d 00 00
	00 00		 lea	 rcx, OFFSET FLAT:__2B68C239_glad@c
  00016	e8 00 00 00 00	 call	 __CheckForDebuggerJustMyCode

; 1189 :     if (!GLAD_GL_VERSION_2_0) return;

  0001b	83 3d 00 00 00
	00 00		 cmp	 DWORD PTR GLAD_GL_VERSION_2_0, 0
  00022	75 05		 jne	 SHORT $LN2@load_GL_VE
  00024	e9 2d 06 00 00	 jmp	 $LN1@load_GL_VE
$LN2@load_GL_VE:

; 1190 :     glad_glBlendEquationSeparate = (PFNGLBLENDEQUATIONSEPARATEPROC)load("glBlendEquationSeparate");

  00029	48 8d 0d 00 00
	00 00		 lea	 rcx, OFFSET FLAT:??_C@_0BI@JNHDNJAG@glBlendEquationSeparate@
  00030	ff 55 50	 call	 QWORD PTR load$[rbp]
  00033	48 89 05 00 00
	00 00		 mov	 QWORD PTR glad_glBlendEquationSeparate, rax

; 1191 :     glad_glDrawBuffers = (PFNGLDRAWBUFFERSPROC)load("glDrawBuffers");

  0003a	48 8d 0d 00 00
	00 00		 lea	 rcx, OFFSET FLAT:??_C@_0O@COHJKDBH@glDrawBuffers@
  00041	ff 55 50	 call	 QWORD PTR load$[rbp]
  00044	48 89 05 00 00
	00 00		 mov	 QWORD PTR glad_glDrawBuffers, rax

; 1192 :     glad_glStencilOpSeparate = (PFNGLSTENCILOPSEPARATEPROC)load("glStencilOpSeparate");

  0004b	48 8d 0d 00 00
	00 00		 lea	 rcx, OFFSET FLAT:??_C@_0BE@GAPLDNGF@glStencilOpSeparate@
  00052	ff 55 50	 call	 QWORD PTR load$[rbp]
  00055	48 89 05 00 00
	00 00		 mov	 QWORD PTR glad_glStencilOpSeparate, rax

; 1193 :     glad_glStencilFuncSeparate = (PFNGLSTENCILFUNCSEPARATEPROC)load("glStencilFuncSeparate");

  0005c	48 8d 0d 00 00
	00 00		 lea	 rcx, OFFSET FLAT:??_C@_0BG@FCMNCEIA@glStencilFuncSeparate@
  00063	ff 55 50	 call	 QWORD PTR load$[rbp]
  00066	48 89 05 00 00
	00 00		 mov	 QWORD PTR glad_glStencilFuncSeparate, rax

; 1194 :     glad_glStencilMaskSeparate = (PFNGLSTENCILMASKSEPARATEPROC)load("glStencilMaskSeparate");

  0006d	48 8d 0d 00 00
	00 00		 lea	 rcx, OFFSET FLAT:??_C@_0BG@MMKPIEJI@glStencilMaskSeparate@
  00074	ff 55 50	 call	 QWORD PTR load$[rbp]
  00077	48 89 05 00 00
	00 00		 mov	 QWORD PTR glad_glStencilMaskSeparate, rax

; 1195 :     glad_glAttachShader = (PFNGLATTACHSHADERPROC)load("glAttachShader");

  0007e	48 8d 0d 00 00
	00 00		 lea	 rcx, OFFSET FLAT:??_C@_0P@LDMLEABL@glAttachShader@
  00085	ff 55 50	 call	 QWORD PTR load$[rbp]
  00088	48 89 05 00 00
	00 00		 mov	 QWORD PTR glad_glAttachShader, rax

; 1196 :     glad_glBindAttribLocation = (PFNGLBINDATTRIBLOCATIONPROC)load("glBindAttribLocation");

  0008f	48 8d 0d 00 00
	00 00		 lea	 rcx, OFFSET FLAT:??_C@_0BF@MHKEFIHM@glBindAttribLocation@
  00096	ff 55 50	 call	 QWORD PTR load$[rbp]
  00099	48 89 05 00 00
	00 00		 mov	 QWORD PTR glad_glBindAttribLocation, rax

; 1197 :     glad_glCompileShader = (PFNGLCOMPILESHADERPROC)load("glCompileShader");

  000a0	48 8d 0d 00 00
	00 00		 lea	 rcx, OFFSET FLAT:??_C@_0BA@DGIEGONF@glCompileShader@
  000a7	ff 55 50	 call	 QWORD PTR load$[rbp]
  000aa	48 89 05 00 00
	00 00		 mov	 QWORD PTR glad_glCompileShader, rax

; 1198 :     glad_glCreateProgram = (PFNGLCREATEPROGRAMPROC)load("glCreateProgram");

  000b1	48 8d 0d 00 00
	00 00		 lea	 rcx, OFFSET FLAT:??_C@_0BA@FLKLHNKP@glCreateProgram@
  000b8	ff 55 50	 call	 QWORD PTR load$[rbp]
  000bb	48 89 05 00 00
	00 00		 mov	 QWORD PTR glad_glCreateProgram, rax

; 1199 :     glad_glCreateShader = (PFNGLCREATESHADERPROC)load("glCreateShader");

  000c2	48 8d 0d 00 00
	00 00		 lea	 rcx, OFFSET FLAT:??_C@_0P@HGHBNC@glCreateShader@
  000c9	ff 55 50	 call	 QWORD PTR load$[rbp]
  000cc	48 89 05 00 00
	00 00		 mov	 QWORD PTR glad_glCreateShader, rax

; 1200 :     glad_glDeleteProgram = (PFNGLDELETEPROGRAMPROC)load("glDeleteProgram");

  000d3	48 8d 0d 00 00
	00 00		 lea	 rcx, OFFSET FLAT:??_C@_0BA@NKGCDOPO@glDeleteProgram@
  000da	ff 55 50	 call	 QWORD PTR load$[rbp]
  000dd	48 89 05 00 00
	00 00		 mov	 QWORD PTR glad_glDeleteProgram, rax

; 1201 :     glad_glDeleteShader = (PFNGLDELETESHADERPROC)load("glDeleteShader");

  000e4	48 8d 0d 00 00
	00 00		 lea	 rcx, OFFSET FLAT:??_C@_0P@HHCDONAG@glDeleteShader@
  000eb	ff 55 50	 call	 QWORD PTR load$[rbp]
  000ee	48 89 05 00 00
	00 00		 mov	 QWORD PTR glad_glDeleteShader, rax

; 1202 :     glad_glDetachShader = (PFNGLDETACHSHADERPROC)load("glDetachShader");

  000f5	48 8d 0d 00 00
	00 00		 lea	 rcx, OFFSET FLAT:??_C@_0P@DJFJFCJL@glDetachShader@
  000fc	ff 55 50	 call	 QWORD PTR load$[rbp]
  000ff	48 89 05 00 00
	00 00		 mov	 QWORD PTR glad_glDetachShader, rax

; 1203 :     glad_glDisableVertexAttribArray = (PFNGLDISABLEVERTEXATTRIBARRAYPROC)load("glDisableVertexAttribArray");

  00106	48 8d 0d 00 00
	00 00		 lea	 rcx, OFFSET FLAT:??_C@_0BL@NKHLOFFF@glDisableVertexAttribArray@
  0010d	ff 55 50	 call	 QWORD PTR load$[rbp]
  00110	48 89 05 00 00
	00 00		 mov	 QWORD PTR glad_glDisableVertexAttribArray, rax

; 1204 :     glad_glEnableVertexAttribArray = (PFNGLENABLEVERTEXATTRIBARRAYPROC)load("glEnableVertexAttribArray");

  00117	48 8d 0d 00 00
	00 00		 lea	 rcx, OFFSET FLAT:??_C@_0BK@EHBAHNHE@glEnableVertexAttribArray@
  0011e	ff 55 50	 call	 QWORD PTR load$[rbp]
  00121	48 89 05 00 00
	00 00		 mov	 QWORD PTR glad_glEnableVertexAttribArray, rax

; 1205 :     glad_glGetActiveAttrib = (PFNGLGETACTIVEATTRIBPROC)load("glGetActiveAttrib");

  00128	48 8d 0d 00 00
	00 00		 lea	 rcx, OFFSET FLAT:??_C@_0BC@MBALAOHF@glGetActiveAttrib@
  0012f	ff 55 50	 call	 QWORD PTR load$[rbp]
  00132	48 89 05 00 00
	00 00		 mov	 QWORD PTR glad_glGetActiveAttrib, rax

; 1206 :     glad_glGetActiveUniform = (PFNGLGETACTIVEUNIFORMPROC)load("glGetActiveUniform");

  00139	48 8d 0d 00 00
	00 00		 lea	 rcx, OFFSET FLAT:??_C@_0BD@NIMHLLKN@glGetActiveUniform@
  00140	ff 55 50	 call	 QWORD PTR load$[rbp]
  00143	48 89 05 00 00
	00 00		 mov	 QWORD PTR glad_glGetActiveUniform, rax

; 1207 :     glad_glGetAttachedShaders = (PFNGLGETATTACHEDSHADERSPROC)load("glGetAttachedShaders");

  0014a	48 8d 0d 00 00
	00 00		 lea	 rcx, OFFSET FLAT:??_C@_0BF@GHMDGFEM@glGetAttachedShaders@
  00151	ff 55 50	 call	 QWORD PTR load$[rbp]
  00154	48 89 05 00 00
	00 00		 mov	 QWORD PTR glad_glGetAttachedShaders, rax

; 1208 :     glad_glGetAttribLocation = (PFNGLGETATTRIBLOCATIONPROC)load("glGetAttribLocation");

  0015b	48 8d 0d 00 00
	00 00		 lea	 rcx, OFFSET FLAT:??_C@_0BE@BEPGJDMM@glGetAttribLocation@
  00162	ff 55 50	 call	 QWORD PTR load$[rbp]
  00165	48 89 05 00 00
	00 00		 mov	 QWORD PTR glad_glGetAttribLocation, rax

; 1209 :     glad_glGetProgramiv = (PFNGLGETPROGRAMIVPROC)load("glGetProgramiv");

  0016c	48 8d 0d 00 00
	00 00		 lea	 rcx, OFFSET FLAT:??_C@_0P@FMMDFLCO@glGetProgramiv@
  00173	ff 55 50	 call	 QWORD PTR load$[rbp]
  00176	48 89 05 00 00
	00 00		 mov	 QWORD PTR glad_glGetProgramiv, rax

; 1210 :     glad_glGetProgramInfoLog = (PFNGLGETPROGRAMINFOLOGPROC)load("glGetProgramInfoLog");

  0017d	48 8d 0d 00 00
	00 00		 lea	 rcx, OFFSET FLAT:??_C@_0BE@DHGHAJFL@glGetProgramInfoLog@
  00184	ff 55 50	 call	 QWORD PTR load$[rbp]
  00187	48 89 05 00 00
	00 00		 mov	 QWORD PTR glad_glGetProgramInfoLog, rax

; 1211 :     glad_glGetShaderiv = (PFNGLGETSHADERIVPROC)load("glGetShaderiv");

  0018e	48 8d 0d 00 00
	00 00		 lea	 rcx, OFFSET FLAT:??_C@_0O@JBDFPDMG@glGetShaderiv@
  00195	ff 55 50	 call	 QWORD PTR load$[rbp]
  00198	48 89 05 00 00
	00 00		 mov	 QWORD PTR glad_glGetShaderiv, rax

; 1212 :     glad_glGetShaderInfoLog = (PFNGLGETSHADERINFOLOGPROC)load("glGetShaderInfoLog");

  0019f	48 8d 0d 00 00
	00 00		 lea	 rcx, OFFSET FLAT:??_C@_0BD@GIABBCMO@glGetShaderInfoLog@
  001a6	ff 55 50	 call	 QWORD PTR load$[rbp]
  001a9	48 89 05 00 00
	00 00		 mov	 QWORD PTR glad_glGetShaderInfoLog, rax

; 1213 :     glad_glGetShaderSource = (PFNGLGETSHADERSOURCEPROC)load("glGetShaderSource");

  001b0	48 8d 0d 00 00
	00 00		 lea	 rcx, OFFSET FLAT:??_C@_0BC@ELEIFJEL@glGetShaderSource@
  001b7	ff 55 50	 call	 QWORD PTR load$[rbp]
  001ba	48 89 05 00 00
	00 00		 mov	 QWORD PTR glad_glGetShaderSource, rax

; 1214 :     glad_glGetUniformLocation = (PFNGLGETUNIFORMLOCATIONPROC)load("glGetUniformLocation");

  001c1	48 8d 0d 00 00
	00 00		 lea	 rcx, OFFSET FLAT:??_C@_0BF@KIOPGICP@glGetUniformLocation@
  001c8	ff 55 50	 call	 QWORD PTR load$[rbp]
  001cb	48 89 05 00 00
	00 00		 mov	 QWORD PTR glad_glGetUniformLocation, rax

; 1215 :     glad_glGetUniformfv = (PFNGLGETUNIFORMFVPROC)load("glGetUniformfv");

  001d2	48 8d 0d 00 00
	00 00		 lea	 rcx, OFFSET FLAT:??_C@_0P@DFCJIBG@glGetUniformfv@
  001d9	ff 55 50	 call	 QWORD PTR load$[rbp]
  001dc	48 89 05 00 00
	00 00		 mov	 QWORD PTR glad_glGetUniformfv, rax

; 1216 :     glad_glGetUniformiv = (PFNGLGETUNIFORMIVPROC)load("glGetUniformiv");

  001e3	48 8d 0d 00 00
	00 00		 lea	 rcx, OFFSET FLAT:??_C@_0P@IAONPCL@glGetUniformiv@
  001ea	ff 55 50	 call	 QWORD PTR load$[rbp]
  001ed	48 89 05 00 00
	00 00		 mov	 QWORD PTR glad_glGetUniformiv, rax

; 1217 :     glad_glGetVertexAttribdv = (PFNGLGETVERTEXATTRIBDVPROC)load("glGetVertexAttribdv");

  001f4	48 8d 0d 00 00
	00 00		 lea	 rcx, OFFSET FLAT:??_C@_0BE@HDPMJMIN@glGetVertexAttribdv@
  001fb	ff 55 50	 call	 QWORD PTR load$[rbp]
  001fe	48 89 05 00 00
	00 00		 mov	 QWORD PTR glad_glGetVertexAttribdv, rax

; 1218 :     glad_glGetVertexAttribfv = (PFNGLGETVERTEXATTRIBFVPROC)load("glGetVertexAttribfv");

  00205	48 8d 0d 00 00
	00 00		 lea	 rcx, OFFSET FLAT:??_C@_0BE@HAHIEIOD@glGetVertexAttribfv@
  0020c	ff 55 50	 call	 QWORD PTR load$[rbp]
  0020f	48 89 05 00 00
	00 00		 mov	 QWORD PTR glad_glGetVertexAttribfv, rax

; 1219 :     glad_glGetVertexAttribiv = (PFNGLGETVERTEXATTRIBIVPROC)load("glGetVertexAttribiv");

  00216	48 8d 0d 00 00
	00 00		 lea	 rcx, OFFSET FLAT:??_C@_0BE@HLCEAPNO@glGetVertexAttribiv@
  0021d	ff 55 50	 call	 QWORD PTR load$[rbp]
  00220	48 89 05 00 00
	00 00		 mov	 QWORD PTR glad_glGetVertexAttribiv, rax

; 1220 :     glad_glGetVertexAttribPointerv = (PFNGLGETVERTEXATTRIBPOINTERVPROC)load("glGetVertexAttribPointerv");

  00227	48 8d 0d 00 00
	00 00		 lea	 rcx, OFFSET FLAT:??_C@_0BK@DOJMENLD@glGetVertexAttribPointerv@
  0022e	ff 55 50	 call	 QWORD PTR load$[rbp]
  00231	48 89 05 00 00
	00 00		 mov	 QWORD PTR glad_glGetVertexAttribPointerv, rax

; 1221 :     glad_glIsProgram = (PFNGLISPROGRAMPROC)load("glIsProgram");

  00238	48 8d 0d 00 00
	00 00		 lea	 rcx, OFFSET FLAT:??_C@_0M@INLOJDGO@glIsProgram@
  0023f	ff 55 50	 call	 QWORD PTR load$[rbp]
  00242	48 89 05 00 00
	00 00		 mov	 QWORD PTR glad_glIsProgram, rax

; 1222 :     glad_glIsShader = (PFNGLISSHADERPROC)load("glIsShader");

  00249	48 8d 0d 00 00
	00 00		 lea	 rcx, OFFSET FLAT:??_C@_0L@MDDLFIHC@glIsShader@
  00250	ff 55 50	 call	 QWORD PTR load$[rbp]
  00253	48 89 05 00 00
	00 00		 mov	 QWORD PTR glad_glIsShader, rax

; 1223 :     glad_glLinkProgram = (PFNGLLINKPROGRAMPROC)load("glLinkProgram");

  0025a	48 8d 0d 00 00
	00 00		 lea	 rcx, OFFSET FLAT:??_C@_0O@PIOEEBPO@glLinkProgram@
  00261	ff 55 50	 call	 QWORD PTR load$[rbp]
  00264	48 89 05 00 00
	00 00		 mov	 QWORD PTR glad_glLinkProgram, rax

; 1224 :     glad_glShaderSource = (PFNGLSHADERSOURCEPROC)load("glShaderSource");

  0026b	48 8d 0d 00 00
	00 00		 lea	 rcx, OFFSET FLAT:??_C@_0P@DFHCPFMO@glShaderSource@
  00272	ff 55 50	 call	 QWORD PTR load$[rbp]
  00275	48 89 05 00 00
	00 00		 mov	 QWORD PTR glad_glShaderSource, rax

; 1225 :     glad_glUseProgram = (PFNGLUSEPROGRAMPROC)load("glUseProgram");

  0027c	48 8d 0d 00 00
	00 00		 lea	 rcx, OFFSET FLAT:??_C@_0N@ICBDHBI@glUseProgram@
  00283	ff 55 50	 call	 QWORD PTR load$[rbp]
  00286	48 89 05 00 00
	00 00		 mov	 QWORD PTR glad_glUseProgram, rax

; 1226 :     glad_glUniform1f = (PFNGLUNIFORM1FPROC)load("glUniform1f");

  0028d	48 8d 0d 00 00
	00 00		 lea	 rcx, OFFSET FLAT:??_C@_0M@MLICAPOF@glUniform1f@
  00294	ff 55 50	 call	 QWORD PTR load$[rbp]
  00297	48 89 05 00 00
	00 00		 mov	 QWORD PTR glad_glUniform1f, rax

; 1227 :     glad_glUniform2f = (PFNGLUNIFORM2FPROC)load("glUniform2f");

  0029e	48 8d 0d 00 00
	00 00		 lea	 rcx, OFFSET FLAT:??_C@_0M@MJMELBLM@glUniform2f@
  002a5	ff 55 50	 call	 QWORD PTR load$[rbp]
  002a8	48 89 05 00 00
	00 00		 mov	 QWORD PTR glad_glUniform2f, rax

; 1228 :     glad_glUniform3f = (PFNGLUNIFORM3FPROC)load("glUniform3f");

  002af	48 8d 0d 00 00
	00 00		 lea	 rcx, OFFSET FLAT:??_C@_0M@MIAGNLIL@glUniform3f@
  002b6	ff 55 50	 call	 QWORD PTR load$[rbp]
  002b9	48 89 05 00 00
	00 00		 mov	 QWORD PTR glad_glUniform3f, rax

; 1229 :     glad_glUniform4f = (PFNGLUNIFORM4FPROC)load("glUniform4f");

  002c0	48 8d 0d 00 00
	00 00		 lea	 rcx, OFFSET FLAT:??_C@_0M@MNEJMNAO@glUniform4f@
  002c7	ff 55 50	 call	 QWORD PTR load$[rbp]
  002ca	48 89 05 00 00
	00 00		 mov	 QWORD PTR glad_glUniform4f, rax

; 1230 :     glad_glUniform1i = (PFNGLUNIFORM1IPROC)load("glUniform1i");

  002d1	48 8d 0d 00 00
	00 00		 lea	 rcx, OFFSET FLAT:??_C@_0M@EMBKBDCK@glUniform1i@
  002d8	ff 55 50	 call	 QWORD PTR load$[rbp]
  002db	48 89 05 00 00
	00 00		 mov	 QWORD PTR glad_glUniform1i, rax

; 1231 :     glad_glUniform2i = (PFNGLUNIFORM2IPROC)load("glUniform2i");

  002e2	48 8d 0d 00 00
	00 00		 lea	 rcx, OFFSET FLAT:??_C@_0M@EOFMKNHD@glUniform2i@
  002e9	ff 55 50	 call	 QWORD PTR load$[rbp]
  002ec	48 89 05 00 00
	00 00		 mov	 QWORD PTR glad_glUniform2i, rax

; 1232 :     glad_glUniform3i = (PFNGLUNIFORM3IPROC)load("glUniform3i");

  002f3	48 8d 0d 00 00
	00 00		 lea	 rcx, OFFSET FLAT:??_C@_0M@EPJOMHEE@glUniform3i@
  002fa	ff 55 50	 call	 QWORD PTR load$[rbp]
  002fd	48 89 05 00 00
	00 00		 mov	 QWORD PTR glad_glUniform3i, rax

; 1233 :     glad_glUniform4i = (PFNGLUNIFORM4IPROC)load("glUniform4i");

  00304	48 8d 0d 00 00
	00 00		 lea	 rcx, OFFSET FLAT:??_C@_0M@EKNBNBMB@glUniform4i@
  0030b	ff 55 50	 call	 QWORD PTR load$[rbp]
  0030e	48 89 05 00 00
	00 00		 mov	 QWORD PTR glad_glUniform4i, rax

; 1234 :     glad_glUniform1fv = (PFNGLUNIFORM1FVPROC)load("glUniform1fv");

  00315	48 8d 0d 00 00
	00 00		 lea	 rcx, OFFSET FLAT:??_C@_0N@KJMOEKII@glUniform1fv@
  0031c	ff 55 50	 call	 QWORD PTR load$[rbp]
  0031f	48 89 05 00 00
	00 00		 mov	 QWORD PTR glad_glUniform1fv, rax

; 1235 :     glad_glUniform2fv = (PFNGLUNIFORM2FVPROC)load("glUniform2fv");

  00326	48 8d 0d 00 00
	00 00		 lea	 rcx, OFFSET FLAT:??_C@_0N@LLHLOFGG@glUniform2fv@
  0032d	ff 55 50	 call	 QWORD PTR load$[rbp]
  00330	48 89 05 00 00
	00 00		 mov	 QWORD PTR glad_glUniform2fv, rax

; 1236 :     glad_glUniform3fv = (PFNGLUNIFORM3FVPROC)load("glUniform3fv");

  00337	48 8d 0d 00 00
	00 00		 lea	 rcx, OFFSET FLAT:??_C@_0N@DMHICAD@glUniform3fv@
  0033e	ff 55 50	 call	 QWORD PTR load$[rbp]
  00341	48 89 05 00 00
	00 00		 mov	 QWORD PTR glad_glUniform3fv, rax

; 1237 :     glad_glUniform4fv = (PFNGLUNIFORM4FVPROC)load("glUniform4fv");

  00348	48 8d 0d 00 00
	00 00		 lea	 rcx, OFFSET FLAT:??_C@_0N@JOBALKLK@glUniform4fv@
  0034f	ff 55 50	 call	 QWORD PTR load$[rbp]
  00352	48 89 05 00 00
	00 00		 mov	 QWORD PTR glad_glUniform4fv, rax

; 1238 :     glad_glUniform1iv = (PFNGLUNIFORM1IVPROC)load("glUniform1iv");

  00359	48 8d 0d 00 00
	00 00		 lea	 rcx, OFFSET FLAT:??_C@_0N@KCJCANLF@glUniform1iv@
  00360	ff 55 50	 call	 QWORD PTR load$[rbp]
  00363	48 89 05 00 00
	00 00		 mov	 QWORD PTR glad_glUniform1iv, rax

; 1239 :     glad_glUniform2iv = (PFNGLUNIFORM2IVPROC)load("glUniform2iv");

  0036a	48 8d 0d 00 00
	00 00		 lea	 rcx, OFFSET FLAT:??_C@_0N@LACHKCFL@glUniform2iv@
  00371	ff 55 50	 call	 QWORD PTR load$[rbp]
  00374	48 89 05 00 00
	00 00		 mov	 QWORD PTR glad_glUniform2iv, rax

; 1240 :     glad_glUniform3iv = (PFNGLUNIFORM3IVPROC)load("glUniform3iv");

  0037b	48 8d 0d 00 00
	00 00		 lea	 rcx, OFFSET FLAT:??_C@_0N@IJLMFDO@glUniform3iv@
  00382	ff 55 50	 call	 QWORD PTR load$[rbp]
  00385	48 89 05 00 00
	00 00		 mov	 QWORD PTR glad_glUniform3iv, rax

; 1241 :     glad_glUniform4iv = (PFNGLUNIFORM4IVPROC)load("glUniform4iv");

  0038c	48 8d 0d 00 00
	00 00		 lea	 rcx, OFFSET FLAT:??_C@_0N@JFEMPNIH@glUniform4iv@
  00393	ff 55 50	 call	 QWORD PTR load$[rbp]
  00396	48 89 05 00 00
	00 00		 mov	 QWORD PTR glad_glUniform4iv, rax

; 1242 :     glad_glUniformMatrix2fv = (PFNGLUNIFORMMATRIX2FVPROC)load("glUniformMatrix2fv");

  0039d	48 8d 0d 00 00
	00 00		 lea	 rcx, OFFSET FLAT:??_C@_0BD@JIBJELHD@glUniformMatrix2fv@
  003a4	ff 55 50	 call	 QWORD PTR load$[rbp]
  003a7	48 89 05 00 00
	00 00		 mov	 QWORD PTR glad_glUniformMatrix2fv, rax

; 1243 :     glad_glUniformMatrix3fv = (PFNGLUNIFORMMATRIX3FVPROC)load("glUniformMatrix3fv");

  003ae	48 8d 0d 00 00
	00 00		 lea	 rcx, OFFSET FLAT:??_C@_0BD@CAKFCMBG@glUniformMatrix3fv@
  003b5	ff 55 50	 call	 QWORD PTR load$[rbp]
  003b8	48 89 05 00 00
	00 00		 mov	 QWORD PTR glad_glUniformMatrix3fv, rax

; 1244 :     glad_glUniformMatrix4fv = (PFNGLUNIFORMMATRIX4FVPROC)load("glUniformMatrix4fv");

  003bf	48 8d 0d 00 00
	00 00		 lea	 rcx, OFFSET FLAT:??_C@_0BD@LNHCBEKP@glUniformMatrix4fv@
  003c6	ff 55 50	 call	 QWORD PTR load$[rbp]
  003c9	48 89 05 00 00
	00 00		 mov	 QWORD PTR glad_glUniformMatrix4fv, rax

; 1245 :     glad_glValidateProgram = (PFNGLVALIDATEPROGRAMPROC)load("glValidateProgram");

  003d0	48 8d 0d 00 00
	00 00		 lea	 rcx, OFFSET FLAT:??_C@_0BC@MAPGDLJK@glValidateProgram@
  003d7	ff 55 50	 call	 QWORD PTR load$[rbp]
  003da	48 89 05 00 00
	00 00		 mov	 QWORD PTR glad_glValidateProgram, rax

; 1246 :     glad_glVertexAttrib1d = (PFNGLVERTEXATTRIB1DPROC)load("glVertexAttrib1d");

  003e1	48 8d 0d 00 00
	00 00		 lea	 rcx, OFFSET FLAT:??_C@_0BB@PIOLPNPC@glVertexAttrib1d@
  003e8	ff 55 50	 call	 QWORD PTR load$[rbp]
  003eb	48 89 05 00 00
	00 00		 mov	 QWORD PTR glad_glVertexAttrib1d, rax

; 1247 :     glad_glVertexAttrib1dv = (PFNGLVERTEXATTRIB1DVPROC)load("glVertexAttrib1dv");

  003f2	48 8d 0d 00 00
	00 00		 lea	 rcx, OFFSET FLAT:??_C@_0BC@CKCOKGLN@glVertexAttrib1dv@
  003f9	ff 55 50	 call	 QWORD PTR load$[rbp]
  003fc	48 89 05 00 00
	00 00		 mov	 QWORD PTR glad_glVertexAttrib1dv, rax

; 1248 :     glad_glVertexAttrib1f = (PFNGLVERTEXATTRIB1FPROC)load("glVertexAttrib1f");

  00403	48 8d 0d 00 00
	00 00		 lea	 rcx, OFFSET FLAT:??_C@_0BB@MKNNJPHA@glVertexAttrib1f@
  0040a	ff 55 50	 call	 QWORD PTR load$[rbp]
  0040d	48 89 05 00 00
	00 00		 mov	 QWORD PTR glad_glVertexAttrib1f, rax

; 1249 :     glad_glVertexAttrib1fv = (PFNGLVERTEXATTRIB1FVPROC)load("glVertexAttrib1fv");

  00414	48 8d 0d 00 00
	00 00		 lea	 rcx, OFFSET FLAT:??_C@_0BC@CJKKHCND@glVertexAttrib1fv@
  0041b	ff 55 50	 call	 QWORD PTR load$[rbp]
  0041e	48 89 05 00 00
	00 00		 mov	 QWORD PTR glad_glVertexAttrib1fv, rax

; 1250 :     glad_glVertexAttrib1s = (PFNGLVERTEXATTRIB1SPROC)load("glVertexAttrib1s");

  00425	48 8d 0d 00 00
	00 00		 lea	 rcx, OFFSET FLAT:??_C@_0BB@PNGIHJGE@glVertexAttrib1s@
  0042c	ff 55 50	 call	 QWORD PTR load$[rbp]
  0042f	48 89 05 00 00
	00 00		 mov	 QWORD PTR glad_glVertexAttrib1s, rax

; 1251 :     glad_glVertexAttrib1sv = (PFNGLVERTEXATTRIB1SVPROC)load("glVertexAttrib1sv");

  00436	48 8d 0d 00 00
	00 00		 lea	 rcx, OFFSET FLAT:??_C@_0BC@DDEHBDEI@glVertexAttrib1sv@
  0043d	ff 55 50	 call	 QWORD PTR load$[rbp]
  00440	48 89 05 00 00
	00 00		 mov	 QWORD PTR glad_glVertexAttrib1sv, rax

; 1252 :     glad_glVertexAttrib2d = (PFNGLVERTEXATTRIB2DPROC)load("glVertexAttrib2d");

  00447	48 8d 0d 00 00
	00 00		 lea	 rcx, OFFSET FLAT:??_C@_0BB@PKKNEDKL@glVertexAttrib2d@
  0044e	ff 55 50	 call	 QWORD PTR load$[rbp]
  00451	48 89 05 00 00
	00 00		 mov	 QWORD PTR glad_glVertexAttrib2d, rax

; 1253 :     glad_glVertexAttrib2dv = (PFNGLVERTEXATTRIB2DVPROC)load("glVertexAttrib2dv");

  00458	48 8d 0d 00 00
	00 00		 lea	 rcx, OFFSET FLAT:??_C@_0BC@DIJLAJFD@glVertexAttrib2dv@
  0045f	ff 55 50	 call	 QWORD PTR load$[rbp]
  00462	48 89 05 00 00
	00 00		 mov	 QWORD PTR glad_glVertexAttrib2dv, rax

; 1254 :     glad_glVertexAttrib2f = (PFNGLVERTEXATTRIB2FPROC)load("glVertexAttrib2f");

  00469	48 8d 0d 00 00
	00 00		 lea	 rcx, OFFSET FLAT:??_C@_0BB@MIJLCBCJ@glVertexAttrib2f@
  00470	ff 55 50	 call	 QWORD PTR load$[rbp]
  00473	48 89 05 00 00
	00 00		 mov	 QWORD PTR glad_glVertexAttrib2f, rax

; 1255 :     glad_glVertexAttrib2fv = (PFNGLVERTEXATTRIB2FVPROC)load("glVertexAttrib2fv");

  0047a	48 8d 0d 00 00
	00 00		 lea	 rcx, OFFSET FLAT:??_C@_0BC@DLBPNNDN@glVertexAttrib2fv@
  00481	ff 55 50	 call	 QWORD PTR load$[rbp]
  00484	48 89 05 00 00
	00 00		 mov	 QWORD PTR glad_glVertexAttrib2fv, rax

; 1256 :     glad_glVertexAttrib2s = (PFNGLVERTEXATTRIB2SPROC)load("glVertexAttrib2s");

  0048b	48 8d 0d 00 00
	00 00		 lea	 rcx, OFFSET FLAT:??_C@_0BB@PPCOMHDN@glVertexAttrib2s@
  00492	ff 55 50	 call	 QWORD PTR load$[rbp]
  00495	48 89 05 00 00
	00 00		 mov	 QWORD PTR glad_glVertexAttrib2s, rax

; 1257 :     glad_glVertexAttrib2sv = (PFNGLVERTEXATTRIB2SVPROC)load("glVertexAttrib2sv");

  0049c	48 8d 0d 00 00
	00 00		 lea	 rcx, OFFSET FLAT:??_C@_0BC@CBPCLMKG@glVertexAttrib2sv@
  004a3	ff 55 50	 call	 QWORD PTR load$[rbp]
  004a6	48 89 05 00 00
	00 00		 mov	 QWORD PTR glad_glVertexAttrib2sv, rax

; 1258 :     glad_glVertexAttrib3d = (PFNGLVERTEXATTRIB3DPROC)load("glVertexAttrib3d");

  004ad	48 8d 0d 00 00
	00 00		 lea	 rcx, OFFSET FLAT:??_C@_0BB@PLGPCJJM@glVertexAttrib3d@
  004b4	ff 55 50	 call	 QWORD PTR load$[rbp]
  004b7	48 89 05 00 00
	00 00		 mov	 QWORD PTR glad_glVertexAttrib3d, rax

; 1259 :     glad_glVertexAttrib3dv = (PFNGLVERTEXATTRIB3DVPROC)load("glVertexAttrib3dv");

  004be	48 8d 0d 00 00
	00 00		 lea	 rcx, OFFSET FLAT:??_C@_0BC@IACHGODG@glVertexAttrib3dv@
  004c5	ff 55 50	 call	 QWORD PTR load$[rbp]
  004c8	48 89 05 00 00
	00 00		 mov	 QWORD PTR glad_glVertexAttrib3dv, rax

; 1260 :     glad_glVertexAttrib3f = (PFNGLVERTEXATTRIB3FPROC)load("glVertexAttrib3f");

  004cf	48 8d 0d 00 00
	00 00		 lea	 rcx, OFFSET FLAT:??_C@_0BB@MJFJELBO@glVertexAttrib3f@
  004d6	ff 55 50	 call	 QWORD PTR load$[rbp]
  004d9	48 89 05 00 00
	00 00		 mov	 QWORD PTR glad_glVertexAttrib3f, rax

; 1261 :     glad_glVertexAttrib3fv = (PFNGLVERTEXATTRIB3FVPROC)load("glVertexAttrib3fv");

  004e0	48 8d 0d 00 00
	00 00		 lea	 rcx, OFFSET FLAT:??_C@_0BC@IDKDLKFI@glVertexAttrib3fv@
  004e7	ff 55 50	 call	 QWORD PTR load$[rbp]
  004ea	48 89 05 00 00
	00 00		 mov	 QWORD PTR glad_glVertexAttrib3fv, rax

; 1262 :     glad_glVertexAttrib3s = (PFNGLVERTEXATTRIB3SPROC)load("glVertexAttrib3s");

  004f1	48 8d 0d 00 00
	00 00		 lea	 rcx, OFFSET FLAT:??_C@_0BB@POOMKNAK@glVertexAttrib3s@
  004f8	ff 55 50	 call	 QWORD PTR load$[rbp]
  004fb	48 89 05 00 00
	00 00		 mov	 QWORD PTR glad_glVertexAttrib3s, rax

; 1263 :     glad_glVertexAttrib3sv = (PFNGLVERTEXATTRIB3SVPROC)load("glVertexAttrib3sv");

  00502	48 8d 0d 00 00
	00 00		 lea	 rcx, OFFSET FLAT:??_C@_0BC@JJEONLMD@glVertexAttrib3sv@
  00509	ff 55 50	 call	 QWORD PTR load$[rbp]
  0050c	48 89 05 00 00
	00 00		 mov	 QWORD PTR glad_glVertexAttrib3sv, rax

; 1264 :     glad_glVertexAttrib4Nbv = (PFNGLVERTEXATTRIB4NBVPROC)load("glVertexAttrib4Nbv");

  00513	48 8d 0d 00 00
	00 00		 lea	 rcx, OFFSET FLAT:??_C@_0BD@NANPPEGB@glVertexAttrib4Nbv@
  0051a	ff 55 50	 call	 QWORD PTR load$[rbp]
  0051d	48 89 05 00 00
	00 00		 mov	 QWORD PTR glad_glVertexAttrib4Nbv, rax

; 1265 :     glad_glVertexAttrib4Niv = (PFNGLVERTEXATTRIB4NIVPROC)load("glVertexAttrib4Niv");

  00524	48 8d 0d 00 00
	00 00		 lea	 rcx, OFFSET FLAT:??_C@_0BD@NMIKBLIA@glVertexAttrib4Niv@
  0052b	ff 55 50	 call	 QWORD PTR load$[rbp]
  0052e	48 89 05 00 00
	00 00		 mov	 QWORD PTR glad_glVertexAttrib4Niv, rax

; 1266 :     glad_glVertexAttrib4Nsv = (PFNGLVERTEXATTRIB4NSVPROC)load("glVertexAttrib4Nsv");

  00535	48 8d 0d 00 00
	00 00		 lea	 rcx, OFFSET FLAT:??_C@_0BD@MNDLDNCG@glVertexAttrib4Nsv@
  0053c	ff 55 50	 call	 QWORD PTR load$[rbp]
  0053f	48 89 05 00 00
	00 00		 mov	 QWORD PTR glad_glVertexAttrib4Nsv, rax

; 1267 :     glad_glVertexAttrib4Nub = (PFNGLVERTEXATTRIB4NUBPROC)load("glVertexAttrib4Nub");

  00546	48 8d 0d 00 00
	00 00		 lea	 rcx, OFFSET FLAT:??_C@_0BD@OHBIJGMB@glVertexAttrib4Nub@
  0054d	ff 55 50	 call	 QWORD PTR load$[rbp]
  00550	48 89 05 00 00
	00 00		 mov	 QWORD PTR glad_glVertexAttrib4Nub, rax

; 1268 :     glad_glVertexAttrib4Nubv = (PFNGLVERTEXATTRIB4NUBVPROC)load("glVertexAttrib4Nubv");

  00557	48 8d 0d 00 00
	00 00		 lea	 rcx, OFFSET FLAT:??_C@_0BE@JFOBDEMA@glVertexAttrib4Nubv@
  0055e	ff 55 50	 call	 QWORD PTR load$[rbp]
  00561	48 89 05 00 00
	00 00		 mov	 QWORD PTR glad_glVertexAttrib4Nubv, rax

; 1269 :     glad_glVertexAttrib4Nuiv = (PFNGLVERTEXATTRIB4NUIVPROC)load("glVertexAttrib4Nuiv");

  00568	48 8d 0d 00 00
	00 00		 lea	 rcx, OFFSET FLAT:??_C@_0BE@JJLENLCB@glVertexAttrib4Nuiv@
  0056f	ff 55 50	 call	 QWORD PTR load$[rbp]
  00572	48 89 05 00 00
	00 00		 mov	 QWORD PTR glad_glVertexAttrib4Nuiv, rax

; 1270 :     glad_glVertexAttrib4Nusv = (PFNGLVERTEXATTRIB4NUSVPROC)load("glVertexAttrib4Nusv");

  00579	48 8d 0d 00 00
	00 00		 lea	 rcx, OFFSET FLAT:??_C@_0BE@IIAFPNIH@glVertexAttrib4Nusv@
  00580	ff 55 50	 call	 QWORD PTR load$[rbp]
  00583	48 89 05 00 00
	00 00		 mov	 QWORD PTR glad_glVertexAttrib4Nusv, rax

; 1271 :     glad_glVertexAttrib4bv = (PFNGLVERTEXATTRIB4BVPROC)load("glVertexAttrib4bv");

  0058a	48 8d 0d 00 00
	00 00		 lea	 rcx, OFFSET FLAT:??_C@_0BC@BJHNCKDN@glVertexAttrib4bv@
  00591	ff 55 50	 call	 QWORD PTR load$[rbp]
  00594	48 89 05 00 00
	00 00		 mov	 QWORD PTR glad_glVertexAttrib4bv, rax

; 1272 :     glad_glVertexAttrib4d = (PFNGLVERTEXATTRIB4DPROC)load("glVertexAttrib4d");

  0059b	48 8d 0d 00 00
	00 00		 lea	 rcx, OFFSET FLAT:??_C@_0BB@POCADPBJ@glVertexAttrib4d@
  005a2	ff 55 50	 call	 QWORD PTR load$[rbp]
  005a5	48 89 05 00 00
	00 00		 mov	 QWORD PTR glad_glVertexAttrib4d, rax

; 1273 :     glad_glVertexAttrib4dv = (PFNGLVERTEXATTRIB4DVPROC)load("glVertexAttrib4dv");

  005ac	48 8d 0d 00 00
	00 00		 lea	 rcx, OFFSET FLAT:??_C@_0BC@BNPAFGIP@glVertexAttrib4dv@
  005b3	ff 55 50	 call	 QWORD PTR load$[rbp]
  005b6	48 89 05 00 00
	00 00		 mov	 QWORD PTR glad_glVertexAttrib4dv, rax

; 1274 :     glad_glVertexAttrib4f = (PFNGLVERTEXATTRIB4FPROC)load("glVertexAttrib4f");

  005bd	48 8d 0d 00 00
	00 00		 lea	 rcx, OFFSET FLAT:??_C@_0BB@MMBGFNJL@glVertexAttrib4f@
  005c4	ff 55 50	 call	 QWORD PTR load$[rbp]
  005c7	48 89 05 00 00
	00 00		 mov	 QWORD PTR glad_glVertexAttrib4f, rax

; 1275 :     glad_glVertexAttrib4fv = (PFNGLVERTEXATTRIB4FVPROC)load("glVertexAttrib4fv");

  005ce	48 8d 0d 00 00
	00 00		 lea	 rcx, OFFSET FLAT:??_C@_0BC@BOHEICOB@glVertexAttrib4fv@
  005d5	ff 55 50	 call	 QWORD PTR load$[rbp]
  005d8	48 89 05 00 00
	00 00		 mov	 QWORD PTR glad_glVertexAttrib4fv, rax

; 1276 :     glad_glVertexAttrib4iv = (PFNGLVERTEXATTRIB4IVPROC)load("glVertexAttrib4iv");

  005df	48 8d 0d 00 00
	00 00		 lea	 rcx, OFFSET FLAT:??_C@_0BC@BFCIMFNM@glVertexAttrib4iv@
  005e6	ff 55 50	 call	 QWORD PTR load$[rbp]
  005e9	48 89 05 00 00
	00 00		 mov	 QWORD PTR glad_glVertexAttrib4iv, rax

; 1277 :     glad_glVertexAttrib4s = (PFNGLVERTEXATTRIB4SPROC)load("glVertexAttrib4s");

  005f0	48 8d 0d 00 00
	00 00		 lea	 rcx, OFFSET FLAT:??_C@_0BB@PLKDLLIP@glVertexAttrib4s@
  005f7	ff 55 50	 call	 QWORD PTR load$[rbp]
  005fa	48 89 05 00 00
	00 00		 mov	 QWORD PTR glad_glVertexAttrib4s, rax

; 1278 :     glad_glVertexAttrib4sv = (PFNGLVERTEXATTRIB4SVPROC)load("glVertexAttrib4sv");

  00601	48 8d 0d 00 00
	00 00		 lea	 rcx, OFFSET FLAT:??_C@_0BC@EJJODHK@glVertexAttrib4sv@
  00608	ff 55 50	 call	 QWORD PTR load$[rbp]
  0060b	48 89 05 00 00
	00 00		 mov	 QWORD PTR glad_glVertexAttrib4sv, rax

; 1279 :     glad_glVertexAttrib4ubv = (PFNGLVERTEXATTRIB4UBVPROC)load("glVertexAttrib4ubv");

  00612	48 8d 0d 00 00
	00 00		 lea	 rcx, OFFSET FLAT:??_C@_0BD@PHPFILMB@glVertexAttrib4ubv@
  00619	ff 55 50	 call	 QWORD PTR load$[rbp]
  0061c	48 89 05 00 00
	00 00		 mov	 QWORD PTR glad_glVertexAttrib4ubv, rax

; 1280 :     glad_glVertexAttrib4uiv = (PFNGLVERTEXATTRIB4UIVPROC)load("glVertexAttrib4uiv");

  00623	48 8d 0d 00 00
	00 00		 lea	 rcx, OFFSET FLAT:??_C@_0BD@PLKAGECA@glVertexAttrib4uiv@
  0062a	ff 55 50	 call	 QWORD PTR load$[rbp]
  0062d	48 89 05 00 00
	00 00		 mov	 QWORD PTR glad_glVertexAttrib4uiv, rax

; 1281 :     glad_glVertexAttrib4usv = (PFNGLVERTEXATTRIB4USVPROC)load("glVertexAttrib4usv");

  00634	48 8d 0d 00 00
	00 00		 lea	 rcx, OFFSET FLAT:??_C@_0BD@OKBBECIG@glVertexAttrib4usv@
  0063b	ff 55 50	 call	 QWORD PTR load$[rbp]
  0063e	48 89 05 00 00
	00 00		 mov	 QWORD PTR glad_glVertexAttrib4usv, rax

; 1282 :     glad_glVertexAttribPointer = (PFNGLVERTEXATTRIBPOINTERPROC)load("glVertexAttribPointer");

  00645	48 8d 0d 00 00
	00 00		 lea	 rcx, OFFSET FLAT:??_C@_0BG@JPNNNPKG@glVertexAttribPointer@
  0064c	ff 55 50	 call	 QWORD PTR load$[rbp]
  0064f	48 89 05 00 00
	00 00		 mov	 QWORD PTR glad_glVertexAttribPointer, rax
$LN1@load_GL_VE:

; 1283 : }

  00656	48 8d 65 40	 lea	 rsp, QWORD PTR [rbp+64]
  0065a	5d		 pop	 rbp
  0065b	c3		 ret	 0
load_GL_VERSION_2_0 ENDP
_TEXT	ENDS
; Function compile flags: /Odtp /ZI
; File D:\Programmer\GLenv\glad.c
;	COMDAT load_GL_VERSION_1_5
_TEXT	SEGMENT
load$ = 80
load_GL_VERSION_1_5 PROC				; COMDAT

; 1166 : static void load_GL_VERSION_1_5(GLADloadproc load) {

  00000	48 89 4c 24 08	 mov	 QWORD PTR [rsp+8], rcx
  00005	55		 push	 rbp
  00006	48 83 ec 60	 sub	 rsp, 96			; 00000060H
  0000a	48 8d 6c 24 20	 lea	 rbp, QWORD PTR [rsp+32]
  0000f	48 8d 0d 00 00
	00 00		 lea	 rcx, OFFSET FLAT:__2B68C239_glad@c
  00016	e8 00 00 00 00	 call	 __CheckForDebuggerJustMyCode

; 1167 :     if (!GLAD_GL_VERSION_1_5) return;

  0001b	83 3d 00 00 00
	00 00		 cmp	 DWORD PTR GLAD_GL_VERSION_1_5, 0
  00022	75 05		 jne	 SHORT $LN2@load_GL_VE
  00024	e9 43 01 00 00	 jmp	 $LN1@load_GL_VE
$LN2@load_GL_VE:

; 1168 :     glad_glGenQueries = (PFNGLGENQUERIESPROC)load("glGenQueries");

  00029	48 8d 0d 00 00
	00 00		 lea	 rcx, OFFSET FLAT:??_C@_0N@CJIGHHJ@glGenQueries@
  00030	ff 55 50	 call	 QWORD PTR load$[rbp]
  00033	48 89 05 00 00
	00 00		 mov	 QWORD PTR glad_glGenQueries, rax

; 1169 :     glad_glDeleteQueries = (PFNGLDELETEQUERIESPROC)load("glDeleteQueries");

  0003a	48 8d 0d 00 00
	00 00		 lea	 rcx, OFFSET FLAT:??_C@_0BA@IOKEHMOH@glDeleteQueries@
  00041	ff 55 50	 call	 QWORD PTR load$[rbp]
  00044	48 89 05 00 00
	00 00		 mov	 QWORD PTR glad_glDeleteQueries, rax

; 1170 :     glad_glIsQuery = (PFNGLISQUERYPROC)load("glIsQuery");

  0004b	48 8d 0d 00 00
	00 00		 lea	 rcx, OFFSET FLAT:??_C@_09CNNLCEBN@glIsQuery@
  00052	ff 55 50	 call	 QWORD PTR load$[rbp]
  00055	48 89 05 00 00
	00 00		 mov	 QWORD PTR glad_glIsQuery, rax

; 1171 :     glad_glBeginQuery = (PFNGLBEGINQUERYPROC)load("glBeginQuery");

  0005c	48 8d 0d 00 00
	00 00		 lea	 rcx, OFFSET FLAT:??_C@_0N@GIAGIGPA@glBeginQuery@
  00063	ff 55 50	 call	 QWORD PTR load$[rbp]
  00066	48 89 05 00 00
	00 00		 mov	 QWORD PTR glad_glBeginQuery, rax

; 1172 :     glad_glEndQuery = (PFNGLENDQUERYPROC)load("glEndQuery");

  0006d	48 8d 0d 00 00
	00 00		 lea	 rcx, OFFSET FLAT:??_C@_0L@FLEBHIDM@glEndQuery@
  00074	ff 55 50	 call	 QWORD PTR load$[rbp]
  00077	48 89 05 00 00
	00 00		 mov	 QWORD PTR glad_glEndQuery, rax

; 1173 :     glad_glGetQueryiv = (PFNGLGETQUERYIVPROC)load("glGetQueryiv");

  0007e	48 8d 0d 00 00
	00 00		 lea	 rcx, OFFSET FLAT:??_C@_0N@BPACPFCI@glGetQueryiv@
  00085	ff 55 50	 call	 QWORD PTR load$[rbp]
  00088	48 89 05 00 00
	00 00		 mov	 QWORD PTR glad_glGetQueryiv, rax

; 1174 :     glad_glGetQueryObjectiv = (PFNGLGETQUERYOBJECTIVPROC)load("glGetQueryObjectiv");

  0008f	48 8d 0d 00 00
	00 00		 lea	 rcx, OFFSET FLAT:??_C@_0BD@KMBBCJID@glGetQueryObjectiv@
  00096	ff 55 50	 call	 QWORD PTR load$[rbp]
  00099	48 89 05 00 00
	00 00		 mov	 QWORD PTR glad_glGetQueryObjectiv, rax

; 1175 :     glad_glGetQueryObjectuiv = (PFNGLGETQUERYOBJECTUIVPROC)load("glGetQueryObjectuiv");

  000a0	48 8d 0d 00 00
	00 00		 lea	 rcx, OFFSET FLAT:??_C@_0BE@MNBBKJ@glGetQueryObjectuiv@
  000a7	ff 55 50	 call	 QWORD PTR load$[rbp]
  000aa	48 89 05 00 00
	00 00		 mov	 QWORD PTR glad_glGetQueryObjectuiv, rax

; 1176 :     glad_glBindBuffer = (PFNGLBINDBUFFERPROC)load("glBindBuffer");

  000b1	48 8d 0d 00 00
	00 00		 lea	 rcx, OFFSET FLAT:??_C@_0N@BONEPPLO@glBindBuffer@
  000b8	ff 55 50	 call	 QWORD PTR load$[rbp]
  000bb	48 89 05 00 00
	00 00		 mov	 QWORD PTR glad_glBindBuffer, rax

; 1177 :     glad_glDeleteBuffers = (PFNGLDELETEBUFFERSPROC)load("glDeleteBuffers");

  000c2	48 8d 0d 00 00
	00 00		 lea	 rcx, OFFSET FLAT:??_C@_0BA@DMNLADIO@glDeleteBuffers@
  000c9	ff 55 50	 call	 QWORD PTR load$[rbp]
  000cc	48 89 05 00 00
	00 00		 mov	 QWORD PTR glad_glDeleteBuffers, rax

; 1178 :     glad_glGenBuffers = (PFNGLGENBUFFERSPROC)load("glGenBuffers");

  000d3	48 8d 0d 00 00
	00 00		 lea	 rcx, OFFSET FLAT:??_C@_0N@LAOHBIBA@glGenBuffers@
  000da	ff 55 50	 call	 QWORD PTR load$[rbp]
  000dd	48 89 05 00 00
	00 00		 mov	 QWORD PTR glad_glGenBuffers, rax

; 1179 :     glad_glIsBuffer = (PFNGLISBUFFERPROC)load("glIsBuffer");

  000e4	48 8d 0d 00 00
	00 00		 lea	 rcx, OFFSET FLAT:??_C@_0L@KFPDMKNG@glIsBuffer@
  000eb	ff 55 50	 call	 QWORD PTR load$[rbp]
  000ee	48 89 05 00 00
	00 00		 mov	 QWORD PTR glad_glIsBuffer, rax

; 1180 :     glad_glBufferData = (PFNGLBUFFERDATAPROC)load("glBufferData");

  000f5	48 8d 0d 00 00
	00 00		 lea	 rcx, OFFSET FLAT:??_C@_0N@JHHJMABP@glBufferData@
  000fc	ff 55 50	 call	 QWORD PTR load$[rbp]
  000ff	48 89 05 00 00
	00 00		 mov	 QWORD PTR glad_glBufferData, rax

; 1181 :     glad_glBufferSubData = (PFNGLBUFFERSUBDATAPROC)load("glBufferSubData");

  00106	48 8d 0d 00 00
	00 00		 lea	 rcx, OFFSET FLAT:??_C@_0BA@GAJMDBBN@glBufferSubData@
  0010d	ff 55 50	 call	 QWORD PTR load$[rbp]
  00110	48 89 05 00 00
	00 00		 mov	 QWORD PTR glad_glBufferSubData, rax

; 1182 :     glad_glGetBufferSubData = (PFNGLGETBUFFERSUBDATAPROC)load("glGetBufferSubData");

  00117	48 8d 0d 00 00
	00 00		 lea	 rcx, OFFSET FLAT:??_C@_0BD@PNDAHMBO@glGetBufferSubData@
  0011e	ff 55 50	 call	 QWORD PTR load$[rbp]
  00121	48 89 05 00 00
	00 00		 mov	 QWORD PTR glad_glGetBufferSubData, rax

; 1183 :     glad_glMapBuffer = (PFNGLMAPBUFFERPROC)load("glMapBuffer");

  00128	48 8d 0d 00 00
	00 00		 lea	 rcx, OFFSET FLAT:??_C@_0M@NNHDPACA@glMapBuffer@
  0012f	ff 55 50	 call	 QWORD PTR load$[rbp]
  00132	48 89 05 00 00
	00 00		 mov	 QWORD PTR glad_glMapBuffer, rax

; 1184 :     glad_glUnmapBuffer = (PFNGLUNMAPBUFFERPROC)load("glUnmapBuffer");

  00139	48 8d 0d 00 00
	00 00		 lea	 rcx, OFFSET FLAT:??_C@_0O@OFGHBLEO@glUnmapBuffer@
  00140	ff 55 50	 call	 QWORD PTR load$[rbp]
  00143	48 89 05 00 00
	00 00		 mov	 QWORD PTR glad_glUnmapBuffer, rax

; 1185 :     glad_glGetBufferParameteriv = (PFNGLGETBUFFERPARAMETERIVPROC)load("glGetBufferParameteriv");

  0014a	48 8d 0d 00 00
	00 00		 lea	 rcx, OFFSET FLAT:??_C@_0BH@BMIEIFJP@glGetBufferParameteriv@
  00151	ff 55 50	 call	 QWORD PTR load$[rbp]
  00154	48 89 05 00 00
	00 00		 mov	 QWORD PTR glad_glGetBufferParameteriv, rax

; 1186 :     glad_glGetBufferPointerv = (PFNGLGETBUFFERPOINTERVPROC)load("glGetBufferPointerv");

  0015b	48 8d 0d 00 00
	00 00		 lea	 rcx, OFFSET FLAT:??_C@_0BE@KNJEIFMC@glGetBufferPointerv@
  00162	ff 55 50	 call	 QWORD PTR load$[rbp]
  00165	48 89 05 00 00
	00 00		 mov	 QWORD PTR glad_glGetBufferPointerv, rax
$LN1@load_GL_VE:

; 1187 : }

  0016c	48 8d 65 40	 lea	 rsp, QWORD PTR [rbp+64]
  00170	5d		 pop	 rbp
  00171	c3		 ret	 0
load_GL_VERSION_1_5 ENDP
_TEXT	ENDS
; Function compile flags: /Odtp /ZI
; File D:\Programmer\GLenv\glad.c
;	COMDAT load_GL_VERSION_1_4
_TEXT	SEGMENT
load$ = 80
load_GL_VERSION_1_4 PROC				; COMDAT

; 1154 : static void load_GL_VERSION_1_4(GLADloadproc load) {

  00000	48 89 4c 24 08	 mov	 QWORD PTR [rsp+8], rcx
  00005	55		 push	 rbp
  00006	48 83 ec 60	 sub	 rsp, 96			; 00000060H
  0000a	48 8d 6c 24 20	 lea	 rbp, QWORD PTR [rsp+32]
  0000f	48 8d 0d 00 00
	00 00		 lea	 rcx, OFFSET FLAT:__2B68C239_glad@c
  00016	e8 00 00 00 00	 call	 __CheckForDebuggerJustMyCode

; 1155 :     if (!GLAD_GL_VERSION_1_4) return;

  0001b	83 3d 00 00 00
	00 00		 cmp	 DWORD PTR GLAD_GL_VERSION_1_4, 0
  00022	75 05		 jne	 SHORT $LN2@load_GL_VE
  00024	e9 99 00 00 00	 jmp	 $LN1@load_GL_VE
$LN2@load_GL_VE:

; 1156 :     glad_glBlendFuncSeparate = (PFNGLBLENDFUNCSEPARATEPROC)load("glBlendFuncSeparate");

  00029	48 8d 0d 00 00
	00 00		 lea	 rcx, OFFSET FLAT:??_C@_0BE@LLLCIIOO@glBlendFuncSeparate@
  00030	ff 55 50	 call	 QWORD PTR load$[rbp]
  00033	48 89 05 00 00
	00 00		 mov	 QWORD PTR glad_glBlendFuncSeparate, rax

; 1157 :     glad_glMultiDrawArrays = (PFNGLMULTIDRAWARRAYSPROC)load("glMultiDrawArrays");

  0003a	48 8d 0d 00 00
	00 00		 lea	 rcx, OFFSET FLAT:??_C@_0BC@IBABPJFA@glMultiDrawArrays@
  00041	ff 55 50	 call	 QWORD PTR load$[rbp]
  00044	48 89 05 00 00
	00 00		 mov	 QWORD PTR glad_glMultiDrawArrays, rax

; 1158 :     glad_glMultiDrawElements = (PFNGLMULTIDRAWELEMENTSPROC)load("glMultiDrawElements");

  0004b	48 8d 0d 00 00
	00 00		 lea	 rcx, OFFSET FLAT:??_C@_0BE@MPDFJJLL@glMultiDrawElements@
  00052	ff 55 50	 call	 QWORD PTR load$[rbp]
  00055	48 89 05 00 00
	00 00		 mov	 QWORD PTR glad_glMultiDrawElements, rax

; 1159 :     glad_glPointParameterf = (PFNGLPOINTPARAMETERFPROC)load("glPointParameterf");

  0005c	48 8d 0d 00 00
	00 00		 lea	 rcx, OFFSET FLAT:??_C@_0BC@FGOOEDO@glPointParameterf@
  00063	ff 55 50	 call	 QWORD PTR load$[rbp]
  00066	48 89 05 00 00
	00 00		 mov	 QWORD PTR glad_glPointParameterf, rax

; 1160 :     glad_glPointParameterfv = (PFNGLPOINTPARAMETERFVPROC)load("glPointParameterfv");

  0006d	48 8d 0d 00 00
	00 00		 lea	 rcx, OFFSET FLAT:??_C@_0BD@LIABKNDP@glPointParameterfv@
  00074	ff 55 50	 call	 QWORD PTR load$[rbp]
  00077	48 89 05 00 00
	00 00		 mov	 QWORD PTR glad_glPointParameterfv, rax

; 1161 :     glad_glPointParameteri = (PFNGLPOINTPARAMETERIPROC)load("glPointParameteri");

  0007e	48 8d 0d 00 00
	00 00		 lea	 rcx, OFFSET FLAT:??_C@_0BC@ICPGPIPB@glPointParameteri@
  00085	ff 55 50	 call	 QWORD PTR load$[rbp]
  00088	48 89 05 00 00
	00 00		 mov	 QWORD PTR glad_glPointParameteri, rax

; 1162 :     glad_glPointParameteriv = (PFNGLPOINTPARAMETERIVPROC)load("glPointParameteriv");

  0008f	48 8d 0d 00 00
	00 00		 lea	 rcx, OFFSET FLAT:??_C@_0BD@LDFNOKAC@glPointParameteriv@
  00096	ff 55 50	 call	 QWORD PTR load$[rbp]
  00099	48 89 05 00 00
	00 00		 mov	 QWORD PTR glad_glPointParameteriv, rax

; 1163 :     glad_glBlendColor = (PFNGLBLENDCOLORPROC)load("glBlendColor");

  000a0	48 8d 0d 00 00
	00 00		 lea	 rcx, OFFSET FLAT:??_C@_0N@PKBMFJDK@glBlendColor@
  000a7	ff 55 50	 call	 QWORD PTR load$[rbp]
  000aa	48 89 05 00 00
	00 00		 mov	 QWORD PTR glad_glBlendColor, rax

; 1164 :     glad_glBlendEquation = (PFNGLBLENDEQUATIONPROC)load("glBlendEquation");

  000b1	48 8d 0d 00 00
	00 00		 lea	 rcx, OFFSET FLAT:??_C@_0BA@PFHILPAN@glBlendEquation@
  000b8	ff 55 50	 call	 QWORD PTR load$[rbp]
  000bb	48 89 05 00 00
	00 00		 mov	 QWORD PTR glad_glBlendEquation, rax
$LN1@load_GL_VE:

; 1165 : }

  000c2	48 8d 65 40	 lea	 rsp, QWORD PTR [rbp+64]
  000c6	5d		 pop	 rbp
  000c7	c3		 ret	 0
load_GL_VERSION_1_4 ENDP
_TEXT	ENDS
; Function compile flags: /Odtp /ZI
; File D:\Programmer\GLenv\glad.c
;	COMDAT load_GL_VERSION_1_3
_TEXT	SEGMENT
load$ = 80
load_GL_VERSION_1_3 PROC				; COMDAT

; 1142 : static void load_GL_VERSION_1_3(GLADloadproc load) {

  00000	48 89 4c 24 08	 mov	 QWORD PTR [rsp+8], rcx
  00005	55		 push	 rbp
  00006	48 83 ec 60	 sub	 rsp, 96			; 00000060H
  0000a	48 8d 6c 24 20	 lea	 rbp, QWORD PTR [rsp+32]
  0000f	48 8d 0d 00 00
	00 00		 lea	 rcx, OFFSET FLAT:__2B68C239_glad@c
  00016	e8 00 00 00 00	 call	 __CheckForDebuggerJustMyCode

; 1143 :     if (!GLAD_GL_VERSION_1_3) return;

  0001b	83 3d 00 00 00
	00 00		 cmp	 DWORD PTR GLAD_GL_VERSION_1_3, 0
  00022	75 05		 jne	 SHORT $LN2@load_GL_VE
  00024	e9 99 00 00 00	 jmp	 $LN1@load_GL_VE
$LN2@load_GL_VE:

; 1144 :     glad_glActiveTexture = (PFNGLACTIVETEXTUREPROC)load("glActiveTexture");

  00029	48 8d 0d 00 00
	00 00		 lea	 rcx, OFFSET FLAT:??_C@_0BA@KOBBIKOF@glActiveTexture@
  00030	ff 55 50	 call	 QWORD PTR load$[rbp]
  00033	48 89 05 00 00
	00 00		 mov	 QWORD PTR glad_glActiveTexture, rax

; 1145 :     glad_glSampleCoverage = (PFNGLSAMPLECOVERAGEPROC)load("glSampleCoverage");

  0003a	48 8d 0d 00 00
	00 00		 lea	 rcx, OFFSET FLAT:??_C@_0BB@BJGIPMOA@glSampleCoverage@
  00041	ff 55 50	 call	 QWORD PTR load$[rbp]
  00044	48 89 05 00 00
	00 00		 mov	 QWORD PTR glad_glSampleCoverage, rax

; 1146 :     glad_glCompressedTexImage3D = (PFNGLCOMPRESSEDTEXIMAGE3DPROC)load("glCompressedTexImage3D");

  0004b	48 8d 0d 00 00
	00 00		 lea	 rcx, OFFSET FLAT:??_C@_0BH@GGHNMAGP@glCompressedTexImage3D@
  00052	ff 55 50	 call	 QWORD PTR load$[rbp]
  00055	48 89 05 00 00
	00 00		 mov	 QWORD PTR glad_glCompressedTexImage3D, rax

; 1147 :     glad_glCompressedTexImage2D = (PFNGLCOMPRESSEDTEXIMAGE2DPROC)load("glCompressedTexImage2D");

  0005c	48 8d 0d 00 00
	00 00		 lea	 rcx, OFFSET FLAT:??_C@_0BH@GHLPKKFI@glCompressedTexImage2D@
  00063	ff 55 50	 call	 QWORD PTR load$[rbp]
  00066	48 89 05 00 00
	00 00		 mov	 QWORD PTR glad_glCompressedTexImage2D, rax

; 1148 :     glad_glCompressedTexImage1D = (PFNGLCOMPRESSEDTEXIMAGE1DPROC)load("glCompressedTexImage1D");

  0006d	48 8d 0d 00 00
	00 00		 lea	 rcx, OFFSET FLAT:??_C@_0BH@GFPJBEAB@glCompressedTexImage1D@
  00074	ff 55 50	 call	 QWORD PTR load$[rbp]
  00077	48 89 05 00 00
	00 00		 mov	 QWORD PTR glad_glCompressedTexImage1D, rax

; 1149 :     glad_glCompressedTexSubImage3D = (PFNGLCOMPRESSEDTEXSUBIMAGE3DPROC)load("glCompressedTexSubImage3D");

  0007e	48 8d 0d 00 00
	00 00		 lea	 rcx, OFFSET FLAT:??_C@_0BK@EBJMCDPA@glCompressedTexSubImage3D@
  00085	ff 55 50	 call	 QWORD PTR load$[rbp]
  00088	48 89 05 00 00
	00 00		 mov	 QWORD PTR glad_glCompressedTexSubImage3D, rax

; 1150 :     glad_glCompressedTexSubImage2D = (PFNGLCOMPRESSEDTEXSUBIMAGE2DPROC)load("glCompressedTexSubImage2D");

  0008f	48 8d 0d 00 00
	00 00		 lea	 rcx, OFFSET FLAT:??_C@_0BK@EAFOEJMH@glCompressedTexSubImage2D@
  00096	ff 55 50	 call	 QWORD PTR load$[rbp]
  00099	48 89 05 00 00
	00 00		 mov	 QWORD PTR glad_glCompressedTexSubImage2D, rax

; 1151 :     glad_glCompressedTexSubImage1D = (PFNGLCOMPRESSEDTEXSUBIMAGE1DPROC)load("glCompressedTexSubImage1D");

  000a0	48 8d 0d 00 00
	00 00		 lea	 rcx, OFFSET FLAT:??_C@_0BK@ECBIPHJO@glCompressedTexSubImage1D@
  000a7	ff 55 50	 call	 QWORD PTR load$[rbp]
  000aa	48 89 05 00 00
	00 00		 mov	 QWORD PTR glad_glCompressedTexSubImage1D, rax

; 1152 :     glad_glGetCompressedTexImage = (PFNGLGETCOMPRESSEDTEXIMAGEPROC)load("glGetCompressedTexImage");

  000b1	48 8d 0d 00 00
	00 00		 lea	 rcx, OFFSET FLAT:??_C@_0BI@MPANLPPL@glGetCompressedTexImage@
  000b8	ff 55 50	 call	 QWORD PTR load$[rbp]
  000bb	48 89 05 00 00
	00 00		 mov	 QWORD PTR glad_glGetCompressedTexImage, rax
$LN1@load_GL_VE:

; 1153 : }

  000c2	48 8d 65 40	 lea	 rsp, QWORD PTR [rbp+64]
  000c6	5d		 pop	 rbp
  000c7	c3		 ret	 0
load_GL_VERSION_1_3 ENDP
_TEXT	ENDS
; Function compile flags: /Odtp /ZI
; File D:\Programmer\GLenv\glad.c
;	COMDAT load_GL_VERSION_1_2
_TEXT	SEGMENT
load$ = 80
load_GL_VERSION_1_2 PROC				; COMDAT

; 1135 : static void load_GL_VERSION_1_2(GLADloadproc load) {

  00000	48 89 4c 24 08	 mov	 QWORD PTR [rsp+8], rcx
  00005	55		 push	 rbp
  00006	48 83 ec 60	 sub	 rsp, 96			; 00000060H
  0000a	48 8d 6c 24 20	 lea	 rbp, QWORD PTR [rsp+32]
  0000f	48 8d 0d 00 00
	00 00		 lea	 rcx, OFFSET FLAT:__2B68C239_glad@c
  00016	e8 00 00 00 00	 call	 __CheckForDebuggerJustMyCode

; 1136 :     if (!GLAD_GL_VERSION_1_2) return;

  0001b	83 3d 00 00 00
	00 00		 cmp	 DWORD PTR GLAD_GL_VERSION_1_2, 0
  00022	75 02		 jne	 SHORT $LN2@load_GL_VE
  00024	eb 44		 jmp	 SHORT $LN1@load_GL_VE
$LN2@load_GL_VE:

; 1137 :     glad_glDrawRangeElements = (PFNGLDRAWRANGEELEMENTSPROC)load("glDrawRangeElements");

  00026	48 8d 0d 00 00
	00 00		 lea	 rcx, OFFSET FLAT:??_C@_0BE@IHNAGJGJ@glDrawRangeElements@
  0002d	ff 55 50	 call	 QWORD PTR load$[rbp]
  00030	48 89 05 00 00
	00 00		 mov	 QWORD PTR glad_glDrawRangeElements, rax

; 1138 :     glad_glTexImage3D = (PFNGLTEXIMAGE3DPROC)load("glTexImage3D");

  00037	48 8d 0d 00 00
	00 00		 lea	 rcx, OFFSET FLAT:??_C@_0N@JAEIBBBF@glTexImage3D@
  0003e	ff 55 50	 call	 QWORD PTR load$[rbp]
  00041	48 89 05 00 00
	00 00		 mov	 QWORD PTR glad_glTexImage3D, rax

; 1139 :     glad_glTexSubImage3D = (PFNGLTEXSUBIMAGE3DPROC)load("glTexSubImage3D");

  00048	48 8d 0d 00 00
	00 00		 lea	 rcx, OFFSET FLAT:??_C@_0BA@NGGKPOPN@glTexSubImage3D@
  0004f	ff 55 50	 call	 QWORD PTR load$[rbp]
  00052	48 89 05 00 00
	00 00		 mov	 QWORD PTR glad_glTexSubImage3D, rax

; 1140 :     glad_glCopyTexSubImage3D = (PFNGLCOPYTEXSUBIMAGE3DPROC)load("glCopyTexSubImage3D");

  00059	48 8d 0d 00 00
	00 00		 lea	 rcx, OFFSET FLAT:??_C@_0BE@PJFGNMAG@glCopyTexSubImage3D@
  00060	ff 55 50	 call	 QWORD PTR load$[rbp]
  00063	48 89 05 00 00
	00 00		 mov	 QWORD PTR glad_glCopyTexSubImage3D, rax
$LN1@load_GL_VE:

; 1141 : }

  0006a	48 8d 65 40	 lea	 rsp, QWORD PTR [rbp+64]
  0006e	5d		 pop	 rbp
  0006f	c3		 ret	 0
load_GL_VERSION_1_2 ENDP
_TEXT	ENDS
; Function compile flags: /Odtp /ZI
; File D:\Programmer\GLenv\glad.c
;	COMDAT load_GL_VERSION_1_1
_TEXT	SEGMENT
load$ = 80
load_GL_VERSION_1_1 PROC				; COMDAT

; 1119 : static void load_GL_VERSION_1_1(GLADloadproc load) {

  00000	48 89 4c 24 08	 mov	 QWORD PTR [rsp+8], rcx
  00005	55		 push	 rbp
  00006	48 83 ec 60	 sub	 rsp, 96			; 00000060H
  0000a	48 8d 6c 24 20	 lea	 rbp, QWORD PTR [rsp+32]
  0000f	48 8d 0d 00 00
	00 00		 lea	 rcx, OFFSET FLAT:__2B68C239_glad@c
  00016	e8 00 00 00 00	 call	 __CheckForDebuggerJustMyCode

; 1120 :     if (!GLAD_GL_VERSION_1_1) return;

  0001b	83 3d 00 00 00
	00 00		 cmp	 DWORD PTR GLAD_GL_VERSION_1_1, 0
  00022	75 05		 jne	 SHORT $LN2@load_GL_VE
  00024	e9 dd 00 00 00	 jmp	 $LN1@load_GL_VE
$LN2@load_GL_VE:

; 1121 :     glad_glDrawArrays = (PFNGLDRAWARRAYSPROC)load("glDrawArrays");

  00029	48 8d 0d 00 00
	00 00		 lea	 rcx, OFFSET FLAT:??_C@_0N@CMNPPOHA@glDrawArrays@
  00030	ff 55 50	 call	 QWORD PTR load$[rbp]
  00033	48 89 05 00 00
	00 00		 mov	 QWORD PTR glad_glDrawArrays, rax

; 1122 :     glad_glDrawElements = (PFNGLDRAWELEMENTSPROC)load("glDrawElements");

  0003a	48 8d 0d 00 00
	00 00		 lea	 rcx, OFFSET FLAT:??_C@_0P@MENFIFGE@glDrawElements@
  00041	ff 55 50	 call	 QWORD PTR load$[rbp]
  00044	48 89 05 00 00
	00 00		 mov	 QWORD PTR glad_glDrawElements, rax

; 1123 :     glad_glPolygonOffset = (PFNGLPOLYGONOFFSETPROC)load("glPolygonOffset");

  0004b	48 8d 0d 00 00
	00 00		 lea	 rcx, OFFSET FLAT:??_C@_0BA@FFBJGNC@glPolygonOffset@
  00052	ff 55 50	 call	 QWORD PTR load$[rbp]
  00055	48 89 05 00 00
	00 00		 mov	 QWORD PTR glad_glPolygonOffset, rax

; 1124 :     glad_glCopyTexImage1D = (PFNGLCOPYTEXIMAGE1DPROC)load("glCopyTexImage1D");

  0005c	48 8d 0d 00 00
	00 00		 lea	 rcx, OFFSET FLAT:??_C@_0BB@MEEDBHPL@glCopyTexImage1D@
  00063	ff 55 50	 call	 QWORD PTR load$[rbp]
  00066	48 89 05 00 00
	00 00		 mov	 QWORD PTR glad_glCopyTexImage1D, rax

; 1125 :     glad_glCopyTexImage2D = (PFNGLCOPYTEXIMAGE2DPROC)load("glCopyTexImage2D");

  0006d	48 8d 0d 00 00
	00 00		 lea	 rcx, OFFSET FLAT:??_C@_0BB@MGAFKJKC@glCopyTexImage2D@
  00074	ff 55 50	 call	 QWORD PTR load$[rbp]
  00077	48 89 05 00 00
	00 00		 mov	 QWORD PTR glad_glCopyTexImage2D, rax

; 1126 :     glad_glCopyTexSubImage1D = (PFNGLCOPYTEXSUBIMAGE1DPROC)load("glCopyTexSubImage1D");

  0007e	48 8d 0d 00 00
	00 00		 lea	 rcx, OFFSET FLAT:??_C@_0BE@PKNCAIGI@glCopyTexSubImage1D@
  00085	ff 55 50	 call	 QWORD PTR load$[rbp]
  00088	48 89 05 00 00
	00 00		 mov	 QWORD PTR glad_glCopyTexSubImage1D, rax

; 1127 :     glad_glCopyTexSubImage2D = (PFNGLCOPYTEXSUBIMAGE2DPROC)load("glCopyTexSubImage2D");

  0008f	48 8d 0d 00 00
	00 00		 lea	 rcx, OFFSET FLAT:??_C@_0BE@PIJELGDB@glCopyTexSubImage2D@
  00096	ff 55 50	 call	 QWORD PTR load$[rbp]
  00099	48 89 05 00 00
	00 00		 mov	 QWORD PTR glad_glCopyTexSubImage2D, rax

; 1128 :     glad_glTexSubImage1D = (PFNGLTEXSUBIMAGE1DPROC)load("glTexSubImage1D");

  000a0	48 8d 0d 00 00
	00 00		 lea	 rcx, OFFSET FLAT:??_C@_0BA@NFOOCKJD@glTexSubImage1D@
  000a7	ff 55 50	 call	 QWORD PTR load$[rbp]
  000aa	48 89 05 00 00
	00 00		 mov	 QWORD PTR glad_glTexSubImage1D, rax

; 1129 :     glad_glTexSubImage2D = (PFNGLTEXSUBIMAGE2DPROC)load("glTexSubImage2D");

  000b1	48 8d 0d 00 00
	00 00		 lea	 rcx, OFFSET FLAT:??_C@_0BA@NHKIJEMK@glTexSubImage2D@
  000b8	ff 55 50	 call	 QWORD PTR load$[rbp]
  000bb	48 89 05 00 00
	00 00		 mov	 QWORD PTR glad_glTexSubImage2D, rax

; 1130 :     glad_glBindTexture = (PFNGLBINDTEXTUREPROC)load("glBindTexture");

  000c2	48 8d 0d 00 00
	00 00		 lea	 rcx, OFFSET FLAT:??_C@_0O@JKKCIBGC@glBindTexture@
  000c9	ff 55 50	 call	 QWORD PTR load$[rbp]
  000cc	48 89 05 00 00
	00 00		 mov	 QWORD PTR glad_glBindTexture, rax

; 1131 :     glad_glDeleteTextures = (PFNGLDELETETEXTURESPROC)load("glDeleteTextures");

  000d3	48 8d 0d 00 00
	00 00		 lea	 rcx, OFFSET FLAT:??_C@_0BB@KMPLFJIC@glDeleteTextures@
  000da	ff 55 50	 call	 QWORD PTR load$[rbp]
  000dd	48 89 05 00 00
	00 00		 mov	 QWORD PTR glad_glDeleteTextures, rax

; 1132 :     glad_glGenTextures = (PFNGLGENTEXTURESPROC)load("glGenTextures");

  000e4	48 8d 0d 00 00
	00 00		 lea	 rcx, OFFSET FLAT:??_C@_0O@LLMANLNK@glGenTextures@
  000eb	ff 55 50	 call	 QWORD PTR load$[rbp]
  000ee	48 89 05 00 00
	00 00		 mov	 QWORD PTR glad_glGenTextures, rax

; 1133 :     glad_glIsTexture = (PFNGLISTEXTUREPROC)load("glIsTexture");

  000f5	48 8d 0d 00 00
	00 00		 lea	 rcx, OFFSET FLAT:??_C@_0M@NJHAEPDN@glIsTexture@
  000fc	ff 55 50	 call	 QWORD PTR load$[rbp]
  000ff	48 89 05 00 00
	00 00		 mov	 QWORD PTR glad_glIsTexture, rax
$LN1@load_GL_VE:

; 1134 : }

  00106	48 8d 65 40	 lea	 rsp, QWORD PTR [rbp+64]
  0010a	5d		 pop	 rbp
  0010b	c3		 ret	 0
load_GL_VERSION_1_1 ENDP
_TEXT	ENDS
; Function compile flags: /Odtp /ZI
; File D:\Programmer\GLenv\glad.c
;	COMDAT load_GL_VERSION_1_0
_TEXT	SEGMENT
load$ = 80
load_GL_VERSION_1_0 PROC				; COMDAT

; 1068 : static void load_GL_VERSION_1_0(GLADloadproc load) {

  00000	48 89 4c 24 08	 mov	 QWORD PTR [rsp+8], rcx
  00005	55		 push	 rbp
  00006	48 83 ec 60	 sub	 rsp, 96			; 00000060H
  0000a	48 8d 6c 24 20	 lea	 rbp, QWORD PTR [rsp+32]
  0000f	48 8d 0d 00 00
	00 00		 lea	 rcx, OFFSET FLAT:__2B68C239_glad@c
  00016	e8 00 00 00 00	 call	 __CheckForDebuggerJustMyCode

; 1069 :     if (!GLAD_GL_VERSION_1_0) return;

  0001b	83 3d 00 00 00
	00 00		 cmp	 DWORD PTR GLAD_GL_VERSION_1_0, 0
  00022	75 05		 jne	 SHORT $LN2@load_GL_VE
  00024	e9 30 03 00 00	 jmp	 $LN1@load_GL_VE
$LN2@load_GL_VE:

; 1070 :     glad_glCullFace = (PFNGLCULLFACEPROC)load("glCullFace");

  00029	48 8d 0d 00 00
	00 00		 lea	 rcx, OFFSET FLAT:??_C@_0L@BAPBLHME@glCullFace@
  00030	ff 55 50	 call	 QWORD PTR load$[rbp]
  00033	48 89 05 00 00
	00 00		 mov	 QWORD PTR glad_glCullFace, rax

; 1071 :     glad_glFrontFace = (PFNGLFRONTFACEPROC)load("glFrontFace");

  0003a	48 8d 0d 00 00
	00 00		 lea	 rcx, OFFSET FLAT:??_C@_0M@ILBMDJDA@glFrontFace@
  00041	ff 55 50	 call	 QWORD PTR load$[rbp]
  00044	48 89 05 00 00
	00 00		 mov	 QWORD PTR glad_glFrontFace, rax

; 1072 :     glad_glHint = (PFNGLHINTPROC)load("glHint");

  0004b	48 8d 0d 00 00
	00 00		 lea	 rcx, OFFSET FLAT:??_C@_06HEADGMBC@glHint@
  00052	ff 55 50	 call	 QWORD PTR load$[rbp]
  00055	48 89 05 00 00
	00 00		 mov	 QWORD PTR glad_glHint, rax

; 1073 :     glad_glLineWidth = (PFNGLLINEWIDTHPROC)load("glLineWidth");

  0005c	48 8d 0d 00 00
	00 00		 lea	 rcx, OFFSET FLAT:??_C@_0M@CFLGNFPG@glLineWidth@
  00063	ff 55 50	 call	 QWORD PTR load$[rbp]
  00066	48 89 05 00 00
	00 00		 mov	 QWORD PTR glad_glLineWidth, rax

; 1074 :     glad_glPointSize = (PFNGLPOINTSIZEPROC)load("glPointSize");

  0006d	48 8d 0d 00 00
	00 00		 lea	 rcx, OFFSET FLAT:??_C@_0M@EEAPMMNM@glPointSize@
  00074	ff 55 50	 call	 QWORD PTR load$[rbp]
  00077	48 89 05 00 00
	00 00		 mov	 QWORD PTR glad_glPointSize, rax

; 1075 :     glad_glPolygonMode = (PFNGLPOLYGONMODEPROC)load("glPolygonMode");

  0007e	48 8d 0d 00 00
	00 00		 lea	 rcx, OFFSET FLAT:??_C@_0O@DKMNBFMB@glPolygonMode@
  00085	ff 55 50	 call	 QWORD PTR load$[rbp]
  00088	48 89 05 00 00
	00 00		 mov	 QWORD PTR glad_glPolygonMode, rax

; 1076 :     glad_glScissor = (PFNGLSCISSORPROC)load("glScissor");

  0008f	48 8d 0d 00 00
	00 00		 lea	 rcx, OFFSET FLAT:??_C@_09ECGPAEPL@glScissor@
  00096	ff 55 50	 call	 QWORD PTR load$[rbp]
  00099	48 89 05 00 00
	00 00		 mov	 QWORD PTR glad_glScissor, rax

; 1077 :     glad_glTexParameterf = (PFNGLTEXPARAMETERFPROC)load("glTexParameterf");

  000a0	48 8d 0d 00 00
	00 00		 lea	 rcx, OFFSET FLAT:??_C@_0BA@INKFIMGP@glTexParameterf@
  000a7	ff 55 50	 call	 QWORD PTR load$[rbp]
  000aa	48 89 05 00 00
	00 00		 mov	 QWORD PTR glad_glTexParameterf, rax

; 1078 :     glad_glTexParameterfv = (PFNGLTEXPARAMETERFVPROC)load("glTexParameterfv");

  000b1	48 8d 0d 00 00
	00 00		 lea	 rcx, OFFSET FLAT:??_C@_0BB@KEOFAHDF@glTexParameterfv@
  000b8	ff 55 50	 call	 QWORD PTR load$[rbp]
  000bb	48 89 05 00 00
	00 00		 mov	 QWORD PTR glad_glTexParameterfv, rax

; 1079 :     glad_glTexParameteri = (PFNGLTEXPARAMETERIPROC)load("glTexParameteri");

  000c2	48 8d 0d 00 00
	00 00		 lea	 rcx, OFFSET FLAT:??_C@_0BA@KDNJAKA@glTexParameteri@
  000c9	ff 55 50	 call	 QWORD PTR load$[rbp]
  000cc	48 89 05 00 00
	00 00		 mov	 QWORD PTR glad_glTexParameteri, rax

; 1080 :     glad_glTexParameteriv = (PFNGLTEXPARAMETERIVPROC)load("glTexParameteriv");

  000d3	48 8d 0d 00 00
	00 00		 lea	 rcx, OFFSET FLAT:??_C@_0BB@KPLJEAAI@glTexParameteriv@
  000da	ff 55 50	 call	 QWORD PTR load$[rbp]
  000dd	48 89 05 00 00
	00 00		 mov	 QWORD PTR glad_glTexParameteriv, rax

; 1081 :     glad_glTexImage1D = (PFNGLTEXIMAGE1DPROC)load("glTexImage1D");

  000e4	48 8d 0d 00 00
	00 00		 lea	 rcx, OFFSET FLAT:??_C@_0N@JDMMMFHL@glTexImage1D@
  000eb	ff 55 50	 call	 QWORD PTR load$[rbp]
  000ee	48 89 05 00 00
	00 00		 mov	 QWORD PTR glad_glTexImage1D, rax

; 1082 :     glad_glTexImage2D = (PFNGLTEXIMAGE2DPROC)load("glTexImage2D");

  000f5	48 8d 0d 00 00
	00 00		 lea	 rcx, OFFSET FLAT:??_C@_0N@JBIKHLCC@glTexImage2D@
  000fc	ff 55 50	 call	 QWORD PTR load$[rbp]
  000ff	48 89 05 00 00
	00 00		 mov	 QWORD PTR glad_glTexImage2D, rax

; 1083 :     glad_glDrawBuffer = (PFNGLDRAWBUFFERPROC)load("glDrawBuffer");

  00106	48 8d 0d 00 00
	00 00		 lea	 rcx, OFFSET FLAT:??_C@_0N@EKCLGPL@glDrawBuffer@
  0010d	ff 55 50	 call	 QWORD PTR load$[rbp]
  00110	48 89 05 00 00
	00 00		 mov	 QWORD PTR glad_glDrawBuffer, rax

; 1084 :     glad_glClear = (PFNGLCLEARPROC)load("glClear");

  00117	48 8d 0d 00 00
	00 00		 lea	 rcx, OFFSET FLAT:??_C@_07IBAPPAHJ@glClear@
  0011e	ff 55 50	 call	 QWORD PTR load$[rbp]
  00121	48 89 05 00 00
	00 00		 mov	 QWORD PTR glad_glClear, rax

; 1085 :     glad_glClearColor = (PFNGLCLEARCOLORPROC)load("glClearColor");

  00128	48 8d 0d 00 00
	00 00		 lea	 rcx, OFFSET FLAT:??_C@_0N@OGLMDNKC@glClearColor@
  0012f	ff 55 50	 call	 QWORD PTR load$[rbp]
  00132	48 89 05 00 00
	00 00		 mov	 QWORD PTR glad_glClearColor, rax

; 1086 :     glad_glClearStencil = (PFNGLCLEARSTENCILPROC)load("glClearStencil");

  00139	48 8d 0d 00 00
	00 00		 lea	 rcx, OFFSET FLAT:??_C@_0P@KBLPBBFP@glClearStencil@
  00140	ff 55 50	 call	 QWORD PTR load$[rbp]
  00143	48 89 05 00 00
	00 00		 mov	 QWORD PTR glad_glClearStencil, rax

; 1087 :     glad_glClearDepth = (PFNGLCLEARDEPTHPROC)load("glClearDepth");

  0014a	48 8d 0d 00 00
	00 00		 lea	 rcx, OFFSET FLAT:??_C@_0N@LJIELNG@glClearDepth@
  00151	ff 55 50	 call	 QWORD PTR load$[rbp]
  00154	48 89 05 00 00
	00 00		 mov	 QWORD PTR glad_glClearDepth, rax

; 1088 :     glad_glStencilMask = (PFNGLSTENCILMASKPROC)load("glStencilMask");

  0015b	48 8d 0d 00 00
	00 00		 lea	 rcx, OFFSET FLAT:??_C@_0O@DJFHPFEP@glStencilMask@
  00162	ff 55 50	 call	 QWORD PTR load$[rbp]
  00165	48 89 05 00 00
	00 00		 mov	 QWORD PTR glad_glStencilMask, rax

; 1089 :     glad_glColorMask = (PFNGLCOLORMASKPROC)load("glColorMask");

  0016c	48 8d 0d 00 00
	00 00		 lea	 rcx, OFFSET FLAT:??_C@_0M@DLGOAHPH@glColorMask@
  00173	ff 55 50	 call	 QWORD PTR load$[rbp]
  00176	48 89 05 00 00
	00 00		 mov	 QWORD PTR glad_glColorMask, rax

; 1090 :     glad_glDepthMask = (PFNGLDEPTHMASKPROC)load("glDepthMask");

  0017d	48 8d 0d 00 00
	00 00		 lea	 rcx, OFFSET FLAT:??_C@_0M@KABMFLLN@glDepthMask@
  00184	ff 55 50	 call	 QWORD PTR load$[rbp]
  00187	48 89 05 00 00
	00 00		 mov	 QWORD PTR glad_glDepthMask, rax

; 1091 :     glad_glDisable = (PFNGLDISABLEPROC)load("glDisable");

  0018e	48 8d 0d 00 00
	00 00		 lea	 rcx, OFFSET FLAT:??_C@_09MHGMIMKN@glDisable@
  00195	ff 55 50	 call	 QWORD PTR load$[rbp]
  00198	48 89 05 00 00
	00 00		 mov	 QWORD PTR glad_glDisable, rax

; 1092 :     glad_glEnable = (PFNGLENABLEPROC)load("glEnable");

  0019f	48 8d 0d 00 00
	00 00		 lea	 rcx, OFFSET FLAT:??_C@_08OOEHEKOP@glEnable@
  001a6	ff 55 50	 call	 QWORD PTR load$[rbp]
  001a9	48 89 05 00 00
	00 00		 mov	 QWORD PTR glad_glEnable, rax

; 1093 :     glad_glFinish = (PFNGLFINISHPROC)load("glFinish");

  001b0	48 8d 0d 00 00
	00 00		 lea	 rcx, OFFSET FLAT:??_C@_08DFCPOKBK@glFinish@
  001b7	ff 55 50	 call	 QWORD PTR load$[rbp]
  001ba	48 89 05 00 00
	00 00		 mov	 QWORD PTR glad_glFinish, rax

; 1094 :     glad_glFlush = (PFNGLFLUSHPROC)load("glFlush");

  001c1	48 8d 0d 00 00
	00 00		 lea	 rcx, OFFSET FLAT:??_C@_07COFELLJA@glFlush@
  001c8	ff 55 50	 call	 QWORD PTR load$[rbp]
  001cb	48 89 05 00 00
	00 00		 mov	 QWORD PTR glad_glFlush, rax

; 1095 :     glad_glBlendFunc = (PFNGLBLENDFUNCPROC)load("glBlendFunc");

  001d2	48 8d 0d 00 00
	00 00		 lea	 rcx, OFFSET FLAT:??_C@_0M@PFBKOKOH@glBlendFunc@
  001d9	ff 55 50	 call	 QWORD PTR load$[rbp]
  001dc	48 89 05 00 00
	00 00		 mov	 QWORD PTR glad_glBlendFunc, rax

; 1096 :     glad_glLogicOp = (PFNGLLOGICOPPROC)load("glLogicOp");

  001e3	48 8d 0d 00 00
	00 00		 lea	 rcx, OFFSET FLAT:??_C@_09GKGMNAKG@glLogicOp@
  001ea	ff 55 50	 call	 QWORD PTR load$[rbp]
  001ed	48 89 05 00 00
	00 00		 mov	 QWORD PTR glad_glLogicOp, rax

; 1097 :     glad_glStencilFunc = (PFNGLSTENCILFUNCPROC)load("glStencilFunc");

  001f4	48 8d 0d 00 00
	00 00		 lea	 rcx, OFFSET FLAT:??_C@_0O@ENNLLOLN@glStencilFunc@
  001fb	ff 55 50	 call	 QWORD PTR load$[rbp]
  001fe	48 89 05 00 00
	00 00		 mov	 QWORD PTR glad_glStencilFunc, rax

; 1098 :     glad_glStencilOp = (PFNGLSTENCILOPPROC)load("glStencilOp");

  00205	48 8d 0d 00 00
	00 00		 lea	 rcx, OFFSET FLAT:??_C@_0M@BILBNGF@glStencilOp@
  0020c	ff 55 50	 call	 QWORD PTR load$[rbp]
  0020f	48 89 05 00 00
	00 00		 mov	 QWORD PTR glad_glStencilOp, rax

; 1099 :     glad_glDepthFunc = (PFNGLDEPTHFUNCPROC)load("glDepthFunc");

  00216	48 8d 0d 00 00
	00 00		 lea	 rcx, OFFSET FLAT:??_C@_0M@NEJABAEP@glDepthFunc@
  0021d	ff 55 50	 call	 QWORD PTR load$[rbp]
  00220	48 89 05 00 00
	00 00		 mov	 QWORD PTR glad_glDepthFunc, rax

; 1100 :     glad_glPixelStoref = (PFNGLPIXELSTOREFPROC)load("glPixelStoref");

  00227	48 8d 0d 00 00
	00 00		 lea	 rcx, OFFSET FLAT:??_C@_0O@BFLAHHCK@glPixelStoref@
  0022e	ff 55 50	 call	 QWORD PTR load$[rbp]
  00231	48 89 05 00 00
	00 00		 mov	 QWORD PTR glad_glPixelStoref, rax

; 1101 :     glad_glPixelStorei = (PFNGLPIXELSTOREIPROC)load("glPixelStorei");

  00238	48 8d 0d 00 00
	00 00		 lea	 rcx, OFFSET FLAT:??_C@_0O@JCCIGLOF@glPixelStorei@
  0023f	ff 55 50	 call	 QWORD PTR load$[rbp]
  00242	48 89 05 00 00
	00 00		 mov	 QWORD PTR glad_glPixelStorei, rax

; 1102 :     glad_glReadBuffer = (PFNGLREADBUFFERPROC)load("glReadBuffer");

  00249	48 8d 0d 00 00
	00 00		 lea	 rcx, OFFSET FLAT:??_C@_0N@HFKHBECK@glReadBuffer@
  00250	ff 55 50	 call	 QWORD PTR load$[rbp]
  00253	48 89 05 00 00
	00 00		 mov	 QWORD PTR glad_glReadBuffer, rax

; 1103 :     glad_glReadPixels = (PFNGLREADPIXELSPROC)load("glReadPixels");

  0025a	48 8d 0d 00 00
	00 00		 lea	 rcx, OFFSET FLAT:??_C@_0N@CKFNNHOO@glReadPixels@
  00261	ff 55 50	 call	 QWORD PTR load$[rbp]
  00264	48 89 05 00 00
	00 00		 mov	 QWORD PTR glad_glReadPixels, rax

; 1104 :     glad_glGetBooleanv = (PFNGLGETBOOLEANVPROC)load("glGetBooleanv");

  0026b	48 8d 0d 00 00
	00 00		 lea	 rcx, OFFSET FLAT:??_C@_0O@NLMELLCJ@glGetBooleanv@
  00272	ff 55 50	 call	 QWORD PTR load$[rbp]
  00275	48 89 05 00 00
	00 00		 mov	 QWORD PTR glad_glGetBooleanv, rax

; 1105 :     glad_glGetDoublev = (PFNGLGETDOUBLEVPROC)load("glGetDoublev");

  0027c	48 8d 0d 00 00
	00 00		 lea	 rcx, OFFSET FLAT:??_C@_0N@OFBMMCDH@glGetDoublev@
  00283	ff 55 50	 call	 QWORD PTR load$[rbp]
  00286	48 89 05 00 00
	00 00		 mov	 QWORD PTR glad_glGetDoublev, rax

; 1106 :     glad_glGetError = (PFNGLGETERRORPROC)load("glGetError");

  0028d	48 8d 0d 00 00
	00 00		 lea	 rcx, OFFSET FLAT:??_C@_0L@FPKAMKHB@glGetError@
  00294	ff 55 50	 call	 QWORD PTR load$[rbp]
  00297	48 89 05 00 00
	00 00		 mov	 QWORD PTR glad_glGetError, rax

; 1107 :     glad_glGetFloatv = (PFNGLGETFLOATVPROC)load("glGetFloatv");

  0029e	48 8d 0d 00 00
	00 00		 lea	 rcx, OFFSET FLAT:??_C@_0M@CKCOBONE@glGetFloatv@
  002a5	ff 55 50	 call	 QWORD PTR load$[rbp]
  002a8	48 89 05 00 00
	00 00		 mov	 QWORD PTR glad_glGetFloatv, rax

; 1108 :     glad_glGetIntegerv = (PFNGLGETINTEGERVPROC)load("glGetIntegerv");

  002af	48 8d 0d 00 00
	00 00		 lea	 rcx, OFFSET FLAT:??_C@_0O@DHHDCCLF@glGetIntegerv@
  002b6	ff 55 50	 call	 QWORD PTR load$[rbp]
  002b9	48 89 05 00 00
	00 00		 mov	 QWORD PTR glad_glGetIntegerv, rax

; 1109 :     glad_glGetString = (PFNGLGETSTRINGPROC)load("glGetString");

  002c0	48 8d 0d 00 00
	00 00		 lea	 rcx, OFFSET FLAT:??_C@_0M@OPOBFDCB@glGetString@
  002c7	ff 55 50	 call	 QWORD PTR load$[rbp]
  002ca	48 89 05 00 00
	00 00		 mov	 QWORD PTR glad_glGetString, rax

; 1110 :     glad_glGetTexImage = (PFNGLGETTEXIMAGEPROC)load("glGetTexImage");

  002d1	48 8d 0d 00 00
	00 00		 lea	 rcx, OFFSET FLAT:??_C@_0O@DOIIJLAD@glGetTexImage@
  002d8	ff 55 50	 call	 QWORD PTR load$[rbp]
  002db	48 89 05 00 00
	00 00		 mov	 QWORD PTR glad_glGetTexImage, rax

; 1111 :     glad_glGetTexParameterfv = (PFNGLGETTEXPARAMETERFVPROC)load("glGetTexParameterfv");

  002e2	48 8d 0d 00 00
	00 00		 lea	 rcx, OFFSET FLAT:??_C@_0BE@DNHBPKMC@glGetTexParameterfv@
  002e9	ff 55 50	 call	 QWORD PTR load$[rbp]
  002ec	48 89 05 00 00
	00 00		 mov	 QWORD PTR glad_glGetTexParameterfv, rax

; 1112 :     glad_glGetTexParameteriv = (PFNGLGETTEXPARAMETERIVPROC)load("glGetTexParameteriv");

  002f3	48 8d 0d 00 00
	00 00		 lea	 rcx, OFFSET FLAT:??_C@_0BE@DGCNLNPP@glGetTexParameteriv@
  002fa	ff 55 50	 call	 QWORD PTR load$[rbp]
  002fd	48 89 05 00 00
	00 00		 mov	 QWORD PTR glad_glGetTexParameteriv, rax

; 1113 :     glad_glGetTexLevelParameterfv = (PFNGLGETTEXLEVELPARAMETERFVPROC)load("glGetTexLevelParameterfv");

  00304	48 8d 0d 00 00
	00 00		 lea	 rcx, OFFSET FLAT:??_C@_0BJ@GAMLGIFF@glGetTexLevelParameterfv@
  0030b	ff 55 50	 call	 QWORD PTR load$[rbp]
  0030e	48 89 05 00 00
	00 00		 mov	 QWORD PTR glad_glGetTexLevelParameterfv, rax

; 1114 :     glad_glGetTexLevelParameteriv = (PFNGLGETTEXLEVELPARAMETERIVPROC)load("glGetTexLevelParameteriv");

  00315	48 8d 0d 00 00
	00 00		 lea	 rcx, OFFSET FLAT:??_C@_0BJ@GLJHCPGI@glGetTexLevelParameteriv@
  0031c	ff 55 50	 call	 QWORD PTR load$[rbp]
  0031f	48 89 05 00 00
	00 00		 mov	 QWORD PTR glad_glGetTexLevelParameteriv, rax

; 1115 :     glad_glIsEnabled = (PFNGLISENABLEDPROC)load("glIsEnabled");

  00326	48 8d 0d 00 00
	00 00		 lea	 rcx, OFFSET FLAT:??_C@_0M@INHMIHKC@glIsEnabled@
  0032d	ff 55 50	 call	 QWORD PTR load$[rbp]
  00330	48 89 05 00 00
	00 00		 mov	 QWORD PTR glad_glIsEnabled, rax

; 1116 :     glad_glDepthRange = (PFNGLDEPTHRANGEPROC)load("glDepthRange");

  00337	48 8d 0d 00 00
	00 00		 lea	 rcx, OFFSET FLAT:??_C@_0N@PEBDIKOA@glDepthRange@
  0033e	ff 55 50	 call	 QWORD PTR load$[rbp]
  00341	48 89 05 00 00
	00 00		 mov	 QWORD PTR glad_glDepthRange, rax

; 1117 :     glad_glViewport = (PFNGLVIEWPORTPROC)load("glViewport");

  00348	48 8d 0d 00 00
	00 00		 lea	 rcx, OFFSET FLAT:??_C@_0L@KBLIPDFH@glViewport@
  0034f	ff 55 50	 call	 QWORD PTR load$[rbp]
  00352	48 89 05 00 00
	00 00		 mov	 QWORD PTR glad_glViewport, rax
$LN1@load_GL_VE:

; 1118 : }

  00359	48 8d 65 40	 lea	 rsp, QWORD PTR [rbp+64]
  0035d	5d		 pop	 rbp
  0035e	c3		 ret	 0
load_GL_VERSION_1_0 ENDP
_TEXT	ENDS
; Function compile flags: /Odtp /ZI
; File D:\Programmer\GLenv\glad.c
;	COMDAT free_exts
_TEXT	SEGMENT
index$1 = 0
free_exts PROC						; COMDAT

; 208  : static void free_exts(void) {

  00000	40 55		 push	 rbp
  00002	48 83 ec 70	 sub	 rsp, 112		; 00000070H
  00006	48 8d 6c 24 20	 lea	 rbp, QWORD PTR [rsp+32]
  0000b	48 8d 0d 00 00
	00 00		 lea	 rcx, OFFSET FLAT:__2B68C239_glad@c
  00012	e8 00 00 00 00	 call	 __CheckForDebuggerJustMyCode

; 209  :     if (exts_i != NULL) {

  00017	48 83 3d 00 00
	00 00 00	 cmp	 QWORD PTR exts_i, 0
  0001f	74 4b		 je	 SHORT $LN5@free_exts

; 210  :         int index;
; 211  :         for (index = 0; index < num_exts_i; index++) {

  00021	c7 45 00 00 00
	00 00		 mov	 DWORD PTR index$1[rbp], 0
  00028	eb 08		 jmp	 SHORT $LN4@free_exts
$LN2@free_exts:
  0002a	8b 45 00	 mov	 eax, DWORD PTR index$1[rbp]
  0002d	ff c0		 inc	 eax
  0002f	89 45 00	 mov	 DWORD PTR index$1[rbp], eax
$LN4@free_exts:
  00032	8b 05 00 00 00
	00		 mov	 eax, DWORD PTR num_exts_i
  00038	39 45 00	 cmp	 DWORD PTR index$1[rbp], eax
  0003b	7d 17		 jge	 SHORT $LN3@free_exts

; 212  :             free((char*)exts_i[index]);

  0003d	48 63 45 00	 movsxd	 rax, DWORD PTR index$1[rbp]
  00041	48 8b 0d 00 00
	00 00		 mov	 rcx, QWORD PTR exts_i
  00048	48 8b 0c c1	 mov	 rcx, QWORD PTR [rcx+rax*8]
  0004c	ff 15 00 00 00
	00		 call	 QWORD PTR __imp_free

; 213  :         }

  00052	eb d6		 jmp	 SHORT $LN2@free_exts
$LN3@free_exts:

; 214  :         free((void*)exts_i);

  00054	48 8b 0d 00 00
	00 00		 mov	 rcx, QWORD PTR exts_i
  0005b	ff 15 00 00 00
	00		 call	 QWORD PTR __imp_free

; 215  :         exts_i = NULL;

  00061	48 c7 05 00 00
	00 00 00 00 00
	00		 mov	 QWORD PTR exts_i, 0
$LN5@free_exts:

; 216  :     }
; 217  : }

  0006c	48 8d 65 50	 lea	 rsp, QWORD PTR [rbp+80]
  00070	5d		 pop	 rbp
  00071	c3		 ret	 0
free_exts ENDP
_TEXT	ENDS
; Function compile flags: /Odtp /ZI
; File D:\Programmer\GLenv\glad.c
;	COMDAT get_exts
_TEXT	SEGMENT
index$1 = 0
gl_str_tmp$2 = 8
len$3 = 16
local_str$4 = 24
tv140 = 96
tv73 = 96
tv141 = 104
get_exts PROC						; COMDAT

; 173  : static int get_exts(void) {

  00000	40 55		 push	 rbp
  00002	56		 push	 rsi
  00003	57		 push	 rdi
  00004	48 81 ec 90 00
	00 00		 sub	 rsp, 144		; 00000090H
  0000b	48 8d 6c 24 20	 lea	 rbp, QWORD PTR [rsp+32]
  00010	48 8d 0d 00 00
	00 00		 lea	 rcx, OFFSET FLAT:__2B68C239_glad@c
  00017	e8 00 00 00 00	 call	 __CheckForDebuggerJustMyCode

; 174  : #ifdef _GLAD_IS_SOME_NEW_VERSION
; 175  :     if (max_loaded_major < 3) {

  0001c	83 3d 00 00 00
	00 03		 cmp	 DWORD PTR max_loaded_major, 3
  00023	7d 17		 jge	 SHORT $LN5@get_exts

; 176  : #endif
; 177  :         exts = (const char*)glGetString(GL_EXTENSIONS);

  00025	b9 03 1f 00 00	 mov	 ecx, 7939		; 00001f03H
  0002a	ff 15 00 00 00
	00		 call	 QWORD PTR glad_glGetString
  00030	48 89 05 00 00
	00 00		 mov	 QWORD PTR exts, rax

; 178  : #ifdef _GLAD_IS_SOME_NEW_VERSION
; 179  :     }

  00037	e9 0a 01 00 00	 jmp	 $LN6@get_exts
$LN5@get_exts:

; 180  :     else {
; 181  :         unsigned int index;
; 182  : 
; 183  :         num_exts_i = 0;

  0003c	c7 05 00 00 00
	00 00 00 00 00	 mov	 DWORD PTR num_exts_i, 0

; 184  :         glGetIntegerv(GL_NUM_EXTENSIONS, &num_exts_i);

  00046	48 8d 15 00 00
	00 00		 lea	 rdx, OFFSET FLAT:num_exts_i
  0004d	b9 1d 82 00 00	 mov	 ecx, 33309		; 0000821dH
  00052	ff 15 00 00 00
	00		 call	 QWORD PTR glad_glGetIntegerv

; 185  :         if (num_exts_i > 0) {

  00058	83 3d 00 00 00
	00 00		 cmp	 DWORD PTR num_exts_i, 0
  0005f	7e 32		 jle	 SHORT $LN7@get_exts

; 186  :             exts_i = (char**)malloc((size_t)num_exts_i * (sizeof * exts_i));

  00061	48 63 05 00 00
	00 00		 movsxd	 rax, DWORD PTR num_exts_i
  00068	48 89 45 60	 mov	 QWORD PTR tv73[rbp], rax
  0006c	b8 08 00 00 00	 mov	 eax, 8
  00071	48 8b 4d 60	 mov	 rcx, QWORD PTR tv73[rbp]
  00075	48 f7 e1	 mul	 rcx
  00078	48 c7 c1 ff ff
	ff ff		 mov	 rcx, -1
  0007f	48 0f 40 c1	 cmovo	 rax, rcx
  00083	48 8b c8	 mov	 rcx, rax
  00086	ff 15 00 00 00
	00		 call	 QWORD PTR __imp_malloc
  0008c	48 89 05 00 00
	00 00		 mov	 QWORD PTR exts_i, rax
$LN7@get_exts:

; 187  :         }
; 188  : 
; 189  :         if (exts_i == NULL) {

  00093	48 83 3d 00 00
	00 00 00	 cmp	 QWORD PTR exts_i, 0
  0009b	75 07		 jne	 SHORT $LN8@get_exts

; 190  :             return 0;

  0009d	33 c0		 xor	 eax, eax
  0009f	e9 a7 00 00 00	 jmp	 $LN1@get_exts
$LN8@get_exts:

; 191  :         }
; 192  : 
; 193  :         for (index = 0; index < (unsigned)num_exts_i; index++) {

  000a4	c7 45 00 00 00
	00 00		 mov	 DWORD PTR index$1[rbp], 0
  000ab	eb 08		 jmp	 SHORT $LN4@get_exts
$LN2@get_exts:
  000ad	8b 45 00	 mov	 eax, DWORD PTR index$1[rbp]
  000b0	ff c0		 inc	 eax
  000b2	89 45 00	 mov	 DWORD PTR index$1[rbp], eax
$LN4@get_exts:
  000b5	8b 05 00 00 00
	00		 mov	 eax, DWORD PTR num_exts_i
  000bb	39 45 00	 cmp	 DWORD PTR index$1[rbp], eax
  000be	0f 83 82 00 00
	00		 jae	 $LN3@get_exts

; 194  :             const char* gl_str_tmp = (const char*)glGetStringi(GL_EXTENSIONS, index);

  000c4	8b 55 00	 mov	 edx, DWORD PTR index$1[rbp]
  000c7	b9 03 1f 00 00	 mov	 ecx, 7939		; 00001f03H
  000cc	ff 15 00 00 00
	00		 call	 QWORD PTR glad_glGetStringi
  000d2	48 89 45 08	 mov	 QWORD PTR gl_str_tmp$2[rbp], rax

; 195  :             size_t len = strlen(gl_str_tmp);

  000d6	48 8b 45 08	 mov	 rax, QWORD PTR gl_str_tmp$2[rbp]
  000da	48 89 45 60	 mov	 QWORD PTR tv140[rbp], rax
  000de	48 c7 45 68 ff
	ff ff ff	 mov	 QWORD PTR tv141[rbp], -1
$LL11@get_exts:
  000e6	48 ff 45 68	 inc	 QWORD PTR tv141[rbp]
  000ea	48 8b 45 60	 mov	 rax, QWORD PTR tv140[rbp]
  000ee	48 8b 4d 68	 mov	 rcx, QWORD PTR tv141[rbp]
  000f2	80 3c 08 00	 cmp	 BYTE PTR [rax+rcx], 0
  000f6	75 ee		 jne	 SHORT $LL11@get_exts
  000f8	48 8b 45 68	 mov	 rax, QWORD PTR tv141[rbp]
  000fc	48 89 45 10	 mov	 QWORD PTR len$3[rbp], rax

; 196  : 
; 197  :             char* local_str = (char*)malloc((len + 1) * sizeof(char));

  00100	48 8b 45 10	 mov	 rax, QWORD PTR len$3[rbp]
  00104	48 ff c0	 inc	 rax
  00107	48 8b c8	 mov	 rcx, rax
  0010a	ff 15 00 00 00
	00		 call	 QWORD PTR __imp_malloc
  00110	48 89 45 18	 mov	 QWORD PTR local_str$4[rbp], rax

; 198  :             if (local_str != NULL) {

  00114	48 83 7d 18 00	 cmp	 QWORD PTR local_str$4[rbp], 0
  00119	74 14		 je	 SHORT $LN9@get_exts

; 199  :                 memcpy(local_str, gl_str_tmp, (len + 1) * sizeof(char));

  0011b	48 8b 45 10	 mov	 rax, QWORD PTR len$3[rbp]
  0011f	48 ff c0	 inc	 rax
  00122	48 8b 7d 18	 mov	 rdi, QWORD PTR local_str$4[rbp]
  00126	48 8b 75 08	 mov	 rsi, QWORD PTR gl_str_tmp$2[rbp]
  0012a	48 8b c8	 mov	 rcx, rax
  0012d	f3 a4		 rep movsb
$LN9@get_exts:

; 200  :             }
; 201  :             exts_i[index] = local_str;

  0012f	8b 45 00	 mov	 eax, DWORD PTR index$1[rbp]
  00132	48 8b 0d 00 00
	00 00		 mov	 rcx, QWORD PTR exts_i
  00139	48 8b 55 18	 mov	 rdx, QWORD PTR local_str$4[rbp]
  0013d	48 89 14 c1	 mov	 QWORD PTR [rcx+rax*8], rdx

; 202  :         }

  00141	e9 67 ff ff ff	 jmp	 $LN2@get_exts
$LN3@get_exts:
$LN6@get_exts:

; 203  :     }
; 204  : #endif
; 205  :     return 1;

  00146	b8 01 00 00 00	 mov	 eax, 1
$LN1@get_exts:

; 206  : }

  0014b	48 8d 65 70	 lea	 rsp, QWORD PTR [rbp+112]
  0014f	5f		 pop	 rdi
  00150	5e		 pop	 rsi
  00151	5d		 pop	 rbp
  00152	c3		 ret	 0
get_exts ENDP
_TEXT	ENDS
; Function compile flags: /Odtp /ZI
; File D:\Programmer\GLenv\glad.c
;	COMDAT close_gl
_TEXT	SEGMENT
close_gl PROC						; COMDAT

; 73   : void close_gl(void) {

  00000	40 55		 push	 rbp
  00002	48 83 ec 60	 sub	 rsp, 96			; 00000060H
  00006	48 8d 6c 24 20	 lea	 rbp, QWORD PTR [rsp+32]
  0000b	48 8d 0d 00 00
	00 00		 lea	 rcx, OFFSET FLAT:__2B68C239_glad@c
  00012	e8 00 00 00 00	 call	 __CheckForDebuggerJustMyCode

; 74   :     if (libGL != NULL) {

  00017	48 83 3d 00 00
	00 00 00	 cmp	 QWORD PTR libGL, 0
  0001f	74 18		 je	 SHORT $LN2@close_gl

; 75   :         FreeLibrary((HMODULE)libGL);

  00021	48 8b 0d 00 00
	00 00		 mov	 rcx, QWORD PTR libGL
  00028	ff 15 00 00 00
	00		 call	 QWORD PTR __imp_FreeLibrary

; 76   :         libGL = NULL;

  0002e	48 c7 05 00 00
	00 00 00 00 00
	00		 mov	 QWORD PTR libGL, 0
$LN2@close_gl:

; 77   :     }
; 78   : }

  00039	48 8d 65 40	 lea	 rsp, QWORD PTR [rbp+64]
  0003d	5d		 pop	 rbp
  0003e	c3		 ret	 0
close_gl ENDP
_TEXT	ENDS
; Function compile flags: /Odtp /ZI
; File D:\Programmer\GLenv\glad.c
;	COMDAT open_gl
_TEXT	SEGMENT
tmp$1 = 0
tv71 = 72
open_gl	PROC						; COMDAT

; 58   : int open_gl(void) {

  00000	40 55		 push	 rbp
  00002	48 83 ec 70	 sub	 rsp, 112		; 00000070H
  00006	48 8d 6c 24 20	 lea	 rbp, QWORD PTR [rsp+32]
  0000b	48 8d 0d 00 00
	00 00		 lea	 rcx, OFFSET FLAT:__2B68C239_glad@c
  00012	e8 00 00 00 00	 call	 __CheckForDebuggerJustMyCode

; 59   : #ifndef IS_UWP
; 60   :     libGL = LoadLibraryW(L"opengl32.dll");

  00017	48 8d 0d 00 00
	00 00		 lea	 rcx, OFFSET FLAT:??_C@_1BK@LCODAJLO@?$AAo?$AAp?$AAe?$AAn?$AAg?$AAl?$AA3?$AA2?$AA?4?$AAd?$AAl?$AAl@
  0001e	ff 15 00 00 00
	00		 call	 QWORD PTR __imp_LoadLibraryW
  00024	48 89 05 00 00
	00 00		 mov	 QWORD PTR libGL, rax

; 61   :     if (libGL != NULL) {

  0002b	48 83 3d 00 00
	00 00 00	 cmp	 QWORD PTR libGL, 0
  00033	74 42		 je	 SHORT $LN2@open_gl

; 62   :         void (*tmp)(void);
; 63   :         tmp = (void(*)(void)) GetProcAddress(libGL, "wglGetProcAddress");

  00035	48 8d 15 00 00
	00 00		 lea	 rdx, OFFSET FLAT:??_C@_0BC@FFKMKEGM@wglGetProcAddress@
  0003c	48 8b 0d 00 00
	00 00		 mov	 rcx, QWORD PTR libGL
  00043	ff 15 00 00 00
	00		 call	 QWORD PTR __imp_GetProcAddress
  00049	48 89 45 00	 mov	 QWORD PTR tmp$1[rbp], rax

; 64   :         gladGetProcAddressPtr = (PFNWGLGETPROCADDRESSPROC_PRIVATE)tmp;

  0004d	48 8b 45 00	 mov	 rax, QWORD PTR tmp$1[rbp]
  00051	48 89 05 00 00
	00 00		 mov	 QWORD PTR gladGetProcAddressPtr, rax

; 65   :         return gladGetProcAddressPtr != NULL;

  00058	48 83 3d 00 00
	00 00 00	 cmp	 QWORD PTR gladGetProcAddressPtr, 0
  00060	74 09		 je	 SHORT $LN4@open_gl
  00062	c7 45 48 01 00
	00 00		 mov	 DWORD PTR tv71[rbp], 1
  00069	eb 07		 jmp	 SHORT $LN5@open_gl
$LN4@open_gl:
  0006b	c7 45 48 00 00
	00 00		 mov	 DWORD PTR tv71[rbp], 0
$LN5@open_gl:
  00072	8b 45 48	 mov	 eax, DWORD PTR tv71[rbp]
  00075	eb 02		 jmp	 SHORT $LN1@open_gl
$LN2@open_gl:

; 66   :     }
; 67   : #endif
; 68   : 
; 69   :     return 0;

  00077	33 c0		 xor	 eax, eax
$LN1@open_gl:

; 70   : }

  00079	48 8d 65 50	 lea	 rsp, QWORD PTR [rbp+80]
  0007d	5d		 pop	 rbp
  0007e	c3		 ret	 0
open_gl	ENDP
_TEXT	ENDS
; Function compile flags: /Odtp /ZI
; File D:\Programmer\GLenv\glad.c
;	COMDAT get_proc
_TEXT	SEGMENT
result$ = 0
namez$ = 96
get_proc PROC						; COMDAT

; 129  : void* get_proc(const char* namez) {

  00000	48 89 4c 24 08	 mov	 QWORD PTR [rsp+8], rcx
  00005	55		 push	 rbp
  00006	48 83 ec 70	 sub	 rsp, 112		; 00000070H
  0000a	48 8d 6c 24 20	 lea	 rbp, QWORD PTR [rsp+32]
  0000f	48 8d 0d 00 00
	00 00		 lea	 rcx, OFFSET FLAT:__2B68C239_glad@c
  00016	e8 00 00 00 00	 call	 __CheckForDebuggerJustMyCode

; 130  :     void* result = NULL;

  0001b	48 c7 45 00 00
	00 00 00	 mov	 QWORD PTR result$[rbp], 0

; 131  :     if (libGL == NULL) return NULL;

  00023	48 83 3d 00 00
	00 00 00	 cmp	 QWORD PTR libGL, 0
  0002b	75 04		 jne	 SHORT $LN2@get_proc
  0002d	33 c0		 xor	 eax, eax
  0002f	eb 38		 jmp	 SHORT $LN1@get_proc
$LN2@get_proc:

; 132  : 
; 133  : #if !defined(__APPLE__) && !defined(__HAIKU__)
; 134  :     if (gladGetProcAddressPtr != NULL) {

  00031	48 83 3d 00 00
	00 00 00	 cmp	 QWORD PTR gladGetProcAddressPtr, 0
  00039	74 0e		 je	 SHORT $LN3@get_proc

; 135  :         result = gladGetProcAddressPtr(namez);

  0003b	48 8b 4d 60	 mov	 rcx, QWORD PTR namez$[rbp]
  0003f	ff 15 00 00 00
	00		 call	 QWORD PTR gladGetProcAddressPtr
  00045	48 89 45 00	 mov	 QWORD PTR result$[rbp], rax
$LN3@get_proc:

; 136  :     }
; 137  : #endif
; 138  :     if (result == NULL) {

  00049	48 83 7d 00 00	 cmp	 QWORD PTR result$[rbp], 0
  0004e	75 15		 jne	 SHORT $LN4@get_proc

; 139  : #if defined(_WIN32) || defined(__CYGWIN__)
; 140  :         result = (void*)GetProcAddress((HMODULE)libGL, namez);

  00050	48 8b 55 60	 mov	 rdx, QWORD PTR namez$[rbp]
  00054	48 8b 0d 00 00
	00 00		 mov	 rcx, QWORD PTR libGL
  0005b	ff 15 00 00 00
	00		 call	 QWORD PTR __imp_GetProcAddress
  00061	48 89 45 00	 mov	 QWORD PTR result$[rbp], rax
$LN4@get_proc:

; 141  : #else
; 142  :         result = dlsym(libGL, namez);
; 143  : #endif
; 144  :     }
; 145  : 
; 146  :     return result;

  00065	48 8b 45 00	 mov	 rax, QWORD PTR result$[rbp]
$LN1@get_proc:

; 147  : }

  00069	48 8d 65 50	 lea	 rsp, QWORD PTR [rbp+80]
  0006d	5d		 pop	 rbp
  0006e	c3		 ret	 0
get_proc ENDP
_TEXT	ENDS
; Function compile flags: /Odtp /ZI
; File D:\Programmer\GLenv\glad.c
;	COMDAT gladLoadGLSC2Loader
_TEXT	SEGMENT
tv75 = 64
load$ = 96
gladLoadGLSC2Loader PROC				; COMDAT

; 2737 : int gladLoadGLSC2Loader(GLADloadproc load) {

$LN8:
  00000	48 89 4c 24 08	 mov	 QWORD PTR [rsp+8], rcx
  00005	55		 push	 rbp
  00006	48 83 ec 70	 sub	 rsp, 112		; 00000070H
  0000a	48 8d 6c 24 20	 lea	 rbp, QWORD PTR [rsp+32]
  0000f	48 8d 0d 00 00
	00 00		 lea	 rcx, OFFSET FLAT:__2B68C239_glad@c
  00016	e8 00 00 00 00	 call	 __CheckForDebuggerJustMyCode

; 2738 :     GLVersion.major = 0; GLVersion.minor = 0;

  0001b	c7 05 00 00 00
	00 00 00 00 00	 mov	 DWORD PTR GLVersion, 0
  00025	c7 05 04 00 00
	00 00 00 00 00	 mov	 DWORD PTR GLVersion+4, 0

; 2739 :     glGetString = (PFNGLGETSTRINGPROC)load("glGetString");

  0002f	48 8d 0d 00 00
	00 00		 lea	 rcx, OFFSET FLAT:??_C@_0M@OPOBFDCB@glGetString@
  00036	ff 55 60	 call	 QWORD PTR load$[rbp]
  00039	48 89 05 00 00
	00 00		 mov	 QWORD PTR glad_glGetString, rax

; 2740 :     if (glGetString == NULL) return 0;

  00040	48 83 3d 00 00
	00 00 00	 cmp	 QWORD PTR glad_glGetString, 0
  00048	75 04		 jne	 SHORT $LN2@gladLoadGL
  0004a	33 c0		 xor	 eax, eax
  0004c	eb 54		 jmp	 SHORT $LN1@gladLoadGL
$LN2@gladLoadGL:

; 2741 :     if (glGetString(GL_VERSION) == NULL) return 0;

  0004e	b9 02 1f 00 00	 mov	 ecx, 7938		; 00001f02H
  00053	ff 15 00 00 00
	00		 call	 QWORD PTR glad_glGetString
  00059	48 85 c0	 test	 rax, rax
  0005c	75 04		 jne	 SHORT $LN3@gladLoadGL
  0005e	33 c0		 xor	 eax, eax
  00060	eb 40		 jmp	 SHORT $LN1@gladLoadGL
$LN3@gladLoadGL:

; 2742 :     find_coreGLSC2();

  00062	e8 00 00 00 00	 call	 find_coreGLSC2

; 2743 :     load_GL_SC_VERSION_2_0(load);

  00067	48 8b 4d 60	 mov	 rcx, QWORD PTR load$[rbp]
  0006b	e8 00 00 00 00	 call	 load_GL_SC_VERSION_2_0

; 2744 : 
; 2745 :     if (!find_extensionsGLSC2()) return 0;

  00070	e8 00 00 00 00	 call	 find_extensionsGLSC2
  00075	85 c0		 test	 eax, eax
  00077	75 04		 jne	 SHORT $LN4@gladLoadGL
  00079	33 c0		 xor	 eax, eax
  0007b	eb 25		 jmp	 SHORT $LN1@gladLoadGL
$LN4@gladLoadGL:

; 2746 :     return GLVersion.major != 0 || GLVersion.minor != 0;

  0007d	83 3d 00 00 00
	00 00		 cmp	 DWORD PTR GLVersion, 0
  00084	75 12		 jne	 SHORT $LN6@gladLoadGL
  00086	83 3d 04 00 00
	00 00		 cmp	 DWORD PTR GLVersion+4, 0
  0008d	75 09		 jne	 SHORT $LN6@gladLoadGL
  0008f	c7 45 40 00 00
	00 00		 mov	 DWORD PTR tv75[rbp], 0
  00096	eb 07		 jmp	 SHORT $LN7@gladLoadGL
$LN6@gladLoadGL:
  00098	c7 45 40 01 00
	00 00		 mov	 DWORD PTR tv75[rbp], 1
$LN7@gladLoadGL:
  0009f	8b 45 40	 mov	 eax, DWORD PTR tv75[rbp]
$LN1@gladLoadGL:

; 2747 : }

  000a2	48 8d 65 50	 lea	 rsp, QWORD PTR [rbp+80]
  000a6	5d		 pop	 rbp
  000a7	c3		 ret	 0
gladLoadGLSC2Loader ENDP
_TEXT	ENDS
; Function compile flags: /Odtp /ZI
; File D:\Programmer\GLenv\glad.c
;	COMDAT gladLoadGLES2Loader
_TEXT	SEGMENT
tv78 = 64
load$ = 96
gladLoadGLES2Loader PROC				; COMDAT

; 2558 : int gladLoadGLES2Loader(GLADloadproc load) {

$LN8:
  00000	48 89 4c 24 08	 mov	 QWORD PTR [rsp+8], rcx
  00005	55		 push	 rbp
  00006	48 83 ec 70	 sub	 rsp, 112		; 00000070H
  0000a	48 8d 6c 24 20	 lea	 rbp, QWORD PTR [rsp+32]
  0000f	48 8d 0d 00 00
	00 00		 lea	 rcx, OFFSET FLAT:__2B68C239_glad@c
  00016	e8 00 00 00 00	 call	 __CheckForDebuggerJustMyCode

; 2559 :     GLVersion.major = 0; GLVersion.minor = 0;

  0001b	c7 05 00 00 00
	00 00 00 00 00	 mov	 DWORD PTR GLVersion, 0
  00025	c7 05 04 00 00
	00 00 00 00 00	 mov	 DWORD PTR GLVersion+4, 0

; 2560 :     glGetString = (PFNGLGETSTRINGPROC)load("glGetString");

  0002f	48 8d 0d 00 00
	00 00		 lea	 rcx, OFFSET FLAT:??_C@_0M@OPOBFDCB@glGetString@
  00036	ff 55 60	 call	 QWORD PTR load$[rbp]
  00039	48 89 05 00 00
	00 00		 mov	 QWORD PTR glad_glGetString, rax

; 2561 :     if (glGetString == NULL) return 0;

  00040	48 83 3d 00 00
	00 00 00	 cmp	 QWORD PTR glad_glGetString, 0
  00048	75 04		 jne	 SHORT $LN2@gladLoadGL
  0004a	33 c0		 xor	 eax, eax
  0004c	eb 6f		 jmp	 SHORT $LN1@gladLoadGL
$LN2@gladLoadGL:

; 2562 :     if (glGetString(GL_VERSION) == NULL) return 0;

  0004e	b9 02 1f 00 00	 mov	 ecx, 7938		; 00001f02H
  00053	ff 15 00 00 00
	00		 call	 QWORD PTR glad_glGetString
  00059	48 85 c0	 test	 rax, rax
  0005c	75 04		 jne	 SHORT $LN3@gladLoadGL
  0005e	33 c0		 xor	 eax, eax
  00060	eb 5b		 jmp	 SHORT $LN1@gladLoadGL
$LN3@gladLoadGL:

; 2563 :     find_coreGLES2();

  00062	e8 00 00 00 00	 call	 find_coreGLES2

; 2564 :     load_GL_ES_VERSION_2_0(load);

  00067	48 8b 4d 60	 mov	 rcx, QWORD PTR load$[rbp]
  0006b	e8 00 00 00 00	 call	 load_GL_ES_VERSION_2_0

; 2565 :     load_GL_ES_VERSION_3_0(load);

  00070	48 8b 4d 60	 mov	 rcx, QWORD PTR load$[rbp]
  00074	e8 00 00 00 00	 call	 load_GL_ES_VERSION_3_0

; 2566 :     load_GL_ES_VERSION_3_1(load);

  00079	48 8b 4d 60	 mov	 rcx, QWORD PTR load$[rbp]
  0007d	e8 00 00 00 00	 call	 load_GL_ES_VERSION_3_1

; 2567 :     load_GL_ES_VERSION_3_2(load);

  00082	48 8b 4d 60	 mov	 rcx, QWORD PTR load$[rbp]
  00086	e8 00 00 00 00	 call	 load_GL_ES_VERSION_3_2

; 2568 : 
; 2569 :     if (!find_extensionsGLES2()) return 0;

  0008b	e8 00 00 00 00	 call	 find_extensionsGLES2
  00090	85 c0		 test	 eax, eax
  00092	75 04		 jne	 SHORT $LN4@gladLoadGL
  00094	33 c0		 xor	 eax, eax
  00096	eb 25		 jmp	 SHORT $LN1@gladLoadGL
$LN4@gladLoadGL:

; 2570 :     return GLVersion.major != 0 || GLVersion.minor != 0;

  00098	83 3d 00 00 00
	00 00		 cmp	 DWORD PTR GLVersion, 0
  0009f	75 12		 jne	 SHORT $LN6@gladLoadGL
  000a1	83 3d 04 00 00
	00 00		 cmp	 DWORD PTR GLVersion+4, 0
  000a8	75 09		 jne	 SHORT $LN6@gladLoadGL
  000aa	c7 45 40 00 00
	00 00		 mov	 DWORD PTR tv78[rbp], 0
  000b1	eb 07		 jmp	 SHORT $LN7@gladLoadGL
$LN6@gladLoadGL:
  000b3	c7 45 40 01 00
	00 00		 mov	 DWORD PTR tv78[rbp], 1
$LN7@gladLoadGL:
  000ba	8b 45 40	 mov	 eax, DWORD PTR tv78[rbp]
$LN1@gladLoadGL:

; 2571 : }

  000bd	48 8d 65 50	 lea	 rsp, QWORD PTR [rbp+80]
  000c1	5d		 pop	 rbp
  000c2	c3		 ret	 0
gladLoadGLES2Loader ENDP
_TEXT	ENDS
; Function compile flags: /Odtp /ZI
; File D:\Programmer\GLenv\glad.c
;	COMDAT gladLoadGLES1Loader
_TEXT	SEGMENT
tv75 = 64
load$ = 96
gladLoadGLES1Loader PROC				; COMDAT

; 2123 : int gladLoadGLES1Loader(GLADloadproc load) {

$LN8:
  00000	48 89 4c 24 08	 mov	 QWORD PTR [rsp+8], rcx
  00005	55		 push	 rbp
  00006	48 83 ec 70	 sub	 rsp, 112		; 00000070H
  0000a	48 8d 6c 24 20	 lea	 rbp, QWORD PTR [rsp+32]
  0000f	48 8d 0d 00 00
	00 00		 lea	 rcx, OFFSET FLAT:__2B68C239_glad@c
  00016	e8 00 00 00 00	 call	 __CheckForDebuggerJustMyCode

; 2124 :     GLVersion.major = 0; GLVersion.minor = 0;

  0001b	c7 05 00 00 00
	00 00 00 00 00	 mov	 DWORD PTR GLVersion, 0
  00025	c7 05 04 00 00
	00 00 00 00 00	 mov	 DWORD PTR GLVersion+4, 0

; 2125 :     glGetString = (PFNGLGETSTRINGPROC)load("glGetString");

  0002f	48 8d 0d 00 00
	00 00		 lea	 rcx, OFFSET FLAT:??_C@_0M@OPOBFDCB@glGetString@
  00036	ff 55 60	 call	 QWORD PTR load$[rbp]
  00039	48 89 05 00 00
	00 00		 mov	 QWORD PTR glad_glGetString, rax

; 2126 :     if (glGetString == NULL) return 0;

  00040	48 83 3d 00 00
	00 00 00	 cmp	 QWORD PTR glad_glGetString, 0
  00048	75 04		 jne	 SHORT $LN2@gladLoadGL
  0004a	33 c0		 xor	 eax, eax
  0004c	eb 54		 jmp	 SHORT $LN1@gladLoadGL
$LN2@gladLoadGL:

; 2127 :     if (glGetString(GL_VERSION) == NULL) return 0;

  0004e	b9 02 1f 00 00	 mov	 ecx, 7938		; 00001f02H
  00053	ff 15 00 00 00
	00		 call	 QWORD PTR glad_glGetString
  00059	48 85 c0	 test	 rax, rax
  0005c	75 04		 jne	 SHORT $LN3@gladLoadGL
  0005e	33 c0		 xor	 eax, eax
  00060	eb 40		 jmp	 SHORT $LN1@gladLoadGL
$LN3@gladLoadGL:

; 2128 :     find_coreGLES1();

  00062	e8 00 00 00 00	 call	 find_coreGLES1

; 2129 :     load_GL_VERSION_ES_CM_1_0(load);

  00067	48 8b 4d 60	 mov	 rcx, QWORD PTR load$[rbp]
  0006b	e8 00 00 00 00	 call	 load_GL_VERSION_ES_CM_1_0

; 2130 : 
; 2131 :     if (!find_extensionsGLES1()) return 0;

  00070	e8 00 00 00 00	 call	 find_extensionsGLES1
  00075	85 c0		 test	 eax, eax
  00077	75 04		 jne	 SHORT $LN4@gladLoadGL
  00079	33 c0		 xor	 eax, eax
  0007b	eb 25		 jmp	 SHORT $LN1@gladLoadGL
$LN4@gladLoadGL:

; 2132 :     return GLVersion.major != 0 || GLVersion.minor != 0;

  0007d	83 3d 00 00 00
	00 00		 cmp	 DWORD PTR GLVersion, 0
  00084	75 12		 jne	 SHORT $LN6@gladLoadGL
  00086	83 3d 04 00 00
	00 00		 cmp	 DWORD PTR GLVersion+4, 0
  0008d	75 09		 jne	 SHORT $LN6@gladLoadGL
  0008f	c7 45 40 00 00
	00 00		 mov	 DWORD PTR tv75[rbp], 0
  00096	eb 07		 jmp	 SHORT $LN7@gladLoadGL
$LN6@gladLoadGL:
  00098	c7 45 40 01 00
	00 00		 mov	 DWORD PTR tv75[rbp], 1
$LN7@gladLoadGL:
  0009f	8b 45 40	 mov	 eax, DWORD PTR tv75[rbp]
$LN1@gladLoadGL:

; 2133 : }

  000a2	48 8d 65 50	 lea	 rsp, QWORD PTR [rbp+80]
  000a6	5d		 pop	 rbp
  000a7	c3		 ret	 0
gladLoadGLES1Loader ENDP
_TEXT	ENDS
; Function compile flags: /Odtp /ZI
; File D:\Programmer\GLenv\glad.c
;	COMDAT gladLoadGLLoader
_TEXT	SEGMENT
tv93 = 64
load$ = 96
gladLoadGLLoader PROC					; COMDAT

; 1896 : int gladLoadGLLoader(GLADloadproc load) {

$LN8:
  00000	48 89 4c 24 08	 mov	 QWORD PTR [rsp+8], rcx
  00005	55		 push	 rbp
  00006	48 83 ec 70	 sub	 rsp, 112		; 00000070H
  0000a	48 8d 6c 24 20	 lea	 rbp, QWORD PTR [rsp+32]
  0000f	48 8d 0d 00 00
	00 00		 lea	 rcx, OFFSET FLAT:__2B68C239_glad@c
  00016	e8 00 00 00 00	 call	 __CheckForDebuggerJustMyCode

; 1897 :     GLVersion.major = 0; GLVersion.minor = 0;

  0001b	c7 05 00 00 00
	00 00 00 00 00	 mov	 DWORD PTR GLVersion, 0
  00025	c7 05 04 00 00
	00 00 00 00 00	 mov	 DWORD PTR GLVersion+4, 0

; 1898 :     glGetString = (PFNGLGETSTRINGPROC)load("glGetString");

  0002f	48 8d 0d 00 00
	00 00		 lea	 rcx, OFFSET FLAT:??_C@_0M@OPOBFDCB@glGetString@
  00036	ff 55 60	 call	 QWORD PTR load$[rbp]
  00039	48 89 05 00 00
	00 00		 mov	 QWORD PTR glad_glGetString, rax

; 1899 :     if (glGetString == NULL) return 0;

  00040	48 83 3d 00 00
	00 00 00	 cmp	 QWORD PTR glad_glGetString, 0
  00048	75 07		 jne	 SHORT $LN2@gladLoadGL
  0004a	33 c0		 xor	 eax, eax
  0004c	e9 f9 00 00 00	 jmp	 $LN1@gladLoadGL
$LN2@gladLoadGL:

; 1900 :     if (glGetString(GL_VERSION) == NULL) return 0;

  00051	b9 02 1f 00 00	 mov	 ecx, 7938		; 00001f02H
  00056	ff 15 00 00 00
	00		 call	 QWORD PTR glad_glGetString
  0005c	48 85 c0	 test	 rax, rax
  0005f	75 07		 jne	 SHORT $LN3@gladLoadGL
  00061	33 c0		 xor	 eax, eax
  00063	e9 e2 00 00 00	 jmp	 $LN1@gladLoadGL
$LN3@gladLoadGL:

; 1901 :     find_coreGL();

  00068	e8 00 00 00 00	 call	 find_coreGL

; 1902 :     load_GL_VERSION_1_0(load);

  0006d	48 8b 4d 60	 mov	 rcx, QWORD PTR load$[rbp]
  00071	e8 00 00 00 00	 call	 load_GL_VERSION_1_0

; 1903 :     load_GL_VERSION_1_1(load);

  00076	48 8b 4d 60	 mov	 rcx, QWORD PTR load$[rbp]
  0007a	e8 00 00 00 00	 call	 load_GL_VERSION_1_1

; 1904 :     load_GL_VERSION_1_2(load);

  0007f	48 8b 4d 60	 mov	 rcx, QWORD PTR load$[rbp]
  00083	e8 00 00 00 00	 call	 load_GL_VERSION_1_2

; 1905 :     load_GL_VERSION_1_3(load);

  00088	48 8b 4d 60	 mov	 rcx, QWORD PTR load$[rbp]
  0008c	e8 00 00 00 00	 call	 load_GL_VERSION_1_3

; 1906 :     load_GL_VERSION_1_4(load);

  00091	48 8b 4d 60	 mov	 rcx, QWORD PTR load$[rbp]
  00095	e8 00 00 00 00	 call	 load_GL_VERSION_1_4

; 1907 :     load_GL_VERSION_1_5(load);

  0009a	48 8b 4d 60	 mov	 rcx, QWORD PTR load$[rbp]
  0009e	e8 00 00 00 00	 call	 load_GL_VERSION_1_5

; 1908 :     load_GL_VERSION_2_0(load);

  000a3	48 8b 4d 60	 mov	 rcx, QWORD PTR load$[rbp]
  000a7	e8 00 00 00 00	 call	 load_GL_VERSION_2_0

; 1909 :     load_GL_VERSION_2_1(load);

  000ac	48 8b 4d 60	 mov	 rcx, QWORD PTR load$[rbp]
  000b0	e8 00 00 00 00	 call	 load_GL_VERSION_2_1

; 1910 :     load_GL_VERSION_3_0(load);

  000b5	48 8b 4d 60	 mov	 rcx, QWORD PTR load$[rbp]
  000b9	e8 00 00 00 00	 call	 load_GL_VERSION_3_0

; 1911 :     load_GL_VERSION_3_1(load);

  000be	48 8b 4d 60	 mov	 rcx, QWORD PTR load$[rbp]
  000c2	e8 00 00 00 00	 call	 load_GL_VERSION_3_1

; 1912 :     load_GL_VERSION_3_2(load);

  000c7	48 8b 4d 60	 mov	 rcx, QWORD PTR load$[rbp]
  000cb	e8 00 00 00 00	 call	 load_GL_VERSION_3_2

; 1913 :     load_GL_VERSION_3_3(load);

  000d0	48 8b 4d 60	 mov	 rcx, QWORD PTR load$[rbp]
  000d4	e8 00 00 00 00	 call	 load_GL_VERSION_3_3

; 1914 :     load_GL_VERSION_4_0(load);

  000d9	48 8b 4d 60	 mov	 rcx, QWORD PTR load$[rbp]
  000dd	e8 00 00 00 00	 call	 load_GL_VERSION_4_0

; 1915 :     load_GL_VERSION_4_1(load);

  000e2	48 8b 4d 60	 mov	 rcx, QWORD PTR load$[rbp]
  000e6	e8 00 00 00 00	 call	 load_GL_VERSION_4_1

; 1916 :     load_GL_VERSION_4_2(load);

  000eb	48 8b 4d 60	 mov	 rcx, QWORD PTR load$[rbp]
  000ef	e8 00 00 00 00	 call	 load_GL_VERSION_4_2

; 1917 :     load_GL_VERSION_4_3(load);

  000f4	48 8b 4d 60	 mov	 rcx, QWORD PTR load$[rbp]
  000f8	e8 00 00 00 00	 call	 load_GL_VERSION_4_3

; 1918 :     load_GL_VERSION_4_4(load);

  000fd	48 8b 4d 60	 mov	 rcx, QWORD PTR load$[rbp]
  00101	e8 00 00 00 00	 call	 load_GL_VERSION_4_4

; 1919 :     load_GL_VERSION_4_5(load);

  00106	48 8b 4d 60	 mov	 rcx, QWORD PTR load$[rbp]
  0010a	e8 00 00 00 00	 call	 load_GL_VERSION_4_5

; 1920 :     load_GL_VERSION_4_6(load);

  0010f	48 8b 4d 60	 mov	 rcx, QWORD PTR load$[rbp]
  00113	e8 00 00 00 00	 call	 load_GL_VERSION_4_6

; 1921 : 
; 1922 :     if (!find_extensionsGL()) return 0;

  00118	e8 00 00 00 00	 call	 find_extensionsGL
  0011d	85 c0		 test	 eax, eax
  0011f	75 04		 jne	 SHORT $LN4@gladLoadGL
  00121	33 c0		 xor	 eax, eax
  00123	eb 25		 jmp	 SHORT $LN1@gladLoadGL
$LN4@gladLoadGL:

; 1923 :     return GLVersion.major != 0 || GLVersion.minor != 0;

  00125	83 3d 00 00 00
	00 00		 cmp	 DWORD PTR GLVersion, 0
  0012c	75 12		 jne	 SHORT $LN6@gladLoadGL
  0012e	83 3d 04 00 00
	00 00		 cmp	 DWORD PTR GLVersion+4, 0
  00135	75 09		 jne	 SHORT $LN6@gladLoadGL
  00137	c7 45 40 00 00
	00 00		 mov	 DWORD PTR tv93[rbp], 0
  0013e	eb 07		 jmp	 SHORT $LN7@gladLoadGL
$LN6@gladLoadGL:
  00140	c7 45 40 01 00
	00 00		 mov	 DWORD PTR tv93[rbp], 1
$LN7@gladLoadGL:
  00147	8b 45 40	 mov	 eax, DWORD PTR tv93[rbp]
$LN1@gladLoadGL:

; 1924 : }

  0014a	48 8d 65 50	 lea	 rsp, QWORD PTR [rbp+80]
  0014e	5d		 pop	 rbp
  0014f	c3		 ret	 0
gladLoadGLLoader ENDP
_TEXT	ENDS
; Function compile flags: /Odtp /ZI
; File D:\Programmer\GLenv\glad.c
;	COMDAT gladLoadGL
_TEXT	SEGMENT
status$ = 0
gladLoadGL PROC						; COMDAT

; 149  : int gladLoadGL(void) {

$LN4:
  00000	40 55		 push	 rbp
  00002	48 83 ec 70	 sub	 rsp, 112		; 00000070H
  00006	48 8d 6c 24 20	 lea	 rbp, QWORD PTR [rsp+32]
  0000b	48 8d 0d 00 00
	00 00		 lea	 rcx, OFFSET FLAT:__2B68C239_glad@c
  00012	e8 00 00 00 00	 call	 __CheckForDebuggerJustMyCode

; 150  :     int status = 0;

  00017	c7 45 00 00 00
	00 00		 mov	 DWORD PTR status$[rbp], 0

; 151  : 
; 152  :     if (open_gl()) {

  0001e	e8 00 00 00 00	 call	 open_gl
  00023	85 c0		 test	 eax, eax
  00025	74 14		 je	 SHORT $LN2@gladLoadGL

; 153  :         status = gladLoadGLLoader(&get_proc);

  00027	48 8d 0d 00 00
	00 00		 lea	 rcx, OFFSET FLAT:get_proc
  0002e	e8 00 00 00 00	 call	 gladLoadGLLoader
  00033	89 45 00	 mov	 DWORD PTR status$[rbp], eax

; 154  :         close_gl();

  00036	e8 00 00 00 00	 call	 close_gl
$LN2@gladLoadGL:

; 155  :     }
; 156  : 
; 157  :     return status;

  0003b	8b 45 00	 mov	 eax, DWORD PTR status$[rbp]

; 158  : }

  0003e	48 8d 65 50	 lea	 rsp, QWORD PTR [rbp+80]
  00042	5d		 pop	 rbp
  00043	c3		 ret	 0
gladLoadGL ENDP
_TEXT	ENDS
; Function compile flags: /Odtp /ZI
; File C:\Program Files (x86)\Windows Kits\10\Include\10.0.22621.0\ucrt\stdio.h
;	COMDAT sscanf_s
_TEXT	SEGMENT
_Result$ = 0
_ArgList$ = 8
__$ArrayPad$ = 80
_Buffer$ = 112
_Format$ = 120
sscanf_s PROC						; COMDAT

; 2286 :         {

$LN3:
  00000	48 89 54 24 10	 mov	 QWORD PTR [rsp+16], rdx
  00005	48 89 4c 24 08	 mov	 QWORD PTR [rsp+8], rcx
  0000a	4c 89 44 24 18	 mov	 QWORD PTR [rsp+24], r8
  0000f	4c 89 4c 24 20	 mov	 QWORD PTR [rsp+32], r9
  00014	55		 push	 rbp
  00015	48 81 ec 80 00
	00 00		 sub	 rsp, 128		; 00000080H
  0001c	48 8d 6c 24 20	 lea	 rbp, QWORD PTR [rsp+32]
  00021	48 8b 05 00 00
	00 00		 mov	 rax, QWORD PTR __security_cookie
  00028	48 33 c5	 xor	 rax, rbp
  0002b	48 89 45 50	 mov	 QWORD PTR __$ArrayPad$[rbp], rax
  0002f	48 8d 0d 00 00
	00 00		 lea	 rcx, OFFSET FLAT:__C1EC35D3_stdio@h
  00036	e8 00 00 00 00	 call	 __CheckForDebuggerJustMyCode

; 2287 :             int _Result;
; 2288 :             va_list _ArgList;
; 2289 :             __crt_va_start(_ArgList, _Format);

  0003b	48 8d 85 80 00
	00 00		 lea	 rax, QWORD PTR _Format$[rbp+8]
  00042	48 89 45 08	 mov	 QWORD PTR _ArgList$[rbp], rax

; 2290 : 
; 2291 :             _Result = vsscanf_s(_Buffer, _Format, _ArgList);

  00046	4c 8b 45 08	 mov	 r8, QWORD PTR _ArgList$[rbp]
  0004a	48 8b 55 78	 mov	 rdx, QWORD PTR _Format$[rbp]
  0004e	48 8b 4d 70	 mov	 rcx, QWORD PTR _Buffer$[rbp]
  00052	e8 00 00 00 00	 call	 vsscanf_s
  00057	89 45 00	 mov	 DWORD PTR _Result$[rbp], eax

; 2292 : 
; 2293 :             __crt_va_end(_ArgList);

  0005a	48 c7 45 08 00
	00 00 00	 mov	 QWORD PTR _ArgList$[rbp], 0

; 2294 :             return _Result;

  00062	8b 45 00	 mov	 eax, DWORD PTR _Result$[rbp]

; 2295 :         }

  00065	48 8b 4d 50	 mov	 rcx, QWORD PTR __$ArrayPad$[rbp]
  00069	48 33 cd	 xor	 rcx, rbp
  0006c	e8 00 00 00 00	 call	 __security_check_cookie
  00071	48 8d 65 60	 lea	 rsp, QWORD PTR [rbp+96]
  00075	5d		 pop	 rbp
  00076	c3		 ret	 0
sscanf_s ENDP
_TEXT	ENDS
; Function compile flags: /Odtp /ZI
; File C:\Program Files (x86)\Windows Kits\10\Include\10.0.22621.0\ucrt\stdio.h
;	COMDAT vsscanf_s
_TEXT	SEGMENT
_Buffer$ = 80
_Format$ = 88
_ArgList$ = 96
vsscanf_s PROC						; COMDAT

; 2204 :         {

$LN3:
  00000	4c 89 44 24 18	 mov	 QWORD PTR [rsp+24], r8
  00005	48 89 54 24 10	 mov	 QWORD PTR [rsp+16], rdx
  0000a	48 89 4c 24 08	 mov	 QWORD PTR [rsp+8], rcx
  0000f	55		 push	 rbp
  00010	48 83 ec 60	 sub	 rsp, 96			; 00000060H
  00014	48 8d 6c 24 20	 lea	 rbp, QWORD PTR [rsp+32]
  00019	48 8d 0d 00 00
	00 00		 lea	 rcx, OFFSET FLAT:__C1EC35D3_stdio@h
  00020	e8 00 00 00 00	 call	 __CheckForDebuggerJustMyCode

; 2205 :             return _vsscanf_s_l(_Buffer, _Format, NULL, _ArgList);

  00025	4c 8b 4d 60	 mov	 r9, QWORD PTR _ArgList$[rbp]
  00029	45 33 c0	 xor	 r8d, r8d
  0002c	48 8b 55 58	 mov	 rdx, QWORD PTR _Format$[rbp]
  00030	48 8b 4d 50	 mov	 rcx, QWORD PTR _Buffer$[rbp]
  00034	e8 00 00 00 00	 call	 _vsscanf_s_l

; 2206 :         }

  00039	48 8d 65 40	 lea	 rsp, QWORD PTR [rbp+64]
  0003d	5d		 pop	 rbp
  0003e	c3		 ret	 0
vsscanf_s ENDP
_TEXT	ENDS
; Function compile flags: /Odtp /ZI
; File C:\Program Files (x86)\Windows Kits\10\Include\10.0.22621.0\ucrt\stdio.h
;	COMDAT _vsscanf_s_l
_TEXT	SEGMENT
_Buffer$ = 80
_Format$ = 88
_Locale$ = 96
_ArgList$ = 104
_vsscanf_s_l PROC					; COMDAT

; 2183 :     {

$LN3:
  00000	4c 89 4c 24 20	 mov	 QWORD PTR [rsp+32], r9
  00005	4c 89 44 24 18	 mov	 QWORD PTR [rsp+24], r8
  0000a	48 89 54 24 10	 mov	 QWORD PTR [rsp+16], rdx
  0000f	48 89 4c 24 08	 mov	 QWORD PTR [rsp+8], rcx
  00014	55		 push	 rbp
  00015	48 83 ec 70	 sub	 rsp, 112		; 00000070H
  00019	48 8d 6c 24 30	 lea	 rbp, QWORD PTR [rsp+48]
  0001e	48 8d 0d 00 00
	00 00		 lea	 rcx, OFFSET FLAT:__C1EC35D3_stdio@h
  00025	e8 00 00 00 00	 call	 __CheckForDebuggerJustMyCode

; 2184 :         return __stdio_common_vsscanf(

  0002a	e8 00 00 00 00	 call	 __local_stdio_scanf_options
  0002f	48 8b 00	 mov	 rax, QWORD PTR [rax]
  00032	48 83 c8 01	 or	 rax, 1
  00036	48 8b 4d 68	 mov	 rcx, QWORD PTR _ArgList$[rbp]
  0003a	48 89 4c 24 28	 mov	 QWORD PTR [rsp+40], rcx
  0003f	48 8b 4d 60	 mov	 rcx, QWORD PTR _Locale$[rbp]
  00043	48 89 4c 24 20	 mov	 QWORD PTR [rsp+32], rcx
  00048	4c 8b 4d 58	 mov	 r9, QWORD PTR _Format$[rbp]
  0004c	49 c7 c0 ff ff
	ff ff		 mov	 r8, -1
  00053	48 8b 55 50	 mov	 rdx, QWORD PTR _Buffer$[rbp]
  00057	48 8b c8	 mov	 rcx, rax
  0005a	ff 15 00 00 00
	00		 call	 QWORD PTR __imp___stdio_common_vsscanf

; 2185 :             _CRT_INTERNAL_LOCAL_SCANF_OPTIONS | _CRT_INTERNAL_SCANF_SECURECRT,
; 2186 :             _Buffer, (size_t)-1, _Format, _Locale, _ArgList);
; 2187 :     }

  00060	48 8d 65 40	 lea	 rsp, QWORD PTR [rbp+64]
  00064	5d		 pop	 rbp
  00065	c3		 ret	 0
_vsscanf_s_l ENDP
_TEXT	ENDS
; Function compile flags: /Odtp /ZI
; File C:\Program Files (x86)\Windows Kits\10\Include\10.0.22621.0\ucrt\corecrt_stdio_config.h
;	COMDAT __local_stdio_scanf_options
_TEXT	SEGMENT
__local_stdio_scanf_options PROC			; COMDAT

; 100  :     {

$LN3:
  00000	40 55		 push	 rbp
  00002	48 83 ec 60	 sub	 rsp, 96			; 00000060H
  00006	48 8d 6c 24 20	 lea	 rbp, QWORD PTR [rsp+32]
  0000b	48 8d 0d 00 00
	00 00		 lea	 rcx, OFFSET FLAT:__44420885_corecrt_stdio_config@h
  00012	e8 00 00 00 00	 call	 __CheckForDebuggerJustMyCode

; 101  :         static unsigned __int64 _OptionsStorage;
; 102  :         return &_OptionsStorage;

  00017	48 8d 05 00 00
	00 00		 lea	 rax, OFFSET FLAT:?_OptionsStorage@?1??__local_stdio_scanf_options@@9@9 ; `__local_stdio_scanf_options'::`2'::_OptionsStorage

; 103  :     }

  0001e	48 8d 65 40	 lea	 rsp, QWORD PTR [rbp+64]
  00022	5d		 pop	 rbp
  00023	c3		 ret	 0
__local_stdio_scanf_options ENDP
_TEXT	ENDS
END
