; Listing generated by Microsoft (R) Optimizing Compiler Version 19.39.33519.0 

include listing.inc

INCLUDELIB MSVCRTD
INCLUDELIB OLDNAMES

_DATA	SEGMENT
COMM	infolog:BYTE:0200H
_DATA	ENDS
msvcjmc	SEGMENT
__0ED14FEE_winpackagefamily@h DB 01H
__F92EF742_winapifamily@h DB 01H
__22E515EB_sdkddkver@h DB 01H
__4B783B3C_concurrencysal@h DB 01H
__137BB1BE_sal@h DB 01H
__805F4069_vadefs@h DB 01H
__1EAACA9B_vcruntime@h DB 01H
__1227BCE2_excpt@h DB 01H
__CC8D90C0_stdarg@h DB 01H
__29F49F40_specstrings_undef@h DB 01H
__D0F42932_specstrings_strict@h DB 01H
__F00405FD_sdv_driverspecs@h DB 01H
__173E09CA_driverspecs@h DB 01H
__9A452361_specstrings@h DB 01H
__1B0272D9_corecrt@h DB 01H
__74484FB3_corecrt_wctype@h DB 01H
__1EC467ED_ctype@h DB 01H
__98517906_kernelspecs@h DB 01H
__D3497022_basetsd@h DB 01H
__61CC25A1_errno@h DB 01H
__0504B279_vcruntime_string@h DB 01H
__E4C945B4_corecrt_memcpy_s@h DB 01H
__8EAFF484_corecrt_memory@h DB 01H
__6490AEC5_corecrt_wstring@h DB 01H
__E8295E1E_string@h DB 01H
__7FCB5136_guiddef@h DB 01H
__FF8A9E11_pshpack4@h DB 01H
__D5438902_poppack@h DB 01H
__FB07E2A3_pshpack2@h DB 01H
__F6906775_pshpack8@h DB 01H
__F9415CFA_pshpack1@h DB 01H
__E58C6F1C_apiset@h DB 01H
__A5C52262_ktmtypes@h DB 01H
__FBBA8F9D_winnt@h DB 01H
__A32D3D2C_minwindef@h DB 01H
__7D798299_windef@h DB 01H
__9AE108E9_apisetcconv@h DB 01H
__9CE53D2C_minwinbase@h DB 01H
__5D0AA210_apiquery2@h DB 01H
__4DD4E726_processenv@h DB 01H
__3575CC96_fileapi@h DB 01H
__8EA220E6_fileapifromapp@h DB 01H
__BF9B31FE_debugapi@h DB 01H
__C3AFE134_utilapiset@h DB 01H
__76F69E51_handleapi@h DB 01H
__7E63D784_errhandlingapi@h DB 01H
__FFA7003C_fibersapi@h DB 01H
__8971CECF_namedpipeapi@h DB 01H
__46C9D8A6_profileapi@h DB 01H
__98D4F0A3_heapapi@h DB 01H
__50EF2A88_ioapiset@h DB 01H
__92EA1464_synchapi@h DB 01H
__A53D8AED_interlockedapi@h DB 01H
__B506CAAF_processthreadsapi@h DB 01H
__FF735694_sysinfoapi@h DB 01H
__29589789_memoryapi@h DB 01H
__E9C7A663_enclaveapi@h DB 01H
__D035F9F7_threadpoollegacyapiset@h DB 01H
__C899130C_threadpoolapiset@h DB 01H
__E0441EE7_jobapi@h DB 01H
__CEF86838_jobapi2@h DB 01H
__35AC6B9A_wow64apiset@h DB 01H
__C8AE41A5_libloaderapi@h DB 01H
__CC9E232D_securitybaseapi@h DB 01H
__C9D0C9B8_namespaceapi@h DB 01H
__30FF9CAD_systemtopologyapi@h DB 01H
__4D358795_processtopologyapi@h DB 01H
__40446D10_securityappcontainer@h DB 01H
__3A952EDF_realtimeapiset@h DB 01H
__F4865F4B_winerror@h DB 01H
__53C1BD93_timezoneapi@h DB 01H
__1FFBEDBF_winbase@h DB 01H
__43D3FA34_wingdi@h DB 01H
__D24A7391_tvout@h DB 01H
__7713A6C8_winuser@h DB 01H
__0B345F71_datetimeapi@h DB 01H
__9AC6960C_winnls@h DB 01H
__973A40A8_stringapiset@h DB 01H
__CC46FEE2_wincontypes@h DB 01H
__97D70BE1_consoleapi@h DB 01H
__27EC5E18_consoleapi2@h DB 01H
__262E342F_consoleapi3@h DB 01H
__641DCD70_wincon@h DB 01H
__5A96C7A7_verrsrc@h DB 01H
__B69C6FF2_winver@h DB 01H
__7AEB8C37_reason@h DB 01H
__59F1A8A9_winreg@h DB 01H
__EE0E2B7F_wnnc@h DB 01H
__DCDB7054_winnetwk@h DB 01H
__81DDEDE3_stralign@h DB 01H
__2134D1B4_winsvc@h DB 01H
__11C07376_mcx@h DB 01H
__577CE3E7_ime_cmodes@h DB 01H
__1E72C31E_imm@h DB 01H
__E15BF856_windows@h DB 01H
__A19B9DB6_ssgc_framework@h DB 01H
__5BC5AF51_mmintrin@h DB 01H
__45DED006_corecrt_malloc@h DB 01H
__FA77ED4C_malloc@h DB 01H
__9E7FA6CF_xmmintrin@h DB 01H
__61B03275_ssgc_internal@h DB 01H
__F8522E0F_stdint@h DB 01H
__874AB8BA_khrplatform@h DB 01H
__8DCB230D_gl@h DB 01H
__5F89FF5A_wgl@h DB 01H
__13F5961F_stddef@h DB 01H
__B47D1049_glfw3@h DB 01H
__FB1D2F03_emmintrin@h DB 01H
__24BC478A_pmmintrin@h DB 01H
__94653408_tmmintrin@h DB 01H
__BD5E218B_smmintrin@h DB 01H
__D83CA847_nmmintrin@h DB 01H
__0D875209_wmmintrin@h DB 01H
__C6131F0E_zmmintrin@h DB 01H
__F107BDC4_immintrin@h DB 01H
__44420885_corecrt_stdio_config@h DB 01H
__AB601D8D_corecrt_wstdio@h DB 01H
__C1EC35D3_stdio@h DB 01H
__FD6DBD68_corecrt_search@h DB 01H
__E2E33A61_corecrt_wstdlib@h DB 01H
__46240030_limits@h DB 01H
__6E5ACABA_stdlib@h DB 01H
__5274102E_stb_image@h DB 01H
__CE2BBC10_StgSharpC@h DB 01H
__9C9DAB70_dllmain@c DB 01H
msvcjmc	ENDS
PUBLIC	DllMain
PUBLIC	__JustMyCode_Default
EXTRN	_RTC_InitBase:PROC
EXTRN	_RTC_Shutdown:PROC
EXTRN	__CheckForDebuggerJustMyCode:PROC
;	COMDAT pdata
pdata	SEGMENT
$pdata$DllMain DD imagerel $LN9
	DD	imagerel $LN9+133
	DD	imagerel $unwind$DllMain
pdata	ENDS
;	COMDAT rtc$TMZ
rtc$TMZ	SEGMENT
_RTC_Shutdown.rtc$TMZ DQ FLAT:_RTC_Shutdown
rtc$TMZ	ENDS
;	COMDAT rtc$IMZ
rtc$IMZ	SEGMENT
_RTC_InitBase.rtc$IMZ DQ FLAT:_RTC_InitBase
rtc$IMZ	ENDS
;	COMDAT xdata
xdata	SEGMENT
$unwind$DllMain DD 025051c01H
	DD	0117231cH
	DD	07010001fH
	DD	0500fH
xdata	ENDS
; Function compile flags: /Odt
;	COMDAT __JustMyCode_Default
_TEXT	SEGMENT
__JustMyCode_Default PROC				; COMDAT
  00000	c2 00 00	 ret	 0
__JustMyCode_Default ENDP
_TEXT	ENDS
; Function compile flags: /Odtp /RTCsu /ZI
; File D:\NitloadIndustry\研究项目\1-Flagship\TH2020\ProjectFile\源代码\StgSharpC\dllmain.c
;	COMDAT DllMain
_TEXT	SEGMENT
tv64 = 192
hModule$ = 240
ul_reason_for_call$ = 248
lpReserved$ = 256
DllMain	PROC						; COMDAT

; 14   : {

$LN9:
  00000	4c 89 44 24 18	 mov	 QWORD PTR [rsp+24], r8
  00005	89 54 24 10	 mov	 DWORD PTR [rsp+16], edx
  00009	48 89 4c 24 08	 mov	 QWORD PTR [rsp+8], rcx
  0000e	55		 push	 rbp
  0000f	57		 push	 rdi
  00010	48 81 ec f8 00
	00 00		 sub	 rsp, 248		; 000000f8H
  00017	48 8d 6c 24 20	 lea	 rbp, QWORD PTR [rsp+32]
  0001c	48 8d 0d 00 00
	00 00		 lea	 rcx, OFFSET FLAT:__9C9DAB70_dllmain@c
  00023	e8 00 00 00 00	 call	 __CheckForDebuggerJustMyCode

; 15   :     switch (ul_reason_for_call)

  00028	8b 85 f8 00 00
	00		 mov	 eax, DWORD PTR ul_reason_for_call$[rbp]
  0002e	89 85 c0 00 00
	00		 mov	 DWORD PTR tv64[rbp], eax
  00034	83 bd c0 00 00
	00 00		 cmp	 DWORD PTR tv64[rbp], 0
  0003b	74 32		 je	 SHORT $LN7@DllMain
  0003d	83 bd c0 00 00
	00 01		 cmp	 DWORD PTR tv64[rbp], 1
  00044	74 14		 je	 SHORT $LN4@DllMain
  00046	83 bd c0 00 00
	00 02		 cmp	 DWORD PTR tv64[rbp], 2
  0004d	74 12		 je	 SHORT $LN5@DllMain
  0004f	83 bd c0 00 00
	00 03		 cmp	 DWORD PTR tv64[rbp], 3
  00056	74 10		 je	 SHORT $LN6@DllMain
  00058	eb 1c		 jmp	 SHORT $LN2@DllMain
$LN4@DllMain:

; 16   :     {
; 17   :     case DLL_PROCESS_ATTACH:
; 18   : 
; 19   :         return 1;

  0005a	b8 01 00 00 00	 mov	 eax, 1
  0005f	eb 1a		 jmp	 SHORT $LN1@DllMain
$LN5@DllMain:

; 20   : 
; 21   :     case DLL_THREAD_ATTACH:
; 22   :         return 1;

  00061	b8 01 00 00 00	 mov	 eax, 1
  00066	eb 13		 jmp	 SHORT $LN1@DllMain
$LN6@DllMain:

; 23   : 
; 24   :     case DLL_THREAD_DETACH:
; 25   :         return 1;

  00068	b8 01 00 00 00	 mov	 eax, 1
  0006d	eb 0c		 jmp	 SHORT $LN1@DllMain
$LN7@DllMain:

; 26   : 
; 27   :     case DLL_PROCESS_DETACH:
; 28   :         return 1;

  0006f	b8 01 00 00 00	 mov	 eax, 1
  00074	eb 05		 jmp	 SHORT $LN1@DllMain
$LN2@DllMain:

; 29   : 
; 30   :         break;
; 31   :     }
; 32   :     return TRUE;

  00076	b8 01 00 00 00	 mov	 eax, 1
$LN1@DllMain:

; 33   : }

  0007b	48 8d a5 d8 00
	00 00		 lea	 rsp, QWORD PTR [rbp+216]
  00082	5f		 pop	 rdi
  00083	5d		 pop	 rbp
  00084	c3		 ret	 0
DllMain	ENDP
_TEXT	ENDS
END
