; Listing generated by Microsoft (R) Optimizing Compiler Version 19.39.33519.0 

include listing.inc

INCLUDELIB MSVCRTD
INCLUDELIB OLDNAMES

msvcjmc	SEGMENT
__4B783B3C_concurrencysal@h DB 01H
__137BB1BE_sal@h DB 01H
__805F4069_vadefs@h DB 01H
__1EAACA9B_vcruntime@h DB 01H
__1B0272D9_corecrt@h DB 01H
__44420885_corecrt_stdio_config@h DB 01H
__AB601D8D_corecrt_wstdio@h DB 01H
__C1EC35D3_stdio@h DB 01H
__45DED006_corecrt_malloc@h DB 01H
__13F5961F_stddef@h DB 01H
__FD6DBD68_corecrt_search@h DB 01H
__E2E33A61_corecrt_wstdlib@h DB 01H
__46240030_limits@h DB 01H
__6E5ACABA_stdlib@h DB 01H
__5274102E_stb_image@h DB 01H
__CC8D90C0_stdarg@h DB 01H
__61CC25A1_errno@h DB 01H
__0504B279_vcruntime_string@h DB 01H
__E4C945B4_corecrt_memcpy_s@h DB 01H
__8EAFF484_corecrt_memory@h DB 01H
__6490AEC5_corecrt_wstring@h DB 01H
__E8295E1E_string@h DB 01H
__BB16330F_corecrt_math@h DB 01H
__3BF2A406_math@h DB 01H
__19139D6C_assert@h DB 01H
__5BC5AF51_mmintrin@h DB 01H
__FA77ED4C_malloc@h DB 01H
__9E7FA6CF_xmmintrin@h DB 01H
__FB1D2F03_emmintrin@h DB 01H
__49ADACC4_intrin0@inl@h DB 01H
__6831C60C_setjmp@h DB 01H
__24BC478A_pmmintrin@h DB 01H
__94653408_tmmintrin@h DB 01H
__BD5E218B_smmintrin@h DB 01H
__D83CA847_nmmintrin@h DB 01H
__0D875209_wmmintrin@h DB 01H
__C6131F0E_zmmintrin@h DB 01H
__F107BDC4_immintrin@h DB 01H
__4BC45C81_ammintrin@h DB 01H
__4E077A7B_intrin@h DB 01H
__C5A6C9A6_stb_image@c DB 01H
msvcjmc	ENDS
CONST	SEGMENT
stbi__bmask DD	00H
	DD	01H
	DD	03H
	DD	07H
	DD	0fH
	DD	01fH
	DD	03fH
	DD	07fH
	DD	0ffH
	DD	01ffH
	DD	03ffH
	DD	07ffH
	DD	0fffH
	DD	01fffH
	DD	03fffH
	DD	07fffH
	DD	0ffffH
?rgb@?5??stbi__process_frame_header@@9@9 DB 052H	; `stbi__process_frame_header'::`6'::rgb
	DB	047H
	DB	042H
	ORG $+9
stbi__jbias DD	00H
	DD	0ffffffffH
	DD	0fffffffdH
	DD	0fffffff9H
	DD	0fffffff1H
	DD	0ffffffe1H
	DD	0ffffffc1H
	DD	0ffffff81H
	DD	0ffffff01H
	DD	0fffffe01H
	DD	0fffffc01H
	DD	0fffff801H
	DD	0fffff001H
	DD	0ffffe001H
	DD	0ffffc001H
	DD	0ffff8001H
stbi__jpeg_dezigzag DB 00H
	DB	01H
	DB	08H
	DB	010H
	DB	09H
	DB	02H
	DB	03H
	DB	0aH
	DB	011H
	DB	018H
	DB	020H
	DB	019H
	DB	012H
	DB	0bH
	DB	04H
	DB	05H
	DB	0cH
	DB	013H
	DB	01aH
	DB	021H
	DB	028H
	DB	030H
	DB	029H
	DB	022H
	DB	01bH
	DB	014H
	DB	0dH
	DB	06H
	DB	07H
	DB	0eH
	DB	015H
	DB	01cH
	DB	023H
	DB	02aH
	DB	031H
	DB	038H
	DB	039H
	DB	032H
	DB	02bH
	DB	024H
	DB	01dH
	DB	016H
	DB	0fH
	DB	017H
	DB	01eH
	DB	025H
	DB	02cH
	DB	033H
	DB	03aH
	DB	03bH
	DB	034H
	DB	02dH
	DB	026H
	DB	01fH
	DB	027H
	DB	02eH
	DB	035H
	DB	03cH
	DB	03dH
	DB	036H
	DB	02fH
	DB	037H
	DB	03eH
	DB	03fH
	DB	03fH
	DB	03fH
	DB	03fH
	DB	03fH
	DB	03fH
	DB	03fH
	DB	03fH
	DB	03fH
	DB	03fH
	DB	03fH
	DB	03fH
	DB	03fH
	DB	03fH
	DB	03fH
	DB	03fH
	ORG $+1
?tag@?O@??stbi__process_marker@@9@9 DB 04aH		; `stbi__process_marker'::`14'::tag
	DB	046H
	DB	049H
	DB	046H
	DB	00H
	ORG $+3
?tag@?BA@??stbi__process_marker@@9@9 DB 041H		; `stbi__process_marker'::`16'::tag
	DB	064H
	DB	06fH
	DB	062H
	DB	065H
	DB	00H
	ORG $+2
stbi__zlength_base DD 03H
	DD	04H
	DD	05H
	DD	06H
	DD	07H
	DD	08H
	DD	09H
	DD	0aH
	DD	0bH
	DD	0dH
	DD	0fH
	DD	011H
	DD	013H
	DD	017H
	DD	01bH
	DD	01fH
	DD	023H
	DD	02bH
	DD	033H
	DD	03bH
	DD	043H
	DD	053H
	DD	063H
	DD	073H
	DD	083H
	DD	0a3H
	DD	0c3H
	DD	0e3H
	DD	0102H
	DD	00H
	DD	00H
	ORG $+4
stbi__zlength_extra DD 00H
	DD	00H
	DD	00H
	DD	00H
	DD	00H
	DD	00H
	DD	00H
	DD	00H
	DD	01H
	DD	01H
	DD	01H
	DD	01H
	DD	02H
	DD	02H
	DD	02H
	DD	02H
	DD	03H
	DD	03H
	DD	03H
	DD	03H
	DD	04H
	DD	04H
	DD	04H
	DD	04H
	DD	05H
	DD	05H
	DD	05H
	DD	05H
	DD	00H
	DD	00H
	DD	00H
	ORG $+4
stbi__zdist_base DD 01H
	DD	02H
	DD	03H
	DD	04H
	DD	05H
	DD	07H
	DD	09H
	DD	0dH
	DD	011H
	DD	019H
	DD	021H
	DD	031H
	DD	041H
	DD	061H
	DD	081H
	DD	0c1H
	DD	0101H
	DD	0181H
	DD	0201H
	DD	0301H
	DD	0401H
	DD	0601H
	DD	0801H
	DD	0c01H
	DD	01001H
	DD	01801H
	DD	02001H
	DD	03001H
	DD	04001H
	DD	06001H
	DD	00H
	DD	00H
stbi__zdist_extra DD 00H
	DD	00H
	DD	00H
	DD	00H
	DD	01H
	DD	01H
	DD	02H
	DD	02H
	DD	03H
	DD	03H
	DD	04H
	DD	04H
	DD	05H
	DD	05H
	DD	06H
	DD	06H
	DD	07H
	DD	07H
	DD	08H
	DD	08H
	DD	09H
	DD	09H
	DD	0aH
	DD	0aH
	DD	0bH
	DD	0bH
	DD	0cH
	DD	0cH
	DD	0dH
	DD	0dH
	ORG $+8
?length_dezigzag@?1??stbi__compute_huffman_codes@@9@9 DB 010H ; `stbi__compute_huffman_codes'::`2'::length_dezigzag
	DB	011H
	DB	012H
	DB	00H
	DB	08H
	DB	07H
	DB	09H
	DB	06H
	DB	0aH
	DB	05H
	DB	0bH
	DB	04H
	DB	0cH
	DB	03H
	DB	0dH
	DB	02H
	DB	0eH
	DB	01H
	DB	0fH
	ORG $+13
stbi__zdefault_length DB 08H
	DB	08H
	DB	08H
	DB	08H
	DB	08H
	DB	08H
	DB	08H
	DB	08H
	DB	08H
	DB	08H
	DB	08H
	DB	08H
	DB	08H
	DB	08H
	DB	08H
	DB	08H
	DB	08H
	DB	08H
	DB	08H
	DB	08H
	DB	08H
	DB	08H
	DB	08H
	DB	08H
	DB	08H
	DB	08H
	DB	08H
	DB	08H
	DB	08H
	DB	08H
	DB	08H
	DB	08H
	DB	08H
	DB	08H
	DB	08H
	DB	08H
	DB	08H
	DB	08H
	DB	08H
	DB	08H
	DB	08H
	DB	08H
	DB	08H
	DB	08H
	DB	08H
	DB	08H
	DB	08H
	DB	08H
	DB	08H
	DB	08H
	DB	08H
	DB	08H
	DB	08H
	DB	08H
	DB	08H
	DB	08H
	DB	08H
	DB	08H
	DB	08H
	DB	08H
	DB	08H
	DB	08H
	DB	08H
	DB	08H
	DB	08H
	DB	08H
	DB	08H
	DB	08H
	DB	08H
	DB	08H
	DB	08H
	DB	08H
	DB	08H
	DB	08H
	DB	08H
	DB	08H
	DB	08H
	DB	08H
	DB	08H
	DB	08H
	DB	08H
	DB	08H
	DB	08H
	DB	08H
	DB	08H
	DB	08H
	DB	08H
	DB	08H
	DB	08H
	DB	08H
	DB	08H
	DB	08H
	DB	08H
	DB	08H
	DB	08H
	DB	08H
	DB	08H
	DB	08H
	DB	08H
	DB	08H
	DB	08H
	DB	08H
	DB	08H
	DB	08H
	DB	08H
	DB	08H
	DB	08H
	DB	08H
	DB	08H
	DB	08H
	DB	08H
	DB	08H
	DB	08H
	DB	08H
	DB	08H
	DB	08H
	DB	08H
	DB	08H
	DB	08H
	DB	08H
	DB	08H
	DB	08H
	DB	08H
	DB	08H
	DB	08H
	DB	08H
	DB	08H
	DB	08H
	DB	08H
	DB	08H
	DB	08H
	DB	08H
	DB	08H
	DB	08H
	DB	08H
	DB	08H
	DB	08H
	DB	08H
	DB	08H
	DB	08H
	DB	08H
	DB	08H
	DB	08H
	DB	08H
	DB	09H
	DB	09H
	DB	09H
	DB	09H
	DB	09H
	DB	09H
	DB	09H
	DB	09H
	DB	09H
	DB	09H
	DB	09H
	DB	09H
	DB	09H
	DB	09H
	DB	09H
	DB	09H
	DB	09H
	DB	09H
	DB	09H
	DB	09H
	DB	09H
	DB	09H
	DB	09H
	DB	09H
	DB	09H
	DB	09H
	DB	09H
	DB	09H
	DB	09H
	DB	09H
	DB	09H
	DB	09H
	DB	09H
	DB	09H
	DB	09H
	DB	09H
	DB	09H
	DB	09H
	DB	09H
	DB	09H
	DB	09H
	DB	09H
	DB	09H
	DB	09H
	DB	09H
	DB	09H
	DB	09H
	DB	09H
	DB	09H
	DB	09H
	DB	09H
	DB	09H
	DB	09H
	DB	09H
	DB	09H
	DB	09H
	DB	09H
	DB	09H
	DB	09H
	DB	09H
	DB	09H
	DB	09H
	DB	09H
	DB	09H
	DB	09H
	DB	09H
	DB	09H
	DB	09H
	DB	09H
	DB	09H
	DB	09H
	DB	09H
	DB	09H
	DB	09H
	DB	09H
	DB	09H
	DB	09H
	DB	09H
	DB	09H
	DB	09H
	DB	09H
	DB	09H
	DB	09H
	DB	09H
	DB	09H
	DB	09H
	DB	09H
	DB	09H
	DB	09H
	DB	09H
	DB	09H
	DB	09H
	DB	09H
	DB	09H
	DB	09H
	DB	09H
	DB	09H
	DB	09H
	DB	09H
	DB	09H
	DB	09H
	DB	09H
	DB	09H
	DB	09H
	DB	09H
	DB	09H
	DB	09H
	DB	09H
	DB	09H
	DB	09H
	DB	09H
	DB	09H
	DB	07H
	DB	07H
	DB	07H
	DB	07H
	DB	07H
	DB	07H
	DB	07H
	DB	07H
	DB	07H
	DB	07H
	DB	07H
	DB	07H
	DB	07H
	DB	07H
	DB	07H
	DB	07H
	DB	07H
	DB	07H
	DB	07H
	DB	07H
	DB	07H
	DB	07H
	DB	07H
	DB	07H
	DB	08H
	DB	08H
	DB	08H
	DB	08H
	DB	08H
	DB	08H
	DB	08H
	DB	08H
stbi__zdefault_distance DB 05H
	DB	05H
	DB	05H
	DB	05H
	DB	05H
	DB	05H
	DB	05H
	DB	05H
	DB	05H
	DB	05H
	DB	05H
	DB	05H
	DB	05H
	DB	05H
	DB	05H
	DB	05H
	DB	05H
	DB	05H
	DB	05H
	DB	05H
	DB	05H
	DB	05H
	DB	05H
	DB	05H
	DB	05H
	DB	05H
	DB	05H
	DB	05H
	DB	05H
	DB	05H
	DB	05H
	DB	05H
?png_sig@?1??stbi__check_png_header@@9@9 DB 089H	; `stbi__check_png_header'::`2'::png_sig
	DB	050H
	DB	04eH
	DB	047H
	DB	0dH
	DB	0aH
	DB	01aH
	DB	0aH
stbi__depth_scale_table DB 00H
	DB	0ffH
	DB	055H
	DB	00H
	DB	011H
	DB	00H
	DB	00H
	DB	00H
	DB	01H
CONST	ENDS
PUBLIC	stbi_load_from_memory
PUBLIC	stbi_load_from_callbacks
PUBLIC	stbi_load
PUBLIC	stbi_load_to_target
PUBLIC	stbi_load_from_file
PUBLIC	stbi_load_gif_from_memory
PUBLIC	stbi_load_16_from_memory
PUBLIC	stbi_load_16_from_callbacks
PUBLIC	stbi_load_16
PUBLIC	stbi_load_from_file_16
PUBLIC	stbi_loadf_from_memory
PUBLIC	stbi_loadf_from_callbacks
PUBLIC	stbi_loadf
PUBLIC	stbi_loadf_from_file
PUBLIC	stbi_hdr_to_ldr_gamma
PUBLIC	stbi_hdr_to_ldr_scale
PUBLIC	stbi_ldr_to_hdr_gamma
PUBLIC	stbi_ldr_to_hdr_scale
PUBLIC	stbi_is_hdr_from_callbacks
PUBLIC	stbi_is_hdr_from_memory
PUBLIC	stbi_is_hdr
PUBLIC	stbi_is_hdr_from_file
PUBLIC	stbi_failure_reason
PUBLIC	stbi_image_free
PUBLIC	stbi_info_from_memory
PUBLIC	stbi_info_from_callbacks
PUBLIC	stbi_is_16_bit_from_memory
PUBLIC	stbi_is_16_bit_from_callbacks
PUBLIC	stbi_info
PUBLIC	stbi_info_from_file
PUBLIC	stbi_is_16_bit
PUBLIC	stbi_is_16_bit_from_file
PUBLIC	stbi_set_unpremultiply_on_load
PUBLIC	stbi_convert_iphone_png_to_rgb
PUBLIC	stbi_set_flip_vertically_on_load
PUBLIC	stbi_set_unpremultiply_on_load_thread
PUBLIC	stbi_convert_iphone_png_to_rgb_thread
PUBLIC	stbi_set_flip_vertically_on_load_thread
PUBLIC	stbi_zlib_decode_malloc_guesssize
PUBLIC	stbi_zlib_decode_malloc_guesssize_headerflag
PUBLIC	stbi_zlib_decode_malloc
PUBLIC	stbi_zlib_decode_buffer
PUBLIC	stbi_zlib_decode_noheader_malloc
PUBLIC	stbi_zlib_decode_noheader_buffer
PUBLIC	__JustMyCode_Default
PUBLIC	??_C@_0BD@CBEDEJPH@unknown?5image?5type@	; `string'
PUBLIC	??_C@_08NOGIMCHF@outofmem@			; `string'
PUBLIC	??_C@_1KA@LPJPGBDN@?$AAD?$AA?3?$AA?2?$AAN?$AAi?$AAt?$AAl?$AAo?$AAa?$AAd?$AAI?$AAn?$AAd?$AAu?$AAs@ ; `string'
PUBLIC	??_C@_1GM@LFNCFCEN@?$AAr?$AAi?$AA?4?$AAb?$AAi?$AAt?$AAs?$AA_?$AAp?$AAe?$AAr?$AA_?$AAc?$AAh?$AAa@ ; `string'
PUBLIC	??_C@_02JDPG@rb@				; `string'
PUBLIC	??_C@_0M@JPDHFAGK@can?8t?5fopen@		; `string'
PUBLIC	??_C@_0CB@DDANHPKI@can?8t?5fopen?0?5Unable?5to?5open?5fil@ ; `string'
PUBLIC	??_C@_1DO@MABJBNAJ@?$AAr?$AAe?$AAq?$AA_?$AAc?$AAo?$AAm?$AAp?$AA?5?$AA?$DO?$AA?$DN?$AA?5?$AA1?$AA?5?$AA?$CG@ ; `string'
PUBLIC	??_C@_13COJANIEC@?$AA0@				; `string'
PUBLIC	??_C@_0M@MHDBFHD@unsupported@			; `string'
PUBLIC	??_C@_0O@DEFOLMLB@bad?5size?5list@		; `string'
PUBLIC	??_C@_0BB@FOKGPEKG@bad?5code?5lengths@		; `string'
PUBLIC	??_C@_1KE@JGKPJEBO@?$AA?$CI?$AA?$CI?$AA?$CI?$AAj?$AA?9?$AA?$DO?$AAc?$AAo?$AAd?$AAe?$AA_?$AAb?$AAu?$AAf?$AAf@ ; `string'
PUBLIC	??_C@_0BB@IIMLINA@bad?5huffman?5code@		; `string'
PUBLIC	??_C@_09IFDKCGFO@bad?5delta@			; `string'
PUBLIC	??_C@_0BG@PJBJDAGM@can?8t?5merge?5dc?5and?5ac@	; `string'
PUBLIC	??_C@_0BA@KLNDOKJD@expected?5marker@		; `string'
PUBLIC	??_C@_0M@LPHNODCG@bad?5DRI?5len@		; `string'
PUBLIC	??_C@_0N@BOFJCHAP@bad?5DQT?5type@		; `string'
PUBLIC	??_C@_0O@CNHKKDIM@bad?5DQT?5table@		; `string'
PUBLIC	??_C@_0P@JLGKOCGN@bad?5DHT?5header@		; `string'
PUBLIC	??_C@_0M@CICAFFCH@bad?5COM?5len@		; `string'
PUBLIC	??_C@_0M@EENLKPDI@bad?5APP?5len@		; `string'
PUBLIC	??_C@_0P@NNGPHMMK@unknown?5marker@		; `string'
PUBLIC	??_C@_0BI@DHFJCMBA@bad?5SOS?5component?5count@	; `string'
PUBLIC	??_C@_0M@GNEHAHOH@bad?5SOS?5len@		; `string'
PUBLIC	??_C@_0M@NOCCBFAC@bad?5DC?5huff@		; `string'
PUBLIC	??_C@_0M@JGMCBLGG@bad?5AC?5huff@		; `string'
PUBLIC	??_C@_07EEJOMGGP@bad?5SOS@			; `string'
PUBLIC	??_C@_0M@DOFMJEMP@bad?5SOF?5len@		; `string'
PUBLIC	??_C@_0L@BCINMEBJ@only?58?9bit@			; `string'
PUBLIC	??_C@_0BB@LNEGOMA@no?5header?5height@		; `string'
PUBLIC	??_C@_07BIDACDEF@0?5width@			; `string'
PUBLIC	??_C@_09OJDLMMBJ@too?5large@			; `string'
PUBLIC	??_C@_0BE@DAPHADHL@bad?5component?5count@	; `string'
PUBLIC	??_C@_05BLPKENEJ@bad?5H@			; `string'
PUBLIC	??_C@_05MPLLHCJG@bad?5V@			; `string'
PUBLIC	??_C@_06LJIHDFHI@bad?5TQ@			; `string'
PUBLIC	??_C@_06CLMBLEP@no?5SOI@			; `string'
PUBLIC	??_C@_06IFCEAHIA@no?5SOF@			; `string'
PUBLIC	??_C@_0M@EPMOIECP@bad?5DNL?5len@		; `string'
PUBLIC	??_C@_0P@PNCLKCLJ@bad?5DNL?5height@		; `string'
PUBLIC	??_C@_0N@KBPNPPBJ@bad?5req_comp@		; `string'
PUBLIC	??_C@_1BG@HKNLHECB@?$AAb?$AAi?$AAt?$AAs?$AA?5?$AA?$DM?$AA?$DN?$AA?5?$AA1?$AA6@ ; `string'
PUBLIC	??_C@_09EOHLEIKL@bad?5sizes@			; `string'
PUBLIC	??_C@_0BA@MDNKOBMC@bad?5codelengths@		; `string'
PUBLIC	??_C@_0BE@IBFIPFO@output?5buffer?5limit@	; `string'
PUBLIC	??_C@_08DIAPIMGJ@bad?5dist@			; `string'
PUBLIC	??_C@_0N@IECDHMDI@zlib?5corrupt@		; `string'
PUBLIC	??_C@_0BB@PIPBCKIA@read?5past?5buffer@		; `string'
PUBLIC	??_C@_0BA@OBKOPAFL@bad?5zlib?5header@		; `string'
PUBLIC	??_C@_0P@DOGMHEBI@no?5preset?5dict@		; `string'
PUBLIC	??_C@_0BA@MCNBDLPD@bad?5compression@		; `string'
PUBLIC	??_C@_0M@DMDNBACF@bad?5png?5sig@		; `string'
PUBLIC	??_C@_1FG@LGPEHEPM@?$AAo?$AAu?$AAt?$AA_?$AAn?$AA?5?$AA?$DN?$AA?$DN?$AA?5?$AAs?$AA?9?$AA?$DO?$AAi?$AAm?$AAg@ ; `string'
PUBLIC	??_C@_0BC@BHMPBBMG@not?5enough?5pixels@		; `string'
PUBLIC	??_C@_0P@FBBCPGMN@invalid?5filter@		; `string'
PUBLIC	??_C@_0O@MKGNGALN@invalid?5width@		; `string'
PUBLIC	??_C@_1CG@MFAHHIFB@?$AAi?$AAm?$AAg?$AA_?$AAn?$AA?5?$AA?$CL?$AA?5?$AA1?$AA?5?$AA?$DN?$AA?$DN?$AA?5?$AAo?$AAu@ ; `string'
PUBLIC	??_C@_1BG@FLOPDKAN@?$AAi?$AAm?$AAg?$AA_?$AAn?$AA?5?$AA?$DN?$AA?$DN?$AA?5?$AA3@ ; `string'
PUBLIC	??_C@_1DC@BMIDKOPK@?$AAo?$AAu?$AAt?$AA_?$AAn?$AA?5?$AA?$DN?$AA?$DN?$AA?5?$AA2?$AA?5?$AA?$HM?$AA?$HM?$AA?5?$AAo@ ; `string'
PUBLIC	??_C@_1CE@GKIDJEJM@?$AAs?$AA?9?$AA?$DO?$AAi?$AAm?$AAg?$AA_?$AAo?$AAu?$AAt?$AA_?$AAn?$AA?5?$AA?$DN?$AA?$DN@ ; `string'
PUBLIC	??_C@_0O@KBHBNJOK@multiple?5IHDR@		; `string'
PUBLIC	??_C@_0N@POJLKMKK@bad?5IHDR?5len@		; `string'
PUBLIC	??_C@_0BE@EJHIPKNO@1?12?14?18?116?9bit?5only@	; `string'
PUBLIC	??_C@_09MBBNGCKB@bad?5ctype@			; `string'
PUBLIC	??_C@_0BA@MDMBDDFG@bad?5comp?5method@		; `string'
PUBLIC	??_C@_0BC@GHLIKKMD@bad?5filter?5method@		; `string'
PUBLIC	??_C@_0BF@JCGDPBAA@bad?5interlace?5method@	; `string'
PUBLIC	??_C@_0O@FNFBHCOO@0?9pixel?5image@		; `string'
PUBLIC	??_C@_0P@JEAFOMAF@first?5not?5IHDR@		; `string'
PUBLIC	??_C@_0N@JCPAJAKB@invalid?5PLTE@		; `string'
PUBLIC	??_C@_0BA@PCPJHDKJ@tRNS?5after?5IDAT@		; `string'
PUBLIC	??_C@_0BB@CEDNNLBG@tRNS?5before?5PLTE@		; `string'
PUBLIC	??_C@_0N@KDLCCKCH@bad?5tRNS?5len@		; `string'
PUBLIC	??_C@_0BA@ENDPGCHB@tRNS?5with?5alpha@		; `string'
PUBLIC	??_C@_07CKIELOEH@no?5PLTE@			; `string'
PUBLIC	??_C@_0BA@PLHGLONG@IDAT?5size?5limit@		; `string'
PUBLIC	??_C@_09MNNCNKEO@outofdata@			; `string'
PUBLIC	??_C@_07MLPECBNA@no?5IDAT@			; `string'
PUBLIC	??_C@_0BF@NOEEEFMF@bad?5bits_per_channel@	; `string'
PUBLIC	??_C@_1BA@EKLGALLJ@?$AAv?$AA?5?$AA?$DM?$AA?5?$AA2?$AA5?$AA6@ ; `string'
PUBLIC	??_C@_1CO@LIFEKNEP@?$AAb?$AAi?$AAt?$AAs?$AA?5?$AA?$DO?$AA?$DN?$AA?5?$AA0?$AA?5?$AA?$CG?$AA?$CG?$AA?5?$AAb?$AAi@ ; `string'
PUBLIC	??_C@_07IANEBNLB@not?5BMP@			; `string'
PUBLIC	??_C@_07IEJCHBDI@bad?5BMP@			; `string'
PUBLIC	??_C@_0M@KHBIBJBG@unknown?5BMP@			; `string'
PUBLIC	??_C@_07IMHMNOIB@BMP?5RLE@			; `string'
PUBLIC	??_C@_0N@ODCBCBFN@BMP?5JPEG?1PNG@		; `string'
PUBLIC	??_C@_0L@PJHPAMCH@bad?5header@			; `string'
PUBLIC	??_C@_0L@JDPIFELH@bad?5offset@			; `string'
PUBLIC	??_C@_07MALOAKCI@invalid@			; `string'
PUBLIC	??_C@_07JNJHIMGH@bad?5bpp@			; `string'
PUBLIC	??_C@_09DAEBACAB@bad?5masks@			; `string'
PUBLIC	??_C@_0L@DMAPJJO@bad?5format@			; `string'
PUBLIC	??_C@_0M@ILLOCNCO@bad?5palette@			; `string'
PUBLIC	??_C@_1CK@GOOINIO@?$AAt?$AAg?$AAa?$AA_?$AAc?$AAo?$AAm?$AAp?$AA?5?$AA?$DN?$AA?$DN?$AA?5?$AAS?$AAT?$AAB@ ; `string'
PUBLIC	??_C@_07ECNCNLIK@not?5PSD@			; `string'
PUBLIC	??_C@_0O@CHBCDKKC@wrong?5version@		; `string'
PUBLIC	??_C@_0BE@PJBNGDBE@wrong?5channel?5count@	; `string'
PUBLIC	??_C@_0BG@NOLDLPP@unsupported?5bit?5depth@	; `string'
PUBLIC	??_C@_0BD@IOGGBMNK@wrong?5color?5format@	; `string'
PUBLIC	??_C@_07DPPMCAKL@corrupt@			; `string'
PUBLIC	??_C@_04KBFEPHFH@S?$IA?v4@			; `string'
PUBLIC	??_C@_04ELNJHLFH@PICT@				; `string'
PUBLIC	??_C@_08GGMBIFE@bad?5file@			; `string'
PUBLIC	??_C@_07KMJLPAII@not?5GIF@			; `string'
PUBLIC	??_C@_00CNPNBAHC@@				; `string'
PUBLIC	??_C@_0O@MGDACKOJ@no?5clear?5code@		; `string'
PUBLIC	??_C@_0P@GJNJCPDJ@too?5many?5codes@		; `string'
PUBLIC	??_C@_0BH@LOKBIIOJ@illegal?5code?5in?5raster@	; `string'
PUBLIC	??_C@_0BF@GIAALCNJ@bad?5Image?5Descriptor@	; `string'
PUBLIC	??_C@_0BE@NAMJKDNF@missing?5color?5table@	; `string'
PUBLIC	??_C@_0N@DJABBOOH@unknown?5code@		; `string'
PUBLIC	??_C@_0M@HOIDFNFN@?$CD?$DPRADIANCE?6@		; `string'
PUBLIC	??_C@_07KFDJIKCK@?$CD?$DPRGBE?6@		; `string'
PUBLIC	??_C@_0L@NCPEAJBD@?$CD?$DPRADIANCE@		; `string'
PUBLIC	??_C@_06NDOKKIDJ@?$CD?$DPRGBE@			; `string'
PUBLIC	??_C@_07NCIOKENI@not?5HDR@			; `string'
PUBLIC	??_C@_0BH@JFGBLLKC@FORMAT?$DN32?9bit_rle_rgbe@	; `string'
PUBLIC	??_C@_0BD@NKJFFLKL@unsupported?5format@		; `string'
PUBLIC	??_C@_03HKAKGGJN@?9Y?5@				; `string'
PUBLIC	??_C@_0BI@DCNDPIOH@unsupported?5data?5layout@	; `string'
PUBLIC	??_C@_03FOKDFDHG@?$CLX?5@			; `string'
PUBLIC	??_C@_0CA@JBEOCDFN@invalid?5decoded?5scanline?5length@ ; `string'
PUBLIC	??_C@_07IDKIDMGJ@bad?5PNM@			; `string'
PUBLIC	??_C@_0BH@OBINMOBC@integer?5parse?5overflow@	; `string'
PUBLIC	??_C@_0BC@CNFMOKHC@max?5value?5?$DO?565535@	; `string'
PUBLIC	__real@3f000000
PUBLIC	__real@3f800000
PUBLIC	__real@3ff0000000000000
PUBLIC	__real@40400000
PUBLIC	__real@437f0000
PUBLIC	__real@477fff00
PUBLIC	__xmm@00000200000002000000020000000200
PUBLIC	__xmm@00080008000800080008000800080008
PUBLIC	__xmm@00ff00ff00ff00ff00ff00ff00ff00ff
PUBLIC	__xmm@01010000010100000101000001010000
PUBLIC	__xmm@08a914e808a914e808a914e808a914e8
PUBLIC	__xmm@11c8e09e11c8e09e11c8e09e11c8e09e
PUBLIC	__xmm@11c8f9c311c8f9c311c8f9c311c8f9c3
PUBLIC	__xmm@12d0046b12d0046b12d0046b12d0046b
PUBLIC	__xmm@166f166f166f166f166f166f166f166f
PUBLIC	__xmm@1c5a1c5a1c5a1c5a1c5a1c5a1c5a1c5a
PUBLIC	__xmm@80808080808080808080808080808080
PUBLIC	__xmm@e09ee565e09ee565e09ee565e09ee565
PUBLIC	__xmm@e9cf12d0e9cf12d0e9cf12d0e9cf12d0
PUBLIC	__xmm@eb1a08a9eb1a08a9eb1a08a9eb1a08a9
PUBLIC	__xmm@f493f493f493f493f493f493f493f493
PUBLIC	__xmm@f9c31a9df9c31a9df9c31a9df9c31a9d
PUBLIC	__xmm@fa7efa7efa7efa7efa7efa7efa7efa7e
EXTRN	__imp_fopen_s:PROC
EXTRN	__imp_fclose:PROC
EXTRN	__imp_feof:PROC
EXTRN	__imp_ferror:PROC
EXTRN	__imp_fgetc:PROC
EXTRN	__imp_fread:PROC
EXTRN	__imp_fseek:PROC
EXTRN	__imp_ftell:PROC
EXTRN	__imp_ungetc:PROC
EXTRN	__imp_free:PROC
EXTRN	__imp_malloc:PROC
EXTRN	__imp_realloc:PROC
EXTRN	abs:PROC
EXTRN	_lrotl:PROC
EXTRN	__imp_strtol:PROC
EXTRN	memcpy:PROC
EXTRN	memset:PROC
EXTRN	strcmp:PROC
EXTRN	__imp_strncmp:PROC
EXTRN	pow:PROC
EXTRN	__imp_ldexp:PROC
EXTRN	__imp__wassert:PROC
EXTRN	_RTC_CheckStackVars:PROC
EXTRN	_RTC_InitBase:PROC
EXTRN	_RTC_Shutdown:PROC
EXTRN	__CheckForDebuggerJustMyCode:PROC
EXTRN	__GSHandlerCheck:PROC
EXTRN	__chkstk:PROC
EXTRN	__security_check_cookie:PROC
EXTRN	__ImageBase:BYTE
EXTRN	__security_cookie:QWORD
EXTRN	_fltused:DWORD
EXTRN	_tls_index:DWORD
_TLS	SEGMENT
stbi__g_failure_reason DQ 01H DUP (?)
_TLS	ENDS
_BSS	SEGMENT
stbi__vertically_flip_on_load_global DD 01H DUP (?)
_BSS	ENDS
_TLS	SEGMENT
stbi__vertically_flip_on_load_local DD 01H DUP (?)
stbi__vertically_flip_on_load_set DD 01H DUP (?)
_TLS	ENDS
_BSS	SEGMENT
stbi__unpremultiply_on_load_global DD 01H DUP (?)
stbi__de_iphone_flag_global DD 01H DUP (?)
_BSS	ENDS
_TLS	SEGMENT
stbi__unpremultiply_on_load_local DD 01H DUP (?)
stbi__unpremultiply_on_load_set DD 01H DUP (?)
stbi__de_iphone_flag_local DD 01H DUP (?)
stbi__de_iphone_flag_set DD 01H DUP (?)
_TLS	ENDS
;	COMDAT pdata
pdata	SEGMENT
$pdata$stbi_load_from_memory DD imagerel $LN3
	DD	imagerel $LN3+197
	DD	imagerel $unwind$stbi_load_from_memory
pdata	ENDS
;	COMDAT pdata
pdata	SEGMENT
$pdata$stbi_load_from_callbacks DD imagerel $LN3
	DD	imagerel $LN3+198
	DD	imagerel $unwind$stbi_load_from_callbacks
pdata	ENDS
;	COMDAT pdata
pdata	SEGMENT
$pdata$stbi_load DD imagerel $LN6
	DD	imagerel $LN6+193
	DD	imagerel $unwind$stbi_load
pdata	ENDS
;	COMDAT pdata
pdata	SEGMENT
$pdata$stbi_load_to_target DD imagerel $LN4
	DD	imagerel $LN4+158
	DD	imagerel $unwind$stbi_load_to_target
pdata	ENDS
;	COMDAT pdata
pdata	SEGMENT
$pdata$stbi_load_from_file DD imagerel $LN4
	DD	imagerel $LN4+249
	DD	imagerel $unwind$stbi_load_from_file
pdata	ENDS
;	COMDAT pdata
pdata	SEGMENT
$pdata$stbi_load_gif_from_memory DD imagerel $LN6
	DD	imagerel $LN6+370
	DD	imagerel $unwind$stbi_load_gif_from_memory
pdata	ENDS
;	COMDAT pdata
pdata	SEGMENT
$pdata$stbi_load_16_from_memory DD imagerel $LN3
	DD	imagerel $LN3+197
	DD	imagerel $unwind$stbi_load_16_from_memory
pdata	ENDS
;	COMDAT pdata
pdata	SEGMENT
$pdata$stbi_load_16_from_callbacks DD imagerel $LN3
	DD	imagerel $LN3+198
	DD	imagerel $unwind$stbi_load_16_from_callbacks
pdata	ENDS
;	COMDAT pdata
pdata	SEGMENT
$pdata$stbi_load_16 DD imagerel $LN6
	DD	imagerel $LN6+193
	DD	imagerel $unwind$stbi_load_16
pdata	ENDS
;	COMDAT pdata
pdata	SEGMENT
$pdata$stbi_load_from_file_16 DD imagerel $LN4
	DD	imagerel $LN4+249
	DD	imagerel $unwind$stbi_load_from_file_16
pdata	ENDS
;	COMDAT pdata
pdata	SEGMENT
$pdata$stbi_loadf_from_memory DD imagerel $LN3
	DD	imagerel $LN3+197
	DD	imagerel $unwind$stbi_loadf_from_memory
pdata	ENDS
;	COMDAT pdata
pdata	SEGMENT
$pdata$stbi_loadf_from_callbacks DD imagerel $LN3
	DD	imagerel $LN3+198
	DD	imagerel $unwind$stbi_loadf_from_callbacks
pdata	ENDS
;	COMDAT pdata
pdata	SEGMENT
$pdata$stbi_loadf DD imagerel $LN6
	DD	imagerel $LN6+193
	DD	imagerel $unwind$stbi_loadf
pdata	ENDS
;	COMDAT pdata
pdata	SEGMENT
$pdata$stbi_loadf_from_file DD imagerel $LN3
	DD	imagerel $LN3+191
	DD	imagerel $unwind$stbi_loadf_from_file
pdata	ENDS
;	COMDAT pdata
pdata	SEGMENT
$pdata$stbi_hdr_to_ldr_gamma DD imagerel $LN3
	DD	imagerel $LN3+66
	DD	imagerel $unwind$stbi_hdr_to_ldr_gamma
pdata	ENDS
;	COMDAT pdata
pdata	SEGMENT
$pdata$stbi_hdr_to_ldr_scale DD imagerel $LN3
	DD	imagerel $LN3+66
	DD	imagerel $unwind$stbi_hdr_to_ldr_scale
pdata	ENDS
;	COMDAT pdata
pdata	SEGMENT
$pdata$stbi_ldr_to_hdr_gamma DD imagerel $LN3
	DD	imagerel $LN3+58
	DD	imagerel $unwind$stbi_ldr_to_hdr_gamma
pdata	ENDS
;	COMDAT pdata
pdata	SEGMENT
$pdata$stbi_ldr_to_hdr_scale DD imagerel $LN3
	DD	imagerel $LN3+58
	DD	imagerel $unwind$stbi_ldr_to_hdr_scale
pdata	ENDS
;	COMDAT pdata
pdata	SEGMENT
$pdata$stbi_is_hdr_from_callbacks DD imagerel $LN3
	DD	imagerel $LN3+157
	DD	imagerel $unwind$stbi_is_hdr_from_callbacks
pdata	ENDS
;	COMDAT pdata
pdata	SEGMENT
$pdata$stbi_is_hdr_from_memory DD imagerel $LN3
	DD	imagerel $LN3+156
	DD	imagerel $unwind$stbi_is_hdr_from_memory
pdata	ENDS
;	COMDAT pdata
pdata	SEGMENT
$pdata$stbi_is_hdr DD imagerel $LN4
	DD	imagerel $LN4+103
	DD	imagerel $unwind$stbi_is_hdr
pdata	ENDS
;	COMDAT pdata
pdata	SEGMENT
$pdata$stbi_is_hdr_from_file DD imagerel $LN3
	DD	imagerel $LN3+184
	DD	imagerel $unwind$stbi_is_hdr_from_file
pdata	ENDS
;	COMDAT pdata
pdata	SEGMENT
$pdata$stbi_failure_reason DD imagerel $LN3
	DD	imagerel $LN3+67
	DD	imagerel $unwind$stbi_failure_reason
pdata	ENDS
;	COMDAT pdata
pdata	SEGMENT
$pdata$stbi_image_free DD imagerel $LN3
	DD	imagerel $LN3+54
	DD	imagerel $unwind$stbi_image_free
pdata	ENDS
;	COMDAT pdata
pdata	SEGMENT
$pdata$stbi_info_from_memory DD imagerel $LN3
	DD	imagerel $LN3+187
	DD	imagerel $unwind$stbi_info_from_memory
pdata	ENDS
;	COMDAT pdata
pdata	SEGMENT
$pdata$stbi_info_from_callbacks DD imagerel $LN3
	DD	imagerel $LN3+188
	DD	imagerel $unwind$stbi_info_from_callbacks
pdata	ENDS
;	COMDAT pdata
pdata	SEGMENT
$pdata$stbi_is_16_bit_from_memory DD imagerel $LN3
	DD	imagerel $LN3+156
	DD	imagerel $unwind$stbi_is_16_bit_from_memory
pdata	ENDS
;	COMDAT pdata
pdata	SEGMENT
$pdata$stbi_is_16_bit_from_callbacks DD imagerel $LN3
	DD	imagerel $LN3+157
	DD	imagerel $unwind$stbi_is_16_bit_from_callbacks
pdata	ENDS
;	COMDAT pdata
pdata	SEGMENT
$pdata$stbi_info DD imagerel $LN4
	DD	imagerel $LN4+146
	DD	imagerel $unwind$stbi_info
pdata	ENDS
;	COMDAT pdata
pdata	SEGMENT
$pdata$stbi_info_from_file DD imagerel $LN3
	DD	imagerel $LN3+226
	DD	imagerel $unwind$stbi_info_from_file
pdata	ENDS
;	COMDAT pdata
pdata	SEGMENT
$pdata$stbi_is_16_bit DD imagerel $LN4
	DD	imagerel $LN4+110
	DD	imagerel $unwind$stbi_is_16_bit
pdata	ENDS
;	COMDAT pdata
pdata	SEGMENT
$pdata$stbi_is_16_bit_from_file DD imagerel $LN3
	DD	imagerel $LN3+190
	DD	imagerel $unwind$stbi_is_16_bit_from_file
pdata	ENDS
;	COMDAT pdata
pdata	SEGMENT
$pdata$stbi_set_unpremultiply_on_load DD imagerel $LN3
	DD	imagerel $LN3+52
	DD	imagerel $unwind$stbi_set_unpremultiply_on_load
pdata	ENDS
;	COMDAT pdata
pdata	SEGMENT
$pdata$stbi_convert_iphone_png_to_rgb DD imagerel $LN3
	DD	imagerel $LN3+52
	DD	imagerel $unwind$stbi_convert_iphone_png_to_rgb
pdata	ENDS
;	COMDAT pdata
pdata	SEGMENT
$pdata$stbi_set_flip_vertically_on_load DD imagerel $LN3
	DD	imagerel $LN3+52
	DD	imagerel $unwind$stbi_set_flip_vertically_on_load
pdata	ENDS
;	COMDAT pdata
pdata	SEGMENT
$pdata$stbi_set_unpremultiply_on_load_thread DD imagerel $LN3
	DD	imagerel $LN3+108
	DD	imagerel $unwind$stbi_set_unpremultiply_on_load_thread
pdata	ENDS
;	COMDAT pdata
pdata	SEGMENT
$pdata$stbi_convert_iphone_png_to_rgb_thread DD imagerel $LN3
	DD	imagerel $LN3+108
	DD	imagerel $unwind$stbi_convert_iphone_png_to_rgb_thread
pdata	ENDS
;	COMDAT pdata
pdata	SEGMENT
$pdata$stbi_set_flip_vertically_on_load_thread DD imagerel $LN3
	DD	imagerel $LN3+108
	DD	imagerel $unwind$stbi_set_flip_vertically_on_load_thread
pdata	ENDS
;	COMDAT pdata
pdata	SEGMENT
$pdata$stbi_zlib_decode_malloc_guesssize DD imagerel $LN7
	DD	imagerel $LN7+308
	DD	imagerel $unwind$stbi_zlib_decode_malloc_guesssize
pdata	ENDS
;	COMDAT pdata
pdata	SEGMENT
$pdata$stbi_zlib_decode_malloc_guesssize_headerflag DD imagerel $LN7
	DD	imagerel $LN7+310
	DD	imagerel $unwind$stbi_zlib_decode_malloc_guesssize_headerflag
pdata	ENDS
;	COMDAT pdata
pdata	SEGMENT
$pdata$stbi_zlib_decode_malloc DD imagerel $LN3
	DD	imagerel $LN3+81
	DD	imagerel $unwind$stbi_zlib_decode_malloc
pdata	ENDS
;	COMDAT pdata
pdata	SEGMENT
$pdata$stbi_zlib_decode_buffer DD imagerel $LN5
	DD	imagerel $LN5+236
	DD	imagerel $unwind$stbi_zlib_decode_buffer
pdata	ENDS
;	COMDAT pdata
pdata	SEGMENT
$pdata$stbi_zlib_decode_noheader_malloc DD imagerel $LN7
	DD	imagerel $LN7+297
	DD	imagerel $unwind$stbi_zlib_decode_noheader_malloc
pdata	ENDS
;	COMDAT pdata
pdata	SEGMENT
$pdata$stbi_zlib_decode_noheader_buffer DD imagerel $LN5
	DD	imagerel $LN5+236
	DD	imagerel $unwind$stbi_zlib_decode_noheader_buffer
pdata	ENDS
;	COMDAT pdata
pdata	SEGMENT
$pdata$stbi__cpuid3 DD imagerel stbi__cpuid3
	DD	imagerel stbi__cpuid3+149
	DD	imagerel $unwind$stbi__cpuid3
pdata	ENDS
;	COMDAT pdata
pdata	SEGMENT
$pdata$stbi__sse2_available DD imagerel stbi__sse2_available
	DD	imagerel stbi__sse2_available+86
	DD	imagerel $unwind$stbi__sse2_available
pdata	ENDS
;	COMDAT pdata
pdata	SEGMENT
$pdata$stbi__refill_buffer DD imagerel stbi__refill_buffer
	DD	imagerel stbi__refill_buffer+291
	DD	imagerel $unwind$stbi__refill_buffer
pdata	ENDS
;	COMDAT pdata
pdata	SEGMENT
$pdata$stbi__start_mem DD imagerel stbi__start_mem
	DD	imagerel stbi__start_mem+205
	DD	imagerel $unwind$stbi__start_mem
pdata	ENDS
;	COMDAT pdata
pdata	SEGMENT
$pdata$stbi__start_callbacks DD imagerel stbi__start_callbacks
	DD	imagerel stbi__start_callbacks+241
	DD	imagerel $unwind$stbi__start_callbacks
pdata	ENDS
;	COMDAT pdata
pdata	SEGMENT
$pdata$stbi__stdio_read DD imagerel stbi__stdio_read
	DD	imagerel stbi__stdio_read+86
	DD	imagerel $unwind$stbi__stdio_read
pdata	ENDS
;	COMDAT pdata
pdata	SEGMENT
$pdata$stbi__stdio_skip DD imagerel stbi__stdio_skip
	DD	imagerel stbi__stdio_skip+108
	DD	imagerel $unwind$stbi__stdio_skip
pdata	ENDS
;	COMDAT pdata
pdata	SEGMENT
$pdata$stbi__stdio_eof DD imagerel stbi__stdio_eof
	DD	imagerel stbi__stdio_eof+103
	DD	imagerel $unwind$stbi__stdio_eof
pdata	ENDS
;	COMDAT pdata
pdata	SEGMENT
$pdata$stbi__start_file DD imagerel stbi__start_file
	DD	imagerel stbi__start_file+72
	DD	imagerel $unwind$stbi__start_file
pdata	ENDS
;	COMDAT pdata
pdata	SEGMENT
$pdata$stbi__rewind DD imagerel stbi__rewind
	DD	imagerel stbi__rewind+97
	DD	imagerel $unwind$stbi__rewind
pdata	ENDS
;	COMDAT pdata
pdata	SEGMENT
$pdata$stbi__jpeg_test DD imagerel stbi__jpeg_test
	DD	imagerel stbi__jpeg_test+158
	DD	imagerel $unwind$stbi__jpeg_test
pdata	ENDS
;	COMDAT pdata
pdata	SEGMENT
$pdata$stbi__jpeg_load DD imagerel stbi__jpeg_load
	DD	imagerel stbi__jpeg_load+224
	DD	imagerel $unwind$stbi__jpeg_load
pdata	ENDS
;	COMDAT pdata
pdata	SEGMENT
$pdata$stbi__jpeg_info DD imagerel stbi__jpeg_info
	DD	imagerel stbi__jpeg_info+168
	DD	imagerel $unwind$stbi__jpeg_info
pdata	ENDS
;	COMDAT pdata
pdata	SEGMENT
$pdata$stbi__png_test DD imagerel stbi__png_test
	DD	imagerel stbi__png_test+71
	DD	imagerel $unwind$stbi__png_test
pdata	ENDS
;	COMDAT pdata
pdata	SEGMENT
$pdata$stbi__png_load DD imagerel stbi__png_load
	DD	imagerel stbi__png_load+198
	DD	imagerel $unwind$stbi__png_load
pdata	ENDS
;	COMDAT pdata
pdata	SEGMENT
$pdata$stbi__png_info DD imagerel stbi__png_info
	DD	imagerel stbi__png_info+176
	DD	imagerel $unwind$stbi__png_info
pdata	ENDS
;	COMDAT pdata
pdata	SEGMENT
$pdata$stbi__png_is16 DD imagerel stbi__png_is16
	DD	imagerel stbi__png_is16+180
	DD	imagerel $unwind$stbi__png_is16
pdata	ENDS
;	COMDAT pdata
pdata	SEGMENT
$pdata$stbi__bmp_test DD imagerel stbi__bmp_test
	DD	imagerel stbi__bmp_test+71
	DD	imagerel $unwind$stbi__bmp_test
pdata	ENDS
;	COMDAT pdata
pdata	SEGMENT
$pdata$stbi__bmp_load DD imagerel stbi__bmp_load
	DD	imagerel stbi__bmp_load+4917
	DD	imagerel $unwind$stbi__bmp_load
pdata	ENDS
;	COMDAT pdata
pdata	SEGMENT
$pdata$stbi__bmp_info DD imagerel stbi__bmp_info
	DD	imagerel stbi__bmp_info+333
	DD	imagerel $unwind$stbi__bmp_info
pdata	ENDS
;	COMDAT pdata
pdata	SEGMENT
$pdata$stbi__tga_test DD imagerel stbi__tga_test
	DD	imagerel stbi__tga_test+395
	DD	imagerel $unwind$stbi__tga_test
pdata	ENDS
;	COMDAT pdata
pdata	SEGMENT
$pdata$stbi__tga_load DD imagerel stbi__tga_load
	DD	imagerel stbi__tga_load+3001
	DD	imagerel $unwind$stbi__tga_load
pdata	ENDS
;	COMDAT pdata
pdata	SEGMENT
$pdata$stbi__tga_info DD imagerel stbi__tga_info
	DD	imagerel stbi__tga_info+712
	DD	imagerel $unwind$stbi__tga_info
pdata	ENDS
;	COMDAT pdata
pdata	SEGMENT
$pdata$stbi__psd_test DD imagerel stbi__psd_test
	DD	imagerel stbi__psd_test+106
	DD	imagerel $unwind$stbi__psd_test
pdata	ENDS
;	COMDAT pdata
pdata	SEGMENT
$pdata$stbi__psd_load DD imagerel stbi__psd_load
	DD	imagerel stbi__psd_load+3120
	DD	imagerel $unwind$stbi__psd_load
pdata	ENDS
;	COMDAT pdata
pdata	SEGMENT
$pdata$stbi__psd_info DD imagerel stbi__psd_info
	DD	imagerel stbi__psd_info+471
	DD	imagerel $unwind$stbi__psd_info
pdata	ENDS
;	COMDAT pdata
pdata	SEGMENT
$pdata$stbi__psd_is16 DD imagerel stbi__psd_is16
	DD	imagerel stbi__psd_is16+238
	DD	imagerel $unwind$stbi__psd_is16
pdata	ENDS
;	COMDAT pdata
pdata	SEGMENT
$pdata$stbi__hdr_test DD imagerel stbi__hdr_test
	DD	imagerel stbi__hdr_test+118
	DD	imagerel $unwind$stbi__hdr_test
pdata	ENDS
;	COMDAT pdata
pdata	SEGMENT
$pdata$stbi__hdr_load DD imagerel stbi__hdr_load
	DD	imagerel stbi__hdr_load+2640
	DD	imagerel $unwind$stbi__hdr_load
pdata	ENDS
;	COMDAT pdata
pdata	SEGMENT
$pdata$stbi__hdr_info DD imagerel stbi__hdr_info
	DD	imagerel stbi__hdr_info+635
	DD	imagerel $unwind$stbi__hdr_info
pdata	ENDS
;	COMDAT pdata
pdata	SEGMENT
$pdata$stbi__pic_test DD imagerel stbi__pic_test
	DD	imagerel stbi__pic_test+71
	DD	imagerel $unwind$stbi__pic_test
pdata	ENDS
;	COMDAT pdata
pdata	SEGMENT
$pdata$stbi__pic_load DD imagerel stbi__pic_load
	DD	imagerel stbi__pic_load+786
	DD	imagerel $unwind$stbi__pic_load
pdata	ENDS
;	COMDAT pdata
pdata	SEGMENT
$pdata$stbi__pic_info DD imagerel stbi__pic_info
	DD	imagerel stbi__pic_info+699
	DD	imagerel $unwind$stbi__pic_info
pdata	ENDS
;	COMDAT pdata
pdata	SEGMENT
$pdata$stbi__gif_test DD imagerel stbi__gif_test
	DD	imagerel stbi__gif_test+71
	DD	imagerel $unwind$stbi__gif_test
pdata	ENDS
;	COMDAT pdata
pdata	SEGMENT
$pdata$stbi__gif_load DD imagerel stbi__gif_load
	DD	imagerel stbi__gif_load+358
	DD	imagerel $unwind$stbi__gif_load
pdata	ENDS
;	COMDAT pdata
pdata	SEGMENT
$pdata$stbi__load_gif_main DD imagerel stbi__load_gif_main
	DD	imagerel stbi__load_gif_main+1124
	DD	imagerel $unwind$stbi__load_gif_main
pdata	ENDS
;	COMDAT pdata
pdata	SEGMENT
$pdata$stbi__gif_info DD imagerel stbi__gif_info
	DD	imagerel stbi__gif_info+89
	DD	imagerel $unwind$stbi__gif_info
pdata	ENDS
;	COMDAT pdata
pdata	SEGMENT
$pdata$stbi__pnm_test DD imagerel stbi__pnm_test
	DD	imagerel stbi__pnm_test+119
	DD	imagerel $unwind$stbi__pnm_test
pdata	ENDS
;	COMDAT pdata
pdata	SEGMENT
$pdata$stbi__pnm_load DD imagerel stbi__pnm_load
	DD	imagerel stbi__pnm_load+904
	DD	imagerel $unwind$stbi__pnm_load
pdata	ENDS
;	COMDAT pdata
pdata	SEGMENT
$pdata$stbi__pnm_info DD imagerel stbi__pnm_info
	DD	imagerel stbi__pnm_info+579
	DD	imagerel $unwind$stbi__pnm_info
pdata	ENDS
;	COMDAT pdata
pdata	SEGMENT
$pdata$stbi__pnm_is16 DD imagerel stbi__pnm_is16
	DD	imagerel stbi__pnm_is16+75
	DD	imagerel $unwind$stbi__pnm_is16
pdata	ENDS
;	COMDAT pdata
pdata	SEGMENT
$pdata$stbi__err DD imagerel stbi__err
	DD	imagerel stbi__err+80
	DD	imagerel $unwind$stbi__err
pdata	ENDS
;	COMDAT pdata
pdata	SEGMENT
$pdata$stbi__malloc DD imagerel stbi__malloc
	DD	imagerel stbi__malloc+54
	DD	imagerel $unwind$stbi__malloc
pdata	ENDS
;	COMDAT pdata
pdata	SEGMENT
$pdata$stbi__addsizes_valid DD imagerel stbi__addsizes_valid
	DD	imagerel stbi__addsizes_valid+104
	DD	imagerel $unwind$stbi__addsizes_valid
pdata	ENDS
;	COMDAT pdata
pdata	SEGMENT
$pdata$stbi__mul2sizes_valid DD imagerel stbi__mul2sizes_valid
	DD	imagerel stbi__mul2sizes_valid+130
	DD	imagerel $unwind$stbi__mul2sizes_valid
pdata	ENDS
;	COMDAT pdata
pdata	SEGMENT
$pdata$stbi__mad2sizes_valid DD imagerel stbi__mad2sizes_valid
	DD	imagerel stbi__mad2sizes_valid+128
	DD	imagerel $unwind$stbi__mad2sizes_valid
pdata	ENDS
;	COMDAT pdata
pdata	SEGMENT
$pdata$stbi__mad3sizes_valid DD imagerel stbi__mad3sizes_valid
	DD	imagerel stbi__mad3sizes_valid+170
	DD	imagerel $unwind$stbi__mad3sizes_valid
pdata	ENDS
;	COMDAT pdata
pdata	SEGMENT
$pdata$stbi__mad4sizes_valid DD imagerel stbi__mad4sizes_valid
	DD	imagerel stbi__mad4sizes_valid+214
	DD	imagerel $unwind$stbi__mad4sizes_valid
pdata	ENDS
;	COMDAT pdata
pdata	SEGMENT
$pdata$stbi__malloc_mad2 DD imagerel stbi__malloc_mad2
	DD	imagerel stbi__malloc_mad2+110
	DD	imagerel $unwind$stbi__malloc_mad2
pdata	ENDS
;	COMDAT pdata
pdata	SEGMENT
$pdata$stbi__malloc_mad3 DD imagerel stbi__malloc_mad3
	DD	imagerel stbi__malloc_mad3+129
	DD	imagerel $unwind$stbi__malloc_mad3
pdata	ENDS
;	COMDAT pdata
pdata	SEGMENT
$pdata$stbi__malloc_mad4 DD imagerel stbi__malloc_mad4
	DD	imagerel stbi__malloc_mad4+146
	DD	imagerel $unwind$stbi__malloc_mad4
pdata	ENDS
;	COMDAT pdata
pdata	SEGMENT
$pdata$stbi__addints_valid DD imagerel stbi__addints_valid
	DD	imagerel stbi__addints_valid+241
	DD	imagerel $unwind$stbi__addints_valid
pdata	ENDS
;	COMDAT pdata
pdata	SEGMENT
$pdata$stbi__mul2shorts_valid DD imagerel stbi__mul2shorts_valid
	DD	imagerel stbi__mul2shorts_valid+375
	DD	imagerel $unwind$stbi__mul2shorts_valid
pdata	ENDS
;	COMDAT pdata
pdata	SEGMENT
$pdata$stbi__ldr_to_hdr DD imagerel stbi__ldr_to_hdr
	DD	imagerel stbi__ldr_to_hdr+536
	DD	imagerel $unwind$stbi__ldr_to_hdr
pdata	ENDS
;	COMDAT pdata
pdata	SEGMENT
$pdata$stbi__hdr_to_ldr DD imagerel stbi__hdr_to_ldr
	DD	imagerel stbi__hdr_to_ldr+644
	DD	imagerel $unwind$stbi__hdr_to_ldr
pdata	ENDS
;	COMDAT pdata
pdata	SEGMENT
$pdata$stbi__load_main DD imagerel stbi__load_main
	DD	imagerel stbi__load_main+933
	DD	imagerel $unwind$stbi__load_main
pdata	ENDS
;	COMDAT pdata
pdata	SEGMENT
$pdata$stbi__convert_16_to_8 DD imagerel stbi__convert_16_to_8
	DD	imagerel stbi__convert_16_to_8+228
	DD	imagerel $unwind$stbi__convert_16_to_8
pdata	ENDS
;	COMDAT pdata
pdata	SEGMENT
$pdata$stbi__convert_8_to_16 DD imagerel stbi__convert_8_to_16
	DD	imagerel stbi__convert_8_to_16+244
	DD	imagerel $unwind$stbi__convert_8_to_16
pdata	ENDS
;	COMDAT pdata
pdata	SEGMENT
$pdata$stbi__vertical_flip DD imagerel stbi__vertical_flip
	DD	imagerel stbi__vertical_flip+511
	DD	imagerel $unwind$stbi__vertical_flip
pdata	ENDS
;	COMDAT pdata
pdata	SEGMENT
$pdata$stbi__vertical_flip_slices DD imagerel stbi__vertical_flip_slices
	DD	imagerel stbi__vertical_flip_slices+166
	DD	imagerel $unwind$stbi__vertical_flip_slices
pdata	ENDS
;	COMDAT pdata
pdata	SEGMENT
$pdata$stbi__load_and_postprocess_8bit DD imagerel stbi__load_and_postprocess_8bit
	DD	imagerel stbi__load_and_postprocess_8bit+516
	DD	imagerel $unwind$stbi__load_and_postprocess_8bit
pdata	ENDS
;	COMDAT pdata
pdata	SEGMENT
$pdata$stbi__load_and_postprocess_16bit DD imagerel stbi__load_and_postprocess_16bit
	DD	imagerel stbi__load_and_postprocess_16bit+522
	DD	imagerel $unwind$stbi__load_and_postprocess_16bit
pdata	ENDS
;	COMDAT pdata
pdata	SEGMENT
$pdata$stbi__float_postprocess DD imagerel stbi__float_postprocess
	DD	imagerel stbi__float_postprocess+245
	DD	imagerel $unwind$stbi__float_postprocess
pdata	ENDS
;	COMDAT pdata
pdata	SEGMENT
$pdata$stbi__fopen DD imagerel stbi__fopen
	DD	imagerel stbi__fopen+165
	DD	imagerel $unwind$stbi__fopen
pdata	ENDS
;	COMDAT pdata
pdata	SEGMENT
$pdata$stbi__loadf_main DD imagerel stbi__loadf_main
	DD	imagerel stbi__loadf_main+439
	DD	imagerel $unwind$stbi__loadf_main
pdata	ENDS
;	COMDAT pdata
pdata	SEGMENT
$pdata$stbi__get8 DD imagerel stbi__get8
	DD	imagerel stbi__get8+224
	DD	imagerel $unwind$stbi__get8
pdata	ENDS
;	COMDAT pdata
pdata	SEGMENT
$pdata$stbi__at_eof DD imagerel stbi__at_eof
	DD	imagerel stbi__at_eof+162
	DD	imagerel $unwind$stbi__at_eof
pdata	ENDS
;	COMDAT pdata
pdata	SEGMENT
$pdata$stbi__skip DD imagerel stbi__skip
	DD	imagerel stbi__skip+261
	DD	imagerel $unwind$stbi__skip
pdata	ENDS
;	COMDAT pdata
pdata	SEGMENT
$pdata$stbi__getn DD imagerel stbi__getn
	DD	imagerel stbi__getn+412
	DD	imagerel $unwind$stbi__getn
pdata	ENDS
;	COMDAT pdata
pdata	SEGMENT
$pdata$stbi__get16be DD imagerel stbi__get16be
	DD	imagerel stbi__get16be+96
	DD	imagerel $unwind$stbi__get16be
pdata	ENDS
;	COMDAT pdata
pdata	SEGMENT
$pdata$stbi__get32be DD imagerel stbi__get32be
	DD	imagerel stbi__get32be+90
	DD	imagerel $unwind$stbi__get32be
pdata	ENDS
;	COMDAT pdata
pdata	SEGMENT
$pdata$stbi__get16le DD imagerel stbi__get16le
	DD	imagerel stbi__get16le+84
	DD	imagerel $unwind$stbi__get16le
pdata	ENDS
;	COMDAT pdata
pdata	SEGMENT
$pdata$stbi__get32le DD imagerel stbi__get32le
	DD	imagerel stbi__get32le+84
	DD	imagerel $unwind$stbi__get32le
pdata	ENDS
;	COMDAT pdata
pdata	SEGMENT
$pdata$stbi__compute_y DD imagerel stbi__compute_y
	DD	imagerel stbi__compute_y+80
	DD	imagerel $unwind$stbi__compute_y
pdata	ENDS
;	COMDAT pdata
pdata	SEGMENT
$pdata$stbi__convert_format DD imagerel stbi__convert_format
	DD	imagerel stbi__convert_format+2744
	DD	imagerel $unwind$stbi__convert_format
pdata	ENDS
;	COMDAT pdata
pdata	SEGMENT
$pdata$stbi__compute_y_16 DD imagerel stbi__compute_y_16
	DD	imagerel stbi__compute_y_16+80
	DD	imagerel $unwind$stbi__compute_y_16
pdata	ENDS
;	COMDAT pdata
pdata	SEGMENT
$pdata$stbi__convert_format16 DD imagerel stbi__convert_format16
	DD	imagerel stbi__convert_format16+2796
	DD	imagerel $unwind$stbi__convert_format16
pdata	ENDS
;	COMDAT pdata
pdata	SEGMENT
$pdata$stbi__build_huffman DD imagerel stbi__build_huffman
	DD	imagerel stbi__build_huffman+696
	DD	imagerel $unwind$stbi__build_huffman
pdata	ENDS
;	COMDAT pdata
pdata	SEGMENT
$pdata$stbi__build_fast_ac DD imagerel stbi__build_fast_ac
	DD	imagerel stbi__build_fast_ac+439
	DD	imagerel $unwind$stbi__build_fast_ac
pdata	ENDS
;	COMDAT pdata
pdata	SEGMENT
$pdata$stbi__grow_buffer_unsafe DD imagerel stbi__grow_buffer_unsafe
	DD	imagerel stbi__grow_buffer_unsafe+313
	DD	imagerel $unwind$stbi__grow_buffer_unsafe
pdata	ENDS
;	COMDAT pdata
pdata	SEGMENT
$pdata$stbi__jpeg_huff_decode DD imagerel stbi__jpeg_huff_decode
	DD	imagerel stbi__jpeg_huff_decode+756
	DD	imagerel $unwind$stbi__jpeg_huff_decode
pdata	ENDS
;	COMDAT pdata
pdata	SEGMENT
$pdata$stbi__extend_receive DD imagerel stbi__extend_receive
	DD	imagerel stbi__extend_receive+283
	DD	imagerel $unwind$stbi__extend_receive
pdata	ENDS
;	COMDAT pdata
pdata	SEGMENT
$pdata$stbi__jpeg_get_bits DD imagerel stbi__jpeg_get_bits
	DD	imagerel stbi__jpeg_get_bits+236
	DD	imagerel $unwind$stbi__jpeg_get_bits
pdata	ENDS
;	COMDAT pdata
pdata	SEGMENT
$pdata$stbi__jpeg_get_bit DD imagerel stbi__jpeg_get_bit
	DD	imagerel stbi__jpeg_get_bit+169
	DD	imagerel $unwind$stbi__jpeg_get_bit
pdata	ENDS
;	COMDAT pdata
pdata	SEGMENT
$pdata$stbi__jpeg_decode_block DD imagerel stbi__jpeg_decode_block
	DD	imagerel stbi__jpeg_decode_block+983
	DD	imagerel $unwind$stbi__jpeg_decode_block
pdata	ENDS
;	COMDAT pdata
pdata	SEGMENT
$pdata$stbi__jpeg_decode_block_prog_dc DD imagerel stbi__jpeg_decode_block_prog_dc
	DD	imagerel stbi__jpeg_decode_block_prog_dc+590
	DD	imagerel $unwind$stbi__jpeg_decode_block_prog_dc
pdata	ENDS
;	COMDAT pdata
pdata	SEGMENT
$pdata$stbi__jpeg_decode_block_prog_ac DD imagerel stbi__jpeg_decode_block_prog_ac
	DD	imagerel stbi__jpeg_decode_block_prog_ac+1741
	DD	imagerel $unwind$stbi__jpeg_decode_block_prog_ac
pdata	ENDS
;	COMDAT pdata
pdata	SEGMENT
$pdata$stbi__clamp DD imagerel stbi__clamp
	DD	imagerel stbi__clamp+88
	DD	imagerel $unwind$stbi__clamp
pdata	ENDS
;	COMDAT pdata
pdata	SEGMENT
$pdata$stbi__idct_block DD imagerel stbi__idct_block
	DD	imagerel stbi__idct_block+3188
	DD	imagerel $unwind$stbi__idct_block
pdata	ENDS
;	COMDAT pdata
pdata	SEGMENT
$pdata$stbi__idct_simd DD imagerel stbi__idct_simd
	DD	imagerel stbi__idct_simd+5982
	DD	imagerel $unwind$stbi__idct_simd
pdata	ENDS
;	COMDAT pdata
pdata	SEGMENT
$pdata$stbi__get_marker DD imagerel stbi__get_marker
	DD	imagerel stbi__get_marker+167
	DD	imagerel $unwind$stbi__get_marker
pdata	ENDS
;	COMDAT pdata
pdata	SEGMENT
$pdata$stbi__jpeg_reset DD imagerel stbi__jpeg_reset
	DD	imagerel stbi__jpeg_reset+297
	DD	imagerel $unwind$stbi__jpeg_reset
pdata	ENDS
;	COMDAT pdata
pdata	SEGMENT
$pdata$stbi__parse_entropy_coded_data DD imagerel stbi__parse_entropy_coded_data
	DD	imagerel stbi__parse_entropy_coded_data+3232
	DD	imagerel $unwind$stbi__parse_entropy_coded_data
pdata	ENDS
;	COMDAT pdata
pdata	SEGMENT
$pdata$stbi__jpeg_dequantize DD imagerel stbi__jpeg_dequantize
	DD	imagerel stbi__jpeg_dequantize+119
	DD	imagerel $unwind$stbi__jpeg_dequantize
pdata	ENDS
;	COMDAT pdata
pdata	SEGMENT
$pdata$stbi__jpeg_finish DD imagerel stbi__jpeg_finish
	DD	imagerel stbi__jpeg_finish+492
	DD	imagerel $unwind$stbi__jpeg_finish
pdata	ENDS
;	COMDAT pdata
pdata	SEGMENT
$pdata$stbi__process_marker DD imagerel stbi__process_marker
	DD	imagerel stbi__process_marker+1902
	DD	imagerel $unwind$stbi__process_marker
pdata	ENDS
;	COMDAT pdata
pdata	SEGMENT
$pdata$stbi__process_scan_header DD imagerel stbi__process_scan_header
	DD	imagerel stbi__process_scan_header+905
	DD	imagerel $unwind$stbi__process_scan_header
pdata	ENDS
;	COMDAT pdata
pdata	SEGMENT
$pdata$stbi__free_jpeg_components DD imagerel stbi__free_jpeg_components
	DD	imagerel stbi__free_jpeg_components+393
	DD	imagerel $unwind$stbi__free_jpeg_components
pdata	ENDS
;	COMDAT pdata
pdata	SEGMENT
$pdata$stbi__process_frame_header DD imagerel stbi__process_frame_header
	DD	imagerel stbi__process_frame_header+2435
	DD	imagerel $unwind$stbi__process_frame_header
pdata	ENDS
;	COMDAT pdata
pdata	SEGMENT
$pdata$stbi__decode_jpeg_header DD imagerel stbi__decode_jpeg_header
	DD	imagerel stbi__decode_jpeg_header+397
	DD	imagerel $unwind$stbi__decode_jpeg_header
pdata	ENDS
;	COMDAT pdata
pdata	SEGMENT
$pdata$stbi__skip_jpeg_junk_at_end DD imagerel stbi__skip_jpeg_junk_at_end
	DD	imagerel stbi__skip_jpeg_junk_at_end+166
	DD	imagerel $unwind$stbi__skip_jpeg_junk_at_end
pdata	ENDS
;	COMDAT pdata
pdata	SEGMENT
$pdata$stbi__decode_jpeg_image DD imagerel stbi__decode_jpeg_image
	DD	imagerel stbi__decode_jpeg_image+559
	DD	imagerel $unwind$stbi__decode_jpeg_image
pdata	ENDS
;	COMDAT pdata
pdata	SEGMENT
$pdata$resample_row_1 DD imagerel resample_row_1
	DD	imagerel resample_row_1+63
	DD	imagerel $unwind$resample_row_1
pdata	ENDS
;	COMDAT pdata
pdata	SEGMENT
$pdata$stbi__resample_row_v_2 DD imagerel stbi__resample_row_v_2
	DD	imagerel stbi__resample_row_v_2+147
	DD	imagerel $unwind$stbi__resample_row_v_2
pdata	ENDS
;	COMDAT pdata
pdata	SEGMENT
$pdata$stbi__resample_row_h_2 DD imagerel stbi__resample_row_h_2
	DD	imagerel stbi__resample_row_h_2+521
	DD	imagerel $unwind$stbi__resample_row_h_2
pdata	ENDS
;	COMDAT pdata
pdata	SEGMENT
$pdata$stbi__resample_row_hv_2 DD imagerel stbi__resample_row_hv_2
	DD	imagerel stbi__resample_row_hv_2+443
	DD	imagerel $unwind$stbi__resample_row_hv_2
pdata	ENDS
;	COMDAT pdata
pdata	SEGMENT
$pdata$stbi__resample_row_hv_2_simd DD imagerel stbi__resample_row_hv_2_simd
	DD	imagerel stbi__resample_row_hv_2_simd+1192
	DD	imagerel $unwind$stbi__resample_row_hv_2_simd
pdata	ENDS
;	COMDAT pdata
pdata	SEGMENT
$pdata$stbi__resample_row_generic DD imagerel stbi__resample_row_generic
	DD	imagerel stbi__resample_row_generic+165
	DD	imagerel $unwind$stbi__resample_row_generic
pdata	ENDS
;	COMDAT pdata
pdata	SEGMENT
$pdata$stbi__YCbCr_to_RGB_row DD imagerel stbi__YCbCr_to_RGB_row
	DD	imagerel stbi__YCbCr_to_RGB_row+509
	DD	imagerel $unwind$stbi__YCbCr_to_RGB_row
pdata	ENDS
;	COMDAT pdata
pdata	SEGMENT
$pdata$stbi__YCbCr_to_RGB_simd DD imagerel stbi__YCbCr_to_RGB_simd
	DD	imagerel stbi__YCbCr_to_RGB_simd+1390
	DD	imagerel $unwind$stbi__YCbCr_to_RGB_simd
pdata	ENDS
;	COMDAT pdata
pdata	SEGMENT
$pdata$stbi__setup_jpeg DD imagerel stbi__setup_jpeg
	DD	imagerel stbi__setup_jpeg+176
	DD	imagerel $unwind$stbi__setup_jpeg
pdata	ENDS
;	COMDAT pdata
pdata	SEGMENT
$pdata$stbi__cleanup_jpeg DD imagerel stbi__cleanup_jpeg
	DD	imagerel stbi__cleanup_jpeg+69
	DD	imagerel $unwind$stbi__cleanup_jpeg
pdata	ENDS
;	COMDAT pdata
pdata	SEGMENT
$pdata$stbi__blinn_8x8 DD imagerel stbi__blinn_8x8
	DD	imagerel stbi__blinn_8x8+85
	DD	imagerel $unwind$stbi__blinn_8x8
pdata	ENDS
;	COMDAT pdata
pdata	SEGMENT
$pdata$load_jpeg_image DD imagerel load_jpeg_image
	DD	imagerel load_jpeg_image+4816
	DD	imagerel $unwind$load_jpeg_image
pdata	ENDS
;	COMDAT pdata
pdata	SEGMENT
$pdata$stbi__jpeg_info_raw DD imagerel stbi__jpeg_info_raw
	DD	imagerel stbi__jpeg_info_raw+230
	DD	imagerel $unwind$stbi__jpeg_info_raw
pdata	ENDS
;	COMDAT pdata
pdata	SEGMENT
$pdata$stbi__bitreverse16 DD imagerel stbi__bitreverse16
	DD	imagerel stbi__bitreverse16+192
	DD	imagerel $unwind$stbi__bitreverse16
pdata	ENDS
;	COMDAT pdata
pdata	SEGMENT
$pdata$stbi__bit_reverse DD imagerel stbi__bit_reverse
	DD	imagerel stbi__bit_reverse+105
	DD	imagerel $unwind$stbi__bit_reverse
pdata	ENDS
;	COMDAT pdata
pdata	SEGMENT
$pdata$stbi__zbuild_huffman DD imagerel stbi__zbuild_huffman
	DD	imagerel stbi__zbuild_huffman+960
	DD	imagerel $unwind$stbi__zbuild_huffman
pdata	ENDS
;	COMDAT pdata
pdata	SEGMENT
$pdata$stbi__zeof DD imagerel stbi__zeof
	DD	imagerel stbi__zeof+92
	DD	imagerel $unwind$stbi__zeof
pdata	ENDS
;	COMDAT pdata
pdata	SEGMENT
$pdata$stbi__zget8 DD imagerel stbi__zget8
	DD	imagerel stbi__zget8+118
	DD	imagerel $unwind$stbi__zget8
pdata	ENDS
;	COMDAT pdata
pdata	SEGMENT
$pdata$stbi__fill_bits DD imagerel stbi__fill_bits
	DD	imagerel stbi__fill_bits+199
	DD	imagerel $unwind$stbi__fill_bits
pdata	ENDS
;	COMDAT pdata
pdata	SEGMENT
$pdata$stbi__zreceive DD imagerel stbi__zreceive
	DD	imagerel stbi__zreceive+198
	DD	imagerel $unwind$stbi__zreceive
pdata	ENDS
;	COMDAT pdata
pdata	SEGMENT
$pdata$stbi__zhuffman_decode_slowpath DD imagerel stbi__zhuffman_decode_slowpath
	DD	imagerel stbi__zhuffman_decode_slowpath+323
	DD	imagerel $unwind$stbi__zhuffman_decode_slowpath
pdata	ENDS
;	COMDAT pdata
pdata	SEGMENT
$pdata$stbi__zhuffman_decode DD imagerel stbi__zhuffman_decode
	DD	imagerel stbi__zhuffman_decode+239
	DD	imagerel $unwind$stbi__zhuffman_decode
pdata	ENDS
;	COMDAT pdata
pdata	SEGMENT
$pdata$stbi__zexpand DD imagerel stbi__zexpand
	DD	imagerel stbi__zexpand+360
	DD	imagerel $unwind$stbi__zexpand
pdata	ENDS
;	COMDAT pdata
pdata	SEGMENT
$pdata$stbi__parse_huffman_block DD imagerel stbi__parse_huffman_block
	DD	imagerel stbi__parse_huffman_block+760
	DD	imagerel $unwind$stbi__parse_huffman_block
pdata	ENDS
;	COMDAT pdata
pdata	SEGMENT
$pdata$stbi__compute_huffman_codes DD imagerel stbi__compute_huffman_codes
	DD	imagerel stbi__compute_huffman_codes+946
	DD	imagerel $unwind$stbi__compute_huffman_codes
pdata	ENDS
;	COMDAT pdata
pdata	SEGMENT
$pdata$stbi__parse_uncompressed_block DD imagerel stbi__parse_uncompressed_block
	DD	imagerel stbi__parse_uncompressed_block+600
	DD	imagerel $unwind$stbi__parse_uncompressed_block
pdata	ENDS
;	COMDAT pdata
pdata	SEGMENT
$pdata$stbi__parse_zlib_header DD imagerel stbi__parse_zlib_header
	DD	imagerel stbi__parse_zlib_header+203
	DD	imagerel $unwind$stbi__parse_zlib_header
pdata	ENDS
;	COMDAT pdata
pdata	SEGMENT
$pdata$stbi__parse_zlib DD imagerel stbi__parse_zlib
	DD	imagerel stbi__parse_zlib+342
	DD	imagerel $unwind$stbi__parse_zlib
pdata	ENDS
;	COMDAT pdata
pdata	SEGMENT
$pdata$stbi__do_zlib DD imagerel stbi__do_zlib
	DD	imagerel stbi__do_zlib+157
	DD	imagerel $unwind$stbi__do_zlib
pdata	ENDS
;	COMDAT pdata
pdata	SEGMENT
$pdata$stbi__get_chunk_header DD imagerel stbi__get_chunk_header
	DD	imagerel stbi__get_chunk_header+122
	DD	imagerel $unwind$stbi__get_chunk_header
pdata	ENDS
;	COMDAT pdata
pdata	SEGMENT
$pdata$stbi__check_png_header DD imagerel stbi__check_png_header
	DD	imagerel stbi__check_png_header+119
	DD	imagerel $unwind$stbi__check_png_header
pdata	ENDS
;	COMDAT pdata
pdata	SEGMENT
$pdata$stbi__paeth DD imagerel stbi__paeth
	DD	imagerel stbi__paeth+189
	DD	imagerel $unwind$stbi__paeth
pdata	ENDS
;	COMDAT pdata
pdata	SEGMENT
$pdata$stbi__create_png_image_raw DD imagerel stbi__create_png_image_raw
	DD	imagerel stbi__create_png_image_raw+7144
	DD	imagerel $unwind$stbi__create_png_image_raw
pdata	ENDS
;	COMDAT pdata
pdata	SEGMENT
$pdata$stbi__create_png_image DD imagerel stbi__create_png_image
	DD	imagerel stbi__create_png_image+1304
	DD	imagerel $unwind$stbi__create_png_image
pdata	ENDS
;	COMDAT pdata
pdata	SEGMENT
$pdata$stbi__compute_transparency DD imagerel stbi__compute_transparency
	DD	imagerel stbi__compute_transparency+477
	DD	imagerel $unwind$stbi__compute_transparency
pdata	ENDS
;	COMDAT pdata
pdata	SEGMENT
$pdata$stbi__compute_transparency16 DD imagerel stbi__compute_transparency16
	DD	imagerel stbi__compute_transparency16+480
	DD	imagerel $unwind$stbi__compute_transparency16
pdata	ENDS
;	COMDAT pdata
pdata	SEGMENT
$pdata$stbi__expand_png_palette DD imagerel stbi__expand_png_palette
	DD	imagerel stbi__expand_png_palette+612
	DD	imagerel $unwind$stbi__expand_png_palette
pdata	ENDS
;	COMDAT pdata
pdata	SEGMENT
$pdata$stbi__de_iphone DD imagerel stbi__de_iphone
	DD	imagerel stbi__de_iphone+822
	DD	imagerel $unwind$stbi__de_iphone
pdata	ENDS
;	COMDAT pdata
pdata	SEGMENT
$pdata$stbi__parse_png_file DD imagerel stbi__parse_png_file
	DD	imagerel stbi__parse_png_file+3790
	DD	imagerel $unwind$stbi__parse_png_file
pdata	ENDS
;	COMDAT pdata
pdata	SEGMENT
$pdata$stbi__do_png DD imagerel stbi__do_png
	DD	imagerel stbi__do_png+689
	DD	imagerel $unwind$stbi__do_png
pdata	ENDS
;	COMDAT pdata
pdata	SEGMENT
$pdata$stbi__png_info_raw DD imagerel stbi__png_info_raw
	DD	imagerel stbi__png_info_raw+199
	DD	imagerel $unwind$stbi__png_info_raw
pdata	ENDS
;	COMDAT pdata
pdata	SEGMENT
$pdata$stbi__bmp_test_raw DD imagerel stbi__bmp_test_raw
	DD	imagerel stbi__bmp_test_raw+219
	DD	imagerel $unwind$stbi__bmp_test_raw
pdata	ENDS
;	COMDAT pdata
pdata	SEGMENT
$pdata$stbi__high_bit DD imagerel stbi__high_bit
	DD	imagerel stbi__high_bit+224
	DD	imagerel $unwind$stbi__high_bit
pdata	ENDS
;	COMDAT pdata
pdata	SEGMENT
$pdata$stbi__bitcount DD imagerel stbi__bitcount
	DD	imagerel stbi__bitcount+198
	DD	imagerel $unwind$stbi__bitcount
pdata	ENDS
;	COMDAT pdata
pdata	SEGMENT
$pdata$stbi__shiftsigned DD imagerel stbi__shiftsigned
	DD	imagerel stbi__shiftsigned+267
	DD	imagerel $unwind$stbi__shiftsigned
pdata	ENDS
;	COMDAT pdata
pdata	SEGMENT
$pdata$stbi__bmp_set_mask_defaults DD imagerel stbi__bmp_set_mask_defaults
	DD	imagerel stbi__bmp_set_mask_defaults+285
	DD	imagerel $unwind$stbi__bmp_set_mask_defaults
pdata	ENDS
;	COMDAT pdata
pdata	SEGMENT
$pdata$stbi__bmp_parse_header DD imagerel stbi__bmp_parse_header
	DD	imagerel stbi__bmp_parse_header+1573
	DD	imagerel $unwind$stbi__bmp_parse_header
pdata	ENDS
;	COMDAT pdata
pdata	SEGMENT
$pdata$stbi__tga_get_comp DD imagerel stbi__tga_get_comp
	DD	imagerel stbi__tga_get_comp+203
	DD	imagerel $unwind$stbi__tga_get_comp
pdata	ENDS
;	COMDAT pdata
pdata	SEGMENT
$pdata$stbi__tga_read_rgb16 DD imagerel stbi__tga_read_rgb16
	DD	imagerel stbi__tga_read_rgb16+224
	DD	imagerel $unwind$stbi__tga_read_rgb16
pdata	ENDS
;	COMDAT pdata
pdata	SEGMENT
$pdata$stbi__psd_decode_rle DD imagerel stbi__psd_decode_rle
	DD	imagerel stbi__psd_decode_rle+335
	DD	imagerel $unwind$stbi__psd_decode_rle
pdata	ENDS
;	COMDAT pdata
pdata	SEGMENT
$pdata$stbi__pic_is4 DD imagerel stbi__pic_is4
	DD	imagerel stbi__pic_is4+114
	DD	imagerel $unwind$stbi__pic_is4
pdata	ENDS
;	COMDAT pdata
pdata	SEGMENT
$pdata$stbi__pic_test_core DD imagerel stbi__pic_test_core
	DD	imagerel stbi__pic_test_core+137
	DD	imagerel $unwind$stbi__pic_test_core
pdata	ENDS
;	COMDAT pdata
pdata	SEGMENT
$pdata$stbi__readval DD imagerel stbi__readval
	DD	imagerel stbi__readval+208
	DD	imagerel $unwind$stbi__readval
pdata	ENDS
;	COMDAT pdata
pdata	SEGMENT
$pdata$stbi__copyval DD imagerel stbi__copyval
	DD	imagerel stbi__copyval+137
	DD	imagerel $unwind$stbi__copyval
pdata	ENDS
;	COMDAT pdata
pdata	SEGMENT
$pdata$stbi__pic_load_core DD imagerel stbi__pic_load_core
	DD	imagerel stbi__pic_load_core+1802
	DD	imagerel $unwind$stbi__pic_load_core
pdata	ENDS
;	COMDAT pdata
pdata	SEGMENT
$pdata$stbi__gif_test_raw DD imagerel stbi__gif_test_raw
	DD	imagerel stbi__gif_test_raw+188
	DD	imagerel $unwind$stbi__gif_test_raw
pdata	ENDS
;	COMDAT pdata
pdata	SEGMENT
$pdata$stbi__gif_parse_colortable DD imagerel stbi__gif_parse_colortable
	DD	imagerel stbi__gif_parse_colortable+277
	DD	imagerel $unwind$stbi__gif_parse_colortable
pdata	ENDS
;	COMDAT pdata
pdata	SEGMENT
$pdata$stbi__gif_header DD imagerel stbi__gif_header
	DD	imagerel stbi__gif_header+607
	DD	imagerel $unwind$stbi__gif_header
pdata	ENDS
;	COMDAT pdata
pdata	SEGMENT
$pdata$stbi__gif_info_raw DD imagerel stbi__gif_info_raw
	DD	imagerel stbi__gif_info_raw+216
	DD	imagerel $unwind$stbi__gif_info_raw
pdata	ENDS
;	COMDAT pdata
pdata	SEGMENT
$pdata$stbi__out_gif_code DD imagerel stbi__out_gif_code
	DD	imagerel stbi__out_gif_code+751
	DD	imagerel $unwind$stbi__out_gif_code
pdata	ENDS
;	COMDAT pdata
pdata	SEGMENT
$pdata$stbi__process_gif_raster DD imagerel stbi__process_gif_raster
	DD	imagerel stbi__process_gif_raster+1260
	DD	imagerel $unwind$stbi__process_gif_raster
pdata	ENDS
;	COMDAT pdata
pdata	SEGMENT
$pdata$stbi__gif_load_next DD imagerel stbi__gif_load_next
	DD	imagerel stbi__gif_load_next+2511
	DD	imagerel $unwind$stbi__gif_load_next
pdata	ENDS
;	COMDAT pdata
pdata	SEGMENT
$pdata$stbi__load_gif_main_outofmem DD imagerel stbi__load_gif_main_outofmem
	DD	imagerel stbi__load_gif_main_outofmem+211
	DD	imagerel $unwind$stbi__load_gif_main_outofmem
pdata	ENDS
;	COMDAT pdata
pdata	SEGMENT
$pdata$stbi__hdr_test_core DD imagerel stbi__hdr_test_core
	DD	imagerel stbi__hdr_test_core+139
	DD	imagerel $unwind$stbi__hdr_test_core
pdata	ENDS
;	COMDAT pdata
pdata	SEGMENT
$pdata$stbi__hdr_gettoken DD imagerel stbi__hdr_gettoken
	DD	imagerel stbi__hdr_gettoken+211
	DD	imagerel $unwind$stbi__hdr_gettoken
pdata	ENDS
;	COMDAT pdata
pdata	SEGMENT
$pdata$stbi__hdr_convert DD imagerel stbi__hdr_convert
	DD	imagerel stbi__hdr_convert+689
	DD	imagerel $unwind$stbi__hdr_convert
pdata	ENDS
;	COMDAT pdata
pdata	SEGMENT
$pdata$stbi__pnm_isspace DD imagerel stbi__pnm_isspace
	DD	imagerel stbi__pnm_isspace+140
	DD	imagerel $unwind$stbi__pnm_isspace
pdata	ENDS
;	COMDAT pdata
pdata	SEGMENT
$pdata$stbi__pnm_skip_whitespace DD imagerel stbi__pnm_skip_whitespace
	DD	imagerel stbi__pnm_skip_whitespace+211
	DD	imagerel $unwind$stbi__pnm_skip_whitespace
pdata	ENDS
;	COMDAT pdata
pdata	SEGMENT
$pdata$stbi__pnm_isdigit DD imagerel stbi__pnm_isdigit
	DD	imagerel stbi__pnm_isdigit+92
	DD	imagerel $unwind$stbi__pnm_isdigit
pdata	ENDS
;	COMDAT pdata
pdata	SEGMENT
$pdata$stbi__pnm_getinteger DD imagerel stbi__pnm_getinteger
	DD	imagerel stbi__pnm_getinteger+182
	DD	imagerel $unwind$stbi__pnm_getinteger
pdata	ENDS
;	COMDAT pdata
pdata	SEGMENT
$pdata$stbi__info_main DD imagerel stbi__info_main
	DD	imagerel stbi__info_main+482
	DD	imagerel $unwind$stbi__info_main
pdata	ENDS
;	COMDAT pdata
pdata	SEGMENT
$pdata$stbi__is_16_main DD imagerel stbi__is_16_main
	DD	imagerel stbi__is_16_main+112
	DD	imagerel $unwind$stbi__is_16_main
pdata	ENDS
;	COMDAT __xmm@fa7efa7efa7efa7efa7efa7efa7efa7e
CONST	SEGMENT
__xmm@fa7efa7efa7efa7efa7efa7efa7efa7e DB '~', 0faH, '~', 0faH, '~', 0faH
	DB	'~', 0faH, '~', 0faH, '~', 0faH, '~', 0faH, '~', 0faH
CONST	ENDS
;	COMDAT __xmm@f9c31a9df9c31a9df9c31a9df9c31a9d
CONST	SEGMENT
__xmm@f9c31a9df9c31a9df9c31a9df9c31a9d DB 09dH, 01aH, 0c3H, 0f9H, 09dH, 01aH
	DB	0c3H, 0f9H, 09dH, 01aH, 0c3H, 0f9H, 09dH, 01aH, 0c3H, 0f9H
CONST	ENDS
;	COMDAT __xmm@f493f493f493f493f493f493f493f493
CONST	SEGMENT
__xmm@f493f493f493f493f493f493f493f493 DB 093H, 0f4H, 093H, 0f4H, 093H, 0f4H
	DB	093H, 0f4H, 093H, 0f4H, 093H, 0f4H, 093H, 0f4H, 093H, 0f4H
CONST	ENDS
;	COMDAT __xmm@eb1a08a9eb1a08a9eb1a08a9eb1a08a9
CONST	SEGMENT
__xmm@eb1a08a9eb1a08a9eb1a08a9eb1a08a9 DB 0a9H, 08H, 01aH, 0ebH, 0a9H, 08H
	DB	01aH, 0ebH, 0a9H, 08H, 01aH, 0ebH, 0a9H, 08H, 01aH, 0ebH
CONST	ENDS
;	COMDAT __xmm@e9cf12d0e9cf12d0e9cf12d0e9cf12d0
CONST	SEGMENT
__xmm@e9cf12d0e9cf12d0e9cf12d0e9cf12d0 DB 0d0H, 012H, 0cfH, 0e9H, 0d0H, 012H
	DB	0cfH, 0e9H, 0d0H, 012H, 0cfH, 0e9H, 0d0H, 012H, 0cfH, 0e9H
CONST	ENDS
;	COMDAT __xmm@e09ee565e09ee565e09ee565e09ee565
CONST	SEGMENT
__xmm@e09ee565e09ee565e09ee565e09ee565 DB 'e', 0e5H, 09eH, 0e0H, 'e', 0e5H
	DB	09eH, 0e0H, 'e', 0e5H, 09eH, 0e0H, 'e', 0e5H, 09eH, 0e0H
CONST	ENDS
;	COMDAT __xmm@80808080808080808080808080808080
CONST	SEGMENT
__xmm@80808080808080808080808080808080 DB 080H, 080H, 080H, 080H, 080H, 080H
	DB	080H, 080H, 080H, 080H, 080H, 080H, 080H, 080H, 080H, 080H
CONST	ENDS
;	COMDAT __xmm@1c5a1c5a1c5a1c5a1c5a1c5a1c5a1c5a
CONST	SEGMENT
__xmm@1c5a1c5a1c5a1c5a1c5a1c5a1c5a1c5a DB 'Z', 01cH, 'Z', 01cH, 'Z', 01cH
	DB	'Z', 01cH, 'Z', 01cH, 'Z', 01cH, 'Z', 01cH, 'Z', 01cH
CONST	ENDS
;	COMDAT __xmm@166f166f166f166f166f166f166f166f
CONST	SEGMENT
__xmm@166f166f166f166f166f166f166f166f DB 'o', 016H, 'o', 016H, 'o', 016H
	DB	'o', 016H, 'o', 016H, 'o', 016H, 'o', 016H, 'o', 016H
CONST	ENDS
;	COMDAT __xmm@12d0046b12d0046b12d0046b12d0046b
CONST	SEGMENT
__xmm@12d0046b12d0046b12d0046b12d0046b DB 'k', 04H, 0d0H, 012H, 'k', 04H, 0d0H
	DB	012H, 'k', 04H, 0d0H, 012H, 'k', 04H, 0d0H, 012H
CONST	ENDS
;	COMDAT __xmm@11c8f9c311c8f9c311c8f9c311c8f9c3
CONST	SEGMENT
__xmm@11c8f9c311c8f9c311c8f9c311c8f9c3 DB 0c3H, 0f9H, 0c8H, 011H, 0c3H, 0f9H
	DB	0c8H, 011H, 0c3H, 0f9H, 0c8H, 011H, 0c3H, 0f9H, 0c8H, 011H
CONST	ENDS
;	COMDAT __xmm@11c8e09e11c8e09e11c8e09e11c8e09e
CONST	SEGMENT
__xmm@11c8e09e11c8e09e11c8e09e11c8e09e DB 09eH, 0e0H, 0c8H, 011H, 09eH, 0e0H
	DB	0c8H, 011H, 09eH, 0e0H, 0c8H, 011H, 09eH, 0e0H, 0c8H, 011H
CONST	ENDS
;	COMDAT __xmm@08a914e808a914e808a914e808a914e8
CONST	SEGMENT
__xmm@08a914e808a914e808a914e808a914e8 DB 0e8H, 014H, 0a9H, 08H, 0e8H, 014H
	DB	0a9H, 08H, 0e8H, 014H, 0a9H, 08H, 0e8H, 014H, 0a9H, 08H
CONST	ENDS
;	COMDAT __xmm@01010000010100000101000001010000
CONST	SEGMENT
__xmm@01010000010100000101000001010000 DB 00H, 00H, 01H, 01H, 00H, 00H, 01H
	DB	01H, 00H, 00H, 01H, 01H, 00H, 00H, 01H, 01H
CONST	ENDS
;	COMDAT __xmm@00ff00ff00ff00ff00ff00ff00ff00ff
CONST	SEGMENT
__xmm@00ff00ff00ff00ff00ff00ff00ff00ff DB 0ffH, 00H, 0ffH, 00H, 0ffH, 00H
	DB	0ffH, 00H, 0ffH, 00H, 0ffH, 00H, 0ffH, 00H, 0ffH, 00H
CONST	ENDS
;	COMDAT __xmm@00080008000800080008000800080008
CONST	SEGMENT
__xmm@00080008000800080008000800080008 DB 08H, 00H, 08H, 00H, 08H, 00H, 08H
	DB	00H, 08H, 00H, 08H, 00H, 08H, 00H, 08H, 00H
CONST	ENDS
;	COMDAT __xmm@00000200000002000000020000000200
CONST	SEGMENT
__xmm@00000200000002000000020000000200 DB 00H, 02H, 00H, 00H, 00H, 02H, 00H
	DB	00H, 00H, 02H, 00H, 00H, 00H, 02H, 00H, 00H
CONST	ENDS
;	COMDAT __real@477fff00
CONST	SEGMENT
__real@477fff00 DD 0477fff00r			; 65535
CONST	ENDS
;	COMDAT __real@437f0000
CONST	SEGMENT
__real@437f0000 DD 0437f0000r			; 255
CONST	ENDS
;	COMDAT __real@40400000
CONST	SEGMENT
__real@40400000 DD 040400000r			; 3
CONST	ENDS
;	COMDAT __real@3ff0000000000000
CONST	SEGMENT
__real@3ff0000000000000 DQ 03ff0000000000000r	; 1
CONST	ENDS
;	COMDAT __real@3f800000
CONST	SEGMENT
__real@3f800000 DD 03f800000r			; 1
CONST	ENDS
;	COMDAT __real@3f000000
CONST	SEGMENT
__real@3f000000 DD 03f000000r			; 0.5
CONST	ENDS
;	COMDAT rtc$TMZ
rtc$TMZ	SEGMENT
_RTC_Shutdown.rtc$TMZ DQ FLAT:_RTC_Shutdown
rtc$TMZ	ENDS
;	COMDAT rtc$IMZ
rtc$IMZ	SEGMENT
_RTC_InitBase.rtc$IMZ DQ FLAT:_RTC_InitBase
rtc$IMZ	ENDS
;	COMDAT ??_C@_0BC@CNFMOKHC@max?5value?5?$DO?565535@
CONST	SEGMENT
??_C@_0BC@CNFMOKHC@max?5value?5?$DO?565535@ DB 'max value > 65535', 00H ; `string'
CONST	ENDS
;	COMDAT ??_C@_0BH@OBINMOBC@integer?5parse?5overflow@
CONST	SEGMENT
??_C@_0BH@OBINMOBC@integer?5parse?5overflow@ DB 'integer parse overflow', 00H ; `string'
CONST	ENDS
;	COMDAT ??_C@_07IDKIDMGJ@bad?5PNM@
CONST	SEGMENT
??_C@_07IDKIDMGJ@bad?5PNM@ DB 'bad PNM', 00H		; `string'
CONST	ENDS
;	COMDAT ??_C@_0CA@JBEOCDFN@invalid?5decoded?5scanline?5length@
CONST	SEGMENT
??_C@_0CA@JBEOCDFN@invalid?5decoded?5scanline?5length@ DB 'invalid decode'
	DB	'd scanline length', 00H			; `string'
CONST	ENDS
;	COMDAT ??_C@_03FOKDFDHG@?$CLX?5@
CONST	SEGMENT
??_C@_03FOKDFDHG@?$CLX?5@ DB '+X ', 00H			; `string'
CONST	ENDS
;	COMDAT ??_C@_0BI@DCNDPIOH@unsupported?5data?5layout@
CONST	SEGMENT
??_C@_0BI@DCNDPIOH@unsupported?5data?5layout@ DB 'unsupported data layout'
	DB	00H						; `string'
CONST	ENDS
;	COMDAT ??_C@_03HKAKGGJN@?9Y?5@
CONST	SEGMENT
??_C@_03HKAKGGJN@?9Y?5@ DB '-Y ', 00H			; `string'
CONST	ENDS
;	COMDAT ??_C@_0BD@NKJFFLKL@unsupported?5format@
CONST	SEGMENT
??_C@_0BD@NKJFFLKL@unsupported?5format@ DB 'unsupported format', 00H ; `string'
CONST	ENDS
;	COMDAT ??_C@_0BH@JFGBLLKC@FORMAT?$DN32?9bit_rle_rgbe@
CONST	SEGMENT
??_C@_0BH@JFGBLLKC@FORMAT?$DN32?9bit_rle_rgbe@ DB 'FORMAT=32-bit_rle_rgbe'
	DB	00H						; `string'
CONST	ENDS
;	COMDAT ??_C@_07NCIOKENI@not?5HDR@
CONST	SEGMENT
??_C@_07NCIOKENI@not?5HDR@ DB 'not HDR', 00H		; `string'
CONST	ENDS
;	COMDAT ??_C@_06NDOKKIDJ@?$CD?$DPRGBE@
CONST	SEGMENT
??_C@_06NDOKKIDJ@?$CD?$DPRGBE@ DB '#?RGBE', 00H		; `string'
CONST	ENDS
;	COMDAT ??_C@_0L@NCPEAJBD@?$CD?$DPRADIANCE@
CONST	SEGMENT
??_C@_0L@NCPEAJBD@?$CD?$DPRADIANCE@ DB '#?RADIANCE', 00H ; `string'
CONST	ENDS
;	COMDAT ??_C@_07KFDJIKCK@?$CD?$DPRGBE?6@
CONST	SEGMENT
??_C@_07KFDJIKCK@?$CD?$DPRGBE?6@ DB '#?RGBE', 0aH, 00H	; `string'
CONST	ENDS
;	COMDAT ??_C@_0M@HOIDFNFN@?$CD?$DPRADIANCE?6@
CONST	SEGMENT
??_C@_0M@HOIDFNFN@?$CD?$DPRADIANCE?6@ DB '#?RADIANCE', 0aH, 00H ; `string'
CONST	ENDS
;	COMDAT ??_C@_0N@DJABBOOH@unknown?5code@
CONST	SEGMENT
??_C@_0N@DJABBOOH@unknown?5code@ DB 'unknown code', 00H	; `string'
CONST	ENDS
;	COMDAT ??_C@_0BE@NAMJKDNF@missing?5color?5table@
CONST	SEGMENT
??_C@_0BE@NAMJKDNF@missing?5color?5table@ DB 'missing color table', 00H ; `string'
CONST	ENDS
;	COMDAT ??_C@_0BF@GIAALCNJ@bad?5Image?5Descriptor@
CONST	SEGMENT
??_C@_0BF@GIAALCNJ@bad?5Image?5Descriptor@ DB 'bad Image Descriptor', 00H ; `string'
CONST	ENDS
;	COMDAT ??_C@_0BH@LOKBIIOJ@illegal?5code?5in?5raster@
CONST	SEGMENT
??_C@_0BH@LOKBIIOJ@illegal?5code?5in?5raster@ DB 'illegal code in raster', 00H ; `string'
CONST	ENDS
;	COMDAT ??_C@_0P@GJNJCPDJ@too?5many?5codes@
CONST	SEGMENT
??_C@_0P@GJNJCPDJ@too?5many?5codes@ DB 'too many codes', 00H ; `string'
CONST	ENDS
;	COMDAT ??_C@_0O@MGDACKOJ@no?5clear?5code@
CONST	SEGMENT
??_C@_0O@MGDACKOJ@no?5clear?5code@ DB 'no clear code', 00H ; `string'
CONST	ENDS
;	COMDAT ??_C@_00CNPNBAHC@@
CONST	SEGMENT
??_C@_00CNPNBAHC@@ DB 00H				; `string'
CONST	ENDS
;	COMDAT ??_C@_07KMJLPAII@not?5GIF@
CONST	SEGMENT
??_C@_07KMJLPAII@not?5GIF@ DB 'not GIF', 00H		; `string'
CONST	ENDS
;	COMDAT ??_C@_08GGMBIFE@bad?5file@
CONST	SEGMENT
??_C@_08GGMBIFE@bad?5file@ DB 'bad file', 00H		; `string'
CONST	ENDS
;	COMDAT ??_C@_04ELNJHLFH@PICT@
CONST	SEGMENT
??_C@_04ELNJHLFH@PICT@ DB 'PICT', 00H			; `string'
CONST	ENDS
;	COMDAT ??_C@_04KBFEPHFH@S?$IA?v4@
CONST	SEGMENT
??_C@_04KBFEPHFH@S?$IA?v4@ DB 'S', 080H, 0f6H, '4', 00H	; `string'
CONST	ENDS
;	COMDAT ??_C@_07DPPMCAKL@corrupt@
CONST	SEGMENT
??_C@_07DPPMCAKL@corrupt@ DB 'corrupt', 00H		; `string'
CONST	ENDS
;	COMDAT ??_C@_0BD@IOGGBMNK@wrong?5color?5format@
CONST	SEGMENT
??_C@_0BD@IOGGBMNK@wrong?5color?5format@ DB 'wrong color format', 00H ; `string'
CONST	ENDS
;	COMDAT ??_C@_0BG@NOLDLPP@unsupported?5bit?5depth@
CONST	SEGMENT
??_C@_0BG@NOLDLPP@unsupported?5bit?5depth@ DB 'unsupported bit depth', 00H ; `string'
CONST	ENDS
;	COMDAT ??_C@_0BE@PJBNGDBE@wrong?5channel?5count@
CONST	SEGMENT
??_C@_0BE@PJBNGDBE@wrong?5channel?5count@ DB 'wrong channel count', 00H ; `string'
CONST	ENDS
;	COMDAT ??_C@_0O@CHBCDKKC@wrong?5version@
CONST	SEGMENT
??_C@_0O@CHBCDKKC@wrong?5version@ DB 'wrong version', 00H ; `string'
CONST	ENDS
;	COMDAT ??_C@_07ECNCNLIK@not?5PSD@
CONST	SEGMENT
??_C@_07ECNCNLIK@not?5PSD@ DB 'not PSD', 00H		; `string'
CONST	ENDS
;	COMDAT ??_C@_1CK@GOOINIO@?$AAt?$AAg?$AAa?$AA_?$AAc?$AAo?$AAm?$AAp?$AA?5?$AA?$DN?$AA?$DN?$AA?5?$AAS?$AAT?$AAB@
CONST	SEGMENT
??_C@_1CK@GOOINIO@?$AAt?$AAg?$AAa?$AA_?$AAc?$AAo?$AAm?$AAp?$AA?5?$AA?$DN?$AA?$DN?$AA?5?$AAS?$AAT?$AAB@ DB 't'
	DB	00H, 'g', 00H, 'a', 00H, '_', 00H, 'c', 00H, 'o', 00H, 'm', 00H
	DB	'p', 00H, ' ', 00H, '=', 00H, '=', 00H, ' ', 00H, 'S', 00H, 'T'
	DB	00H, 'B', 00H, 'I', 00H, '_', 00H, 'r', 00H, 'g', 00H, 'b', 00H
	DB	00H, 00H					; `string'
CONST	ENDS
;	COMDAT ??_C@_0M@ILLOCNCO@bad?5palette@
CONST	SEGMENT
??_C@_0M@ILLOCNCO@bad?5palette@ DB 'bad palette', 00H	; `string'
CONST	ENDS
;	COMDAT ??_C@_0L@DMAPJJO@bad?5format@
CONST	SEGMENT
??_C@_0L@DMAPJJO@bad?5format@ DB 'bad format', 00H	; `string'
CONST	ENDS
;	COMDAT ??_C@_09DAEBACAB@bad?5masks@
CONST	SEGMENT
??_C@_09DAEBACAB@bad?5masks@ DB 'bad masks', 00H	; `string'
CONST	ENDS
;	COMDAT ??_C@_07JNJHIMGH@bad?5bpp@
CONST	SEGMENT
??_C@_07JNJHIMGH@bad?5bpp@ DB 'bad bpp', 00H		; `string'
CONST	ENDS
;	COMDAT ??_C@_07MALOAKCI@invalid@
CONST	SEGMENT
??_C@_07MALOAKCI@invalid@ DB 'invalid', 00H		; `string'
CONST	ENDS
;	COMDAT ??_C@_0L@JDPIFELH@bad?5offset@
CONST	SEGMENT
??_C@_0L@JDPIFELH@bad?5offset@ DB 'bad offset', 00H	; `string'
CONST	ENDS
;	COMDAT ??_C@_0L@PJHPAMCH@bad?5header@
CONST	SEGMENT
??_C@_0L@PJHPAMCH@bad?5header@ DB 'bad header', 00H	; `string'
CONST	ENDS
;	COMDAT ??_C@_0N@ODCBCBFN@BMP?5JPEG?1PNG@
CONST	SEGMENT
??_C@_0N@ODCBCBFN@BMP?5JPEG?1PNG@ DB 'BMP JPEG/PNG', 00H ; `string'
CONST	ENDS
;	COMDAT ??_C@_07IMHMNOIB@BMP?5RLE@
CONST	SEGMENT
??_C@_07IMHMNOIB@BMP?5RLE@ DB 'BMP RLE', 00H		; `string'
CONST	ENDS
;	COMDAT ??_C@_0M@KHBIBJBG@unknown?5BMP@
CONST	SEGMENT
??_C@_0M@KHBIBJBG@unknown?5BMP@ DB 'unknown BMP', 00H	; `string'
CONST	ENDS
;	COMDAT ??_C@_07IEJCHBDI@bad?5BMP@
CONST	SEGMENT
??_C@_07IEJCHBDI@bad?5BMP@ DB 'bad BMP', 00H		; `string'
CONST	ENDS
;	COMDAT ??_C@_07IANEBNLB@not?5BMP@
CONST	SEGMENT
??_C@_07IANEBNLB@not?5BMP@ DB 'not BMP', 00H		; `string'
CONST	ENDS
;	COMDAT ??_C@_1CO@LIFEKNEP@?$AAb?$AAi?$AAt?$AAs?$AA?5?$AA?$DO?$AA?$DN?$AA?5?$AA0?$AA?5?$AA?$CG?$AA?$CG?$AA?5?$AAb?$AAi@
CONST	SEGMENT
??_C@_1CO@LIFEKNEP@?$AAb?$AAi?$AAt?$AAs?$AA?5?$AA?$DO?$AA?$DN?$AA?5?$AA0?$AA?5?$AA?$CG?$AA?$CG?$AA?5?$AAb?$AAi@ DB 'b'
	DB	00H, 'i', 00H, 't', 00H, 's', 00H, ' ', 00H, '>', 00H, '=', 00H
	DB	' ', 00H, '0', 00H, ' ', 00H, '&', 00H, '&', 00H, ' ', 00H, 'b'
	DB	00H, 'i', 00H, 't', 00H, 's', 00H, ' ', 00H, '<', 00H, '=', 00H
	DB	' ', 00H, '8', 00H, 00H, 00H			; `string'
CONST	ENDS
;	COMDAT ??_C@_1BA@EKLGALLJ@?$AAv?$AA?5?$AA?$DM?$AA?5?$AA2?$AA5?$AA6@
CONST	SEGMENT
??_C@_1BA@EKLGALLJ@?$AAv?$AA?5?$AA?$DM?$AA?5?$AA2?$AA5?$AA6@ DB 'v', 00H, ' '
	DB	00H, '<', 00H, ' ', 00H, '2', 00H, '5', 00H, '6', 00H, 00H, 00H ; `string'
CONST	ENDS
;	COMDAT ??_C@_0BF@NOEEEFMF@bad?5bits_per_channel@
CONST	SEGMENT
??_C@_0BF@NOEEEFMF@bad?5bits_per_channel@ DB 'bad bits_per_channel', 00H ; `string'
CONST	ENDS
;	COMDAT ??_C@_07MLPECBNA@no?5IDAT@
CONST	SEGMENT
??_C@_07MLPECBNA@no?5IDAT@ DB 'no IDAT', 00H		; `string'
CONST	ENDS
;	COMDAT ??_C@_09MNNCNKEO@outofdata@
CONST	SEGMENT
??_C@_09MNNCNKEO@outofdata@ DB 'outofdata', 00H		; `string'
CONST	ENDS
;	COMDAT ??_C@_0BA@PLHGLONG@IDAT?5size?5limit@
CONST	SEGMENT
??_C@_0BA@PLHGLONG@IDAT?5size?5limit@ DB 'IDAT size limit', 00H ; `string'
CONST	ENDS
;	COMDAT ??_C@_07CKIELOEH@no?5PLTE@
CONST	SEGMENT
??_C@_07CKIELOEH@no?5PLTE@ DB 'no PLTE', 00H		; `string'
CONST	ENDS
;	COMDAT ??_C@_0BA@ENDPGCHB@tRNS?5with?5alpha@
CONST	SEGMENT
??_C@_0BA@ENDPGCHB@tRNS?5with?5alpha@ DB 'tRNS with alpha', 00H ; `string'
CONST	ENDS
;	COMDAT ??_C@_0N@KDLCCKCH@bad?5tRNS?5len@
CONST	SEGMENT
??_C@_0N@KDLCCKCH@bad?5tRNS?5len@ DB 'bad tRNS len', 00H ; `string'
CONST	ENDS
;	COMDAT ??_C@_0BB@CEDNNLBG@tRNS?5before?5PLTE@
CONST	SEGMENT
??_C@_0BB@CEDNNLBG@tRNS?5before?5PLTE@ DB 'tRNS before PLTE', 00H ; `string'
CONST	ENDS
;	COMDAT ??_C@_0BA@PCPJHDKJ@tRNS?5after?5IDAT@
CONST	SEGMENT
??_C@_0BA@PCPJHDKJ@tRNS?5after?5IDAT@ DB 'tRNS after IDAT', 00H ; `string'
CONST	ENDS
;	COMDAT ??_C@_0N@JCPAJAKB@invalid?5PLTE@
CONST	SEGMENT
??_C@_0N@JCPAJAKB@invalid?5PLTE@ DB 'invalid PLTE', 00H	; `string'
CONST	ENDS
;	COMDAT ??_C@_0P@JEAFOMAF@first?5not?5IHDR@
CONST	SEGMENT
??_C@_0P@JEAFOMAF@first?5not?5IHDR@ DB 'first not IHDR', 00H ; `string'
CONST	ENDS
;	COMDAT ??_C@_0O@FNFBHCOO@0?9pixel?5image@
CONST	SEGMENT
??_C@_0O@FNFBHCOO@0?9pixel?5image@ DB '0-pixel image', 00H ; `string'
CONST	ENDS
;	COMDAT ??_C@_0BF@JCGDPBAA@bad?5interlace?5method@
CONST	SEGMENT
??_C@_0BF@JCGDPBAA@bad?5interlace?5method@ DB 'bad interlace method', 00H ; `string'
CONST	ENDS
;	COMDAT ??_C@_0BC@GHLIKKMD@bad?5filter?5method@
CONST	SEGMENT
??_C@_0BC@GHLIKKMD@bad?5filter?5method@ DB 'bad filter method', 00H ; `string'
CONST	ENDS
;	COMDAT ??_C@_0BA@MDMBDDFG@bad?5comp?5method@
CONST	SEGMENT
??_C@_0BA@MDMBDDFG@bad?5comp?5method@ DB 'bad comp method', 00H ; `string'
CONST	ENDS
;	COMDAT ??_C@_09MBBNGCKB@bad?5ctype@
CONST	SEGMENT
??_C@_09MBBNGCKB@bad?5ctype@ DB 'bad ctype', 00H	; `string'
CONST	ENDS
;	COMDAT ??_C@_0BE@EJHIPKNO@1?12?14?18?116?9bit?5only@
CONST	SEGMENT
??_C@_0BE@EJHIPKNO@1?12?14?18?116?9bit?5only@ DB '1/2/4/8/16-bit only', 00H ; `string'
CONST	ENDS
;	COMDAT ??_C@_0N@POJLKMKK@bad?5IHDR?5len@
CONST	SEGMENT
??_C@_0N@POJLKMKK@bad?5IHDR?5len@ DB 'bad IHDR len', 00H ; `string'
CONST	ENDS
;	COMDAT ??_C@_0O@KBHBNJOK@multiple?5IHDR@
CONST	SEGMENT
??_C@_0O@KBHBNJOK@multiple?5IHDR@ DB 'multiple IHDR', 00H ; `string'
CONST	ENDS
;	COMDAT ??_C@_1CE@GKIDJEJM@?$AAs?$AA?9?$AA?$DO?$AAi?$AAm?$AAg?$AA_?$AAo?$AAu?$AAt?$AA_?$AAn?$AA?5?$AA?$DN?$AA?$DN@
CONST	SEGMENT
??_C@_1CE@GKIDJEJM@?$AAs?$AA?9?$AA?$DO?$AAi?$AAm?$AAg?$AA_?$AAo?$AAu?$AAt?$AA_?$AAn?$AA?5?$AA?$DN?$AA?$DN@ DB 's'
	DB	00H, '-', 00H, '>', 00H, 'i', 00H, 'm', 00H, 'g', 00H, '_', 00H
	DB	'o', 00H, 'u', 00H, 't', 00H, '_', 00H, 'n', 00H, ' ', 00H, '='
	DB	00H, '=', 00H, ' ', 00H, '4', 00H, 00H, 00H	; `string'
CONST	ENDS
;	COMDAT ??_C@_1DC@BMIDKOPK@?$AAo?$AAu?$AAt?$AA_?$AAn?$AA?5?$AA?$DN?$AA?$DN?$AA?5?$AA2?$AA?5?$AA?$HM?$AA?$HM?$AA?5?$AAo@
CONST	SEGMENT
??_C@_1DC@BMIDKOPK@?$AAo?$AAu?$AAt?$AA_?$AAn?$AA?5?$AA?$DN?$AA?$DN?$AA?5?$AA2?$AA?5?$AA?$HM?$AA?$HM?$AA?5?$AAo@ DB 'o'
	DB	00H, 'u', 00H, 't', 00H, '_', 00H, 'n', 00H, ' ', 00H, '=', 00H
	DB	'=', 00H, ' ', 00H, '2', 00H, ' ', 00H, '|', 00H, '|', 00H, ' '
	DB	00H, 'o', 00H, 'u', 00H, 't', 00H, '_', 00H, 'n', 00H, ' ', 00H
	DB	'=', 00H, '=', 00H, ' ', 00H, '4', 00H, 00H, 00H ; `string'
CONST	ENDS
;	COMDAT ??_C@_1BG@FLOPDKAN@?$AAi?$AAm?$AAg?$AA_?$AAn?$AA?5?$AA?$DN?$AA?$DN?$AA?5?$AA3@
CONST	SEGMENT
??_C@_1BG@FLOPDKAN@?$AAi?$AAm?$AAg?$AA_?$AAn?$AA?5?$AA?$DN?$AA?$DN?$AA?5?$AA3@ DB 'i'
	DB	00H, 'm', 00H, 'g', 00H, '_', 00H, 'n', 00H, ' ', 00H, '=', 00H
	DB	'=', 00H, ' ', 00H, '3', 00H, 00H, 00H	; `string'
CONST	ENDS
;	COMDAT ??_C@_1CG@MFAHHIFB@?$AAi?$AAm?$AAg?$AA_?$AAn?$AA?5?$AA?$CL?$AA?5?$AA1?$AA?5?$AA?$DN?$AA?$DN?$AA?5?$AAo?$AAu@
CONST	SEGMENT
??_C@_1CG@MFAHHIFB@?$AAi?$AAm?$AAg?$AA_?$AAn?$AA?5?$AA?$CL?$AA?5?$AA1?$AA?5?$AA?$DN?$AA?$DN?$AA?5?$AAo?$AAu@ DB 'i'
	DB	00H, 'm', 00H, 'g', 00H, '_', 00H, 'n', 00H, ' ', 00H, '+', 00H
	DB	' ', 00H, '1', 00H, ' ', 00H, '=', 00H, '=', 00H, ' ', 00H, 'o'
	DB	00H, 'u', 00H, 't', 00H, '_', 00H, 'n', 00H, 00H, 00H ; `string'
CONST	ENDS
;	COMDAT ??_C@_0O@MKGNGALN@invalid?5width@
CONST	SEGMENT
??_C@_0O@MKGNGALN@invalid?5width@ DB 'invalid width', 00H ; `string'
CONST	ENDS
;	COMDAT ??_C@_0P@FBBCPGMN@invalid?5filter@
CONST	SEGMENT
??_C@_0P@FBBCPGMN@invalid?5filter@ DB 'invalid filter', 00H ; `string'
CONST	ENDS
;	COMDAT ??_C@_0BC@BHMPBBMG@not?5enough?5pixels@
CONST	SEGMENT
??_C@_0BC@BHMPBBMG@not?5enough?5pixels@ DB 'not enough pixels', 00H ; `string'
CONST	ENDS
;	COMDAT ??_C@_1FG@LGPEHEPM@?$AAo?$AAu?$AAt?$AA_?$AAn?$AA?5?$AA?$DN?$AA?$DN?$AA?5?$AAs?$AA?9?$AA?$DO?$AAi?$AAm?$AAg@
CONST	SEGMENT
??_C@_1FG@LGPEHEPM@?$AAo?$AAu?$AAt?$AA_?$AAn?$AA?5?$AA?$DN?$AA?$DN?$AA?5?$AAs?$AA?9?$AA?$DO?$AAi?$AAm?$AAg@ DB 'o'
	DB	00H, 'u', 00H, 't', 00H, '_', 00H, 'n', 00H, ' ', 00H, '=', 00H
	DB	'=', 00H, ' ', 00H, 's', 00H, '-', 00H, '>', 00H, 'i', 00H, 'm'
	DB	00H, 'g', 00H, '_', 00H, 'n', 00H, ' ', 00H, '|', 00H, '|', 00H
	DB	' ', 00H, 'o', 00H, 'u', 00H, 't', 00H, '_', 00H, 'n', 00H, ' '
	DB	00H, '=', 00H, '=', 00H, ' ', 00H, 's', 00H, '-', 00H, '>', 00H
	DB	'i', 00H, 'm', 00H, 'g', 00H, '_', 00H, 'n', 00H, ' ', 00H, '+'
	DB	00H, ' ', 00H, '1', 00H, 00H, 00H		; `string'
CONST	ENDS
;	COMDAT ??_C@_0M@DMDNBACF@bad?5png?5sig@
CONST	SEGMENT
??_C@_0M@DMDNBACF@bad?5png?5sig@ DB 'bad png sig', 00H	; `string'
CONST	ENDS
;	COMDAT ??_C@_0BA@MCNBDLPD@bad?5compression@
CONST	SEGMENT
??_C@_0BA@MCNBDLPD@bad?5compression@ DB 'bad compression', 00H ; `string'
CONST	ENDS
;	COMDAT ??_C@_0P@DOGMHEBI@no?5preset?5dict@
CONST	SEGMENT
??_C@_0P@DOGMHEBI@no?5preset?5dict@ DB 'no preset dict', 00H ; `string'
CONST	ENDS
;	COMDAT ??_C@_0BA@OBKOPAFL@bad?5zlib?5header@
CONST	SEGMENT
??_C@_0BA@OBKOPAFL@bad?5zlib?5header@ DB 'bad zlib header', 00H ; `string'
CONST	ENDS
;	COMDAT ??_C@_0BB@PIPBCKIA@read?5past?5buffer@
CONST	SEGMENT
??_C@_0BB@PIPBCKIA@read?5past?5buffer@ DB 'read past buffer', 00H ; `string'
CONST	ENDS
;	COMDAT ??_C@_0N@IECDHMDI@zlib?5corrupt@
CONST	SEGMENT
??_C@_0N@IECDHMDI@zlib?5corrupt@ DB 'zlib corrupt', 00H	; `string'
CONST	ENDS
;	COMDAT ??_C@_08DIAPIMGJ@bad?5dist@
CONST	SEGMENT
??_C@_08DIAPIMGJ@bad?5dist@ DB 'bad dist', 00H		; `string'
CONST	ENDS
;	COMDAT ??_C@_0BE@IBFIPFO@output?5buffer?5limit@
CONST	SEGMENT
??_C@_0BE@IBFIPFO@output?5buffer?5limit@ DB 'output buffer limit', 00H ; `string'
CONST	ENDS
;	COMDAT ??_C@_0BA@MDNKOBMC@bad?5codelengths@
CONST	SEGMENT
??_C@_0BA@MDNKOBMC@bad?5codelengths@ DB 'bad codelengths', 00H ; `string'
CONST	ENDS
;	COMDAT ??_C@_09EOHLEIKL@bad?5sizes@
CONST	SEGMENT
??_C@_09EOHLEIKL@bad?5sizes@ DB 'bad sizes', 00H	; `string'
CONST	ENDS
;	COMDAT ??_C@_1BG@HKNLHECB@?$AAb?$AAi?$AAt?$AAs?$AA?5?$AA?$DM?$AA?$DN?$AA?5?$AA1?$AA6@
CONST	SEGMENT
??_C@_1BG@HKNLHECB@?$AAb?$AAi?$AAt?$AAs?$AA?5?$AA?$DM?$AA?$DN?$AA?5?$AA1?$AA6@ DB 'b'
	DB	00H, 'i', 00H, 't', 00H, 's', 00H, ' ', 00H, '<', 00H, '=', 00H
	DB	' ', 00H, '1', 00H, '6', 00H, 00H, 00H	; `string'
CONST	ENDS
;	COMDAT ??_C@_0N@KBPNPPBJ@bad?5req_comp@
CONST	SEGMENT
??_C@_0N@KBPNPPBJ@bad?5req_comp@ DB 'bad req_comp', 00H	; `string'
CONST	ENDS
;	COMDAT ??_C@_0P@PNCLKCLJ@bad?5DNL?5height@
CONST	SEGMENT
??_C@_0P@PNCLKCLJ@bad?5DNL?5height@ DB 'bad DNL height', 00H ; `string'
CONST	ENDS
;	COMDAT ??_C@_0M@EPMOIECP@bad?5DNL?5len@
CONST	SEGMENT
??_C@_0M@EPMOIECP@bad?5DNL?5len@ DB 'bad DNL len', 00H	; `string'
CONST	ENDS
;	COMDAT ??_C@_06IFCEAHIA@no?5SOF@
CONST	SEGMENT
??_C@_06IFCEAHIA@no?5SOF@ DB 'no SOF', 00H		; `string'
CONST	ENDS
;	COMDAT ??_C@_06CLMBLEP@no?5SOI@
CONST	SEGMENT
??_C@_06CLMBLEP@no?5SOI@ DB 'no SOI', 00H		; `string'
CONST	ENDS
;	COMDAT ??_C@_06LJIHDFHI@bad?5TQ@
CONST	SEGMENT
??_C@_06LJIHDFHI@bad?5TQ@ DB 'bad TQ', 00H		; `string'
CONST	ENDS
;	COMDAT ??_C@_05MPLLHCJG@bad?5V@
CONST	SEGMENT
??_C@_05MPLLHCJG@bad?5V@ DB 'bad V', 00H		; `string'
CONST	ENDS
;	COMDAT ??_C@_05BLPKENEJ@bad?5H@
CONST	SEGMENT
??_C@_05BLPKENEJ@bad?5H@ DB 'bad H', 00H		; `string'
CONST	ENDS
;	COMDAT ??_C@_0BE@DAPHADHL@bad?5component?5count@
CONST	SEGMENT
??_C@_0BE@DAPHADHL@bad?5component?5count@ DB 'bad component count', 00H ; `string'
CONST	ENDS
;	COMDAT ??_C@_09OJDLMMBJ@too?5large@
CONST	SEGMENT
??_C@_09OJDLMMBJ@too?5large@ DB 'too large', 00H	; `string'
CONST	ENDS
;	COMDAT ??_C@_07BIDACDEF@0?5width@
CONST	SEGMENT
??_C@_07BIDACDEF@0?5width@ DB '0 width', 00H		; `string'
CONST	ENDS
;	COMDAT ??_C@_0BB@LNEGOMA@no?5header?5height@
CONST	SEGMENT
??_C@_0BB@LNEGOMA@no?5header?5height@ DB 'no header height', 00H ; `string'
CONST	ENDS
;	COMDAT ??_C@_0L@BCINMEBJ@only?58?9bit@
CONST	SEGMENT
??_C@_0L@BCINMEBJ@only?58?9bit@ DB 'only 8-bit', 00H	; `string'
CONST	ENDS
;	COMDAT ??_C@_0M@DOFMJEMP@bad?5SOF?5len@
CONST	SEGMENT
??_C@_0M@DOFMJEMP@bad?5SOF?5len@ DB 'bad SOF len', 00H	; `string'
CONST	ENDS
;	COMDAT ??_C@_07EEJOMGGP@bad?5SOS@
CONST	SEGMENT
??_C@_07EEJOMGGP@bad?5SOS@ DB 'bad SOS', 00H		; `string'
CONST	ENDS
;	COMDAT ??_C@_0M@JGMCBLGG@bad?5AC?5huff@
CONST	SEGMENT
??_C@_0M@JGMCBLGG@bad?5AC?5huff@ DB 'bad AC huff', 00H	; `string'
CONST	ENDS
;	COMDAT ??_C@_0M@NOCCBFAC@bad?5DC?5huff@
CONST	SEGMENT
??_C@_0M@NOCCBFAC@bad?5DC?5huff@ DB 'bad DC huff', 00H	; `string'
CONST	ENDS
;	COMDAT ??_C@_0M@GNEHAHOH@bad?5SOS?5len@
CONST	SEGMENT
??_C@_0M@GNEHAHOH@bad?5SOS?5len@ DB 'bad SOS len', 00H	; `string'
CONST	ENDS
;	COMDAT ??_C@_0BI@DHFJCMBA@bad?5SOS?5component?5count@
CONST	SEGMENT
??_C@_0BI@DHFJCMBA@bad?5SOS?5component?5count@ DB 'bad SOS component coun'
	DB	't', 00H					; `string'
CONST	ENDS
;	COMDAT ??_C@_0P@NNGPHMMK@unknown?5marker@
CONST	SEGMENT
??_C@_0P@NNGPHMMK@unknown?5marker@ DB 'unknown marker', 00H ; `string'
CONST	ENDS
;	COMDAT ??_C@_0M@EENLKPDI@bad?5APP?5len@
CONST	SEGMENT
??_C@_0M@EENLKPDI@bad?5APP?5len@ DB 'bad APP len', 00H	; `string'
CONST	ENDS
;	COMDAT ??_C@_0M@CICAFFCH@bad?5COM?5len@
CONST	SEGMENT
??_C@_0M@CICAFFCH@bad?5COM?5len@ DB 'bad COM len', 00H	; `string'
CONST	ENDS
;	COMDAT ??_C@_0P@JLGKOCGN@bad?5DHT?5header@
CONST	SEGMENT
??_C@_0P@JLGKOCGN@bad?5DHT?5header@ DB 'bad DHT header', 00H ; `string'
CONST	ENDS
;	COMDAT ??_C@_0O@CNHKKDIM@bad?5DQT?5table@
CONST	SEGMENT
??_C@_0O@CNHKKDIM@bad?5DQT?5table@ DB 'bad DQT table', 00H ; `string'
CONST	ENDS
;	COMDAT ??_C@_0N@BOFJCHAP@bad?5DQT?5type@
CONST	SEGMENT
??_C@_0N@BOFJCHAP@bad?5DQT?5type@ DB 'bad DQT type', 00H ; `string'
CONST	ENDS
;	COMDAT ??_C@_0M@LPHNODCG@bad?5DRI?5len@
CONST	SEGMENT
??_C@_0M@LPHNODCG@bad?5DRI?5len@ DB 'bad DRI len', 00H	; `string'
CONST	ENDS
;	COMDAT ??_C@_0BA@KLNDOKJD@expected?5marker@
CONST	SEGMENT
??_C@_0BA@KLNDOKJD@expected?5marker@ DB 'expected marker', 00H ; `string'
CONST	ENDS
;	COMDAT ??_C@_0BG@PJBJDAGM@can?8t?5merge?5dc?5and?5ac@
CONST	SEGMENT
??_C@_0BG@PJBJDAGM@can?8t?5merge?5dc?5and?5ac@ DB 'can''t merge dc and ac'
	DB	00H						; `string'
CONST	ENDS
;	COMDAT ??_C@_09IFDKCGFO@bad?5delta@
CONST	SEGMENT
??_C@_09IFDKCGFO@bad?5delta@ DB 'bad delta', 00H	; `string'
CONST	ENDS
;	COMDAT ??_C@_0BB@IIMLINA@bad?5huffman?5code@
CONST	SEGMENT
??_C@_0BB@IIMLINA@bad?5huffman?5code@ DB 'bad huffman code', 00H ; `string'
CONST	ENDS
;	COMDAT ??_C@_1KE@JGKPJEBO@?$AA?$CI?$AA?$CI?$AA?$CI?$AAj?$AA?9?$AA?$DO?$AAc?$AAo?$AAd?$AAe?$AA_?$AAb?$AAu?$AAf?$AAf@
CONST	SEGMENT
??_C@_1KE@JGKPJEBO@?$AA?$CI?$AA?$CI?$AA?$CI?$AAj?$AA?9?$AA?$DO?$AAc?$AAo?$AAd?$AAe?$AA_?$AAb?$AAu?$AAf?$AAf@ DB '('
	DB	00H, '(', 00H, '(', 00H, 'j', 00H, '-', 00H, '>', 00H, 'c', 00H
	DB	'o', 00H, 'd', 00H, 'e', 00H, '_', 00H, 'b', 00H, 'u', 00H, 'f'
	DB	00H, 'f', 00H, 'e', 00H, 'r', 00H, ')', 00H, ' ', 00H, '>', 00H
	DB	'>', 00H, ' ', 00H, '(', 00H, '3', 00H, '2', 00H, ' ', 00H, '-'
	DB	00H, ' ', 00H, 'h', 00H, '-', 00H, '>', 00H, 's', 00H, 'i', 00H
	DB	'z', 00H, 'e', 00H, '[', 00H, 'c', 00H, ']', 00H, ')', 00H, ')'
	DB	00H, ' ', 00H, '&', 00H, ' ', 00H, 's', 00H, 't', 00H, 'b', 00H
	DB	'i', 00H, '_', 00H, '_', 00H, 'b', 00H, 'm', 00H, 'a', 00H, 's'
	DB	00H, 'k', 00H, '[', 00H, 'h', 00H, '-', 00H, '>', 00H, 's', 00H
	DB	'i', 00H, 'z', 00H, 'e', 00H, '[', 00H, 'c', 00H, ']', 00H, ']'
	DB	00H, ')', 00H, ' ', 00H, '=', 00H, '=', 00H, ' ', 00H, 'h', 00H
	DB	'-', 00H, '>', 00H, 'c', 00H, 'o', 00H, 'd', 00H, 'e', 00H, '['
	DB	00H, 'c', 00H, ']', 00H, 00H, 00H		; `string'
CONST	ENDS
;	COMDAT ??_C@_0BB@FOKGPEKG@bad?5code?5lengths@
CONST	SEGMENT
??_C@_0BB@FOKGPEKG@bad?5code?5lengths@ DB 'bad code lengths', 00H ; `string'
CONST	ENDS
;	COMDAT ??_C@_0O@DEFOLMLB@bad?5size?5list@
CONST	SEGMENT
??_C@_0O@DEFOLMLB@bad?5size?5list@ DB 'bad size list', 00H ; `string'
CONST	ENDS
;	COMDAT ??_C@_0M@MHDBFHD@unsupported@
CONST	SEGMENT
??_C@_0M@MHDBFHD@unsupported@ DB 'unsupported', 00H	; `string'
CONST	ENDS
;	COMDAT ??_C@_13COJANIEC@?$AA0@
CONST	SEGMENT
??_C@_13COJANIEC@?$AA0@ DB '0', 00H, 00H, 00H		; `string'
CONST	ENDS
;	COMDAT ??_C@_1DO@MABJBNAJ@?$AAr?$AAe?$AAq?$AA_?$AAc?$AAo?$AAm?$AAp?$AA?5?$AA?$DO?$AA?$DN?$AA?5?$AA1?$AA?5?$AA?$CG@
CONST	SEGMENT
??_C@_1DO@MABJBNAJ@?$AAr?$AAe?$AAq?$AA_?$AAc?$AAo?$AAm?$AAp?$AA?5?$AA?$DO?$AA?$DN?$AA?5?$AA1?$AA?5?$AA?$CG@ DB 'r'
	DB	00H, 'e', 00H, 'q', 00H, '_', 00H, 'c', 00H, 'o', 00H, 'm', 00H
	DB	'p', 00H, ' ', 00H, '>', 00H, '=', 00H, ' ', 00H, '1', 00H, ' '
	DB	00H, '&', 00H, '&', 00H, ' ', 00H, 'r', 00H, 'e', 00H, 'q', 00H
	DB	'_', 00H, 'c', 00H, 'o', 00H, 'm', 00H, 'p', 00H, ' ', 00H, '<'
	DB	00H, '=', 00H, ' ', 00H, '4', 00H, 00H, 00H	; `string'
CONST	ENDS
;	COMDAT ??_C@_0CB@DDANHPKI@can?8t?5fopen?0?5Unable?5to?5open?5fil@
CONST	SEGMENT
??_C@_0CB@DDANHPKI@can?8t?5fopen?0?5Unable?5to?5open?5fil@ DB 'can''t fop'
	DB	'en, Unable to open file', 00H		; `string'
CONST	ENDS
;	COMDAT ??_C@_0M@JPDHFAGK@can?8t?5fopen@
CONST	SEGMENT
??_C@_0M@JPDHFAGK@can?8t?5fopen@ DB 'can''t fopen', 00H	; `string'
CONST	ENDS
;	COMDAT ??_C@_02JDPG@rb@
CONST	SEGMENT
??_C@_02JDPG@rb@ DB 'rb', 00H				; `string'
CONST	ENDS
;	COMDAT ??_C@_1GM@LFNCFCEN@?$AAr?$AAi?$AA?4?$AAb?$AAi?$AAt?$AAs?$AA_?$AAp?$AAe?$AAr?$AA_?$AAc?$AAh?$AAa@
CONST	SEGMENT
??_C@_1GM@LFNCFCEN@?$AAr?$AAi?$AA?4?$AAb?$AAi?$AAt?$AAs?$AA_?$AAp?$AAe?$AAr?$AA_?$AAc?$AAh?$AAa@ DB 'r'
	DB	00H, 'i', 00H, '.', 00H, 'b', 00H, 'i', 00H, 't', 00H, 's', 00H
	DB	'_', 00H, 'p', 00H, 'e', 00H, 'r', 00H, '_', 00H, 'c', 00H, 'h'
	DB	00H, 'a', 00H, 'n', 00H, 'n', 00H, 'e', 00H, 'l', 00H, ' ', 00H
	DB	'=', 00H, '=', 00H, ' ', 00H, '8', 00H, ' ', 00H, '|', 00H, '|'
	DB	00H, ' ', 00H, 'r', 00H, 'i', 00H, '.', 00H, 'b', 00H, 'i', 00H
	DB	't', 00H, 's', 00H, '_', 00H, 'p', 00H, 'e', 00H, 'r', 00H, '_'
	DB	00H, 'c', 00H, 'h', 00H, 'a', 00H, 'n', 00H, 'n', 00H, 'e', 00H
	DB	'l', 00H, ' ', 00H, '=', 00H, '=', 00H, ' ', 00H, '1', 00H, '6'
	DB	00H, 00H, 00H				; `string'
CONST	ENDS
;	COMDAT ??_C@_1KA@LPJPGBDN@?$AAD?$AA?3?$AA?2?$AAN?$AAi?$AAt?$AAl?$AAo?$AAa?$AAd?$AAI?$AAn?$AAd?$AAu?$AAs@
CONST	SEGMENT
??_C@_1KA@LPJPGBDN@?$AAD?$AA?3?$AA?2?$AAN?$AAi?$AAt?$AAl?$AAo?$AAa?$AAd?$AAI?$AAn?$AAd?$AAu?$AAs@ DB 'D'
	DB	00H, ':', 00H, '\', 00H, 'N', 00H, 'i', 00H, 't', 00H, 'l', 00H
	DB	'o', 00H, 'a', 00H, 'd', 00H, 'I', 00H, 'n', 00H, 'd', 00H, 'u'
	DB	00H, 's', 00H, 't', 00H, 'r', 00H, 'y', 00H, '\', 00H, 014H, 'x'
	DB	'vzy', 098H, 0eeH, 'v\', 00H, '1', 00H, '-', 00H, 'F', 00H, 'l'
	DB	00H, 'a', 00H, 'g', 00H, 's', 00H, 'h', 00H, 'i', 00H, 'p', 00H
	DB	'\', 00H, 'T', 00H, 'H', 00H, '2', 00H, '0', 00H, '2', 00H, '0'
	DB	00H, '\', 00H, 'P', 00H, 'r', 00H, 'o', 00H, 'j', 00H, 'e', 00H
	DB	'c', 00H, 't', 00H, 'F', 00H, 'i', 00H, 'l', 00H, 'e', 00H, '\'
	DB	00H, 090H, 'n', 0e3H, 'N', 01H, 'x\', 00H, 'S', 00H, 't', 00H, 'g'
	DB	00H, 'S', 00H, 'h', 00H, 'a', 00H, 'r', 00H, 'p', 00H, 'C', 00H
	DB	'\', 00H, 's', 00H, 't', 00H, 'b', 00H, '_', 00H, 'i', 00H, 'm'
	DB	00H, 'a', 00H, 'g', 00H, 'e', 00H, '.', 00H, 'c', 00H, 00H, 00H ; `string'
CONST	ENDS
;	COMDAT ??_C@_08NOGIMCHF@outofmem@
CONST	SEGMENT
??_C@_08NOGIMCHF@outofmem@ DB 'outofmem', 00H		; `string'
CONST	ENDS
;	COMDAT ??_C@_0BD@CBEDEJPH@unknown?5image?5type@
CONST	SEGMENT
??_C@_0BD@CBEDEJPH@unknown?5image?5type@ DB 'unknown image type', 00H ; `string'
CONST	ENDS
_DATA	SEGMENT
stbi__stdio_callbacks DQ FLAT:stbi__stdio_read
	DQ	FLAT:stbi__stdio_skip
	DQ	FLAT:stbi__stdio_eof
stbi__l2h_gamma DD 0400ccccdr			; 2.2
stbi__l2h_scale DD 03f800000r			; 1
stbi__h2l_gamma_i DD 03ee8ba2er			; 0.454545
stbi__h2l_scale_i DD 03f800000r			; 1
first_row_filter DB 00H
	DB	01H
	DB	00H
	DB	05H
	DB	06H
	ORG $+3
?invalid_chunk@?BP@??stbi__parse_png_file@@9@9 DB 'XXXX PNG chunk not kno'
	DB	'wn', 00H					; `stbi__parse_png_file'::`31'::invalid_chunk
	ORG $+7
?mul_table@?1??stbi__shiftsigned@@9@9 DD 00H		; `stbi__shiftsigned'::`2'::mul_table
	DD	0ffH
	DD	055H
	DD	049H
	DD	011H
	DD	021H
	DD	041H
	DD	081H
	DD	01H
	ORG $+4
?shift_table@?1??stbi__shiftsigned@@9@9 DD 00H		; `stbi__shiftsigned'::`2'::shift_table
	DD	00H
	DD	00H
	DD	01H
	DD	00H
	DD	02H
	DD	04H
	DD	06H
	DD	00H
_DATA	ENDS
;	COMDAT xdata
xdata	SEGMENT
$unwind$stbi__is_16_main DD 025051301H
	DD	010e2313H
	DD	07007001dH
	DD	05006H
xdata	ENDS
;	COMDAT xdata
xdata	SEGMENT
$unwind$stbi__info_main DD 025052201H
	DD	011d2322H
	DD	07016001dH
	DD	05015H
xdata	ENDS
;	COMDAT xdata
xdata	SEGMENT
$unwind$stbi__pnm_getinteger DD 025051801H
	DD	01132318H
	DD	0700c0021H
	DD	0500bH
xdata	ENDS
;	COMDAT xdata
xdata	SEGMENT
$unwind$stbi__pnm_isdigit DD 025051201H
	DD	010d2312H
	DD	07006001fH
	DD	05005H
xdata	ENDS
;	COMDAT xdata
xdata	SEGMENT
$unwind$stbi__pnm_skip_whitespace DD 025051801H
	DD	01132318H
	DD	0700c001dH
	DD	0500bH
xdata	ENDS
;	COMDAT xdata
xdata	SEGMENT
$unwind$stbi__pnm_isspace DD 025051201H
	DD	010d2312H
	DD	07006001fH
	DD	05005H
xdata	ENDS
;	COMDAT xdata
xdata	SEGMENT
$unwind$stbi__hdr_convert DD 025051d01H
	DD	0118231dH
	DD	070110021H
	DD	05010H
xdata	ENDS
;	COMDAT xdata
xdata	SEGMENT
$unwind$stbi__hdr_gettoken DD 025051801H
	DD	01132318H
	DD	0700c0025H
	DD	0500bH
xdata	ENDS
;	COMDAT xdata
xdata	SEGMENT
$unwind$stbi__hdr_test_core DD 025051801H
	DD	01132318H
	DD	0700c0021H
	DD	0500bH
xdata	ENDS
;	COMDAT xdata
xdata	SEGMENT
$unwind$stbi__load_gif_main_outofmem DD 025051d01H
	DD	0118231dH
	DD	07011001fH
	DD	05010H
xdata	ENDS
;	COMDAT xdata
xdata	SEGMENT
$unwind$stbi__gif_load_next DD 025052201H
	DD	011d2322H
	DD	07016004dH
	DD	05015H
xdata	ENDS
;	COMDAT xdata
xdata	SEGMENT
$unwind$stbi__process_gif_raster DD 025051801H
	DD	01132318H
	DD	0700c0051H
	DD	0500bH
xdata	ENDS
;	COMDAT xdata
xdata	SEGMENT
$unwind$stbi__out_gif_code DD 025051801H
	DD	01132318H
	DD	0700c0029H
	DD	0500bH
xdata	ENDS
;	COMDAT xdata
xdata	SEGMENT
$unwind$stbi__gif_info_raw DD 025052201H
	DD	011d2322H
	DD	070160021H
	DD	05015H
xdata	ENDS
;	COMDAT xdata
xdata	SEGMENT
$unwind$stbi__gif_header DD 025052201H
	DD	011d2322H
	DD	070160021H
	DD	05015H
xdata	ENDS
;	COMDAT xdata
xdata	SEGMENT
$unwind$stbi__gif_parse_colortable DD 025052201H
	DD	011d2322H
	DD	070160021H
	DD	05015H
xdata	ENDS
;	COMDAT xdata
xdata	SEGMENT
$unwind$stbi__gif_test_raw DD 025051301H
	DD	010e2313H
	DD	070070021H
	DD	05006H
xdata	ENDS
;	COMDAT voltbl
voltbl	SEGMENT
_volmd	DW	044H
	DW	06f1H
voltbl	ENDS
;	COMDAT xdata
xdata	SEGMENT
$unwind$stbi__pic_load_core DD 025054b19H
	DD	011c2321H
	DD	070150083H
	DD	05014H
	DD	imagerel __GSHandlerCheck
	DD	0400H
xdata	ENDS
;	COMDAT CONST
CONST	SEGMENT
stbi__pic_load_core$rtcName$0 DB 070H
	DB	061H
	DB	063H
	DB	06bH
	DB	065H
	DB	074H
	DB	073H
	DB	00H
stbi__pic_load_core$rtcName$1 DB 076H
	DB	061H
	DB	06cH
	DB	075H
	DB	065H
	DB	00H
	ORG $+2
stbi__pic_load_core$rtcName$2 DB 076H
	DB	061H
	DB	06cH
	DB	075H
	DB	065H
	DB	00H
	ORG $+10
stbi__pic_load_core$rtcVarDesc DD 0264H
	DD	04H
	DQ	FLAT:stbi__pic_load_core$rtcName$2
	DD	01e4H
	DD	04H
	DQ	FLAT:stbi__pic_load_core$rtcName$1
	DD	0a8H
	DD	01eH
	DQ	FLAT:stbi__pic_load_core$rtcName$0
	ORG $+144
stbi__pic_load_core$rtcFrameData DD 03H
	DD	00H
	DQ	FLAT:stbi__pic_load_core$rtcVarDesc
CONST	ENDS
;	COMDAT xdata
xdata	SEGMENT
$unwind$stbi__copyval DD 025051c01H
	DD	0117231cH
	DD	070100025H
	DD	0500fH
xdata	ENDS
;	COMDAT xdata
xdata	SEGMENT
$unwind$stbi__readval DD 025051c01H
	DD	0117231cH
	DD	070100025H
	DD	0500fH
xdata	ENDS
;	COMDAT xdata
xdata	SEGMENT
$unwind$stbi__pic_test_core DD 025051301H
	DD	010e2313H
	DD	070070021H
	DD	05006H
xdata	ENDS
;	COMDAT xdata
xdata	SEGMENT
$unwind$stbi__pic_is4 DD 025051801H
	DD	01132318H
	DD	0700c0021H
	DD	0500bH
xdata	ENDS
;	COMDAT xdata
xdata	SEGMENT
$unwind$stbi__psd_decode_rle DD 025051d01H
	DD	0118231dH
	DD	07011002dH
	DD	05010H
xdata	ENDS
;	COMDAT xdata
xdata	SEGMENT
$unwind$stbi__tga_read_rgb16 DD 025051801H
	DD	01132318H
	DD	0700c0031H
	DD	0500bH
xdata	ENDS
;	COMDAT xdata
xdata	SEGMENT
$unwind$stbi__tga_get_comp DD 025051b01H
	DD	0116231bH
	DD	0700f001fH
	DD	0500eH
xdata	ENDS
;	COMDAT xdata
xdata	SEGMENT
$unwind$stbi__bmp_parse_header DD 025051801H
	DD	01132318H
	DD	0700c0029H
	DD	0500bH
xdata	ENDS
;	COMDAT xdata
xdata	SEGMENT
$unwind$stbi__bmp_set_mask_defaults DD 025051701H
	DD	01122317H
	DD	0700b001dH
	DD	0500aH
xdata	ENDS
;	COMDAT xdata
xdata	SEGMENT
$unwind$stbi__shiftsigned DD 025051b01H
	DD	0116231bH
	DD	0700f001dH
	DD	0500eH
xdata	ENDS
;	COMDAT xdata
xdata	SEGMENT
$unwind$stbi__bitcount DD 025051201H
	DD	010d2312H
	DD	07006001dH
	DD	05005H
xdata	ENDS
;	COMDAT xdata
xdata	SEGMENT
$unwind$stbi__high_bit DD 025051201H
	DD	010d2312H
	DD	070060021H
	DD	05005H
xdata	ENDS
;	COMDAT xdata
xdata	SEGMENT
$unwind$stbi__bmp_test_raw DD 025051301H
	DD	010e2313H
	DD	070070025H
	DD	05006H
xdata	ENDS
;	COMDAT xdata
xdata	SEGMENT
$unwind$stbi__png_info_raw DD 025052201H
	DD	011d2322H
	DD	07016001dH
	DD	05015H
xdata	ENDS
;	COMDAT xdata
xdata	SEGMENT
$unwind$stbi__do_png DD 035052201H
	DD	011d3322H
	DD	070160023H
	DD	05015H
xdata	ENDS
;	COMDAT voltbl
voltbl	SEGMENT
_volmd	DW	03fH
	DW	0eb5H
voltbl	ENDS
;	COMDAT xdata
xdata	SEGMENT
$unwind$stbi__parse_png_file DD 045054619H
	DD	0117431cH
	DD	070100143H
	DD	0500fH
	DD	imagerel __GSHandlerCheck
	DD	0a00H
xdata	ENDS
;	COMDAT CONST
CONST	SEGMENT
stbi__parse_png_file$rtcName$0 DB 070H
	DB	061H
	DB	06cH
	DB	065H
	DB	074H
	DB	074H
	DB	065H
	DB	00H
stbi__parse_png_file$rtcName$1 DB 074H
	DB	063H
	DB	00H
	ORG $+1
stbi__parse_png_file$rtcName$2 DB 074H
	DB	063H
	DB	031H
	DB	036H
	DB	00H
	ORG $+3
stbi__parse_png_file$rtcName$3 DB 063H
	DB	00H
	ORG $+2
stbi__parse_png_file$rtcName$4 DB 072H
	DB	061H
	DB	077H
	DB	05fH
	DB	06cH
	DB	065H
	DB	06eH
	DB	00H
stbi__parse_png_file$rtcVarDesc DD 06c4H
	DD	04H
	DQ	FLAT:stbi__parse_png_file$rtcName$4
	DD	0628H
	DD	08H
	DQ	FLAT:stbi__parse_png_file$rtcName$3
	DD	04c4H
	DD	06H
	DQ	FLAT:stbi__parse_png_file$rtcName$2
	DD	04a4H
	DD	03H
	DQ	FLAT:stbi__parse_png_file$rtcName$1
	DD	050H
	DD	0400H
	DQ	FLAT:stbi__parse_png_file$rtcName$0
	ORG $+240
stbi__parse_png_file$rtcFrameData DD 05H
	DD	00H
	DQ	FLAT:stbi__parse_png_file$rtcVarDesc
CONST	ENDS
;	COMDAT xdata
xdata	SEGMENT
$unwind$stbi__de_iphone DD 025051301H
	DD	010e2313H
	DD	070070041H
	DD	05006H
xdata	ENDS
;	COMDAT xdata
xdata	SEGMENT
$unwind$stbi__expand_png_palette DD 025052201H
	DD	011d2322H
	DD	070160039H
	DD	05015H
xdata	ENDS
;	COMDAT xdata
xdata	SEGMENT
$unwind$stbi__compute_transparency16 DD 025051d01H
	DD	0118231dH
	DD	07011002dH
	DD	05010H
xdata	ENDS
;	COMDAT xdata
xdata	SEGMENT
$unwind$stbi__compute_transparency DD 025051d01H
	DD	0118231dH
	DD	07011002dH
	DD	05010H
xdata	ENDS
;	COMDAT xdata
xdata	SEGMENT
$unwind$stbi__create_png_image DD 045053b01H
	DD	011d4322H
	DD	070160085H
	DD	05015H
xdata	ENDS
;	COMDAT CONST
CONST	SEGMENT
stbi__create_png_image$rtcName$0 DB 078H
	DB	06fH
	DB	072H
	DB	069H
	DB	067H
	DB	00H
	ORG $+2
stbi__create_png_image$rtcName$1 DB 079H
	DB	06fH
	DB	072H
	DB	069H
	DB	067H
	DB	00H
	ORG $+2
stbi__create_png_image$rtcName$2 DB 078H
	DB	073H
	DB	070H
	DB	063H
	DB	00H
	ORG $+3
stbi__create_png_image$rtcName$3 DB 079H
	DB	073H
	DB	070H
	DB	063H
	DB	00H
	ORG $+3
stbi__create_png_image$rtcVarDesc DD 0188H
	DD	01cH
	DQ	FLAT:stbi__create_png_image$rtcName$3
	DD	0148H
	DD	01cH
	DQ	FLAT:stbi__create_png_image$rtcName$2
	DD	0108H
	DD	01cH
	DQ	FLAT:stbi__create_png_image$rtcName$1
	DD	0c8H
	DD	01cH
	DQ	FLAT:stbi__create_png_image$rtcName$0
	ORG $+192
stbi__create_png_image$rtcFrameData DD 04H
	DD	00H
	DQ	FLAT:stbi__create_png_image$rtcVarDesc
CONST	ENDS
;	COMDAT xdata
xdata	SEGMENT
$unwind$stbi__create_png_image_raw DD 025052201H
	DD	011d2322H
	DD	07016008dH
	DD	05015H
xdata	ENDS
;	COMDAT xdata
xdata	SEGMENT
$unwind$stbi__paeth DD 025051b01H
	DD	0116231bH
	DD	0700f002dH
	DD	0500eH
xdata	ENDS
;	COMDAT xdata
xdata	SEGMENT
$unwind$stbi__check_png_header DD 025051301H
	DD	010e2313H
	DD	070070021H
	DD	05006H
xdata	ENDS
;	COMDAT xdata
xdata	SEGMENT
$unwind$stbi__get_chunk_header DD 025052c01H
	DD	010e2313H
	DD	070070021H
	DD	05006H
xdata	ENDS
;	COMDAT CONST
CONST	SEGMENT
stbi__get_chunk_header$rtcName$0 DB 063H
	DB	00H
	ORG $+14
stbi__get_chunk_header$rtcVarDesc DD 028H
	DD	08H
	DQ	FLAT:stbi__get_chunk_header$rtcName$0
	ORG $+48
stbi__get_chunk_header$rtcFrameData DD 01H
	DD	00H
	DQ	FLAT:stbi__get_chunk_header$rtcVarDesc
CONST	ENDS
;	COMDAT xdata
xdata	SEGMENT
$unwind$stbi__do_zlib DD 025052201H
	DD	011d2322H
	DD	07016001dH
	DD	05015H
xdata	ENDS
;	COMDAT xdata
xdata	SEGMENT
$unwind$stbi__parse_zlib DD 025051701H
	DD	01122317H
	DD	0700b0025H
	DD	0500aH
xdata	ENDS
;	COMDAT xdata
xdata	SEGMENT
$unwind$stbi__parse_zlib_header DD 025051301H
	DD	010e2313H
	DD	070070029H
	DD	05006H
xdata	ENDS
;	COMDAT xdata
xdata	SEGMENT
$unwind$stbi__parse_uncompressed_block DD 025052c01H
	DD	010e2313H
	DD	07007002dH
	DD	05006H
xdata	ENDS
;	COMDAT CONST
CONST	SEGMENT
stbi__parse_uncompressed_block$rtcName$0 DB 068H
	DB	065H
	DB	061H
	DB	064H
	DB	065H
	DB	072H
	DB	00H
	ORG $+9
stbi__parse_uncompressed_block$rtcVarDesc DD 024H
	DD	04H
	DQ	FLAT:stbi__parse_uncompressed_block$rtcName$0
	ORG $+48
stbi__parse_uncompressed_block$rtcFrameData DD 01H
	DD	00H
	DQ	FLAT:stbi__parse_uncompressed_block$rtcVarDesc
CONST	ENDS
;	COMDAT voltbl
voltbl	SEGMENT
_volmd	DW	03cH
	DW	0399H
voltbl	ENDS
;	COMDAT xdata
xdata	SEGMENT
$unwind$stbi__compute_huffman_codes DD 025054319H
	DD	01142319H
	DD	070070201H
	DD	05006H
	DD	imagerel __GSHandlerCheck
	DD	0ff0H
xdata	ENDS
;	COMDAT CONST
CONST	SEGMENT
stbi__compute_huffman_codes$rtcName$0 DB 07aH
	DB	05fH
	DB	063H
	DB	06fH
	DB	064H
	DB	065H
	DB	06cH
	DB	065H
	DB	06eH
	DB	067H
	DB	074H
	DB	068H
	DB	00H
	ORG $+3
stbi__compute_huffman_codes$rtcName$1 DB 06cH
	DB	065H
	DB	06eH
	DB	063H
	DB	06fH
	DB	064H
	DB	065H
	DB	073H
	DB	00H
	ORG $+7
stbi__compute_huffman_codes$rtcName$2 DB 063H
	DB	06fH
	DB	064H
	DB	065H
	DB	06cH
	DB	065H
	DB	06eH
	DB	067H
	DB	074H
	DB	068H
	DB	05fH
	DB	073H
	DB	069H
	DB	07aH
	DB	065H
	DB	073H
	DB	00H
	ORG $+15
stbi__compute_huffman_codes$rtcVarDesc DD 0a28H
	DD	013H
	DQ	FLAT:stbi__compute_huffman_codes$rtcName$2
	DD	0840H
	DD	01c7H
	DQ	FLAT:stbi__compute_huffman_codes$rtcName$1
	DD	030H
	DD	07e4H
	DQ	FLAT:stbi__compute_huffman_codes$rtcName$0
	ORG $+144
stbi__compute_huffman_codes$rtcFrameData DD 03H
	DD	00H
	DQ	FLAT:stbi__compute_huffman_codes$rtcVarDesc
CONST	ENDS
;	COMDAT xdata
xdata	SEGMENT
$unwind$stbi__parse_huffman_block DD 025051301H
	DD	010e2313H
	DD	070070035H
	DD	05006H
xdata	ENDS
;	COMDAT xdata
xdata	SEGMENT
$unwind$stbi__zexpand DD 025051d01H
	DD	0118231dH
	DD	07011002dH
	DD	05010H
xdata	ENDS
;	COMDAT xdata
xdata	SEGMENT
$unwind$stbi__zhuffman_decode DD 025051801H
	DD	01132318H
	DD	0700c0025H
	DD	0500bH
xdata	ENDS
;	COMDAT xdata
xdata	SEGMENT
$unwind$stbi__zhuffman_decode_slowpath DD 025051801H
	DD	01132318H
	DD	0700c0029H
	DD	0500bH
xdata	ENDS
;	COMDAT xdata
xdata	SEGMENT
$unwind$stbi__zreceive DD 025051701H
	DD	01122317H
	DD	0700b0021H
	DD	0500aH
xdata	ENDS
;	COMDAT xdata
xdata	SEGMENT
$unwind$stbi__fill_bits DD 025051301H
	DD	010e2313H
	DD	07007001fH
	DD	05006H
xdata	ENDS
;	COMDAT xdata
xdata	SEGMENT
$unwind$stbi__zget8 DD 025051301H
	DD	010e2313H
	DD	07007001fH
	DD	05006H
xdata	ENDS
;	COMDAT xdata
xdata	SEGMENT
$unwind$stbi__zeof DD 025051301H
	DD	010e2313H
	DD	07007001fH
	DD	05006H
xdata	ENDS
;	COMDAT voltbl
voltbl	SEGMENT
_volmd	DW	040H
	DW	03a7H
voltbl	ENDS
;	COMDAT xdata
xdata	SEGMENT
$unwind$stbi__zbuild_huffman DD 025054719H
	DD	0118231dH
	DD	070110053H
	DD	05010H
	DD	imagerel __GSHandlerCheck
	DD	0288H
xdata	ENDS
;	COMDAT CONST
CONST	SEGMENT
stbi__zbuild_huffman$rtcName$0 DB 06eH
	DB	065H
	DB	078H
	DB	074H
	DB	05fH
	DB	063H
	DB	06fH
	DB	064H
	DB	065H
	DB	00H
	ORG $+2
stbi__zbuild_huffman$rtcName$1 DB 073H
	DB	069H
	DB	07aH
	DB	065H
	DB	073H
	DB	00H
	ORG $+14
stbi__zbuild_huffman$rtcVarDesc DD 0f0H
	DD	044H
	DQ	FLAT:stbi__zbuild_huffman$rtcName$1
	DD	090H
	DD	040H
	DQ	FLAT:stbi__zbuild_huffman$rtcName$0
	ORG $+96
stbi__zbuild_huffman$rtcFrameData DD 02H
	DD	00H
	DQ	FLAT:stbi__zbuild_huffman$rtcVarDesc
CONST	ENDS
;	COMDAT xdata
xdata	SEGMENT
$unwind$stbi__bit_reverse DD 025051601H
	DD	01112316H
	DD	0700a001dH
	DD	05009H
xdata	ENDS
;	COMDAT xdata
xdata	SEGMENT
$unwind$stbi__bitreverse16 DD 025051201H
	DD	010d2312H
	DD	07006001dH
	DD	05005H
xdata	ENDS
;	COMDAT xdata
xdata	SEGMENT
$unwind$stbi__jpeg_info_raw DD 025052201H
	DD	011d2322H
	DD	07016001fH
	DD	05015H
xdata	ENDS
;	COMDAT voltbl
voltbl	SEGMENT
_volmd	DW	045H
	DW	012b7H
voltbl	ENDS
;	COMDAT xdata
xdata	SEGMENT
$unwind$load_jpeg_image DD 035054c19H
	DD	011d3322H
	DD	0701600a9H
	DD	05015H
	DD	imagerel __GSHandlerCheck
	DD	0538H
xdata	ENDS
;	COMDAT CONST
CONST	SEGMENT
load_jpeg_image$rtcName$0 DB 063H
	DB	06fH
	DB	075H
	DB	074H
	DB	070H
	DB	075H
	DB	074H
	DB	00H
load_jpeg_image$rtcName$1 DB 072H
	DB	065H
	DB	073H
	DB	05fH
	DB	063H
	DB	06fH
	DB	06dH
	DB	070H
	DB	00H
	ORG $+15
load_jpeg_image$rtcVarDesc DD 0160H
	DD	0c0H
	DQ	FLAT:load_jpeg_image$rtcName$1
	DD	0118H
	DD	020H
	DQ	FLAT:load_jpeg_image$rtcName$0
	ORG $+96
load_jpeg_image$rtcFrameData DD 02H
	DD	00H
	DQ	FLAT:load_jpeg_image$rtcVarDesc
CONST	ENDS
;	COMDAT xdata
xdata	SEGMENT
$unwind$stbi__blinn_8x8 DD 025051601H
	DD	01112316H
	DD	0700a0021H
	DD	05009H
xdata	ENDS
;	COMDAT xdata
xdata	SEGMENT
$unwind$stbi__cleanup_jpeg DD 025051301H
	DD	010e2313H
	DD	07007001dH
	DD	05006H
xdata	ENDS
;	COMDAT xdata
xdata	SEGMENT
$unwind$stbi__setup_jpeg DD 025051301H
	DD	010e2313H
	DD	07007001dH
	DD	05006H
xdata	ENDS
;	COMDAT xdata
xdata	SEGMENT
$unwind$stbi__YCbCr_to_RGB_simd DD 025052201H
	DD	011d2322H
	DD	070160147H
	DD	05015H
xdata	ENDS
;	COMDAT xdata
xdata	SEGMENT
$unwind$stbi__YCbCr_to_RGB_row DD 025052201H
	DD	011d2322H
	DD	070160039H
	DD	05015H
xdata	ENDS
;	COMDAT xdata
xdata	SEGMENT
$unwind$stbi__resample_row_generic DD 025052201H
	DD	011d2322H
	DD	070160025H
	DD	05015H
xdata	ENDS
;	COMDAT xdata
xdata	SEGMENT
$unwind$stbi__resample_row_hv_2_simd DD 025052201H
	DD	011d2322H
	DD	0701600e9H
	DD	05015H
xdata	ENDS
;	COMDAT xdata
xdata	SEGMENT
$unwind$stbi__resample_row_hv_2 DD 025052201H
	DD	011d2322H
	DD	070160029H
	DD	05015H
xdata	ENDS
;	COMDAT xdata
xdata	SEGMENT
$unwind$stbi__resample_row_h_2 DD 025052201H
	DD	011d2322H
	DD	070160029H
	DD	05015H
xdata	ENDS
;	COMDAT xdata
xdata	SEGMENT
$unwind$stbi__resample_row_v_2 DD 025052201H
	DD	011d2322H
	DD	070160021H
	DD	05015H
xdata	ENDS
;	COMDAT xdata
xdata	SEGMENT
$unwind$resample_row_1 DD 025052201H
	DD	011d2322H
	DD	07016001dH
	DD	05015H
xdata	ENDS
;	COMDAT xdata
xdata	SEGMENT
$unwind$stbi__decode_jpeg_image DD 025051301H
	DD	010e2313H
	DD	070070029H
	DD	05006H
xdata	ENDS
;	COMDAT xdata
xdata	SEGMENT
$unwind$stbi__skip_jpeg_junk_at_end DD 025051301H
	DD	010e2313H
	DD	070070021H
	DD	05006H
xdata	ENDS
;	COMDAT xdata
xdata	SEGMENT
$unwind$stbi__decode_jpeg_header DD 025051701H
	DD	01122317H
	DD	0700b0021H
	DD	0500aH
xdata	ENDS
;	COMDAT xdata
xdata	SEGMENT
$unwind$stbi__process_frame_header DD 025051701H
	DD	01122317H
	DD	0700b003dH
	DD	0500aH
xdata	ENDS
;	COMDAT xdata
xdata	SEGMENT
$unwind$stbi__free_jpeg_components DD 025051c01H
	DD	0117231cH
	DD	070100021H
	DD	0500fH
xdata	ENDS
;	COMDAT xdata
xdata	SEGMENT
$unwind$stbi__process_scan_header DD 025051301H
	DD	010e2313H
	DD	070070035H
	DD	05006H
xdata	ENDS
;	COMDAT voltbl
voltbl	SEGMENT
_volmd	DW	03aH
	DW	0755H
voltbl	ENDS
;	COMDAT xdata
xdata	SEGMENT
$unwind$stbi__process_marker DD 025054119H
	DD	01122317H
	DD	0700b0081H
	DD	0500aH
	DD	imagerel __GSHandlerCheck
	DD	03f8H
xdata	ENDS
;	COMDAT CONST
CONST	SEGMENT
stbi__process_marker$rtcName$0 DB 073H
	DB	069H
	DB	07aH
	DB	065H
	DB	073H
	DB	00H
	ORG $+10
stbi__process_marker$rtcVarDesc DD 0110H
	DD	040H
	DQ	FLAT:stbi__process_marker$rtcName$0
	ORG $+48
stbi__process_marker$rtcFrameData DD 01H
	DD	00H
	DQ	FLAT:stbi__process_marker$rtcVarDesc
CONST	ENDS
;	COMDAT xdata
xdata	SEGMENT
$unwind$stbi__jpeg_finish DD 025051301H
	DD	010e2313H
	DD	070070035H
	DD	05006H
xdata	ENDS
;	COMDAT xdata
xdata	SEGMENT
$unwind$stbi__jpeg_dequantize DD 025051801H
	DD	01132318H
	DD	0700c0021H
	DD	0500bH
xdata	ENDS
;	COMDAT voltbl
voltbl	SEGMENT
_volmd	DW	036H
	DW	0c87H
voltbl	ENDS
;	COMDAT xdata
xdata	SEGMENT
$unwind$stbi__parse_entropy_coded_data DD 045053d19H
	DD	010e4313H
	DD	0700700f5H
	DD	05006H
	DD	imagerel __GSHandlerCheck
	DD	0798H
xdata	ENDS
;	COMDAT CONST
CONST	SEGMENT
stbi__parse_entropy_coded_data$rtcName$0 DB 064H
	DB	061H
	DB	074H
	DB	061H
	DB	00H
	ORG $+3
stbi__parse_entropy_coded_data$rtcName$1 DB 064H
	DB	061H
	DB	074H
	DB	061H
	DB	00H
	ORG $+3
stbi__parse_entropy_coded_data$rtcVarDesc DD 0250H
	DD	080H
	DQ	FLAT:stbi__parse_entropy_coded_data$rtcName$1
	DD	090H
	DD	080H
	DQ	FLAT:stbi__parse_entropy_coded_data$rtcName$0
	ORG $+96
stbi__parse_entropy_coded_data$rtcFrameData DD 02H
	DD	00H
	DQ	FLAT:stbi__parse_entropy_coded_data$rtcVarDesc
CONST	ENDS
;	COMDAT xdata
xdata	SEGMENT
$unwind$stbi__jpeg_reset DD 025051301H
	DD	010e2313H
	DD	07007001fH
	DD	05006H
xdata	ENDS
;	COMDAT xdata
xdata	SEGMENT
$unwind$stbi__get_marker DD 025051301H
	DD	010e2313H
	DD	070070021H
	DD	05006H
xdata	ENDS
;	COMDAT xdata
xdata	SEGMENT
$unwind$stbi__idct_simd DD 025052201H
	DD	011d2322H
	DD	0701004afH
	DD	0500fH
xdata	ENDS
;	COMDAT voltbl
voltbl	SEGMENT
_volmd	DW	03fH
	DW	0c5bH
voltbl	ENDS
;	COMDAT xdata
xdata	SEGMENT
$unwind$stbi__idct_block DD 025054619H
	DD	0117231cH
	DD	0701000edH
	DD	0500fH
	DD	imagerel __GSHandlerCheck
	DD	0758H
xdata	ENDS
;	COMDAT CONST
CONST	SEGMENT
stbi__idct_block$rtcName$0 DB 076H
	DB	061H
	DB	06cH
	DB	00H
	ORG $+12
stbi__idct_block$rtcVarDesc DD 050H
	DD	0100H
	DQ	FLAT:stbi__idct_block$rtcName$0
	ORG $+48
stbi__idct_block$rtcFrameData DD 01H
	DD	00H
	DQ	FLAT:stbi__idct_block$rtcVarDesc
CONST	ENDS
;	COMDAT xdata
xdata	SEGMENT
$unwind$stbi__clamp DD 025051201H
	DD	010d2312H
	DD	07006001dH
	DD	05005H
xdata	ENDS
;	COMDAT xdata
xdata	SEGMENT
$unwind$stbi__jpeg_decode_block_prog_ac DD 025052201H
	DD	011d2322H
	DD	070160051H
	DD	05015H
xdata	ENDS
;	COMDAT xdata
xdata	SEGMENT
$unwind$stbi__jpeg_decode_block_prog_dc DD 025052201H
	DD	011d2322H
	DD	070160029H
	DD	05015H
xdata	ENDS
;	COMDAT xdata
xdata	SEGMENT
$unwind$stbi__jpeg_decode_block DD 025052201H
	DD	011d2322H
	DD	070160041H
	DD	05015H
xdata	ENDS
;	COMDAT xdata
xdata	SEGMENT
$unwind$stbi__jpeg_get_bit DD 025051301H
	DD	010e2313H
	DD	070070021H
	DD	05006H
xdata	ENDS
;	COMDAT xdata
xdata	SEGMENT
$unwind$stbi__jpeg_get_bits DD 025051701H
	DD	01122317H
	DD	0700b0021H
	DD	0500aH
xdata	ENDS
;	COMDAT xdata
xdata	SEGMENT
$unwind$stbi__extend_receive DD 025051701H
	DD	01122317H
	DD	0700b0025H
	DD	0500aH
xdata	ENDS
;	COMDAT xdata
xdata	SEGMENT
$unwind$stbi__jpeg_huff_decode DD 025051801H
	DD	01132318H
	DD	0700c002dH
	DD	0500bH
xdata	ENDS
;	COMDAT xdata
xdata	SEGMENT
$unwind$stbi__grow_buffer_unsafe DD 025051301H
	DD	010e2313H
	DD	070070025H
	DD	05006H
xdata	ENDS
;	COMDAT xdata
xdata	SEGMENT
$unwind$stbi__build_fast_ac DD 025051801H
	DD	01132318H
	DD	0700c003dH
	DD	0500bH
xdata	ENDS
;	COMDAT xdata
xdata	SEGMENT
$unwind$stbi__build_huffman DD 025051801H
	DD	01132318H
	DD	0700c0039H
	DD	0500bH
xdata	ENDS
;	COMDAT xdata
xdata	SEGMENT
$unwind$stbi__convert_format16 DD 025052101H
	DD	011c2321H
	DD	070150031H
	DD	05014H
xdata	ENDS
;	COMDAT xdata
xdata	SEGMENT
$unwind$stbi__compute_y_16 DD 025051b01H
	DD	0116231bH
	DD	0700f001dH
	DD	0500eH
xdata	ENDS
;	COMDAT xdata
xdata	SEGMENT
$unwind$stbi__convert_format DD 025052101H
	DD	011c2321H
	DD	070150031H
	DD	05014H
xdata	ENDS
;	COMDAT xdata
xdata	SEGMENT
$unwind$stbi__compute_y DD 025051b01H
	DD	0116231bH
	DD	0700f001dH
	DD	0500eH
xdata	ENDS
;	COMDAT xdata
xdata	SEGMENT
$unwind$stbi__get32le DD 025051301H
	DD	010e2313H
	DD	070070021H
	DD	05006H
xdata	ENDS
;	COMDAT xdata
xdata	SEGMENT
$unwind$stbi__get16le DD 025051301H
	DD	010e2313H
	DD	070070021H
	DD	05006H
xdata	ENDS
;	COMDAT xdata
xdata	SEGMENT
$unwind$stbi__get32be DD 025051301H
	DD	010e2313H
	DD	070070021H
	DD	05006H
xdata	ENDS
;	COMDAT xdata
xdata	SEGMENT
$unwind$stbi__get16be DD 025051301H
	DD	010e2313H
	DD	070070021H
	DD	05006H
xdata	ENDS
;	COMDAT xdata
xdata	SEGMENT
$unwind$stbi__getn DD 025051d01H
	DD	0118231dH
	DD	070110029H
	DD	05010H
xdata	ENDS
;	COMDAT xdata
xdata	SEGMENT
$unwind$stbi__skip DD 025051701H
	DD	01122317H
	DD	0700b0021H
	DD	0500aH
xdata	ENDS
;	COMDAT xdata
xdata	SEGMENT
$unwind$stbi__at_eof DD 025051301H
	DD	010e2313H
	DD	07007001fH
	DD	05006H
xdata	ENDS
;	COMDAT xdata
xdata	SEGMENT
$unwind$stbi__get8 DD 025051301H
	DD	010e2313H
	DD	07007001fH
	DD	05006H
xdata	ENDS
;	COMDAT voltbl
voltbl	SEGMENT
_volmd	DW	045H
	DW	019eH
voltbl	ENDS
;	COMDAT xdata
xdata	SEGMENT
$unwind$stbi__loadf_main DD 035054c19H
	DD	011d3322H
	DD	07016002fH
	DD	05015H
	DD	imagerel __GSHandlerCheck
	DD	0160H
xdata	ENDS
;	COMDAT CONST
CONST	SEGMENT
stbi__loadf_main$rtcName$0 DB 072H
	DB	069H
	DB	00H
	ORG $+13
stbi__loadf_main$rtcVarDesc DD 058H
	DD	0cH
	DQ	FLAT:stbi__loadf_main$rtcName$0
	ORG $+48
stbi__loadf_main$rtcFrameData DD 01H
	DD	00H
	DQ	FLAT:stbi__loadf_main$rtcVarDesc
CONST	ENDS
;	COMDAT voltbl
voltbl	SEGMENT
_volmd	DB	03bH
	DB	08cH
voltbl	ENDS
;	COMDAT xdata
xdata	SEGMENT
$unwind$stbi__fopen DD 025054219H
	DD	01132318H
	DD	0700c0021H
	DD	0500bH
	DD	imagerel __GSHandlerCheck
	DD	0f8H
xdata	ENDS
;	COMDAT CONST
CONST	SEGMENT
stbi__fopen$rtcName$0 DB 066H
	DB	00H
	ORG $+14
stbi__fopen$rtcVarDesc DD 028H
	DD	08H
	DQ	FLAT:stbi__fopen$rtcName$0
	ORG $+48
stbi__fopen$rtcFrameData DD 01H
	DD	00H
	DQ	FLAT:stbi__fopen$rtcVarDesc
CONST	ENDS
;	COMDAT xdata
xdata	SEGMENT
$unwind$stbi__float_postprocess DD 025052201H
	DD	011d2322H
	DD	070160021H
	DD	05015H
xdata	ENDS
;	COMDAT voltbl
voltbl	SEGMENT
_volmd	DW	045H
	DW	01f1H
voltbl	ENDS
;	COMDAT xdata
xdata	SEGMENT
$unwind$stbi__load_and_postprocess_16bit DD 045054c19H
	DD	011d4322H
	DD	07016002fH
	DD	05015H
	DD	imagerel __GSHandlerCheck
	DD	0168H
xdata	ENDS
;	COMDAT CONST
CONST	SEGMENT
stbi__load_and_postprocess_16bit$rtcName$0 DB 072H
	DB	069H
	DB	00H
	ORG $+13
stbi__load_and_postprocess_16bit$rtcVarDesc DD 048H
	DD	0cH
	DQ	FLAT:stbi__load_and_postprocess_16bit$rtcName$0
	ORG $+48
stbi__load_and_postprocess_16bit$rtcFrameData DD 01H
	DD	00H
	DQ	FLAT:stbi__load_and_postprocess_16bit$rtcVarDesc
CONST	ENDS
;	COMDAT voltbl
voltbl	SEGMENT
_volmd	DW	045H
	DW	01ebH
voltbl	ENDS
;	COMDAT xdata
xdata	SEGMENT
$unwind$stbi__load_and_postprocess_8bit DD 045054c19H
	DD	011d4322H
	DD	07016002fH
	DD	05015H
	DD	imagerel __GSHandlerCheck
	DD	0168H
xdata	ENDS
;	COMDAT CONST
CONST	SEGMENT
stbi__load_and_postprocess_8bit$rtcName$0 DB 072H
	DB	069H
	DB	00H
	ORG $+13
stbi__load_and_postprocess_8bit$rtcVarDesc DD 048H
	DD	0cH
	DQ	FLAT:stbi__load_and_postprocess_8bit$rtcName$0
	ORG $+48
stbi__load_and_postprocess_8bit$rtcFrameData DD 01H
	DD	00H
	DQ	FLAT:stbi__load_and_postprocess_8bit$rtcVarDesc
CONST	ENDS
;	COMDAT xdata
xdata	SEGMENT
$unwind$stbi__vertical_flip_slices DD 025052101H
	DD	011c2321H
	DD	070150029H
	DD	05014H
xdata	ENDS
;	COMDAT voltbl
voltbl	SEGMENT
_volmd	DW	044H
	DW	01e6H
voltbl	ENDS
;	COMDAT xdata
xdata	SEGMENT
$unwind$stbi__vertical_flip DD 025054b19H
	DD	011c2321H
	DD	07015019fH
	DD	05014H
	DD	imagerel __GSHandlerCheck
	DD	0ce0H
xdata	ENDS
;	COMDAT CONST
CONST	SEGMENT
stbi__vertical_flip$rtcName$0 DB 074H
	DB	065H
	DB	06dH
	DB	070H
	DB	00H
	ORG $+11
stbi__vertical_flip$rtcVarDesc DD 070H
	DD	0800H
	DQ	FLAT:stbi__vertical_flip$rtcName$0
	ORG $+48
stbi__vertical_flip$rtcFrameData DD 01H
	DD	00H
	DQ	FLAT:stbi__vertical_flip$rtcVarDesc
CONST	ENDS
;	COMDAT xdata
xdata	SEGMENT
$unwind$stbi__convert_8_to_16 DD 025052101H
	DD	011c2321H
	DD	070150029H
	DD	05014H
xdata	ENDS
;	COMDAT xdata
xdata	SEGMENT
$unwind$stbi__convert_16_to_8 DD 025052101H
	DD	011c2321H
	DD	070150029H
	DD	05014H
xdata	ENDS
;	COMDAT xdata
xdata	SEGMENT
$unwind$stbi__load_main DD 045052201H
	DD	011d4322H
	DD	070160025H
	DD	05015H
xdata	ENDS
;	COMDAT xdata
xdata	SEGMENT
$unwind$stbi__hdr_to_ldr DD 025052101H
	DD	011c2321H
	DD	070150035H
	DD	05014H
xdata	ENDS
;	COMDAT xdata
xdata	SEGMENT
$unwind$stbi__ldr_to_hdr DD 035052101H
	DD	011c3321H
	DD	07015002fH
	DD	05014H
xdata	ENDS
;	COMDAT xdata
xdata	SEGMENT
$unwind$stbi__mul2shorts_valid DD 025051801H
	DD	01132318H
	DD	0700c001fH
	DD	0500bH
xdata	ENDS
;	COMDAT xdata
xdata	SEGMENT
$unwind$stbi__addints_valid DD 025051601H
	DD	01112316H
	DD	0700a001fH
	DD	05009H
xdata	ENDS
;	COMDAT xdata
xdata	SEGMENT
$unwind$stbi__malloc_mad4 DD 035052001H
	DD	011b3320H
	DD	07014001fH
	DD	05013H
xdata	ENDS
;	COMDAT xdata
xdata	SEGMENT
$unwind$stbi__malloc_mad3 DD 025052001H
	DD	011b2320H
	DD	07014001dH
	DD	05013H
xdata	ENDS
;	COMDAT xdata
xdata	SEGMENT
$unwind$stbi__malloc_mad2 DD 025051b01H
	DD	0116231bH
	DD	0700f001dH
	DD	0500eH
xdata	ENDS
;	COMDAT xdata
xdata	SEGMENT
$unwind$stbi__mad4sizes_valid DD 025052001H
	DD	011b2320H
	DD	07014001fH
	DD	05013H
xdata	ENDS
;	COMDAT xdata
xdata	SEGMENT
$unwind$stbi__mad3sizes_valid DD 025052001H
	DD	011b2320H
	DD	07014001fH
	DD	05013H
xdata	ENDS
;	COMDAT xdata
xdata	SEGMENT
$unwind$stbi__mad2sizes_valid DD 025051b01H
	DD	0116231bH
	DD	0700f001fH
	DD	0500eH
xdata	ENDS
;	COMDAT xdata
xdata	SEGMENT
$unwind$stbi__mul2sizes_valid DD 025051601H
	DD	01112316H
	DD	0700a001fH
	DD	05009H
xdata	ENDS
;	COMDAT xdata
xdata	SEGMENT
$unwind$stbi__addsizes_valid DD 025051601H
	DD	01112316H
	DD	0700a001fH
	DD	05009H
xdata	ENDS
;	COMDAT xdata
xdata	SEGMENT
$unwind$stbi__malloc DD 025051301H
	DD	010e2313H
	DD	07007001dH
	DD	05006H
xdata	ENDS
;	COMDAT xdata
xdata	SEGMENT
$unwind$stbi__err DD 025051301H
	DD	010e2313H
	DD	07007001dH
	DD	05006H
xdata	ENDS
;	COMDAT xdata
xdata	SEGMENT
$unwind$stbi__pnm_is16 DD 025051301H
	DD	010e2313H
	DD	07007001dH
	DD	05006H
xdata	ENDS
;	COMDAT voltbl
voltbl	SEGMENT
_volmd	DW	045H
	DW	022aH
voltbl	ENDS
;	COMDAT xdata
xdata	SEGMENT
$unwind$stbi__pnm_info DD 025054c19H
	DD	011d2322H
	DD	070160031H
	DD	05015H
	DD	imagerel __GSHandlerCheck
	DD	0178H
xdata	ENDS
;	COMDAT CONST
CONST	SEGMENT
stbi__pnm_info$rtcName$0 DB 064H
	DB	075H
	DB	06dH
	DB	06dH
	DB	079H
	DB	00H
	ORG $+2
stbi__pnm_info$rtcName$1 DB 063H
	DB	00H
	ORG $+6
stbi__pnm_info$rtcVarDesc DD 064H
	DD	01H
	DQ	FLAT:stbi__pnm_info$rtcName$1
	DD	044H
	DD	04H
	DQ	FLAT:stbi__pnm_info$rtcName$0
	ORG $+96
stbi__pnm_info$rtcFrameData DD 02H
	DD	00H
	DQ	FLAT:stbi__pnm_info$rtcVarDesc
CONST	ENDS
;	COMDAT xdata
xdata	SEGMENT
$unwind$stbi__pnm_load DD 035052201H
	DD	011d3322H
	DD	070160023H
	DD	05015H
xdata	ENDS
;	COMDAT xdata
xdata	SEGMENT
$unwind$stbi__pnm_test DD 025051301H
	DD	010e2313H
	DD	070070025H
	DD	05006H
xdata	ENDS
;	COMDAT xdata
xdata	SEGMENT
$unwind$stbi__gif_info DD 025052201H
	DD	011d2322H
	DD	07016001dH
	DD	05015H
xdata	ENDS
;	COMDAT voltbl
voltbl	SEGMENT
_volmd	DW	04bH
	DW	044bH
voltbl	ENDS
;	COMDAT xdata
xdata	SEGMENT
$unwind$stbi__load_gif_main DD 035055219H
	DD	01233328H
	DD	0701611ffH
	DD	05015H
	DD	imagerel __GSHandlerCheck
	DD	08fe0H
xdata	ENDS
;	COMDAT CONST
CONST	SEGMENT
stbi__load_gif_main$rtcName$0 DB 067H
	DB	00H
	ORG $+14
stbi__load_gif_main$rtcVarDesc DD 0c0H
	DD	08870H
	DQ	FLAT:stbi__load_gif_main$rtcName$0
	ORG $+48
stbi__load_gif_main$rtcFrameData DD 01H
	DD	00H
	DQ	FLAT:stbi__load_gif_main$rtcVarDesc
CONST	ENDS
;	COMDAT voltbl
voltbl	SEGMENT
_volmd	DW	04bH
	DW	014dH
voltbl	ENDS
;	COMDAT xdata
xdata	SEGMENT
$unwind$stbi__gif_load DD 035055219H
	DD	01233328H
	DD	0701611ddH
	DD	05015H
	DD	imagerel __GSHandlerCheck
	DD	08ed8H
xdata	ENDS
;	COMDAT CONST
CONST	SEGMENT
stbi__gif_load$rtcName$0 DB 067H
	DB	00H
	ORG $+14
stbi__gif_load$rtcVarDesc DD 060H
	DD	08870H
	DQ	FLAT:stbi__gif_load$rtcName$0
	ORG $+48
stbi__gif_load$rtcFrameData DD 01H
	DD	00H
	DQ	FLAT:stbi__gif_load$rtcVarDesc
CONST	ENDS
;	COMDAT xdata
xdata	SEGMENT
$unwind$stbi__gif_test DD 025051301H
	DD	010e2313H
	DD	070070021H
	DD	05006H
xdata	ENDS
;	COMDAT voltbl
voltbl	SEGMENT
_volmd	DW	045H
	DW	02a2H
voltbl	ENDS
;	COMDAT xdata
xdata	SEGMENT
$unwind$stbi__pic_info DD 025054c19H
	DD	011d2322H
	DD	070160039H
	DD	05015H
	DD	imagerel __GSHandlerCheck
	DD	01b8H
xdata	ENDS
;	COMDAT CONST
CONST	SEGMENT
stbi__pic_info$rtcName$0 DB 064H
	DB	075H
	DB	06dH
	DB	06dH
	DB	079H
	DB	00H
	ORG $+2
stbi__pic_info$rtcName$1 DB 070H
	DB	061H
	DB	063H
	DB	06bH
	DB	065H
	DB	074H
	DB	073H
	DB	00H
stbi__pic_info$rtcVarDesc DD 0a8H
	DD	01eH
	DQ	FLAT:stbi__pic_info$rtcName$1
	DD	084H
	DD	04H
	DQ	FLAT:stbi__pic_info$rtcName$0
	ORG $+96
stbi__pic_info$rtcFrameData DD 02H
	DD	00H
	DQ	FLAT:stbi__pic_info$rtcVarDesc
CONST	ENDS
;	COMDAT voltbl
voltbl	SEGMENT
_volmd	DW	045H
	DW	02f9H
voltbl	ENDS
;	COMDAT xdata
xdata	SEGMENT
$unwind$stbi__pic_load DD 035054c19H
	DD	011d3322H
	DD	070160035H
	DD	05015H
	DD	imagerel __GSHandlerCheck
	DD	0190H
xdata	ENDS
;	COMDAT CONST
CONST	SEGMENT
stbi__pic_load$rtcName$0 DB 069H
	DB	06eH
	DB	074H
	DB	065H
	DB	072H
	DB	06eH
	DB	061H
	DB	06cH
	DB	05fH
	DB	063H
	DB	06fH
	DB	06dH
	DB	070H
	DB	00H
	ORG $+2
stbi__pic_load$rtcVarDesc DD 0b4H
	DD	04H
	DQ	FLAT:stbi__pic_load$rtcName$0
	ORG $+48
stbi__pic_load$rtcFrameData DD 01H
	DD	00H
	DQ	FLAT:stbi__pic_load$rtcVarDesc
CONST	ENDS
;	COMDAT xdata
xdata	SEGMENT
$unwind$stbi__pic_test DD 025051301H
	DD	010e2313H
	DD	070070021H
	DD	05006H
xdata	ENDS
;	COMDAT voltbl
voltbl	SEGMENT
_volmd	DW	045H
	DW	0262H
voltbl	ENDS
;	COMDAT xdata
xdata	SEGMENT
$unwind$stbi__hdr_info DD 025054c19H
	DD	011d2322H
	DD	0701600ddH
	DD	05015H
	DD	imagerel __GSHandlerCheck
	DD	06d8H
xdata	ENDS
;	COMDAT CONST
CONST	SEGMENT
stbi__hdr_info$rtcName$0 DB 062H
	DB	075H
	DB	066H
	DB	066H
	DB	065H
	DB	072H
	DB	00H
	ORG $+1
stbi__hdr_info$rtcName$1 DB 074H
	DB	06fH
	DB	06bH
	DB	065H
	DB	06eH
	DB	00H
	ORG $+2
stbi__hdr_info$rtcName$2 DB 064H
	DB	075H
	DB	06dH
	DB	06dH
	DB	079H
	DB	00H
	ORG $+10
stbi__hdr_info$rtcVarDesc DD 0484H
	DD	04H
	DQ	FLAT:stbi__hdr_info$rtcName$2
	DD	0448H
	DD	08H
	DQ	FLAT:stbi__hdr_info$rtcName$1
	DD	030H
	DD	0400H
	DQ	FLAT:stbi__hdr_info$rtcName$0
	ORG $+144
stbi__hdr_info$rtcFrameData DD 03H
	DD	00H
	DQ	FLAT:stbi__hdr_info$rtcVarDesc
CONST	ENDS
;	COMDAT voltbl
voltbl	SEGMENT
_volmd	DW	045H
	DW	0a37H
voltbl	ENDS
;	COMDAT xdata
xdata	SEGMENT
$unwind$stbi__hdr_load DD 035054c19H
	DD	011d3322H
	DD	070160139H
	DD	05015H
	DD	imagerel __GSHandlerCheck
	DD	09b0H
xdata	ENDS
;	COMDAT CONST
CONST	SEGMENT
stbi__hdr_load$rtcName$0 DB 062H
	DB	075H
	DB	066H
	DB	066H
	DB	065H
	DB	072H
	DB	00H
	ORG $+1
stbi__hdr_load$rtcName$1 DB 074H
	DB	06fH
	DB	06bH
	DB	065H
	DB	06eH
	DB	00H
	ORG $+2
stbi__hdr_load$rtcName$2 DB 072H
	DB	067H
	DB	062H
	DB	065H
	DB	00H
	ORG $+3
stbi__hdr_load$rtcName$3 DB 072H
	DB	067H
	DB	062H
	DB	065H
	DB	00H
	ORG $+3
stbi__hdr_load$rtcVarDesc DD 0674H
	DD	04H
	DQ	FLAT:stbi__hdr_load$rtcName$3
	DD	0654H
	DD	04H
	DQ	FLAT:stbi__hdr_load$rtcName$2
	DD	0458H
	DD	08H
	DQ	FLAT:stbi__hdr_load$rtcName$1
	DD	040H
	DD	0400H
	DQ	FLAT:stbi__hdr_load$rtcName$0
	ORG $+192
stbi__hdr_load$rtcFrameData DD 04H
	DD	00H
	DQ	FLAT:stbi__hdr_load$rtcVarDesc
CONST	ENDS
;	COMDAT xdata
xdata	SEGMENT
$unwind$stbi__hdr_test DD 025051301H
	DD	010e2313H
	DD	070070021H
	DD	05006H
xdata	ENDS
;	COMDAT xdata
xdata	SEGMENT
$unwind$stbi__psd_is16 DD 025051301H
	DD	010e2313H
	DD	070070025H
	DD	05006H
xdata	ENDS
;	COMDAT voltbl
voltbl	SEGMENT
_volmd	DW	045H
	DW	01beH
voltbl	ENDS
;	COMDAT xdata
xdata	SEGMENT
$unwind$stbi__psd_info DD 025054c19H
	DD	011d2322H
	DD	070160029H
	DD	05015H
	DD	imagerel __GSHandlerCheck
	DD	0138H
xdata	ENDS
;	COMDAT CONST
CONST	SEGMENT
stbi__psd_info$rtcName$0 DB 064H
	DB	075H
	DB	06dH
	DB	06dH
	DB	079H
	DB	00H
	ORG $+10
stbi__psd_info$rtcVarDesc DD 044H
	DD	04H
	DQ	FLAT:stbi__psd_info$rtcName$0
	ORG $+48
stbi__psd_info$rtcFrameData DD 01H
	DD	00H
	DQ	FLAT:stbi__psd_info$rtcVarDesc
CONST	ENDS
;	COMDAT xdata
xdata	SEGMENT
$unwind$stbi__psd_load DD 035052201H
	DD	011d3322H
	DD	070160097H
	DD	05015H
xdata	ENDS
;	COMDAT xdata
xdata	SEGMENT
$unwind$stbi__psd_test DD 025051301H
	DD	010e2313H
	DD	070070021H
	DD	05006H
xdata	ENDS
;	COMDAT xdata
xdata	SEGMENT
$unwind$stbi__tga_info DD 025052201H
	DD	011d2322H
	DD	07016003dH
	DD	05015H
xdata	ENDS
;	COMDAT voltbl
voltbl	SEGMENT
_volmd	DW	045H
	DW	0ba0H
voltbl	ENDS
;	COMDAT xdata
xdata	SEGMENT
$unwind$stbi__tga_load DD 035054c19H
	DD	011d3322H
	DD	0701600d5H
	DD	05015H
	DD	imagerel __GSHandlerCheck
	DD	0690H
xdata	ENDS
;	COMDAT CONST
CONST	SEGMENT
stbi__tga_load$rtcName$0 DB 074H
	DB	067H
	DB	061H
	DB	05fH
	DB	072H
	DB	067H
	DB	062H
	DB	031H
	DB	036H
	DB	00H
	ORG $+6
stbi__tga_load$rtcName$1 DB 072H
	DB	061H
	DB	077H
	DB	05fH
	DB	064H
	DB	061H
	DB	074H
	DB	061H
	DB	00H
	ORG $+7
stbi__tga_load$rtcVarDesc DD 0294H
	DD	04H
	DQ	FLAT:stbi__tga_load$rtcName$1
	DD	01d4H
	DD	04H
	DQ	FLAT:stbi__tga_load$rtcName$0
	ORG $+96
stbi__tga_load$rtcFrameData DD 02H
	DD	00H
	DQ	FLAT:stbi__tga_load$rtcVarDesc
CONST	ENDS
;	COMDAT xdata
xdata	SEGMENT
$unwind$stbi__tga_test DD 025051301H
	DD	010e2313H
	DD	070070029H
	DD	05006H
xdata	ENDS
;	COMDAT voltbl
voltbl	SEGMENT
_volmd	DW	045H
	DW	0134H
voltbl	ENDS
;	COMDAT xdata
xdata	SEGMENT
$unwind$stbi__bmp_info DD 025054c19H
	DD	011d2322H
	DD	070160029H
	DD	05015H
	DD	imagerel __GSHandlerCheck
	DD	0138H
xdata	ENDS
;	COMDAT CONST
CONST	SEGMENT
stbi__bmp_info$rtcName$0 DB 069H
	DB	06eH
	DB	066H
	DB	06fH
	DB	00H
	ORG $+11
stbi__bmp_info$rtcVarDesc DD 048H
	DD	024H
	DQ	FLAT:stbi__bmp_info$rtcName$0
	ORG $+48
stbi__bmp_info$rtcFrameData DD 01H
	DD	00H
	DQ	FLAT:stbi__bmp_info$rtcVarDesc
CONST	ENDS
;	COMDAT voltbl
voltbl	SEGMENT
_volmd	DW	045H
	DW	0131cH
voltbl	ENDS
;	COMDAT xdata
xdata	SEGMENT
$unwind$stbi__bmp_load DD 035054c19H
	DD	011d3322H
	DD	0701601a9H
	DD	05015H
	DD	imagerel __GSHandlerCheck
	DD	0d30H
xdata	ENDS
;	COMDAT CONST
CONST	SEGMENT
stbi__bmp_load$rtcName$0 DB 070H
	DB	061H
	DB	06cH
	DB	00H
stbi__bmp_load$rtcName$1 DB 069H
	DB	06eH
	DB	066H
	DB	06fH
	DB	00H
	ORG $+7
stbi__bmp_load$rtcVarDesc DD 05f8H
	DD	024H
	DQ	FLAT:stbi__bmp_load$rtcName$1
	DD	0100H
	DD	0400H
	DQ	FLAT:stbi__bmp_load$rtcName$0
	ORG $+96
stbi__bmp_load$rtcFrameData DD 02H
	DD	00H
	DQ	FLAT:stbi__bmp_load$rtcVarDesc
CONST	ENDS
;	COMDAT xdata
xdata	SEGMENT
$unwind$stbi__bmp_test DD 025051301H
	DD	010e2313H
	DD	070070021H
	DD	05006H
xdata	ENDS
;	COMDAT voltbl
voltbl	SEGMENT
_volmd	DB	036H
	DB	09bH
voltbl	ENDS
;	COMDAT xdata
xdata	SEGMENT
$unwind$stbi__png_is16 DD 025053d19H
	DD	010e2313H
	DD	070070025H
	DD	05006H
	DD	imagerel __GSHandlerCheck
	DD	0118H
xdata	ENDS
;	COMDAT CONST
CONST	SEGMENT
stbi__png_is16$rtcName$0 DB 070H
	DB	00H
	ORG $+14
stbi__png_is16$rtcVarDesc DD 028H
	DD	028H
	DQ	FLAT:stbi__png_is16$rtcName$0
	ORG $+48
stbi__png_is16$rtcFrameData DD 01H
	DD	00H
	DQ	FLAT:stbi__png_is16$rtcVarDesc
CONST	ENDS
;	COMDAT voltbl
voltbl	SEGMENT
_volmd	DB	045H
	DB	097H
voltbl	ENDS
;	COMDAT xdata
xdata	SEGMENT
$unwind$stbi__png_info DD 025054c19H
	DD	011d2322H
	DD	070160025H
	DD	05015H
	DD	imagerel __GSHandlerCheck
	DD	0118H
xdata	ENDS
;	COMDAT CONST
CONST	SEGMENT
stbi__png_info$rtcName$0 DB 070H
	DB	00H
	ORG $+14
stbi__png_info$rtcVarDesc DD 028H
	DD	028H
	DQ	FLAT:stbi__png_info$rtcName$0
	ORG $+48
stbi__png_info$rtcFrameData DD 01H
	DD	00H
	DQ	FLAT:stbi__png_info$rtcVarDesc
CONST	ENDS
;	COMDAT voltbl
voltbl	SEGMENT
_volmd	DB	045H
	DB	0adH
voltbl	ENDS
;	COMDAT xdata
xdata	SEGMENT
$unwind$stbi__png_load DD 035054c19H
	DD	011d3322H
	DD	070160027H
	DD	05015H
	DD	imagerel __GSHandlerCheck
	DD	0128H
xdata	ENDS
;	COMDAT CONST
CONST	SEGMENT
stbi__png_load$rtcName$0 DB 070H
	DB	00H
	ORG $+14
stbi__png_load$rtcVarDesc DD 038H
	DD	028H
	DQ	FLAT:stbi__png_load$rtcName$0
	ORG $+48
stbi__png_load$rtcFrameData DD 01H
	DD	00H
	DQ	FLAT:stbi__png_load$rtcVarDesc
CONST	ENDS
;	COMDAT xdata
xdata	SEGMENT
$unwind$stbi__png_test DD 025051301H
	DD	010e2313H
	DD	070070021H
	DD	05006H
xdata	ENDS
;	COMDAT xdata
xdata	SEGMENT
$unwind$stbi__jpeg_info DD 025052201H
	DD	011d2322H
	DD	070160025H
	DD	05015H
xdata	ENDS
;	COMDAT xdata
xdata	SEGMENT
$unwind$stbi__jpeg_load DD 035052201H
	DD	011d3322H
	DD	070160027H
	DD	05015H
xdata	ENDS
;	COMDAT xdata
xdata	SEGMENT
$unwind$stbi__jpeg_test DD 025051301H
	DD	010e2313H
	DD	070070025H
	DD	05006H
xdata	ENDS
;	COMDAT xdata
xdata	SEGMENT
$unwind$stbi__rewind DD 025051301H
	DD	010e2313H
	DD	07007001dH
	DD	05006H
xdata	ENDS
;	COMDAT xdata
xdata	SEGMENT
$unwind$stbi__start_file DD 025051801H
	DD	01132318H
	DD	0700c001dH
	DD	0500bH
xdata	ENDS
;	COMDAT xdata
xdata	SEGMENT
$unwind$stbi__stdio_eof DD 025051301H
	DD	010e2313H
	DD	07007001fH
	DD	05006H
xdata	ENDS
;	COMDAT xdata
xdata	SEGMENT
$unwind$stbi__stdio_skip DD 025051701H
	DD	01122317H
	DD	0700b0021H
	DD	0500aH
xdata	ENDS
;	COMDAT xdata
xdata	SEGMENT
$unwind$stbi__stdio_read DD 025051d01H
	DD	0118231dH
	DD	07011001dH
	DD	05010H
xdata	ENDS
;	COMDAT xdata
xdata	SEGMENT
$unwind$stbi__start_callbacks DD 025061e01H
	DD	0119231eH
	DD	07012001eH
	DD	050106011H
xdata	ENDS
;	COMDAT xdata
xdata	SEGMENT
$unwind$stbi__start_mem DD 025051d01H
	DD	0118231dH
	DD	07011001fH
	DD	05010H
xdata	ENDS
;	COMDAT xdata
xdata	SEGMENT
$unwind$stbi__refill_buffer DD 025051301H
	DD	010e2313H
	DD	070070021H
	DD	05006H
xdata	ENDS
;	COMDAT xdata
xdata	SEGMENT
$unwind$stbi__sse2_available DD 025050f01H
	DD	010a230fH
	DD	070030021H
	DD	05002H
xdata	ENDS
;	COMDAT voltbl
voltbl	SEGMENT
_volmd	DB	02bH
	DB	07bH
voltbl	ENDS
;	COMDAT xdata
xdata	SEGMENT
$unwind$stbi__cpuid3 DD 025063219H
	DD	010b2310H
	DD	070040022H
	DD	050023003H
	DD	imagerel __GSHandlerCheck
	DD	0108H
xdata	ENDS
;	COMDAT CONST
CONST	SEGMENT
stbi__cpuid3$rtcName$0 DB 069H
	DB	06eH
	DB	066H
	DB	06fH
	DB	00H
	ORG $+11
stbi__cpuid3$rtcVarDesc DD 028H
	DD	010H
	DQ	FLAT:stbi__cpuid3$rtcName$0
	ORG $+48
stbi__cpuid3$rtcFrameData DD 01H
	DD	00H
	DQ	FLAT:stbi__cpuid3$rtcVarDesc
CONST	ENDS
;	COMDAT voltbl
voltbl	SEGMENT
_volmd	DB	04aH
	DB	0d3H
voltbl	ENDS
;	COMDAT xdata
xdata	SEGMENT
$unwind$stbi_zlib_decode_noheader_buffer DD 035055119H
	DD	01223327H
	DD	0701502cbH
	DD	05014H
	DD	imagerel __GSHandlerCheck
	DD	01648H
xdata	ENDS
;	COMDAT CONST
CONST	SEGMENT
stbi_zlib_decode_noheader_buffer$rtcName$0 DB 061H
	DB	00H
	ORG $+14
stbi_zlib_decode_noheader_buffer$rtcVarDesc DD 040H
	DD	01000H
	DQ	FLAT:stbi_zlib_decode_noheader_buffer$rtcName$0
	ORG $+48
stbi_zlib_decode_noheader_buffer$rtcFrameData DD 01H
	DD	00H
	DQ	FLAT:stbi_zlib_decode_noheader_buffer$rtcVarDesc
CONST	ENDS
;	COMDAT voltbl
voltbl	SEGMENT
_volmd	DW	045H
	DW	0110H
voltbl	ENDS
;	COMDAT xdata
xdata	SEGMENT
$unwind$stbi_zlib_decode_noheader_malloc DD 035054c19H
	DD	011d3322H
	DD	0701002cfH
	DD	0500fH
	DD	imagerel __GSHandlerCheck
	DD	01668H
xdata	ENDS
;	COMDAT CONST
CONST	SEGMENT
stbi_zlib_decode_noheader_malloc$rtcName$0 DB 061H
	DB	00H
	ORG $+14
stbi_zlib_decode_noheader_malloc$rtcVarDesc DD 040H
	DD	01000H
	DQ	FLAT:stbi_zlib_decode_noheader_malloc$rtcName$0
	ORG $+48
stbi_zlib_decode_noheader_malloc$rtcFrameData DD 01H
	DD	00H
	DQ	FLAT:stbi_zlib_decode_noheader_malloc$rtcVarDesc
CONST	ENDS
;	COMDAT voltbl
voltbl	SEGMENT
_volmd	DB	04aH
	DB	0d3H
voltbl	ENDS
;	COMDAT xdata
xdata	SEGMENT
$unwind$stbi_zlib_decode_buffer DD 035055119H
	DD	01223327H
	DD	0701502cbH
	DD	05014H
	DD	imagerel __GSHandlerCheck
	DD	01648H
xdata	ENDS
;	COMDAT CONST
CONST	SEGMENT
stbi_zlib_decode_buffer$rtcName$0 DB 061H
	DB	00H
	ORG $+14
stbi_zlib_decode_buffer$rtcVarDesc DD 040H
	DD	01000H
	DQ	FLAT:stbi_zlib_decode_buffer$rtcName$0
	ORG $+48
stbi_zlib_decode_buffer$rtcFrameData DD 01H
	DD	00H
	DQ	FLAT:stbi_zlib_decode_buffer$rtcVarDesc
CONST	ENDS
;	COMDAT xdata
xdata	SEGMENT
$unwind$stbi_zlib_decode_malloc DD 025051c01H
	DD	0117231cH
	DD	07010001dH
	DD	0500fH
xdata	ENDS
;	COMDAT voltbl
voltbl	SEGMENT
_volmd	DW	04aH
	DW	011dH
voltbl	ENDS
;	COMDAT xdata
xdata	SEGMENT
$unwind$stbi_zlib_decode_malloc_guesssize_headerflag DD 035055119H
	DD	01223327H
	DD	0701502cfH
	DD	05014H
	DD	imagerel __GSHandlerCheck
	DD	01668H
xdata	ENDS
;	COMDAT CONST
CONST	SEGMENT
stbi_zlib_decode_malloc_guesssize_headerflag$rtcName$0 DB 061H
	DB	00H
	ORG $+14
stbi_zlib_decode_malloc_guesssize_headerflag$rtcVarDesc DD 040H
	DD	01000H
	DQ	FLAT:stbi_zlib_decode_malloc_guesssize_headerflag$rtcName$0
	ORG $+48
stbi_zlib_decode_malloc_guesssize_headerflag$rtcFrameData DD 01H
	DD	00H
	DQ	FLAT:stbi_zlib_decode_malloc_guesssize_headerflag$rtcVarDesc
CONST	ENDS
;	COMDAT voltbl
voltbl	SEGMENT
_volmd	DW	04aH
	DW	011bH
voltbl	ENDS
;	COMDAT xdata
xdata	SEGMENT
$unwind$stbi_zlib_decode_malloc_guesssize DD 035055119H
	DD	01223327H
	DD	0701502cfH
	DD	05014H
	DD	imagerel __GSHandlerCheck
	DD	01668H
xdata	ENDS
;	COMDAT CONST
CONST	SEGMENT
stbi_zlib_decode_malloc_guesssize$rtcName$0 DB 061H
	DB	00H
	ORG $+14
stbi_zlib_decode_malloc_guesssize$rtcVarDesc DD 040H
	DD	01000H
	DQ	FLAT:stbi_zlib_decode_malloc_guesssize$rtcName$0
	ORG $+48
stbi_zlib_decode_malloc_guesssize$rtcFrameData DD 01H
	DD	00H
	DQ	FLAT:stbi_zlib_decode_malloc_guesssize$rtcVarDesc
CONST	ENDS
;	COMDAT xdata
xdata	SEGMENT
$unwind$stbi_set_flip_vertically_on_load_thread DD 025051201H
	DD	010d2312H
	DD	07006001dH
	DD	05005H
xdata	ENDS
;	COMDAT xdata
xdata	SEGMENT
$unwind$stbi_convert_iphone_png_to_rgb_thread DD 025051201H
	DD	010d2312H
	DD	07006001dH
	DD	05005H
xdata	ENDS
;	COMDAT xdata
xdata	SEGMENT
$unwind$stbi_set_unpremultiply_on_load_thread DD 025051201H
	DD	010d2312H
	DD	07006001dH
	DD	05005H
xdata	ENDS
;	COMDAT xdata
xdata	SEGMENT
$unwind$stbi_set_flip_vertically_on_load DD 025051201H
	DD	010d2312H
	DD	07006001dH
	DD	05005H
xdata	ENDS
;	COMDAT xdata
xdata	SEGMENT
$unwind$stbi_convert_iphone_png_to_rgb DD 025051201H
	DD	010d2312H
	DD	07006001dH
	DD	05005H
xdata	ENDS
;	COMDAT xdata
xdata	SEGMENT
$unwind$stbi_set_unpremultiply_on_load DD 025051201H
	DD	010d2312H
	DD	07006001dH
	DD	05005H
xdata	ENDS
;	COMDAT voltbl
voltbl	SEGMENT
_volmd	DB	036H
	DB	0a5H
voltbl	ENDS
;	COMDAT xdata
xdata	SEGMENT
$unwind$stbi_is_16_bit_from_file DD 025053d19H
	DD	010e2313H
	DD	070070045H
	DD	05006H
	DD	imagerel __GSHandlerCheck
	DD	0218H
xdata	ENDS
;	COMDAT CONST
CONST	SEGMENT
stbi_is_16_bit_from_file$rtcName$0 DB 073H
	DB	00H
	ORG $+14
stbi_is_16_bit_from_file$rtcVarDesc DD 050H
	DD	0e0H
	DQ	FLAT:stbi_is_16_bit_from_file$rtcName$0
	ORG $+48
stbi_is_16_bit_from_file$rtcFrameData DD 01H
	DD	00H
	DQ	FLAT:stbi_is_16_bit_from_file$rtcVarDesc
CONST	ENDS
;	COMDAT xdata
xdata	SEGMENT
$unwind$stbi_is_16_bit DD 025051301H
	DD	010e2313H
	DD	070070025H
	DD	05006H
xdata	ENDS
;	COMDAT voltbl
voltbl	SEGMENT
_volmd	DB	045H
	DB	0c9H
voltbl	ENDS
;	COMDAT xdata
xdata	SEGMENT
$unwind$stbi_info_from_file DD 025054c19H
	DD	011d2322H
	DD	070160045H
	DD	05015H
	DD	imagerel __GSHandlerCheck
	DD	0218H
xdata	ENDS
;	COMDAT CONST
CONST	SEGMENT
stbi_info_from_file$rtcName$0 DB 073H
	DB	00H
	ORG $+14
stbi_info_from_file$rtcVarDesc DD 050H
	DD	0e0H
	DQ	FLAT:stbi_info_from_file$rtcName$0
	ORG $+48
stbi_info_from_file$rtcFrameData DD 01H
	DD	00H
	DQ	FLAT:stbi_info_from_file$rtcVarDesc
CONST	ENDS
;	COMDAT xdata
xdata	SEGMENT
$unwind$stbi_info DD 025052201H
	DD	011d2322H
	DD	070160025H
	DD	05015H
xdata	ENDS
;	COMDAT voltbl
voltbl	SEGMENT
_volmd	DB	03bH
	DB	084H
voltbl	ENDS
;	COMDAT xdata
xdata	SEGMENT
$unwind$stbi_is_16_bit_from_callbacks DD 025054219H
	DD	01132318H
	DD	0700c003dH
	DD	0500bH
	DD	imagerel __GSHandlerCheck
	DD	01d8H
xdata	ENDS
;	COMDAT CONST
CONST	SEGMENT
stbi_is_16_bit_from_callbacks$rtcName$0 DB 073H
	DB	00H
	ORG $+14
stbi_is_16_bit_from_callbacks$rtcVarDesc DD 030H
	DD	0e0H
	DQ	FLAT:stbi_is_16_bit_from_callbacks$rtcName$0
	ORG $+48
stbi_is_16_bit_from_callbacks$rtcFrameData DD 01H
	DD	00H
	DQ	FLAT:stbi_is_16_bit_from_callbacks$rtcVarDesc
CONST	ENDS
;	COMDAT voltbl
voltbl	SEGMENT
_volmd	DB	03aH
	DB	083H
voltbl	ENDS
;	COMDAT xdata
xdata	SEGMENT
$unwind$stbi_is_16_bit_from_memory DD 025054119H
	DD	01122317H
	DD	0700b003dH
	DD	0500aH
	DD	imagerel __GSHandlerCheck
	DD	01d8H
xdata	ENDS
;	COMDAT CONST
CONST	SEGMENT
stbi_is_16_bit_from_memory$rtcName$0 DB 073H
	DB	00H
	ORG $+14
stbi_is_16_bit_from_memory$rtcVarDesc DD 030H
	DD	0e0H
	DQ	FLAT:stbi_is_16_bit_from_memory$rtcName$0
	ORG $+48
stbi_is_16_bit_from_memory$rtcFrameData DD 01H
	DD	00H
	DQ	FLAT:stbi_is_16_bit_from_memory$rtcVarDesc
CONST	ENDS
;	COMDAT voltbl
voltbl	SEGMENT
_volmd	DB	045H
	DB	0a3H
voltbl	ENDS
;	COMDAT xdata
xdata	SEGMENT
$unwind$stbi_info_from_callbacks DD 025054c19H
	DD	011d2322H
	DD	07016003dH
	DD	05015H
	DD	imagerel __GSHandlerCheck
	DD	01d8H
xdata	ENDS
;	COMDAT CONST
CONST	SEGMENT
stbi_info_from_callbacks$rtcName$0 DB 073H
	DB	00H
	ORG $+14
stbi_info_from_callbacks$rtcVarDesc DD 030H
	DD	0e0H
	DQ	FLAT:stbi_info_from_callbacks$rtcName$0
	ORG $+48
stbi_info_from_callbacks$rtcFrameData DD 01H
	DD	00H
	DQ	FLAT:stbi_info_from_callbacks$rtcVarDesc
CONST	ENDS
;	COMDAT voltbl
voltbl	SEGMENT
_volmd	DB	044H
	DB	0a2H
voltbl	ENDS
;	COMDAT xdata
xdata	SEGMENT
$unwind$stbi_info_from_memory DD 025054b19H
	DD	011c2321H
	DD	07015003dH
	DD	05014H
	DD	imagerel __GSHandlerCheck
	DD	01d8H
xdata	ENDS
;	COMDAT CONST
CONST	SEGMENT
stbi_info_from_memory$rtcName$0 DB 073H
	DB	00H
	ORG $+14
stbi_info_from_memory$rtcVarDesc DD 030H
	DD	0e0H
	DQ	FLAT:stbi_info_from_memory$rtcName$0
	ORG $+48
stbi_info_from_memory$rtcFrameData DD 01H
	DD	00H
	DQ	FLAT:stbi_info_from_memory$rtcVarDesc
CONST	ENDS
;	COMDAT xdata
xdata	SEGMENT
$unwind$stbi_image_free DD 025051301H
	DD	010e2313H
	DD	07007001dH
	DD	05006H
xdata	ENDS
;	COMDAT xdata
xdata	SEGMENT
$unwind$stbi_failure_reason DD 025050f01H
	DD	010a230fH
	DD	07003001dH
	DD	05002H
xdata	ENDS
;	COMDAT voltbl
voltbl	SEGMENT
_volmd	DB	036H
	DB	09fH
voltbl	ENDS
;	COMDAT xdata
xdata	SEGMENT
$unwind$stbi_is_hdr_from_file DD 025053d19H
	DD	010e2313H
	DD	070070045H
	DD	05006H
	DD	imagerel __GSHandlerCheck
	DD	0218H
xdata	ENDS
;	COMDAT CONST
CONST	SEGMENT
stbi_is_hdr_from_file$rtcName$0 DB 073H
	DB	00H
	ORG $+14
stbi_is_hdr_from_file$rtcVarDesc DD 070H
	DD	0e0H
	DQ	FLAT:stbi_is_hdr_from_file$rtcName$0
	ORG $+48
stbi_is_hdr_from_file$rtcFrameData DD 01H
	DD	00H
	DQ	FLAT:stbi_is_hdr_from_file$rtcVarDesc
CONST	ENDS
;	COMDAT xdata
xdata	SEGMENT
$unwind$stbi_is_hdr DD 025051301H
	DD	010e2313H
	DD	070070025H
	DD	05006H
xdata	ENDS
;	COMDAT voltbl
voltbl	SEGMENT
_volmd	DB	03aH
	DB	083H
voltbl	ENDS
;	COMDAT xdata
xdata	SEGMENT
$unwind$stbi_is_hdr_from_memory DD 025054119H
	DD	01122317H
	DD	0700b003dH
	DD	0500aH
	DD	imagerel __GSHandlerCheck
	DD	01d8H
xdata	ENDS
;	COMDAT CONST
CONST	SEGMENT
stbi_is_hdr_from_memory$rtcName$0 DB 073H
	DB	00H
	ORG $+14
stbi_is_hdr_from_memory$rtcVarDesc DD 030H
	DD	0e0H
	DQ	FLAT:stbi_is_hdr_from_memory$rtcName$0
	ORG $+48
stbi_is_hdr_from_memory$rtcFrameData DD 01H
	DD	00H
	DQ	FLAT:stbi_is_hdr_from_memory$rtcVarDesc
CONST	ENDS
;	COMDAT voltbl
voltbl	SEGMENT
_volmd	DB	03bH
	DB	084H
voltbl	ENDS
;	COMDAT xdata
xdata	SEGMENT
$unwind$stbi_is_hdr_from_callbacks DD 025054219H
	DD	01132318H
	DD	0700c003dH
	DD	0500bH
	DD	imagerel __GSHandlerCheck
	DD	01d8H
xdata	ENDS
;	COMDAT CONST
CONST	SEGMENT
stbi_is_hdr_from_callbacks$rtcName$0 DB 073H
	DB	00H
	ORG $+14
stbi_is_hdr_from_callbacks$rtcVarDesc DD 030H
	DD	0e0H
	DQ	FLAT:stbi_is_hdr_from_callbacks$rtcName$0
	ORG $+48
stbi_is_hdr_from_callbacks$rtcFrameData DD 01H
	DD	00H
	DQ	FLAT:stbi_is_hdr_from_callbacks$rtcVarDesc
CONST	ENDS
;	COMDAT xdata
xdata	SEGMENT
$unwind$stbi_ldr_to_hdr_scale DD 025051401H
	DD	010f2314H
	DD	07008001dH
	DD	05007H
xdata	ENDS
;	COMDAT xdata
xdata	SEGMENT
$unwind$stbi_ldr_to_hdr_gamma DD 025051401H
	DD	010f2314H
	DD	07008001dH
	DD	05007H
xdata	ENDS
;	COMDAT xdata
xdata	SEGMENT
$unwind$stbi_hdr_to_ldr_scale DD 025051401H
	DD	010f2314H
	DD	07008001dH
	DD	05007H
xdata	ENDS
;	COMDAT xdata
xdata	SEGMENT
$unwind$stbi_hdr_to_ldr_gamma DD 025051401H
	DD	010f2314H
	DD	07008001dH
	DD	05007H
xdata	ENDS
;	COMDAT voltbl
voltbl	SEGMENT
_volmd	DB	045H
	DB	0a6H
voltbl	ENDS
;	COMDAT xdata
xdata	SEGMENT
$unwind$stbi_loadf_from_file DD 035054c19H
	DD	011d3322H
	DD	07016003fH
	DD	05015H
	DD	imagerel __GSHandlerCheck
	DD	01e8H
xdata	ENDS
;	COMDAT CONST
CONST	SEGMENT
stbi_loadf_from_file$rtcName$0 DB 073H
	DB	00H
	ORG $+14
stbi_loadf_from_file$rtcVarDesc DD 040H
	DD	0e0H
	DQ	FLAT:stbi_loadf_from_file$rtcName$0
	ORG $+48
stbi_loadf_from_file$rtcFrameData DD 01H
	DD	00H
	DQ	FLAT:stbi_loadf_from_file$rtcVarDesc
CONST	ENDS
;	COMDAT xdata
xdata	SEGMENT
$unwind$stbi_loadf DD 035052201H
	DD	011d3322H
	DD	070160027H
	DD	05015H
xdata	ENDS
;	COMDAT voltbl
voltbl	SEGMENT
_volmd	DB	045H
	DB	0adH
voltbl	ENDS
;	COMDAT xdata
xdata	SEGMENT
$unwind$stbi_loadf_from_callbacks DD 035054c19H
	DD	011d3322H
	DD	07016003fH
	DD	05015H
	DD	imagerel __GSHandlerCheck
	DD	01e8H
xdata	ENDS
;	COMDAT CONST
CONST	SEGMENT
stbi_loadf_from_callbacks$rtcName$0 DB 073H
	DB	00H
	ORG $+14
stbi_loadf_from_callbacks$rtcVarDesc DD 040H
	DD	0e0H
	DQ	FLAT:stbi_loadf_from_callbacks$rtcName$0
	ORG $+48
stbi_loadf_from_callbacks$rtcFrameData DD 01H
	DD	00H
	DQ	FLAT:stbi_loadf_from_callbacks$rtcVarDesc
CONST	ENDS
;	COMDAT voltbl
voltbl	SEGMENT
_volmd	DB	044H
	DB	0acH
voltbl	ENDS
;	COMDAT xdata
xdata	SEGMENT
$unwind$stbi_loadf_from_memory DD 035054b19H
	DD	011c3321H
	DD	07015003fH
	DD	05014H
	DD	imagerel __GSHandlerCheck
	DD	01e8H
xdata	ENDS
;	COMDAT CONST
CONST	SEGMENT
stbi_loadf_from_memory$rtcName$0 DB 073H
	DB	00H
	ORG $+14
stbi_loadf_from_memory$rtcVarDesc DD 040H
	DD	0e0H
	DQ	FLAT:stbi_loadf_from_memory$rtcName$0
	ORG $+48
stbi_loadf_from_memory$rtcFrameData DD 01H
	DD	00H
	DQ	FLAT:stbi_loadf_from_memory$rtcVarDesc
CONST	ENDS
;	COMDAT voltbl
voltbl	SEGMENT
_volmd	DB	045H
	DB	0e0H
voltbl	ENDS
;	COMDAT xdata
xdata	SEGMENT
$unwind$stbi_load_from_file_16 DD 035054c19H
	DD	011d3322H
	DD	070160043H
	DD	05015H
	DD	imagerel __GSHandlerCheck
	DD	0208H
xdata	ENDS
;	COMDAT CONST
CONST	SEGMENT
stbi_load_from_file_16$rtcName$0 DB 073H
	DB	00H
	ORG $+14
stbi_load_from_file_16$rtcVarDesc DD 060H
	DD	0e0H
	DQ	FLAT:stbi_load_from_file_16$rtcName$0
	ORG $+48
stbi_load_from_file_16$rtcFrameData DD 01H
	DD	00H
	DQ	FLAT:stbi_load_from_file_16$rtcVarDesc
CONST	ENDS
;	COMDAT xdata
xdata	SEGMENT
$unwind$stbi_load_16 DD 035052201H
	DD	011d3322H
	DD	070160027H
	DD	05015H
xdata	ENDS
;	COMDAT voltbl
voltbl	SEGMENT
_volmd	DB	045H
	DB	0adH
voltbl	ENDS
;	COMDAT xdata
xdata	SEGMENT
$unwind$stbi_load_16_from_callbacks DD 035054c19H
	DD	011d3322H
	DD	07016003fH
	DD	05015H
	DD	imagerel __GSHandlerCheck
	DD	01e8H
xdata	ENDS
;	COMDAT CONST
CONST	SEGMENT
stbi_load_16_from_callbacks$rtcName$0 DB 073H
	DB	00H
	ORG $+14
stbi_load_16_from_callbacks$rtcVarDesc DD 040H
	DD	0e0H
	DQ	FLAT:stbi_load_16_from_callbacks$rtcName$0
	ORG $+48
stbi_load_16_from_callbacks$rtcFrameData DD 01H
	DD	00H
	DQ	FLAT:stbi_load_16_from_callbacks$rtcVarDesc
CONST	ENDS
;	COMDAT voltbl
voltbl	SEGMENT
_volmd	DB	044H
	DB	0acH
voltbl	ENDS
;	COMDAT xdata
xdata	SEGMENT
$unwind$stbi_load_16_from_memory DD 035054b19H
	DD	011c3321H
	DD	07015003fH
	DD	05014H
	DD	imagerel __GSHandlerCheck
	DD	01e8H
xdata	ENDS
;	COMDAT CONST
CONST	SEGMENT
stbi_load_16_from_memory$rtcName$0 DB 073H
	DB	00H
	ORG $+14
stbi_load_16_from_memory$rtcVarDesc DD 040H
	DD	0e0H
	DQ	FLAT:stbi_load_16_from_memory$rtcName$0
	ORG $+48
stbi_load_16_from_memory$rtcFrameData DD 01H
	DD	00H
	DQ	FLAT:stbi_load_16_from_memory$rtcVarDesc
CONST	ENDS
;	COMDAT voltbl
voltbl	SEGMENT
_volmd	DW	044H
	DW	0159H
voltbl	ENDS
;	COMDAT xdata
xdata	SEGMENT
$unwind$stbi_load_gif_from_memory DD 045054b19H
	DD	011c4321H
	DD	070150045H
	DD	05014H
	DD	imagerel __GSHandlerCheck
	DD	0218H
xdata	ENDS
;	COMDAT CONST
CONST	SEGMENT
stbi_load_gif_from_memory$rtcName$0 DB 073H
	DB	00H
	ORG $+14
stbi_load_gif_from_memory$rtcVarDesc DD 070H
	DD	0e0H
	DQ	FLAT:stbi_load_gif_from_memory$rtcName$0
	ORG $+48
stbi_load_gif_from_memory$rtcFrameData DD 01H
	DD	00H
	DQ	FLAT:stbi_load_gif_from_memory$rtcVarDesc
CONST	ENDS
;	COMDAT voltbl
voltbl	SEGMENT
_volmd	DB	045H
	DB	0e0H
voltbl	ENDS
;	COMDAT xdata
xdata	SEGMENT
$unwind$stbi_load_from_file DD 035054c19H
	DD	011d3322H
	DD	070160043H
	DD	05015H
	DD	imagerel __GSHandlerCheck
	DD	0208H
xdata	ENDS
;	COMDAT CONST
CONST	SEGMENT
stbi_load_from_file$rtcName$0 DB 073H
	DB	00H
	ORG $+14
stbi_load_from_file$rtcVarDesc DD 060H
	DD	0e0H
	DQ	FLAT:stbi_load_from_file$rtcName$0
	ORG $+48
stbi_load_from_file$rtcFrameData DD 01H
	DD	00H
	DQ	FLAT:stbi_load_from_file$rtcVarDesc
CONST	ENDS
;	COMDAT xdata
xdata	SEGMENT
$unwind$stbi_load_to_target DD 035052201H
	DD	011d3322H
	DD	070160027H
	DD	05015H
xdata	ENDS
;	COMDAT xdata
xdata	SEGMENT
$unwind$stbi_load DD 035052201H
	DD	011d3322H
	DD	070160027H
	DD	05015H
xdata	ENDS
;	COMDAT voltbl
voltbl	SEGMENT
_volmd	DB	045H
	DB	0adH
voltbl	ENDS
;	COMDAT xdata
xdata	SEGMENT
$unwind$stbi_load_from_callbacks DD 035054c19H
	DD	011d3322H
	DD	07016003fH
	DD	05015H
	DD	imagerel __GSHandlerCheck
	DD	01e8H
xdata	ENDS
;	COMDAT CONST
CONST	SEGMENT
stbi_load_from_callbacks$rtcName$0 DB 073H
	DB	00H
	ORG $+14
stbi_load_from_callbacks$rtcVarDesc DD 040H
	DD	0e0H
	DQ	FLAT:stbi_load_from_callbacks$rtcName$0
	ORG $+48
stbi_load_from_callbacks$rtcFrameData DD 01H
	DD	00H
	DQ	FLAT:stbi_load_from_callbacks$rtcVarDesc
CONST	ENDS
;	COMDAT voltbl
voltbl	SEGMENT
_volmd	DB	044H
	DB	0acH
voltbl	ENDS
;	COMDAT xdata
xdata	SEGMENT
$unwind$stbi_load_from_memory DD 035054b19H
	DD	011c3321H
	DD	07015003fH
	DD	05014H
	DD	imagerel __GSHandlerCheck
	DD	01e8H
xdata	ENDS
;	COMDAT CONST
CONST	SEGMENT
stbi_load_from_memory$rtcName$0 DB 073H
	DB	00H
	ORG $+14
stbi_load_from_memory$rtcVarDesc DD 040H
	DD	0e0H
	DQ	FLAT:stbi_load_from_memory$rtcName$0
	ORG $+48
stbi_load_from_memory$rtcFrameData DD 01H
	DD	00H
	DQ	FLAT:stbi_load_from_memory$rtcVarDesc
CONST	ENDS
; Function compile flags: /Odt
;	COMDAT __JustMyCode_Default
_TEXT	SEGMENT
__JustMyCode_Default PROC				; COMDAT
  00000	c2 00 00	 ret	 0
__JustMyCode_Default ENDP
_TEXT	ENDS
; Function compile flags: /Odtp /RTCsu /ZI
; File D:\NitloadIndustry\\1-Flagship\TH2020\ProjectFile\\StgSharpC\stb_image.c
;	COMDAT stbi__is_16_main
_TEXT	SEGMENT
s$ = 224
stbi__is_16_main PROC					; COMDAT

; 7244 : {

  00000	48 89 4c 24 08	 mov	 QWORD PTR [rsp+8], rcx
  00005	55		 push	 rbp
  00006	57		 push	 rdi
  00007	48 81 ec e8 00
	00 00		 sub	 rsp, 232		; 000000e8H
  0000e	48 8d 6c 24 20	 lea	 rbp, QWORD PTR [rsp+32]
  00013	48 8d 0d 00 00
	00 00		 lea	 rcx, OFFSET FLAT:__C5A6C9A6_stb_image@c
  0001a	e8 00 00 00 00	 call	 __CheckForDebuggerJustMyCode

; 7245 : #ifndef STBI_NO_PNG
; 7246 :     if (stbi__png_is16(s))  return 1;

  0001f	48 8b 8d e0 00
	00 00		 mov	 rcx, QWORD PTR s$[rbp]
  00026	e8 00 00 00 00	 call	 stbi__png_is16
  0002b	85 c0		 test	 eax, eax
  0002d	74 07		 je	 SHORT $LN2@stbi__is_1
  0002f	b8 01 00 00 00	 mov	 eax, 1
  00034	eb 30		 jmp	 SHORT $LN1@stbi__is_1
$LN2@stbi__is_1:

; 7247 : #endif
; 7248 : 
; 7249 : #ifndef STBI_NO_PSD
; 7250 :     if (stbi__psd_is16(s))  return 1;

  00036	48 8b 8d e0 00
	00 00		 mov	 rcx, QWORD PTR s$[rbp]
  0003d	e8 00 00 00 00	 call	 stbi__psd_is16
  00042	85 c0		 test	 eax, eax
  00044	74 07		 je	 SHORT $LN3@stbi__is_1
  00046	b8 01 00 00 00	 mov	 eax, 1
  0004b	eb 19		 jmp	 SHORT $LN1@stbi__is_1
$LN3@stbi__is_1:

; 7251 : #endif
; 7252 : 
; 7253 : #ifndef STBI_NO_PNM
; 7254 :     if (stbi__pnm_is16(s))  return 1;

  0004d	48 8b 8d e0 00
	00 00		 mov	 rcx, QWORD PTR s$[rbp]
  00054	e8 00 00 00 00	 call	 stbi__pnm_is16
  00059	85 c0		 test	 eax, eax
  0005b	74 07		 je	 SHORT $LN4@stbi__is_1
  0005d	b8 01 00 00 00	 mov	 eax, 1
  00062	eb 02		 jmp	 SHORT $LN1@stbi__is_1
$LN4@stbi__is_1:

; 7255 : #endif
; 7256 :     return 0;

  00064	33 c0		 xor	 eax, eax
$LN1@stbi__is_1:

; 7257 : }

  00066	48 8d a5 c8 00
	00 00		 lea	 rsp, QWORD PTR [rbp+200]
  0006d	5f		 pop	 rdi
  0006e	5d		 pop	 rbp
  0006f	c3		 ret	 0
stbi__is_16_main ENDP
_TEXT	ENDS
; Function compile flags: /Odtp /RTCsu /ZI
; File D:\NitloadIndustry\\1-Flagship\TH2020\ProjectFile\\StgSharpC\stb_image.c
;	COMDAT stbi__info_main
_TEXT	SEGMENT
s$ = 224
x$ = 232
y$ = 240
comp$ = 248
stbi__info_main PROC					; COMDAT

; 7202 : {

  00000	4c 89 4c 24 20	 mov	 QWORD PTR [rsp+32], r9
  00005	4c 89 44 24 18	 mov	 QWORD PTR [rsp+24], r8
  0000a	48 89 54 24 10	 mov	 QWORD PTR [rsp+16], rdx
  0000f	48 89 4c 24 08	 mov	 QWORD PTR [rsp+8], rcx
  00014	55		 push	 rbp
  00015	57		 push	 rdi
  00016	48 81 ec e8 00
	00 00		 sub	 rsp, 232		; 000000e8H
  0001d	48 8d 6c 24 20	 lea	 rbp, QWORD PTR [rsp+32]
  00022	48 8d 0d 00 00
	00 00		 lea	 rcx, OFFSET FLAT:__C5A6C9A6_stb_image@c
  00029	e8 00 00 00 00	 call	 __CheckForDebuggerJustMyCode

; 7203 : #ifndef STBI_NO_JPEG
; 7204 :     if (stbi__jpeg_info(s, x, y, comp)) return 1;

  0002e	4c 8b 8d f8 00
	00 00		 mov	 r9, QWORD PTR comp$[rbp]
  00035	4c 8b 85 f0 00
	00 00		 mov	 r8, QWORD PTR y$[rbp]
  0003c	48 8b 95 e8 00
	00 00		 mov	 rdx, QWORD PTR x$[rbp]
  00043	48 8b 8d e0 00
	00 00		 mov	 rcx, QWORD PTR s$[rbp]
  0004a	e8 00 00 00 00	 call	 stbi__jpeg_info
  0004f	85 c0		 test	 eax, eax
  00051	74 0a		 je	 SHORT $LN2@stbi__info
  00053	b8 01 00 00 00	 mov	 eax, 1
  00058	e9 7b 01 00 00	 jmp	 $LN1@stbi__info
$LN2@stbi__info:

; 7205 : #endif
; 7206 : 
; 7207 : #ifndef STBI_NO_PNG
; 7208 :     if (stbi__png_info(s, x, y, comp))  return 1;

  0005d	4c 8b 8d f8 00
	00 00		 mov	 r9, QWORD PTR comp$[rbp]
  00064	4c 8b 85 f0 00
	00 00		 mov	 r8, QWORD PTR y$[rbp]
  0006b	48 8b 95 e8 00
	00 00		 mov	 rdx, QWORD PTR x$[rbp]
  00072	48 8b 8d e0 00
	00 00		 mov	 rcx, QWORD PTR s$[rbp]
  00079	e8 00 00 00 00	 call	 stbi__png_info
  0007e	85 c0		 test	 eax, eax
  00080	74 0a		 je	 SHORT $LN3@stbi__info
  00082	b8 01 00 00 00	 mov	 eax, 1
  00087	e9 4c 01 00 00	 jmp	 $LN1@stbi__info
$LN3@stbi__info:

; 7209 : #endif
; 7210 : 
; 7211 : #ifndef STBI_NO_GIF
; 7212 :     if (stbi__gif_info(s, x, y, comp))  return 1;

  0008c	4c 8b 8d f8 00
	00 00		 mov	 r9, QWORD PTR comp$[rbp]
  00093	4c 8b 85 f0 00
	00 00		 mov	 r8, QWORD PTR y$[rbp]
  0009a	48 8b 95 e8 00
	00 00		 mov	 rdx, QWORD PTR x$[rbp]
  000a1	48 8b 8d e0 00
	00 00		 mov	 rcx, QWORD PTR s$[rbp]
  000a8	e8 00 00 00 00	 call	 stbi__gif_info
  000ad	85 c0		 test	 eax, eax
  000af	74 0a		 je	 SHORT $LN4@stbi__info
  000b1	b8 01 00 00 00	 mov	 eax, 1
  000b6	e9 1d 01 00 00	 jmp	 $LN1@stbi__info
$LN4@stbi__info:

; 7213 : #endif
; 7214 : 
; 7215 : #ifndef STBI_NO_BMP
; 7216 :     if (stbi__bmp_info(s, x, y, comp))  return 1;

  000bb	4c 8b 8d f8 00
	00 00		 mov	 r9, QWORD PTR comp$[rbp]
  000c2	4c 8b 85 f0 00
	00 00		 mov	 r8, QWORD PTR y$[rbp]
  000c9	48 8b 95 e8 00
	00 00		 mov	 rdx, QWORD PTR x$[rbp]
  000d0	48 8b 8d e0 00
	00 00		 mov	 rcx, QWORD PTR s$[rbp]
  000d7	e8 00 00 00 00	 call	 stbi__bmp_info
  000dc	85 c0		 test	 eax, eax
  000de	74 0a		 je	 SHORT $LN5@stbi__info
  000e0	b8 01 00 00 00	 mov	 eax, 1
  000e5	e9 ee 00 00 00	 jmp	 $LN1@stbi__info
$LN5@stbi__info:

; 7217 : #endif
; 7218 : 
; 7219 : #ifndef STBI_NO_PSD
; 7220 :     if (stbi__psd_info(s, x, y, comp))  return 1;

  000ea	4c 8b 8d f8 00
	00 00		 mov	 r9, QWORD PTR comp$[rbp]
  000f1	4c 8b 85 f0 00
	00 00		 mov	 r8, QWORD PTR y$[rbp]
  000f8	48 8b 95 e8 00
	00 00		 mov	 rdx, QWORD PTR x$[rbp]
  000ff	48 8b 8d e0 00
	00 00		 mov	 rcx, QWORD PTR s$[rbp]
  00106	e8 00 00 00 00	 call	 stbi__psd_info
  0010b	85 c0		 test	 eax, eax
  0010d	74 0a		 je	 SHORT $LN6@stbi__info
  0010f	b8 01 00 00 00	 mov	 eax, 1
  00114	e9 bf 00 00 00	 jmp	 $LN1@stbi__info
$LN6@stbi__info:

; 7221 : #endif
; 7222 : 
; 7223 : #ifndef STBI_NO_PIC
; 7224 :     if (stbi__pic_info(s, x, y, comp))  return 1;

  00119	4c 8b 8d f8 00
	00 00		 mov	 r9, QWORD PTR comp$[rbp]
  00120	4c 8b 85 f0 00
	00 00		 mov	 r8, QWORD PTR y$[rbp]
  00127	48 8b 95 e8 00
	00 00		 mov	 rdx, QWORD PTR x$[rbp]
  0012e	48 8b 8d e0 00
	00 00		 mov	 rcx, QWORD PTR s$[rbp]
  00135	e8 00 00 00 00	 call	 stbi__pic_info
  0013a	85 c0		 test	 eax, eax
  0013c	74 0a		 je	 SHORT $LN7@stbi__info
  0013e	b8 01 00 00 00	 mov	 eax, 1
  00143	e9 90 00 00 00	 jmp	 $LN1@stbi__info
$LN7@stbi__info:

; 7225 : #endif
; 7226 : 
; 7227 : #ifndef STBI_NO_PNM
; 7228 :     if (stbi__pnm_info(s, x, y, comp))  return 1;

  00148	4c 8b 8d f8 00
	00 00		 mov	 r9, QWORD PTR comp$[rbp]
  0014f	4c 8b 85 f0 00
	00 00		 mov	 r8, QWORD PTR y$[rbp]
  00156	48 8b 95 e8 00
	00 00		 mov	 rdx, QWORD PTR x$[rbp]
  0015d	48 8b 8d e0 00
	00 00		 mov	 rcx, QWORD PTR s$[rbp]
  00164	e8 00 00 00 00	 call	 stbi__pnm_info
  00169	85 c0		 test	 eax, eax
  0016b	74 07		 je	 SHORT $LN8@stbi__info
  0016d	b8 01 00 00 00	 mov	 eax, 1
  00172	eb 64		 jmp	 SHORT $LN1@stbi__info
$LN8@stbi__info:

; 7229 : #endif
; 7230 : 
; 7231 : #ifndef STBI_NO_HDR
; 7232 :     if (stbi__hdr_info(s, x, y, comp))  return 1;

  00174	4c 8b 8d f8 00
	00 00		 mov	 r9, QWORD PTR comp$[rbp]
  0017b	4c 8b 85 f0 00
	00 00		 mov	 r8, QWORD PTR y$[rbp]
  00182	48 8b 95 e8 00
	00 00		 mov	 rdx, QWORD PTR x$[rbp]
  00189	48 8b 8d e0 00
	00 00		 mov	 rcx, QWORD PTR s$[rbp]
  00190	e8 00 00 00 00	 call	 stbi__hdr_info
  00195	85 c0		 test	 eax, eax
  00197	74 07		 je	 SHORT $LN9@stbi__info
  00199	b8 01 00 00 00	 mov	 eax, 1
  0019e	eb 38		 jmp	 SHORT $LN1@stbi__info
$LN9@stbi__info:

; 7233 : #endif
; 7234 : 
; 7235 :     // test tga last because it's a crappy test!
; 7236 : #ifndef STBI_NO_TGA
; 7237 :     if (stbi__tga_info(s, x, y, comp))

  001a0	4c 8b 8d f8 00
	00 00		 mov	 r9, QWORD PTR comp$[rbp]
  001a7	4c 8b 85 f0 00
	00 00		 mov	 r8, QWORD PTR y$[rbp]
  001ae	48 8b 95 e8 00
	00 00		 mov	 rdx, QWORD PTR x$[rbp]
  001b5	48 8b 8d e0 00
	00 00		 mov	 rcx, QWORD PTR s$[rbp]
  001bc	e8 00 00 00 00	 call	 stbi__tga_info
  001c1	85 c0		 test	 eax, eax
  001c3	74 07		 je	 SHORT $LN10@stbi__info

; 7238 :         return 1;

  001c5	b8 01 00 00 00	 mov	 eax, 1
  001ca	eb 0c		 jmp	 SHORT $LN1@stbi__info
$LN10@stbi__info:

; 7239 : #endif
; 7240 :     return stbi__err("unknown image type", "Image not of any known type, or corrupt");

  001cc	48 8d 0d 00 00
	00 00		 lea	 rcx, OFFSET FLAT:??_C@_0BD@CBEDEJPH@unknown?5image?5type@
  001d3	e8 00 00 00 00	 call	 stbi__err
$LN1@stbi__info:

; 7241 : }

  001d8	48 8d a5 c8 00
	00 00		 lea	 rsp, QWORD PTR [rbp+200]
  001df	5f		 pop	 rdi
  001e0	5d		 pop	 rbp
  001e1	c3		 ret	 0
stbi__info_main ENDP
_TEXT	ENDS
; Function compile flags: /Odtp /RTCsu /ZI
; File D:\NitloadIndustry\\1-Flagship\TH2020\ProjectFile\\StgSharpC\stb_image.c
;	COMDAT stbi__pnm_getinteger
_TEXT	SEGMENT
value$ = 4
s$ = 256
c$ = 264
stbi__pnm_getinteger PROC				; COMDAT

; 7137 : {

  00000	48 89 54 24 10	 mov	 QWORD PTR [rsp+16], rdx
  00005	48 89 4c 24 08	 mov	 QWORD PTR [rsp+8], rcx
  0000a	55		 push	 rbp
  0000b	57		 push	 rdi
  0000c	48 81 ec 08 01
	00 00		 sub	 rsp, 264		; 00000108H
  00013	48 8d 6c 24 20	 lea	 rbp, QWORD PTR [rsp+32]
  00018	48 8d 0d 00 00
	00 00		 lea	 rcx, OFFSET FLAT:__C5A6C9A6_stb_image@c
  0001f	e8 00 00 00 00	 call	 __CheckForDebuggerJustMyCode

; 7138 :     int value = 0;

  00024	c7 45 04 00 00
	00 00		 mov	 DWORD PTR value$[rbp], 0
$LN2@stbi__pnm_:

; 7139 : 
; 7140 :     while (!stbi__at_eof(s) && stbi__pnm_isdigit(*c)) {

  0002b	48 8b 8d 00 01
	00 00		 mov	 rcx, QWORD PTR s$[rbp]
  00032	e8 00 00 00 00	 call	 stbi__at_eof
  00037	85 c0		 test	 eax, eax
  00039	75 6e		 jne	 SHORT $LN3@stbi__pnm_
  0003b	48 8b 85 08 01
	00 00		 mov	 rax, QWORD PTR c$[rbp]
  00042	0f b6 08	 movzx	 ecx, BYTE PTR [rax]
  00045	e8 00 00 00 00	 call	 stbi__pnm_isdigit
  0004a	85 c0		 test	 eax, eax
  0004c	74 5b		 je	 SHORT $LN3@stbi__pnm_

; 7141 :         value = value * 10 + (*c - '0');

  0004e	6b 45 04 0a	 imul	 eax, DWORD PTR value$[rbp], 10
  00052	48 8b 8d 08 01
	00 00		 mov	 rcx, QWORD PTR c$[rbp]
  00059	0f be 09	 movsx	 ecx, BYTE PTR [rcx]
  0005c	8d 44 08 d0	 lea	 eax, DWORD PTR [rax+rcx-48]
  00060	89 45 04	 mov	 DWORD PTR value$[rbp], eax

; 7142 :         *c = (char)stbi__get8(s);

  00063	48 8b 8d 00 01
	00 00		 mov	 rcx, QWORD PTR s$[rbp]
  0006a	e8 00 00 00 00	 call	 stbi__get8
  0006f	48 8b 8d 08 01
	00 00		 mov	 rcx, QWORD PTR c$[rbp]
  00076	88 01		 mov	 BYTE PTR [rcx], al

; 7143 :         if ((value > 214748364) || (value == 214748364 && *c > '7'))

  00078	81 7d 04 cc cc
	cc 0c		 cmp	 DWORD PTR value$[rbp], 214748364 ; 0cccccccH
  0007f	7f 18		 jg	 SHORT $LN5@stbi__pnm_
  00081	81 7d 04 cc cc
	cc 0c		 cmp	 DWORD PTR value$[rbp], 214748364 ; 0cccccccH
  00088	75 1d		 jne	 SHORT $LN4@stbi__pnm_
  0008a	48 8b 85 08 01
	00 00		 mov	 rax, QWORD PTR c$[rbp]
  00091	0f be 00	 movsx	 eax, BYTE PTR [rax]
  00094	83 f8 37	 cmp	 eax, 55			; 00000037H
  00097	7e 0e		 jle	 SHORT $LN4@stbi__pnm_
$LN5@stbi__pnm_:

; 7144 :             return stbi__err("integer parse overflow", "Parsing an integer in the PPM header overflowed a 32-bit int");

  00099	48 8d 0d 00 00
	00 00		 lea	 rcx, OFFSET FLAT:??_C@_0BH@OBINMOBC@integer?5parse?5overflow@
  000a0	e8 00 00 00 00	 call	 stbi__err
  000a5	eb 05		 jmp	 SHORT $LN1@stbi__pnm_
$LN4@stbi__pnm_:

; 7145 :     }

  000a7	eb 82		 jmp	 SHORT $LN2@stbi__pnm_
$LN3@stbi__pnm_:

; 7146 : 
; 7147 :     return value;

  000a9	8b 45 04	 mov	 eax, DWORD PTR value$[rbp]
$LN1@stbi__pnm_:

; 7148 : }

  000ac	48 8d a5 e8 00
	00 00		 lea	 rsp, QWORD PTR [rbp+232]
  000b3	5f		 pop	 rdi
  000b4	5d		 pop	 rbp
  000b5	c3		 ret	 0
stbi__pnm_getinteger ENDP
_TEXT	ENDS
; Function compile flags: /Odtp /RTCsu /ZI
; File D:\NitloadIndustry\\1-Flagship\TH2020\ProjectFile\\StgSharpC\stb_image.c
;	COMDAT stbi__pnm_isdigit
_TEXT	SEGMENT
tv68 = 192
c$ = 240
stbi__pnm_isdigit PROC					; COMDAT

; 7132 : {

  00000	88 4c 24 08	 mov	 BYTE PTR [rsp+8], cl
  00004	55		 push	 rbp
  00005	57		 push	 rdi
  00006	48 81 ec f8 00
	00 00		 sub	 rsp, 248		; 000000f8H
  0000d	48 8d 6c 24 20	 lea	 rbp, QWORD PTR [rsp+32]
  00012	48 8d 0d 00 00
	00 00		 lea	 rcx, OFFSET FLAT:__C5A6C9A6_stb_image@c
  00019	e8 00 00 00 00	 call	 __CheckForDebuggerJustMyCode

; 7133 :     return c >= '0' && c <= '9';

  0001e	0f be 85 f0 00
	00 00		 movsx	 eax, BYTE PTR c$[rbp]
  00025	83 f8 30	 cmp	 eax, 48			; 00000030H
  00028	7c 18		 jl	 SHORT $LN3@stbi__pnm_
  0002a	0f be 85 f0 00
	00 00		 movsx	 eax, BYTE PTR c$[rbp]
  00031	83 f8 39	 cmp	 eax, 57			; 00000039H
  00034	7f 0c		 jg	 SHORT $LN3@stbi__pnm_
  00036	c7 85 c0 00 00
	00 01 00 00 00	 mov	 DWORD PTR tv68[rbp], 1
  00040	eb 0a		 jmp	 SHORT $LN4@stbi__pnm_
$LN3@stbi__pnm_:
  00042	c7 85 c0 00 00
	00 00 00 00 00	 mov	 DWORD PTR tv68[rbp], 0
$LN4@stbi__pnm_:
  0004c	8b 85 c0 00 00
	00		 mov	 eax, DWORD PTR tv68[rbp]

; 7134 : }

  00052	48 8d a5 d8 00
	00 00		 lea	 rsp, QWORD PTR [rbp+216]
  00059	5f		 pop	 rdi
  0005a	5d		 pop	 rbp
  0005b	c3		 ret	 0
stbi__pnm_isdigit ENDP
_TEXT	ENDS
; Function compile flags: /Odtp /RTCsu /ZI
; File D:\NitloadIndustry\\1-Flagship\TH2020\ProjectFile\\StgSharpC\stb_image.c
;	COMDAT stbi__pnm_skip_whitespace
_TEXT	SEGMENT
s$ = 224
c$ = 232
stbi__pnm_skip_whitespace PROC				; COMDAT

; 7118 : {

  00000	48 89 54 24 10	 mov	 QWORD PTR [rsp+16], rdx
  00005	48 89 4c 24 08	 mov	 QWORD PTR [rsp+8], rcx
  0000a	55		 push	 rbp
  0000b	57		 push	 rdi
  0000c	48 81 ec e8 00
	00 00		 sub	 rsp, 232		; 000000e8H
  00013	48 8d 6c 24 20	 lea	 rbp, QWORD PTR [rsp+32]
  00018	48 8d 0d 00 00
	00 00		 lea	 rcx, OFFSET FLAT:__C5A6C9A6_stb_image@c
  0001f	e8 00 00 00 00	 call	 __CheckForDebuggerJustMyCode
$LN2@stbi__pnm_:
$LN5@stbi__pnm_:

; 7119 :     for (;;) {
; 7120 :         while (!stbi__at_eof(s) && stbi__pnm_isspace(*c))

  00024	48 8b 8d e0 00
	00 00		 mov	 rcx, QWORD PTR s$[rbp]
  0002b	e8 00 00 00 00	 call	 stbi__at_eof
  00030	85 c0		 test	 eax, eax
  00032	75 2a		 jne	 SHORT $LN6@stbi__pnm_
  00034	48 8b 85 e8 00
	00 00		 mov	 rax, QWORD PTR c$[rbp]
  0003b	0f b6 08	 movzx	 ecx, BYTE PTR [rax]
  0003e	e8 00 00 00 00	 call	 stbi__pnm_isspace
  00043	85 c0		 test	 eax, eax
  00045	74 17		 je	 SHORT $LN6@stbi__pnm_

; 7121 :             *c = (char)stbi__get8(s);

  00047	48 8b 8d e0 00
	00 00		 mov	 rcx, QWORD PTR s$[rbp]
  0004e	e8 00 00 00 00	 call	 stbi__get8
  00053	48 8b 8d e8 00
	00 00		 mov	 rcx, QWORD PTR c$[rbp]
  0005a	88 01		 mov	 BYTE PTR [rcx], al
  0005c	eb c6		 jmp	 SHORT $LN5@stbi__pnm_
$LN6@stbi__pnm_:

; 7122 : 
; 7123 :         if (stbi__at_eof(s) || *c != '#')

  0005e	48 8b 8d e0 00
	00 00		 mov	 rcx, QWORD PTR s$[rbp]
  00065	e8 00 00 00 00	 call	 stbi__at_eof
  0006a	85 c0		 test	 eax, eax
  0006c	75 0f		 jne	 SHORT $LN10@stbi__pnm_
  0006e	48 8b 85 e8 00
	00 00		 mov	 rax, QWORD PTR c$[rbp]
  00075	0f be 00	 movsx	 eax, BYTE PTR [rax]
  00078	83 f8 23	 cmp	 eax, 35			; 00000023H
  0007b	74 02		 je	 SHORT $LN9@stbi__pnm_
$LN10@stbi__pnm_:

; 7124 :             break;

  0007d	eb 4a		 jmp	 SHORT $LN3@stbi__pnm_
$LN9@stbi__pnm_:
$LN7@stbi__pnm_:

; 7125 : 
; 7126 :         while (!stbi__at_eof(s) && *c != '\n' && *c != '\r')

  0007f	48 8b 8d e0 00
	00 00		 mov	 rcx, QWORD PTR s$[rbp]
  00086	e8 00 00 00 00	 call	 stbi__at_eof
  0008b	85 c0		 test	 eax, eax
  0008d	75 35		 jne	 SHORT $LN8@stbi__pnm_
  0008f	48 8b 85 e8 00
	00 00		 mov	 rax, QWORD PTR c$[rbp]
  00096	0f be 00	 movsx	 eax, BYTE PTR [rax]
  00099	83 f8 0a	 cmp	 eax, 10
  0009c	74 26		 je	 SHORT $LN8@stbi__pnm_
  0009e	48 8b 85 e8 00
	00 00		 mov	 rax, QWORD PTR c$[rbp]
  000a5	0f be 00	 movsx	 eax, BYTE PTR [rax]
  000a8	83 f8 0d	 cmp	 eax, 13
  000ab	74 17		 je	 SHORT $LN8@stbi__pnm_

; 7127 :             *c = (char)stbi__get8(s);

  000ad	48 8b 8d e0 00
	00 00		 mov	 rcx, QWORD PTR s$[rbp]
  000b4	e8 00 00 00 00	 call	 stbi__get8
  000b9	48 8b 8d e8 00
	00 00		 mov	 rcx, QWORD PTR c$[rbp]
  000c0	88 01		 mov	 BYTE PTR [rcx], al
  000c2	eb bb		 jmp	 SHORT $LN7@stbi__pnm_
$LN8@stbi__pnm_:

; 7128 :     }

  000c4	e9 5b ff ff ff	 jmp	 $LN2@stbi__pnm_
$LN3@stbi__pnm_:

; 7129 : }

  000c9	48 8d a5 c8 00
	00 00		 lea	 rsp, QWORD PTR [rbp+200]
  000d0	5f		 pop	 rdi
  000d1	5d		 pop	 rbp
  000d2	c3		 ret	 0
stbi__pnm_skip_whitespace ENDP
_TEXT	ENDS
; Function compile flags: /Odtp /RTCsu /ZI
; File D:\NitloadIndustry\\1-Flagship\TH2020\ProjectFile\\StgSharpC\stb_image.c
;	COMDAT stbi__pnm_isspace
_TEXT	SEGMENT
tv76 = 192
c$ = 240
stbi__pnm_isspace PROC					; COMDAT

; 7113 : {

  00000	88 4c 24 08	 mov	 BYTE PTR [rsp+8], cl
  00004	55		 push	 rbp
  00005	57		 push	 rdi
  00006	48 81 ec f8 00
	00 00		 sub	 rsp, 248		; 000000f8H
  0000d	48 8d 6c 24 20	 lea	 rbp, QWORD PTR [rsp+32]
  00012	48 8d 0d 00 00
	00 00		 lea	 rcx, OFFSET FLAT:__C5A6C9A6_stb_image@c
  00019	e8 00 00 00 00	 call	 __CheckForDebuggerJustMyCode

; 7114 :     return c == ' ' || c == '\t' || c == '\n' || c == '\v' || c == '\f' || c == '\r';

  0001e	0f be 85 f0 00
	00 00		 movsx	 eax, BYTE PTR c$[rbp]
  00025	83 f8 20	 cmp	 eax, 32			; 00000020H
  00028	74 48		 je	 SHORT $LN3@stbi__pnm_
  0002a	0f be 85 f0 00
	00 00		 movsx	 eax, BYTE PTR c$[rbp]
  00031	83 f8 09	 cmp	 eax, 9
  00034	74 3c		 je	 SHORT $LN3@stbi__pnm_
  00036	0f be 85 f0 00
	00 00		 movsx	 eax, BYTE PTR c$[rbp]
  0003d	83 f8 0a	 cmp	 eax, 10
  00040	74 30		 je	 SHORT $LN3@stbi__pnm_
  00042	0f be 85 f0 00
	00 00		 movsx	 eax, BYTE PTR c$[rbp]
  00049	83 f8 0b	 cmp	 eax, 11
  0004c	74 24		 je	 SHORT $LN3@stbi__pnm_
  0004e	0f be 85 f0 00
	00 00		 movsx	 eax, BYTE PTR c$[rbp]
  00055	83 f8 0c	 cmp	 eax, 12
  00058	74 18		 je	 SHORT $LN3@stbi__pnm_
  0005a	0f be 85 f0 00
	00 00		 movsx	 eax, BYTE PTR c$[rbp]
  00061	83 f8 0d	 cmp	 eax, 13
  00064	74 0c		 je	 SHORT $LN3@stbi__pnm_
  00066	c7 85 c0 00 00
	00 00 00 00 00	 mov	 DWORD PTR tv76[rbp], 0
  00070	eb 0a		 jmp	 SHORT $LN4@stbi__pnm_
$LN3@stbi__pnm_:
  00072	c7 85 c0 00 00
	00 01 00 00 00	 mov	 DWORD PTR tv76[rbp], 1
$LN4@stbi__pnm_:
  0007c	8b 85 c0 00 00
	00		 mov	 eax, DWORD PTR tv76[rbp]

; 7115 : }

  00082	48 8d a5 d8 00
	00 00		 lea	 rsp, QWORD PTR [rbp+216]
  00089	5f		 pop	 rdi
  0008a	5d		 pop	 rbp
  0008b	c3		 ret	 0
stbi__pnm_isspace ENDP
_TEXT	ENDS
; Function compile flags: /Odtp /RTCsu /ZI
; File D:\NitloadIndustry\\1-Flagship\TH2020\ProjectFile\\StgSharpC\stb_image.c
;	COMDAT stbi__hdr_convert
_TEXT	SEGMENT
f1$1 = 4
tv152 = 212
output$ = 256
input$ = 264
req_comp$ = 272
stbi__hdr_convert PROC					; COMDAT

; 6697 : {

  00000	44 89 44 24 18	 mov	 DWORD PTR [rsp+24], r8d
  00005	48 89 54 24 10	 mov	 QWORD PTR [rsp+16], rdx
  0000a	48 89 4c 24 08	 mov	 QWORD PTR [rsp+8], rcx
  0000f	55		 push	 rbp
  00010	57		 push	 rdi
  00011	48 81 ec 08 01
	00 00		 sub	 rsp, 264		; 00000108H
  00018	48 8d 6c 24 20	 lea	 rbp, QWORD PTR [rsp+32]
  0001d	48 8d 0d 00 00
	00 00		 lea	 rcx, OFFSET FLAT:__C5A6C9A6_stb_image@c
  00024	e8 00 00 00 00	 call	 __CheckForDebuggerJustMyCode

; 6698 :     if (input[3] != 0) {

  00029	b8 01 00 00 00	 mov	 eax, 1
  0002e	48 6b c0 03	 imul	 rax, rax, 3
  00032	48 8b 8d 08 01
	00 00		 mov	 rcx, QWORD PTR input$[rbp]
  00039	0f b6 04 01	 movzx	 eax, BYTE PTR [rcx+rax]
  0003d	85 c0		 test	 eax, eax
  0003f	0f 84 8d 01 00
	00		 je	 $LN4@stbi__hdr_

; 6699 :         float f1;
; 6700 :         // Exponent
; 6701 :         f1 = (float)ldexp(1.0f, input[3] - (int)(128 + 8));

  00045	b8 01 00 00 00	 mov	 eax, 1
  0004a	48 6b c0 03	 imul	 rax, rax, 3
  0004e	48 8b 8d 08 01
	00 00		 mov	 rcx, QWORD PTR input$[rbp]
  00055	0f b6 04 01	 movzx	 eax, BYTE PTR [rcx+rax]
  00059	2d 88 00 00 00	 sub	 eax, 136		; 00000088H
  0005e	8b d0		 mov	 edx, eax
  00060	f2 0f 10 05 00
	00 00 00	 movsd	 xmm0, QWORD PTR __real@3ff0000000000000
  00068	ff 15 00 00 00
	00		 call	 QWORD PTR __imp_ldexp
  0006e	f2 0f 5a c0	 cvtsd2ss xmm0, xmm0
  00072	f3 0f 11 45 04	 movss	 DWORD PTR f1$1[rbp], xmm0

; 6702 :         if (req_comp <= 2)

  00077	83 bd 10 01 00
	00 02		 cmp	 DWORD PTR req_comp$[rbp], 2
  0007e	7f 6b		 jg	 SHORT $LN6@stbi__hdr_

; 6703 :             output[0] = (input[0] + input[1] + input[2]) * f1 / 3;

  00080	b8 01 00 00 00	 mov	 eax, 1
  00085	48 6b c0 00	 imul	 rax, rax, 0
  00089	48 8b 8d 08 01
	00 00		 mov	 rcx, QWORD PTR input$[rbp]
  00090	0f b6 04 01	 movzx	 eax, BYTE PTR [rcx+rax]
  00094	b9 01 00 00 00	 mov	 ecx, 1
  00099	48 6b c9 01	 imul	 rcx, rcx, 1
  0009d	48 8b 95 08 01
	00 00		 mov	 rdx, QWORD PTR input$[rbp]
  000a4	0f b6 0c 0a	 movzx	 ecx, BYTE PTR [rdx+rcx]
  000a8	03 c1		 add	 eax, ecx
  000aa	b9 01 00 00 00	 mov	 ecx, 1
  000af	48 6b c9 02	 imul	 rcx, rcx, 2
  000b3	48 8b 95 08 01
	00 00		 mov	 rdx, QWORD PTR input$[rbp]
  000ba	0f b6 0c 0a	 movzx	 ecx, BYTE PTR [rdx+rcx]
  000be	03 c1		 add	 eax, ecx
  000c0	f3 0f 2a c0	 cvtsi2ss xmm0, eax
  000c4	f3 0f 59 45 04	 mulss	 xmm0, DWORD PTR f1$1[rbp]
  000c9	f3 0f 5e 05 00
	00 00 00	 divss	 xmm0, DWORD PTR __real@40400000
  000d1	b8 04 00 00 00	 mov	 eax, 4
  000d6	48 6b c0 00	 imul	 rax, rax, 0
  000da	48 8b 8d 00 01
	00 00		 mov	 rcx, QWORD PTR output$[rbp]
  000e1	f3 0f 11 04 01	 movss	 DWORD PTR [rcx+rax], xmm0
  000e6	e9 96 00 00 00	 jmp	 $LN7@stbi__hdr_
$LN6@stbi__hdr_:

; 6704 :         else {
; 6705 :             output[0] = input[0] * f1;

  000eb	b8 01 00 00 00	 mov	 eax, 1
  000f0	48 6b c0 00	 imul	 rax, rax, 0
  000f4	48 8b 8d 08 01
	00 00		 mov	 rcx, QWORD PTR input$[rbp]
  000fb	0f b6 04 01	 movzx	 eax, BYTE PTR [rcx+rax]
  000ff	f3 0f 2a c0	 cvtsi2ss xmm0, eax
  00103	f3 0f 59 45 04	 mulss	 xmm0, DWORD PTR f1$1[rbp]
  00108	b8 04 00 00 00	 mov	 eax, 4
  0010d	48 6b c0 00	 imul	 rax, rax, 0
  00111	48 8b 8d 00 01
	00 00		 mov	 rcx, QWORD PTR output$[rbp]
  00118	f3 0f 11 04 01	 movss	 DWORD PTR [rcx+rax], xmm0

; 6706 :             output[1] = input[1] * f1;

  0011d	b8 01 00 00 00	 mov	 eax, 1
  00122	48 6b c0 01	 imul	 rax, rax, 1
  00126	48 8b 8d 08 01
	00 00		 mov	 rcx, QWORD PTR input$[rbp]
  0012d	0f b6 04 01	 movzx	 eax, BYTE PTR [rcx+rax]
  00131	f3 0f 2a c0	 cvtsi2ss xmm0, eax
  00135	f3 0f 59 45 04	 mulss	 xmm0, DWORD PTR f1$1[rbp]
  0013a	b8 04 00 00 00	 mov	 eax, 4
  0013f	48 6b c0 01	 imul	 rax, rax, 1
  00143	48 8b 8d 00 01
	00 00		 mov	 rcx, QWORD PTR output$[rbp]
  0014a	f3 0f 11 04 01	 movss	 DWORD PTR [rcx+rax], xmm0

; 6707 :             output[2] = input[2] * f1;

  0014f	b8 01 00 00 00	 mov	 eax, 1
  00154	48 6b c0 02	 imul	 rax, rax, 2
  00158	48 8b 8d 08 01
	00 00		 mov	 rcx, QWORD PTR input$[rbp]
  0015f	0f b6 04 01	 movzx	 eax, BYTE PTR [rcx+rax]
  00163	f3 0f 2a c0	 cvtsi2ss xmm0, eax
  00167	f3 0f 59 45 04	 mulss	 xmm0, DWORD PTR f1$1[rbp]
  0016c	b8 04 00 00 00	 mov	 eax, 4
  00171	48 6b c0 02	 imul	 rax, rax, 2
  00175	48 8b 8d 00 01
	00 00		 mov	 rcx, QWORD PTR output$[rbp]
  0017c	f3 0f 11 04 01	 movss	 DWORD PTR [rcx+rax], xmm0
$LN7@stbi__hdr_:

; 6708 :         }
; 6709 :         if (req_comp == 2) output[1] = 1;

  00181	83 bd 10 01 00
	00 02		 cmp	 DWORD PTR req_comp$[rbp], 2
  00188	75 1d		 jne	 SHORT $LN8@stbi__hdr_
  0018a	b8 04 00 00 00	 mov	 eax, 4
  0018f	48 6b c0 01	 imul	 rax, rax, 1
  00193	48 8b 8d 00 01
	00 00		 mov	 rcx, QWORD PTR output$[rbp]
  0019a	f3 0f 10 05 00
	00 00 00	 movss	 xmm0, DWORD PTR __real@3f800000
  001a2	f3 0f 11 04 01	 movss	 DWORD PTR [rcx+rax], xmm0
$LN8@stbi__hdr_:

; 6710 :         if (req_comp == 4) output[3] = 1;

  001a7	83 bd 10 01 00
	00 04		 cmp	 DWORD PTR req_comp$[rbp], 4
  001ae	75 1d		 jne	 SHORT $LN9@stbi__hdr_
  001b0	b8 04 00 00 00	 mov	 eax, 4
  001b5	48 6b c0 03	 imul	 rax, rax, 3
  001b9	48 8b 8d 00 01
	00 00		 mov	 rcx, QWORD PTR output$[rbp]
  001c0	f3 0f 10 05 00
	00 00 00	 movss	 xmm0, DWORD PTR __real@3f800000
  001c8	f3 0f 11 04 01	 movss	 DWORD PTR [rcx+rax], xmm0
$LN9@stbi__hdr_:

; 6711 :     }

  001cd	e9 d5 00 00 00	 jmp	 $LN5@stbi__hdr_
$LN4@stbi__hdr_:

; 6712 :     else {
; 6713 :         switch (req_comp) {

  001d2	8b 85 10 01 00
	00		 mov	 eax, DWORD PTR req_comp$[rbp]
  001d8	89 85 d4 00 00
	00		 mov	 DWORD PTR tv152[rbp], eax
  001de	83 bd d4 00 00
	00 01		 cmp	 DWORD PTR tv152[rbp], 1
  001e5	0f 84 a4 00 00
	00		 je	 $LN13@stbi__hdr_
  001eb	83 bd d4 00 00
	00 02		 cmp	 DWORD PTR tv152[rbp], 2
  001f2	74 7e		 je	 SHORT $LN12@stbi__hdr_
  001f4	83 bd d4 00 00
	00 03		 cmp	 DWORD PTR tv152[rbp], 3
  001fb	74 2b		 je	 SHORT $LN11@stbi__hdr_
  001fd	83 bd d4 00 00
	00 04		 cmp	 DWORD PTR tv152[rbp], 4
  00204	74 05		 je	 SHORT $LN10@stbi__hdr_
  00206	e9 9c 00 00 00	 jmp	 $LN2@stbi__hdr_
$LN10@stbi__hdr_:

; 6714 :         case 4: output[3] = 1; /* fallthrough */

  0020b	b8 04 00 00 00	 mov	 eax, 4
  00210	48 6b c0 03	 imul	 rax, rax, 3
  00214	48 8b 8d 00 01
	00 00		 mov	 rcx, QWORD PTR output$[rbp]
  0021b	f3 0f 10 05 00
	00 00 00	 movss	 xmm0, DWORD PTR __real@3f800000
  00223	f3 0f 11 04 01	 movss	 DWORD PTR [rcx+rax], xmm0
$LN11@stbi__hdr_:

; 6715 :         case 3: output[0] = output[1] = output[2] = 0;

  00228	b8 04 00 00 00	 mov	 eax, 4
  0022d	48 6b c0 02	 imul	 rax, rax, 2
  00231	48 8b 8d 00 01
	00 00		 mov	 rcx, QWORD PTR output$[rbp]
  00238	0f 57 c0	 xorps	 xmm0, xmm0
  0023b	f3 0f 11 04 01	 movss	 DWORD PTR [rcx+rax], xmm0
  00240	b8 04 00 00 00	 mov	 eax, 4
  00245	48 6b c0 01	 imul	 rax, rax, 1
  00249	48 8b 8d 00 01
	00 00		 mov	 rcx, QWORD PTR output$[rbp]
  00250	0f 57 c0	 xorps	 xmm0, xmm0
  00253	f3 0f 11 04 01	 movss	 DWORD PTR [rcx+rax], xmm0
  00258	b8 04 00 00 00	 mov	 eax, 4
  0025d	48 6b c0 00	 imul	 rax, rax, 0
  00261	48 8b 8d 00 01
	00 00		 mov	 rcx, QWORD PTR output$[rbp]
  00268	0f 57 c0	 xorps	 xmm0, xmm0
  0026b	f3 0f 11 04 01	 movss	 DWORD PTR [rcx+rax], xmm0

; 6716 :             break;

  00270	eb 35		 jmp	 SHORT $LN2@stbi__hdr_
$LN12@stbi__hdr_:

; 6717 :         case 2: output[1] = 1; /* fallthrough */

  00272	b8 04 00 00 00	 mov	 eax, 4
  00277	48 6b c0 01	 imul	 rax, rax, 1
  0027b	48 8b 8d 00 01
	00 00		 mov	 rcx, QWORD PTR output$[rbp]
  00282	f3 0f 10 05 00
	00 00 00	 movss	 xmm0, DWORD PTR __real@3f800000
  0028a	f3 0f 11 04 01	 movss	 DWORD PTR [rcx+rax], xmm0
$LN13@stbi__hdr_:

; 6718 :         case 1: output[0] = 0;

  0028f	b8 04 00 00 00	 mov	 eax, 4
  00294	48 6b c0 00	 imul	 rax, rax, 0
  00298	48 8b 8d 00 01
	00 00		 mov	 rcx, QWORD PTR output$[rbp]
  0029f	0f 57 c0	 xorps	 xmm0, xmm0
  002a2	f3 0f 11 04 01	 movss	 DWORD PTR [rcx+rax], xmm0
$LN2@stbi__hdr_:
$LN5@stbi__hdr_:

; 6719 :             break;
; 6720 :         }
; 6721 :     }
; 6722 : }

  002a7	48 8d a5 e8 00
	00 00		 lea	 rsp, QWORD PTR [rbp+232]
  002ae	5f		 pop	 rdi
  002af	5d		 pop	 rbp
  002b0	c3		 ret	 0
stbi__hdr_convert ENDP
_TEXT	ENDS
; Function compile flags: /Odtp /RTCsu /ZI
; File D:\NitloadIndustry\\1-Flagship\TH2020\ProjectFile\\StgSharpC\stb_image.c
;	COMDAT stbi__hdr_gettoken
_TEXT	SEGMENT
len$ = 4
c$ = 36
z$ = 288
buffer$ = 296
stbi__hdr_gettoken PROC					; COMDAT

; 6675 : {

  00000	48 89 54 24 10	 mov	 QWORD PTR [rsp+16], rdx
  00005	48 89 4c 24 08	 mov	 QWORD PTR [rsp+8], rcx
  0000a	55		 push	 rbp
  0000b	57		 push	 rdi
  0000c	48 81 ec 28 01
	00 00		 sub	 rsp, 296		; 00000128H
  00013	48 8d 6c 24 20	 lea	 rbp, QWORD PTR [rsp+32]
  00018	48 8d 0d 00 00
	00 00		 lea	 rcx, OFFSET FLAT:__C5A6C9A6_stb_image@c
  0001f	e8 00 00 00 00	 call	 __CheckForDebuggerJustMyCode

; 6676 :     int len = 0;

  00024	c7 45 04 00 00
	00 00		 mov	 DWORD PTR len$[rbp], 0

; 6677 :     char c = '\0';

  0002b	c6 45 24 00	 mov	 BYTE PTR c$[rbp], 0

; 6678 : 
; 6679 :     c = (char)stbi__get8(z);

  0002f	48 8b 8d 20 01
	00 00		 mov	 rcx, QWORD PTR z$[rbp]
  00036	e8 00 00 00 00	 call	 stbi__get8
  0003b	88 45 24	 mov	 BYTE PTR c$[rbp], al
$LN2@stbi__hdr_:

; 6680 : 
; 6681 :     while (!stbi__at_eof(z) && c != '\n') {

  0003e	48 8b 8d 20 01
	00 00		 mov	 rcx, QWORD PTR z$[rbp]
  00045	e8 00 00 00 00	 call	 stbi__at_eof
  0004a	85 c0		 test	 eax, eax
  0004c	75 65		 jne	 SHORT $LN3@stbi__hdr_
  0004e	0f be 45 24	 movsx	 eax, BYTE PTR c$[rbp]
  00052	83 f8 0a	 cmp	 eax, 10
  00055	74 5c		 je	 SHORT $LN3@stbi__hdr_

; 6682 :         buffer[len++] = c;

  00057	48 63 45 04	 movsxd	 rax, DWORD PTR len$[rbp]
  0005b	48 8b 8d 28 01
	00 00		 mov	 rcx, QWORD PTR buffer$[rbp]
  00062	0f b6 55 24	 movzx	 edx, BYTE PTR c$[rbp]
  00066	88 14 01	 mov	 BYTE PTR [rcx+rax], dl
  00069	8b 45 04	 mov	 eax, DWORD PTR len$[rbp]
  0006c	ff c0		 inc	 eax
  0006e	89 45 04	 mov	 DWORD PTR len$[rbp], eax

; 6683 :         if (len == STBI__HDR_BUFLEN - 1) {

  00071	81 7d 04 ff 03
	00 00		 cmp	 DWORD PTR len$[rbp], 1023 ; 000003ffH
  00078	75 28		 jne	 SHORT $LN6@stbi__hdr_
$LN4@stbi__hdr_:

; 6684 :             // flush to end of line
; 6685 :             while (!stbi__at_eof(z) && stbi__get8(z) != '\n')

  0007a	48 8b 8d 20 01
	00 00		 mov	 rcx, QWORD PTR z$[rbp]
  00081	e8 00 00 00 00	 call	 stbi__at_eof
  00086	85 c0		 test	 eax, eax
  00088	75 16		 jne	 SHORT $LN5@stbi__hdr_
  0008a	48 8b 8d 20 01
	00 00		 mov	 rcx, QWORD PTR z$[rbp]
  00091	e8 00 00 00 00	 call	 stbi__get8
  00096	0f b6 c0	 movzx	 eax, al
  00099	83 f8 0a	 cmp	 eax, 10
  0009c	74 02		 je	 SHORT $LN5@stbi__hdr_

; 6686 :                 ;

  0009e	eb da		 jmp	 SHORT $LN4@stbi__hdr_
$LN5@stbi__hdr_:

; 6687 :             break;

  000a0	eb 11		 jmp	 SHORT $LN3@stbi__hdr_
$LN6@stbi__hdr_:

; 6688 :         }
; 6689 :         c = (char)stbi__get8(z);

  000a2	48 8b 8d 20 01
	00 00		 mov	 rcx, QWORD PTR z$[rbp]
  000a9	e8 00 00 00 00	 call	 stbi__get8
  000ae	88 45 24	 mov	 BYTE PTR c$[rbp], al

; 6690 :     }

  000b1	eb 8b		 jmp	 SHORT $LN2@stbi__hdr_
$LN3@stbi__hdr_:

; 6691 : 
; 6692 :     buffer[len] = 0;

  000b3	48 63 45 04	 movsxd	 rax, DWORD PTR len$[rbp]
  000b7	48 8b 8d 28 01
	00 00		 mov	 rcx, QWORD PTR buffer$[rbp]
  000be	c6 04 01 00	 mov	 BYTE PTR [rcx+rax], 0

; 6693 :     return buffer;

  000c2	48 8b 85 28 01
	00 00		 mov	 rax, QWORD PTR buffer$[rbp]

; 6694 : }

  000c9	48 8d a5 08 01
	00 00		 lea	 rsp, QWORD PTR [rbp+264]
  000d0	5f		 pop	 rdi
  000d1	5d		 pop	 rbp
  000d2	c3		 ret	 0
stbi__hdr_gettoken ENDP
_TEXT	ENDS
; Function compile flags: /Odtp /RTCsu /ZI
; File D:\NitloadIndustry\\1-Flagship\TH2020\ProjectFile\\StgSharpC\stb_image.c
;	COMDAT stbi__hdr_test_core
_TEXT	SEGMENT
i$ = 4
s$ = 256
signature$ = 264
stbi__hdr_test_core PROC				; COMDAT

; 6653 : {

  00000	48 89 54 24 10	 mov	 QWORD PTR [rsp+16], rdx
  00005	48 89 4c 24 08	 mov	 QWORD PTR [rsp+8], rcx
  0000a	55		 push	 rbp
  0000b	57		 push	 rdi
  0000c	48 81 ec 08 01
	00 00		 sub	 rsp, 264		; 00000108H
  00013	48 8d 6c 24 20	 lea	 rbp, QWORD PTR [rsp+32]
  00018	48 8d 0d 00 00
	00 00		 lea	 rcx, OFFSET FLAT:__C5A6C9A6_stb_image@c
  0001f	e8 00 00 00 00	 call	 __CheckForDebuggerJustMyCode

; 6654 :     int i;
; 6655 :     for (i = 0; signature[i]; ++i)

  00024	c7 45 04 00 00
	00 00		 mov	 DWORD PTR i$[rbp], 0
  0002b	eb 08		 jmp	 SHORT $LN4@stbi__hdr_
$LN2@stbi__hdr_:
  0002d	8b 45 04	 mov	 eax, DWORD PTR i$[rbp]
  00030	ff c0		 inc	 eax
  00032	89 45 04	 mov	 DWORD PTR i$[rbp], eax
$LN4@stbi__hdr_:
  00035	48 63 45 04	 movsxd	 rax, DWORD PTR i$[rbp]
  00039	48 8b 8d 08 01
	00 00		 mov	 rcx, QWORD PTR signature$[rbp]
  00040	0f be 04 01	 movsx	 eax, BYTE PTR [rcx+rax]
  00044	85 c0		 test	 eax, eax
  00046	74 28		 je	 SHORT $LN3@stbi__hdr_

; 6656 :         if (stbi__get8(s) != signature[i])

  00048	48 8b 8d 00 01
	00 00		 mov	 rcx, QWORD PTR s$[rbp]
  0004f	e8 00 00 00 00	 call	 stbi__get8
  00054	0f b6 c0	 movzx	 eax, al
  00057	48 63 4d 04	 movsxd	 rcx, DWORD PTR i$[rbp]
  0005b	48 8b 95 08 01
	00 00		 mov	 rdx, QWORD PTR signature$[rbp]
  00062	0f be 0c 0a	 movsx	 ecx, BYTE PTR [rdx+rcx]
  00066	3b c1		 cmp	 eax, ecx
  00068	74 04		 je	 SHORT $LN5@stbi__hdr_

; 6657 :             return 0;

  0006a	33 c0		 xor	 eax, eax
  0006c	eb 13		 jmp	 SHORT $LN1@stbi__hdr_
$LN5@stbi__hdr_:
  0006e	eb bd		 jmp	 SHORT $LN2@stbi__hdr_
$LN3@stbi__hdr_:

; 6658 :     stbi__rewind(s);

  00070	48 8b 8d 00 01
	00 00		 mov	 rcx, QWORD PTR s$[rbp]
  00077	e8 00 00 00 00	 call	 stbi__rewind

; 6659 :     return 1;

  0007c	b8 01 00 00 00	 mov	 eax, 1
$LN1@stbi__hdr_:

; 6660 : }

  00081	48 8d a5 e8 00
	00 00		 lea	 rsp, QWORD PTR [rbp+232]
  00088	5f		 pop	 rdi
  00089	5d		 pop	 rbp
  0008a	c3		 ret	 0
stbi__hdr_test_core ENDP
_TEXT	ENDS
; Function compile flags: /Odtp /RTCsu /ZI
; File D:\NitloadIndustry\\1-Flagship\TH2020\ProjectFile\\StgSharpC\stb_image.c
;	COMDAT stbi__load_gif_main_outofmem
_TEXT	SEGMENT
tv78 = 192
g$ = 240
out$ = 248
delays$ = 256
stbi__load_gif_main_outofmem PROC			; COMDAT

; 6515 : {

  00000	4c 89 44 24 18	 mov	 QWORD PTR [rsp+24], r8
  00005	48 89 54 24 10	 mov	 QWORD PTR [rsp+16], rdx
  0000a	48 89 4c 24 08	 mov	 QWORD PTR [rsp+8], rcx
  0000f	55		 push	 rbp
  00010	57		 push	 rdi
  00011	48 81 ec f8 00
	00 00		 sub	 rsp, 248		; 000000f8H
  00018	48 8d 6c 24 20	 lea	 rbp, QWORD PTR [rsp+32]
  0001d	48 8d 0d 00 00
	00 00		 lea	 rcx, OFFSET FLAT:__C5A6C9A6_stb_image@c
  00024	e8 00 00 00 00	 call	 __CheckForDebuggerJustMyCode

; 6516 :     STBI_FREE(g->out);

  00029	48 8b 85 f0 00
	00 00		 mov	 rax, QWORD PTR g$[rbp]
  00030	48 8b 48 08	 mov	 rcx, QWORD PTR [rax+8]
  00034	ff 15 00 00 00
	00		 call	 QWORD PTR __imp_free

; 6517 :     STBI_FREE(g->history);

  0003a	48 8b 85 f0 00
	00 00		 mov	 rax, QWORD PTR g$[rbp]
  00041	48 8b 48 18	 mov	 rcx, QWORD PTR [rax+24]
  00045	ff 15 00 00 00
	00		 call	 QWORD PTR __imp_free

; 6518 :     STBI_FREE(g->background);

  0004b	48 8b 85 f0 00
	00 00		 mov	 rax, QWORD PTR g$[rbp]
  00052	48 8b 48 10	 mov	 rcx, QWORD PTR [rax+16]
  00056	ff 15 00 00 00
	00		 call	 QWORD PTR __imp_free

; 6519 : 
; 6520 :     if (out) STBI_FREE(out);

  0005c	48 83 bd f8 00
	00 00 00	 cmp	 QWORD PTR out$[rbp], 0
  00064	74 0d		 je	 SHORT $LN2@stbi__load
  00066	48 8b 8d f8 00
	00 00		 mov	 rcx, QWORD PTR out$[rbp]
  0006d	ff 15 00 00 00
	00		 call	 QWORD PTR __imp_free
$LN2@stbi__load:

; 6521 :     if (delays && *delays) STBI_FREE(*delays);

  00073	48 83 bd 00 01
	00 00 00	 cmp	 QWORD PTR delays$[rbp], 0
  0007b	74 1d		 je	 SHORT $LN3@stbi__load
  0007d	48 8b 85 00 01
	00 00		 mov	 rax, QWORD PTR delays$[rbp]
  00084	48 83 38 00	 cmp	 QWORD PTR [rax], 0
  00088	74 10		 je	 SHORT $LN3@stbi__load
  0008a	48 8b 85 00 01
	00 00		 mov	 rax, QWORD PTR delays$[rbp]
  00091	48 8b 08	 mov	 rcx, QWORD PTR [rax]
  00094	ff 15 00 00 00
	00		 call	 QWORD PTR __imp_free
$LN3@stbi__load:

; 6522 :     return stbi__errpuc("outofmem", "Out of memory");

  0009a	48 8d 0d 00 00
	00 00		 lea	 rcx, OFFSET FLAT:??_C@_08NOGIMCHF@outofmem@
  000a1	e8 00 00 00 00	 call	 stbi__err
  000a6	85 c0		 test	 eax, eax
  000a8	74 0d		 je	 SHORT $LN5@stbi__load
  000aa	48 c7 85 c0 00
	00 00 00 00 00
	00		 mov	 QWORD PTR tv78[rbp], 0
  000b5	eb 0b		 jmp	 SHORT $LN6@stbi__load
$LN5@stbi__load:
  000b7	48 c7 85 c0 00
	00 00 00 00 00
	00		 mov	 QWORD PTR tv78[rbp], 0
$LN6@stbi__load:
  000c2	48 8b 85 c0 00
	00 00		 mov	 rax, QWORD PTR tv78[rbp]

; 6523 : }

  000c9	48 8d a5 d8 00
	00 00		 lea	 rsp, QWORD PTR [rbp+216]
  000d0	5f		 pop	 rdi
  000d1	5d		 pop	 rbp
  000d2	c3		 ret	 0
stbi__load_gif_main_outofmem ENDP
_TEXT	ENDS
; Function compile flags: /Odtp /RTCsu /ZI
; File D:\NitloadIndustry\\1-Flagship\TH2020\ProjectFile\\StgSharpC\stb_image.c
;	COMDAT stbi__gif_load_next
_TEXT	SEGMENT
dispose$ = 4
first_frame$ = 36
pi$ = 68
pcount$ = 100
tag$1 = 132
x$2 = 164
y$3 = 196
w$4 = 228
h$5 = 260
o$6 = 296
len$7 = 324
ext$8 = 356
tv296 = 564
tv232 = 564
tv578 = 568
tv409 = 568
tv315 = 568
tv250 = 568
tv142 = 568
tv83 = 568
s$ = 608
g$ = 616
comp$ = 624
req_comp$ = 632
two_back$ = 640
stbi__gif_load_next PROC				; COMDAT

; 6333 : {

  00000	44 89 4c 24 20	 mov	 DWORD PTR [rsp+32], r9d
  00005	4c 89 44 24 18	 mov	 QWORD PTR [rsp+24], r8
  0000a	48 89 54 24 10	 mov	 QWORD PTR [rsp+16], rdx
  0000f	48 89 4c 24 08	 mov	 QWORD PTR [rsp+8], rcx
  00014	55		 push	 rbp
  00015	57		 push	 rdi
  00016	48 81 ec 68 02
	00 00		 sub	 rsp, 616		; 00000268H
  0001d	48 8d 6c 24 20	 lea	 rbp, QWORD PTR [rsp+32]
  00022	48 8d 0d 00 00
	00 00		 lea	 rcx, OFFSET FLAT:__C5A6C9A6_stb_image@c
  00029	e8 00 00 00 00	 call	 __CheckForDebuggerJustMyCode

; 6334 :     int dispose;
; 6335 :     int first_frame;
; 6336 :     int pi;
; 6337 :     int pcount;
; 6338 :     STBI_NOTUSED(req_comp);
; 6339 : 
; 6340 :     // on first frame, any non-written pixels get the background colour (non-transparent)
; 6341 :     first_frame = 0;

  0002e	c7 45 24 00 00
	00 00		 mov	 DWORD PTR first_frame$[rbp], 0

; 6342 :     if (g->out == 0) {

  00035	48 8b 85 68 02
	00 00		 mov	 rax, QWORD PTR g$[rbp]
  0003c	48 83 78 08 00	 cmp	 QWORD PTR [rax+8], 0
  00041	0f 85 a2 01 00
	00		 jne	 $LN18@stbi__gif_

; 6343 :         if (!stbi__gif_header(s, g, comp, 0)) return 0; // stbi__g_failure_reason set by stbi__gif_header

  00047	45 33 c9	 xor	 r9d, r9d
  0004a	4c 8b 85 70 02
	00 00		 mov	 r8, QWORD PTR comp$[rbp]
  00051	48 8b 95 68 02
	00 00		 mov	 rdx, QWORD PTR g$[rbp]
  00058	48 8b 8d 60 02
	00 00		 mov	 rcx, QWORD PTR s$[rbp]
  0005f	e8 00 00 00 00	 call	 stbi__gif_header
  00064	85 c0		 test	 eax, eax
  00066	75 07		 jne	 SHORT $LN20@stbi__gif_
  00068	33 c0		 xor	 eax, eax
  0006a	e9 56 09 00 00	 jmp	 $LN1@stbi__gif_
$LN20@stbi__gif_:

; 6344 :         if (!stbi__mad3sizes_valid(4, g->w, g->h, 0))

  0006f	45 33 c9	 xor	 r9d, r9d
  00072	48 8b 85 68 02
	00 00		 mov	 rax, QWORD PTR g$[rbp]
  00079	44 8b 40 04	 mov	 r8d, DWORD PTR [rax+4]
  0007d	48 8b 85 68 02
	00 00		 mov	 rax, QWORD PTR g$[rbp]
  00084	8b 10		 mov	 edx, DWORD PTR [rax]
  00086	b9 04 00 00 00	 mov	 ecx, 4
  0008b	e8 00 00 00 00	 call	 stbi__mad3sizes_valid
  00090	85 c0		 test	 eax, eax
  00092	75 34		 jne	 SHORT $LN21@stbi__gif_

; 6345 :             return stbi__errpuc("too large", "GIF image is too large");

  00094	48 8d 0d 00 00
	00 00		 lea	 rcx, OFFSET FLAT:??_C@_09OJDLMMBJ@too?5large@
  0009b	e8 00 00 00 00	 call	 stbi__err
  000a0	85 c0		 test	 eax, eax
  000a2	74 0d		 je	 SHORT $LN55@stbi__gif_
  000a4	48 c7 85 38 02
	00 00 00 00 00
	00		 mov	 QWORD PTR tv83[rbp], 0
  000af	eb 0b		 jmp	 SHORT $LN56@stbi__gif_
$LN55@stbi__gif_:
  000b1	48 c7 85 38 02
	00 00 00 00 00
	00		 mov	 QWORD PTR tv83[rbp], 0
$LN56@stbi__gif_:
  000bc	48 8b 85 38 02
	00 00		 mov	 rax, QWORD PTR tv83[rbp]
  000c3	e9 fd 08 00 00	 jmp	 $LN1@stbi__gif_
$LN21@stbi__gif_:

; 6346 :         pcount = g->w * g->h;

  000c8	48 8b 85 68 02
	00 00		 mov	 rax, QWORD PTR g$[rbp]
  000cf	48 8b 8d 68 02
	00 00		 mov	 rcx, QWORD PTR g$[rbp]
  000d6	8b 00		 mov	 eax, DWORD PTR [rax]
  000d8	0f af 41 04	 imul	 eax, DWORD PTR [rcx+4]
  000dc	89 45 64	 mov	 DWORD PTR pcount$[rbp], eax

; 6347 :         g->out = (stbi_uc*)stbi__malloc(4 * pcount);

  000df	8b 45 64	 mov	 eax, DWORD PTR pcount$[rbp]
  000e2	c1 e0 02	 shl	 eax, 2
  000e5	48 98		 cdqe
  000e7	48 8b c8	 mov	 rcx, rax
  000ea	e8 00 00 00 00	 call	 stbi__malloc
  000ef	48 8b 8d 68 02
	00 00		 mov	 rcx, QWORD PTR g$[rbp]
  000f6	48 89 41 08	 mov	 QWORD PTR [rcx+8], rax

; 6348 :         g->background = (stbi_uc*)stbi__malloc(4 * pcount);

  000fa	8b 45 64	 mov	 eax, DWORD PTR pcount$[rbp]
  000fd	c1 e0 02	 shl	 eax, 2
  00100	48 98		 cdqe
  00102	48 8b c8	 mov	 rcx, rax
  00105	e8 00 00 00 00	 call	 stbi__malloc
  0010a	48 8b 8d 68 02
	00 00		 mov	 rcx, QWORD PTR g$[rbp]
  00111	48 89 41 10	 mov	 QWORD PTR [rcx+16], rax

; 6349 :         g->history = (stbi_uc*)stbi__malloc(pcount);

  00115	48 63 45 64	 movsxd	 rax, DWORD PTR pcount$[rbp]
  00119	48 8b c8	 mov	 rcx, rax
  0011c	e8 00 00 00 00	 call	 stbi__malloc
  00121	48 8b 8d 68 02
	00 00		 mov	 rcx, QWORD PTR g$[rbp]
  00128	48 89 41 18	 mov	 QWORD PTR [rcx+24], rax

; 6350 :         if (!g->out || !g->background || !g->history)

  0012c	48 8b 85 68 02
	00 00		 mov	 rax, QWORD PTR g$[rbp]
  00133	48 83 78 08 00	 cmp	 QWORD PTR [rax+8], 0
  00138	74 1c		 je	 SHORT $LN23@stbi__gif_
  0013a	48 8b 85 68 02
	00 00		 mov	 rax, QWORD PTR g$[rbp]
  00141	48 83 78 10 00	 cmp	 QWORD PTR [rax+16], 0
  00146	74 0e		 je	 SHORT $LN23@stbi__gif_
  00148	48 8b 85 68 02
	00 00		 mov	 rax, QWORD PTR g$[rbp]
  0014f	48 83 78 18 00	 cmp	 QWORD PTR [rax+24], 0
  00154	75 34		 jne	 SHORT $LN22@stbi__gif_
$LN23@stbi__gif_:

; 6351 :             return stbi__errpuc("outofmem", "Out of memory");

  00156	48 8d 0d 00 00
	00 00		 lea	 rcx, OFFSET FLAT:??_C@_08NOGIMCHF@outofmem@
  0015d	e8 00 00 00 00	 call	 stbi__err
  00162	85 c0		 test	 eax, eax
  00164	74 0d		 je	 SHORT $LN57@stbi__gif_
  00166	48 c7 85 38 02
	00 00 00 00 00
	00		 mov	 QWORD PTR tv142[rbp], 0
  00171	eb 0b		 jmp	 SHORT $LN58@stbi__gif_
$LN57@stbi__gif_:
  00173	48 c7 85 38 02
	00 00 00 00 00
	00		 mov	 QWORD PTR tv142[rbp], 0
$LN58@stbi__gif_:
  0017e	48 8b 85 38 02
	00 00		 mov	 rax, QWORD PTR tv142[rbp]
  00185	e9 3b 08 00 00	 jmp	 $LN1@stbi__gif_
$LN22@stbi__gif_:

; 6352 : 
; 6353 :         // image is treated as "transparent" at the start - ie, nothing overwrites the current background;
; 6354 :         // background colour is only used for pixels that are not rendered first frame, after that "background"
; 6355 :         // color refers to the color that was there the previous frame.
; 6356 :         memset(g->out, 0x00, 4 * pcount);

  0018a	8b 45 64	 mov	 eax, DWORD PTR pcount$[rbp]
  0018d	c1 e0 02	 shl	 eax, 2
  00190	48 98		 cdqe
  00192	4c 8b c0	 mov	 r8, rax
  00195	33 d2		 xor	 edx, edx
  00197	48 8b 85 68 02
	00 00		 mov	 rax, QWORD PTR g$[rbp]
  0019e	48 8b 48 08	 mov	 rcx, QWORD PTR [rax+8]
  001a2	e8 00 00 00 00	 call	 memset

; 6357 :         memset(g->background, 0x00, 4 * pcount); // state of the background (starts transparent)

  001a7	8b 45 64	 mov	 eax, DWORD PTR pcount$[rbp]
  001aa	c1 e0 02	 shl	 eax, 2
  001ad	48 98		 cdqe
  001af	4c 8b c0	 mov	 r8, rax
  001b2	33 d2		 xor	 edx, edx
  001b4	48 8b 85 68 02
	00 00		 mov	 rax, QWORD PTR g$[rbp]
  001bb	48 8b 48 10	 mov	 rcx, QWORD PTR [rax+16]
  001bf	e8 00 00 00 00	 call	 memset

; 6358 :         memset(g->history, 0x00, pcount);        // pixels that were affected previous frame

  001c4	48 63 45 64	 movsxd	 rax, DWORD PTR pcount$[rbp]
  001c8	4c 8b c0	 mov	 r8, rax
  001cb	33 d2		 xor	 edx, edx
  001cd	48 8b 85 68 02
	00 00		 mov	 rax, QWORD PTR g$[rbp]
  001d4	48 8b 48 18	 mov	 rcx, QWORD PTR [rax+24]
  001d8	e8 00 00 00 00	 call	 memset

; 6359 :         first_frame = 1;

  001dd	c7 45 24 01 00
	00 00		 mov	 DWORD PTR first_frame$[rbp], 1

; 6360 :     }

  001e4	e9 68 01 00 00	 jmp	 $LN19@stbi__gif_
$LN18@stbi__gif_:

; 6361 :     else {
; 6362 :         // second frame - how do we dispose of the previous one?
; 6363 :         dispose = (g->eflags & 0x1C) >> 2;

  001e9	48 8b 85 68 02
	00 00		 mov	 rax, QWORD PTR g$[rbp]
  001f0	8b 40 30	 mov	 eax, DWORD PTR [rax+48]
  001f3	83 e0 1c	 and	 eax, 28
  001f6	c1 f8 02	 sar	 eax, 2
  001f9	89 45 04	 mov	 DWORD PTR dispose$[rbp], eax

; 6364 :         pcount = g->w * g->h;

  001fc	48 8b 85 68 02
	00 00		 mov	 rax, QWORD PTR g$[rbp]
  00203	48 8b 8d 68 02
	00 00		 mov	 rcx, QWORD PTR g$[rbp]
  0020a	8b 00		 mov	 eax, DWORD PTR [rax]
  0020c	0f af 41 04	 imul	 eax, DWORD PTR [rcx+4]
  00210	89 45 64	 mov	 DWORD PTR pcount$[rbp], eax

; 6365 : 
; 6366 :         if ((dispose == 3) && (two_back == 0)) {

  00213	83 7d 04 03	 cmp	 DWORD PTR dispose$[rbp], 3
  00217	75 11		 jne	 SHORT $LN24@stbi__gif_
  00219	48 83 bd 80 02
	00 00 00	 cmp	 QWORD PTR two_back$[rbp], 0
  00221	75 07		 jne	 SHORT $LN24@stbi__gif_

; 6367 :             dispose = 2; // if I don't have an image to revert back to, default to the old background

  00223	c7 45 04 02 00
	00 00		 mov	 DWORD PTR dispose$[rbp], 2
$LN24@stbi__gif_:

; 6368 :         }
; 6369 : 
; 6370 :         if (dispose == 3) { // use previous graphic

  0022a	83 7d 04 03	 cmp	 DWORD PTR dispose$[rbp], 3
  0022e	75 71		 jne	 SHORT $LN25@stbi__gif_

; 6371 :             for (pi = 0; pi < pcount; ++pi) {

  00230	c7 45 44 00 00
	00 00		 mov	 DWORD PTR pi$[rbp], 0
  00237	eb 08		 jmp	 SHORT $LN4@stbi__gif_
$LN2@stbi__gif_:
  00239	8b 45 44	 mov	 eax, DWORD PTR pi$[rbp]
  0023c	ff c0		 inc	 eax
  0023e	89 45 44	 mov	 DWORD PTR pi$[rbp], eax
$LN4@stbi__gif_:
  00241	8b 45 64	 mov	 eax, DWORD PTR pcount$[rbp]
  00244	39 45 44	 cmp	 DWORD PTR pi$[rbp], eax
  00247	7d 56		 jge	 SHORT $LN3@stbi__gif_

; 6372 :                 if (g->history[pi]) {

  00249	48 63 45 44	 movsxd	 rax, DWORD PTR pi$[rbp]
  0024d	48 8b 8d 68 02
	00 00		 mov	 rcx, QWORD PTR g$[rbp]
  00254	48 8b 49 18	 mov	 rcx, QWORD PTR [rcx+24]
  00258	0f b6 04 01	 movzx	 eax, BYTE PTR [rcx+rax]
  0025c	85 c0		 test	 eax, eax
  0025e	74 3d		 je	 SHORT $LN27@stbi__gif_

; 6373 :                     memcpy(&g->out[pi * 4], &two_back[pi * 4], 4);

  00260	8b 45 44	 mov	 eax, DWORD PTR pi$[rbp]
  00263	c1 e0 02	 shl	 eax, 2
  00266	48 98		 cdqe
  00268	48 8b 8d 80 02
	00 00		 mov	 rcx, QWORD PTR two_back$[rbp]
  0026f	48 03 c8	 add	 rcx, rax
  00272	48 8b c1	 mov	 rax, rcx
  00275	8b 4d 44	 mov	 ecx, DWORD PTR pi$[rbp]
  00278	c1 e1 02	 shl	 ecx, 2
  0027b	48 63 c9	 movsxd	 rcx, ecx
  0027e	48 8b 95 68 02
	00 00		 mov	 rdx, QWORD PTR g$[rbp]
  00285	48 8b 52 08	 mov	 rdx, QWORD PTR [rdx+8]
  00289	48 03 d1	 add	 rdx, rcx
  0028c	48 8b ca	 mov	 rcx, rdx
  0028f	41 b8 04 00 00
	00		 mov	 r8d, 4
  00295	48 8b d0	 mov	 rdx, rax
  00298	e8 00 00 00 00	 call	 memcpy
$LN27@stbi__gif_:

; 6374 :                 }
; 6375 :             }

  0029d	eb 9a		 jmp	 SHORT $LN2@stbi__gif_
$LN3@stbi__gif_:

; 6376 :         }

  0029f	eb 79		 jmp	 SHORT $LN26@stbi__gif_
$LN25@stbi__gif_:

; 6377 :         else if (dispose == 2) {

  002a1	83 7d 04 02	 cmp	 DWORD PTR dispose$[rbp], 2
  002a5	75 73		 jne	 SHORT $LN28@stbi__gif_

; 6378 :             // restore what was changed last frame to background before that frame;
; 6379 :             for (pi = 0; pi < pcount; ++pi) {

  002a7	c7 45 44 00 00
	00 00		 mov	 DWORD PTR pi$[rbp], 0
  002ae	eb 08		 jmp	 SHORT $LN7@stbi__gif_
$LN5@stbi__gif_:
  002b0	8b 45 44	 mov	 eax, DWORD PTR pi$[rbp]
  002b3	ff c0		 inc	 eax
  002b5	89 45 44	 mov	 DWORD PTR pi$[rbp], eax
$LN7@stbi__gif_:
  002b8	8b 45 64	 mov	 eax, DWORD PTR pcount$[rbp]
  002bb	39 45 44	 cmp	 DWORD PTR pi$[rbp], eax
  002be	7d 5a		 jge	 SHORT $LN6@stbi__gif_

; 6380 :                 if (g->history[pi]) {

  002c0	48 63 45 44	 movsxd	 rax, DWORD PTR pi$[rbp]
  002c4	48 8b 8d 68 02
	00 00		 mov	 rcx, QWORD PTR g$[rbp]
  002cb	48 8b 49 18	 mov	 rcx, QWORD PTR [rcx+24]
  002cf	0f b6 04 01	 movzx	 eax, BYTE PTR [rcx+rax]
  002d3	85 c0		 test	 eax, eax
  002d5	74 41		 je	 SHORT $LN30@stbi__gif_

; 6381 :                     memcpy(&g->out[pi * 4], &g->background[pi * 4], 4);

  002d7	8b 45 44	 mov	 eax, DWORD PTR pi$[rbp]
  002da	c1 e0 02	 shl	 eax, 2
  002dd	48 98		 cdqe
  002df	48 8b 8d 68 02
	00 00		 mov	 rcx, QWORD PTR g$[rbp]
  002e6	48 8b 49 10	 mov	 rcx, QWORD PTR [rcx+16]
  002ea	48 03 c8	 add	 rcx, rax
  002ed	48 8b c1	 mov	 rax, rcx
  002f0	8b 4d 44	 mov	 ecx, DWORD PTR pi$[rbp]
  002f3	c1 e1 02	 shl	 ecx, 2
  002f6	48 63 c9	 movsxd	 rcx, ecx
  002f9	48 8b 95 68 02
	00 00		 mov	 rdx, QWORD PTR g$[rbp]
  00300	48 8b 52 08	 mov	 rdx, QWORD PTR [rdx+8]
  00304	48 03 d1	 add	 rdx, rcx
  00307	48 8b ca	 mov	 rcx, rdx
  0030a	41 b8 04 00 00
	00		 mov	 r8d, 4
  00310	48 8b d0	 mov	 rdx, rax
  00313	e8 00 00 00 00	 call	 memcpy
$LN30@stbi__gif_:

; 6382 :                 }
; 6383 :             }

  00318	eb 96		 jmp	 SHORT $LN5@stbi__gif_
$LN6@stbi__gif_:
$LN28@stbi__gif_:
$LN26@stbi__gif_:

; 6384 :         }
; 6385 :         else {
; 6386 :             // This is a non-disposal case eithe way, so just
; 6387 :             // leave the pixels as is, and they will become the new background
; 6388 :             // 1: do not dispose
; 6389 :             // 0:  not specified.
; 6390 :         }
; 6391 : 
; 6392 :         // background is what out is after the undoing of the previou frame;
; 6393 :         memcpy(g->background, g->out, 4 * g->w * g->h);

  0031a	48 8b 85 68 02
	00 00		 mov	 rax, QWORD PTR g$[rbp]
  00321	8b 00		 mov	 eax, DWORD PTR [rax]
  00323	c1 e0 02	 shl	 eax, 2
  00326	48 8b 8d 68 02
	00 00		 mov	 rcx, QWORD PTR g$[rbp]
  0032d	0f af 41 04	 imul	 eax, DWORD PTR [rcx+4]
  00331	48 98		 cdqe
  00333	4c 8b c0	 mov	 r8, rax
  00336	48 8b 85 68 02
	00 00		 mov	 rax, QWORD PTR g$[rbp]
  0033d	48 8b 50 08	 mov	 rdx, QWORD PTR [rax+8]
  00341	48 8b 85 68 02
	00 00		 mov	 rax, QWORD PTR g$[rbp]
  00348	48 8b 48 10	 mov	 rcx, QWORD PTR [rax+16]
  0034c	e8 00 00 00 00	 call	 memcpy
$LN19@stbi__gif_:

; 6394 :     }
; 6395 : 
; 6396 :     // clear my history;
; 6397 :     memset(g->history, 0x00, g->w * g->h);        // pixels that were affected previous frame

  00351	48 8b 85 68 02
	00 00		 mov	 rax, QWORD PTR g$[rbp]
  00358	48 8b 8d 68 02
	00 00		 mov	 rcx, QWORD PTR g$[rbp]
  0035f	8b 00		 mov	 eax, DWORD PTR [rax]
  00361	0f af 41 04	 imul	 eax, DWORD PTR [rcx+4]
  00365	48 98		 cdqe
  00367	4c 8b c0	 mov	 r8, rax
  0036a	33 d2		 xor	 edx, edx
  0036c	48 8b 85 68 02
	00 00		 mov	 rax, QWORD PTR g$[rbp]
  00373	48 8b 48 18	 mov	 rcx, QWORD PTR [rax+24]
  00377	e8 00 00 00 00	 call	 memset
$LN8@stbi__gif_:

; 6398 : 
; 6399 :     for (;;) {
; 6400 :         int tag = stbi__get8(s);

  0037c	48 8b 8d 60 02
	00 00		 mov	 rcx, QWORD PTR s$[rbp]
  00383	e8 00 00 00 00	 call	 stbi__get8
  00388	0f b6 c0	 movzx	 eax, al
  0038b	89 85 84 00 00
	00		 mov	 DWORD PTR tag$1[rbp], eax

; 6401 :         switch (tag) {

  00391	8b 85 84 00 00
	00		 mov	 eax, DWORD PTR tag$1[rbp]
  00397	89 85 34 02 00
	00		 mov	 DWORD PTR tv232[rbp], eax
  0039d	83 bd 34 02 00
	00 21		 cmp	 DWORD PTR tv232[rbp], 33 ; 00000021H
  003a4	0f 84 69 04 00
	00		 je	 $LN44@stbi__gif_
  003aa	83 bd 34 02 00
	00 2c		 cmp	 DWORD PTR tv232[rbp], 44 ; 0000002cH
  003b1	74 12		 je	 SHORT $LN31@stbi__gif_
  003b3	83 bd 34 02 00
	00 3b		 cmp	 DWORD PTR tv232[rbp], 59 ; 0000003bH
  003ba	0f 84 c6 05 00
	00		 je	 $LN52@stbi__gif_
  003c0	e9 ca 05 00 00	 jmp	 $LN53@stbi__gif_
$LN31@stbi__gif_:

; 6402 :         case 0x2C: /* Image Descriptor */
; 6403 :         {
; 6404 :             stbi__int32 x, y, w, h;
; 6405 :             stbi_uc* o;
; 6406 : 
; 6407 :             x = stbi__get16le(s);

  003c5	48 8b 8d 60 02
	00 00		 mov	 rcx, QWORD PTR s$[rbp]
  003cc	e8 00 00 00 00	 call	 stbi__get16le
  003d1	89 85 a4 00 00
	00		 mov	 DWORD PTR x$2[rbp], eax

; 6408 :             y = stbi__get16le(s);

  003d7	48 8b 8d 60 02
	00 00		 mov	 rcx, QWORD PTR s$[rbp]
  003de	e8 00 00 00 00	 call	 stbi__get16le
  003e3	89 85 c4 00 00
	00		 mov	 DWORD PTR y$3[rbp], eax

; 6409 :             w = stbi__get16le(s);

  003e9	48 8b 8d 60 02
	00 00		 mov	 rcx, QWORD PTR s$[rbp]
  003f0	e8 00 00 00 00	 call	 stbi__get16le
  003f5	89 85 e4 00 00
	00		 mov	 DWORD PTR w$4[rbp], eax

; 6410 :             h = stbi__get16le(s);

  003fb	48 8b 8d 60 02
	00 00		 mov	 rcx, QWORD PTR s$[rbp]
  00402	e8 00 00 00 00	 call	 stbi__get16le
  00407	89 85 04 01 00
	00		 mov	 DWORD PTR h$5[rbp], eax

; 6411 :             if (((x + w) > (g->w)) || ((y + h) > (g->h)))

  0040d	8b 85 e4 00 00
	00		 mov	 eax, DWORD PTR w$4[rbp]
  00413	8b 8d a4 00 00
	00		 mov	 ecx, DWORD PTR x$2[rbp]
  00419	03 c8		 add	 ecx, eax
  0041b	8b c1		 mov	 eax, ecx
  0041d	48 8b 8d 68 02
	00 00		 mov	 rcx, QWORD PTR g$[rbp]
  00424	3b 01		 cmp	 eax, DWORD PTR [rcx]
  00426	7f 1c		 jg	 SHORT $LN33@stbi__gif_
  00428	8b 85 04 01 00
	00		 mov	 eax, DWORD PTR h$5[rbp]
  0042e	8b 8d c4 00 00
	00		 mov	 ecx, DWORD PTR y$3[rbp]
  00434	03 c8		 add	 ecx, eax
  00436	8b c1		 mov	 eax, ecx
  00438	48 8b 8d 68 02
	00 00		 mov	 rcx, QWORD PTR g$[rbp]
  0043f	3b 41 04	 cmp	 eax, DWORD PTR [rcx+4]
  00442	7e 34		 jle	 SHORT $LN32@stbi__gif_
$LN33@stbi__gif_:

; 6412 :                 return stbi__errpuc("bad Image Descriptor", "Corrupt GIF");

  00444	48 8d 0d 00 00
	00 00		 lea	 rcx, OFFSET FLAT:??_C@_0BF@GIAALCNJ@bad?5Image?5Descriptor@
  0044b	e8 00 00 00 00	 call	 stbi__err
  00450	85 c0		 test	 eax, eax
  00452	74 0d		 je	 SHORT $LN59@stbi__gif_
  00454	48 c7 85 38 02
	00 00 00 00 00
	00		 mov	 QWORD PTR tv250[rbp], 0
  0045f	eb 0b		 jmp	 SHORT $LN60@stbi__gif_
$LN59@stbi__gif_:
  00461	48 c7 85 38 02
	00 00 00 00 00
	00		 mov	 QWORD PTR tv250[rbp], 0
$LN60@stbi__gif_:
  0046c	48 8b 85 38 02
	00 00		 mov	 rax, QWORD PTR tv250[rbp]
  00473	e9 4d 05 00 00	 jmp	 $LN1@stbi__gif_
$LN32@stbi__gif_:

; 6413 : 
; 6414 :             g->line_size = g->w * 4;

  00478	48 8b 85 68 02
	00 00		 mov	 rax, QWORD PTR g$[rbp]
  0047f	8b 00		 mov	 eax, DWORD PTR [rax]
  00481	c1 e0 02	 shl	 eax, 2
  00484	48 8b 8d 68 02
	00 00		 mov	 rcx, QWORD PTR g$[rbp]
  0048b	89 81 64 88 00
	00		 mov	 DWORD PTR [rcx+34916], eax

; 6415 :             g->start_x = x * 4;

  00491	8b 85 a4 00 00
	00		 mov	 eax, DWORD PTR x$2[rbp]
  00497	c1 e0 02	 shl	 eax, 2
  0049a	48 8b 8d 68 02
	00 00		 mov	 rcx, QWORD PTR g$[rbp]
  004a1	89 81 4c 88 00
	00		 mov	 DWORD PTR [rcx+34892], eax

; 6416 :             g->start_y = y * g->line_size;

  004a7	48 8b 85 68 02
	00 00		 mov	 rax, QWORD PTR g$[rbp]
  004ae	8b 8d c4 00 00
	00		 mov	 ecx, DWORD PTR y$3[rbp]
  004b4	0f af 88 64 88
	00 00		 imul	 ecx, DWORD PTR [rax+34916]
  004bb	8b c1		 mov	 eax, ecx
  004bd	48 8b 8d 68 02
	00 00		 mov	 rcx, QWORD PTR g$[rbp]
  004c4	89 81 50 88 00
	00		 mov	 DWORD PTR [rcx+34896], eax

; 6417 :             g->max_x = g->start_x + w * 4;

  004ca	48 8b 85 68 02
	00 00		 mov	 rax, QWORD PTR g$[rbp]
  004d1	8b 80 4c 88 00
	00		 mov	 eax, DWORD PTR [rax+34892]
  004d7	8b 8d e4 00 00
	00		 mov	 ecx, DWORD PTR w$4[rbp]
  004dd	8d 04 88	 lea	 eax, DWORD PTR [rax+rcx*4]
  004e0	48 8b 8d 68 02
	00 00		 mov	 rcx, QWORD PTR g$[rbp]
  004e7	89 81 54 88 00
	00		 mov	 DWORD PTR [rcx+34900], eax

; 6418 :             g->max_y = g->start_y + h * g->line_size;

  004ed	48 8b 85 68 02
	00 00		 mov	 rax, QWORD PTR g$[rbp]
  004f4	8b 8d 04 01 00
	00		 mov	 ecx, DWORD PTR h$5[rbp]
  004fa	0f af 88 64 88
	00 00		 imul	 ecx, DWORD PTR [rax+34916]
  00501	8b c1		 mov	 eax, ecx
  00503	48 8b 8d 68 02
	00 00		 mov	 rcx, QWORD PTR g$[rbp]
  0050a	03 81 50 88 00
	00		 add	 eax, DWORD PTR [rcx+34896]
  00510	48 8b 8d 68 02
	00 00		 mov	 rcx, QWORD PTR g$[rbp]
  00517	89 81 58 88 00
	00		 mov	 DWORD PTR [rcx+34904], eax

; 6419 :             g->cur_x = g->start_x;

  0051d	48 8b 85 68 02
	00 00		 mov	 rax, QWORD PTR g$[rbp]
  00524	48 8b 8d 68 02
	00 00		 mov	 rcx, QWORD PTR g$[rbp]
  0052b	8b 89 4c 88 00
	00		 mov	 ecx, DWORD PTR [rcx+34892]
  00531	89 88 5c 88 00
	00		 mov	 DWORD PTR [rax+34908], ecx

; 6420 :             g->cur_y = g->start_y;

  00537	48 8b 85 68 02
	00 00		 mov	 rax, QWORD PTR g$[rbp]
  0053e	48 8b 8d 68 02
	00 00		 mov	 rcx, QWORD PTR g$[rbp]
  00545	8b 89 50 88 00
	00		 mov	 ecx, DWORD PTR [rcx+34896]
  0054b	89 88 60 88 00
	00		 mov	 DWORD PTR [rax+34912], ecx

; 6421 : 
; 6422 :             // if the width of the specified rectangle is 0, that means
; 6423 :             // we may not see *any* pixels or the image is malformed;
; 6424 :             // to make sure this is caught, move the current y down to
; 6425 :             // max_y (which is what out_gif_code checks).
; 6426 :             if (w == 0)

  00551	83 bd e4 00 00
	00 00		 cmp	 DWORD PTR w$4[rbp], 0
  00558	75 1a		 jne	 SHORT $LN34@stbi__gif_

; 6427 :                 g->cur_y = g->max_y;

  0055a	48 8b 85 68 02
	00 00		 mov	 rax, QWORD PTR g$[rbp]
  00561	48 8b 8d 68 02
	00 00		 mov	 rcx, QWORD PTR g$[rbp]
  00568	8b 89 58 88 00
	00		 mov	 ecx, DWORD PTR [rcx+34904]
  0056e	89 88 60 88 00
	00		 mov	 DWORD PTR [rax+34912], ecx
$LN34@stbi__gif_:

; 6428 : 
; 6429 :             g->lflags = stbi__get8(s);

  00574	48 8b 8d 60 02
	00 00		 mov	 rcx, QWORD PTR s$[rbp]
  0057b	e8 00 00 00 00	 call	 stbi__get8
  00580	0f b6 c0	 movzx	 eax, al
  00583	48 8b 8d 68 02
	00 00		 mov	 rcx, QWORD PTR g$[rbp]
  0058a	89 81 48 88 00
	00		 mov	 DWORD PTR [rcx+34888], eax

; 6430 : 
; 6431 :             if (g->lflags & 0x40) {

  00590	48 8b 85 68 02
	00 00		 mov	 rax, QWORD PTR g$[rbp]
  00597	8b 80 48 88 00
	00		 mov	 eax, DWORD PTR [rax+34888]
  0059d	83 e0 40	 and	 eax, 64			; 00000040H
  005a0	85 c0		 test	 eax, eax
  005a2	74 30		 je	 SHORT $LN35@stbi__gif_

; 6432 :                 g->step = 8 * g->line_size; // first interlaced spacing

  005a4	48 8b 85 68 02
	00 00		 mov	 rax, QWORD PTR g$[rbp]
  005ab	8b 80 64 88 00
	00		 mov	 eax, DWORD PTR [rax+34916]
  005b1	c1 e0 03	 shl	 eax, 3
  005b4	48 8b 8d 68 02
	00 00		 mov	 rcx, QWORD PTR g$[rbp]
  005bb	89 81 44 88 00
	00		 mov	 DWORD PTR [rcx+34884], eax

; 6433 :                 g->parse = 3;

  005c1	48 8b 85 68 02
	00 00		 mov	 rax, QWORD PTR g$[rbp]
  005c8	c7 80 40 88 00
	00 03 00 00 00	 mov	 DWORD PTR [rax+34880], 3

; 6434 :             }

  005d2	eb 2b		 jmp	 SHORT $LN36@stbi__gif_
$LN35@stbi__gif_:

; 6435 :             else {
; 6436 :                 g->step = g->line_size;

  005d4	48 8b 85 68 02
	00 00		 mov	 rax, QWORD PTR g$[rbp]
  005db	48 8b 8d 68 02
	00 00		 mov	 rcx, QWORD PTR g$[rbp]
  005e2	8b 89 64 88 00
	00		 mov	 ecx, DWORD PTR [rcx+34916]
  005e8	89 88 44 88 00
	00		 mov	 DWORD PTR [rax+34884], ecx

; 6437 :                 g->parse = 0;

  005ee	48 8b 85 68 02
	00 00		 mov	 rax, QWORD PTR g$[rbp]
  005f5	c7 80 40 88 00
	00 00 00 00 00	 mov	 DWORD PTR [rax+34880], 0
$LN36@stbi__gif_:

; 6438 :             }
; 6439 : 
; 6440 :             if (g->lflags & 0x80) {

  005ff	48 8b 85 68 02
	00 00		 mov	 rax, QWORD PTR g$[rbp]
  00606	8b 80 48 88 00
	00		 mov	 eax, DWORD PTR [rax+34888]
  0060c	25 80 00 00 00	 and	 eax, 128		; 00000080H
  00611	85 c0		 test	 eax, eax
  00613	0f 84 97 00 00
	00		 je	 $LN37@stbi__gif_

; 6441 :                 stbi__gif_parse_colortable(s, g->lpal, 2 << (g->lflags & 7), g->eflags & 0x01 ? g->transparent : -1);

  00619	48 8b 85 68 02
	00 00		 mov	 rax, QWORD PTR g$[rbp]
  00620	8b 40 30	 mov	 eax, DWORD PTR [rax+48]
  00623	83 e0 01	 and	 eax, 1
  00626	85 c0		 test	 eax, eax
  00628	74 12		 je	 SHORT $LN61@stbi__gif_
  0062a	48 8b 85 68 02
	00 00		 mov	 rax, QWORD PTR g$[rbp]
  00631	8b 40 2c	 mov	 eax, DWORD PTR [rax+44]
  00634	89 85 34 02 00
	00		 mov	 DWORD PTR tv296[rbp], eax
  0063a	eb 0a		 jmp	 SHORT $LN62@stbi__gif_
$LN61@stbi__gif_:
  0063c	c7 85 34 02 00
	00 ff ff ff ff	 mov	 DWORD PTR tv296[rbp], -1
$LN62@stbi__gif_:
  00646	48 8b 85 68 02
	00 00		 mov	 rax, QWORD PTR g$[rbp]
  0064d	8b 80 48 88 00
	00		 mov	 eax, DWORD PTR [rax+34888]
  00653	83 e0 07	 and	 eax, 7
  00656	b9 02 00 00 00	 mov	 ecx, 2
  0065b	89 8d 38 02 00
	00		 mov	 DWORD PTR tv578[rbp], ecx
  00661	0f b6 c8	 movzx	 ecx, al
  00664	8b 85 38 02 00
	00		 mov	 eax, DWORD PTR tv578[rbp]
  0066a	d3 e0		 shl	 eax, cl
  0066c	48 8b 8d 68 02
	00 00		 mov	 rcx, QWORD PTR g$[rbp]
  00673	48 81 c1 34 04
	00 00		 add	 rcx, 1076		; 00000434H
  0067a	44 8b 8d 34 02
	00 00		 mov	 r9d, DWORD PTR tv296[rbp]
  00681	44 8b c0	 mov	 r8d, eax
  00684	48 8b d1	 mov	 rdx, rcx
  00687	48 8b 8d 60 02
	00 00		 mov	 rcx, QWORD PTR s$[rbp]
  0068e	e8 00 00 00 00	 call	 stbi__gif_parse_colortable

; 6442 :                 g->color_table = (stbi_uc*)g->lpal;

  00693	48 8b 85 68 02
	00 00		 mov	 rax, QWORD PTR g$[rbp]
  0069a	48 05 34 04 00
	00		 add	 rax, 1076		; 00000434H
  006a0	48 8b 8d 68 02
	00 00		 mov	 rcx, QWORD PTR g$[rbp]
  006a7	48 89 81 38 88
	00 00		 mov	 QWORD PTR [rcx+34872], rax

; 6443 :             }

  006ae	eb 62		 jmp	 SHORT $LN38@stbi__gif_
$LN37@stbi__gif_:

; 6444 :             else if (g->flags & 0x80) {

  006b0	48 8b 85 68 02
	00 00		 mov	 rax, QWORD PTR g$[rbp]
  006b7	8b 40 20	 mov	 eax, DWORD PTR [rax+32]
  006ba	25 80 00 00 00	 and	 eax, 128		; 00000080H
  006bf	85 c0		 test	 eax, eax
  006c1	74 1b		 je	 SHORT $LN39@stbi__gif_

; 6445 :                 g->color_table = (stbi_uc*)g->pal;

  006c3	48 8b 85 68 02
	00 00		 mov	 rax, QWORD PTR g$[rbp]
  006ca	48 83 c0 34	 add	 rax, 52			; 00000034H
  006ce	48 8b 8d 68 02
	00 00		 mov	 rcx, QWORD PTR g$[rbp]
  006d5	48 89 81 38 88
	00 00		 mov	 QWORD PTR [rcx+34872], rax

; 6446 :             }

  006dc	eb 34		 jmp	 SHORT $LN40@stbi__gif_
$LN39@stbi__gif_:

; 6447 :             else
; 6448 :                 return stbi__errpuc("missing color table", "Corrupt GIF");

  006de	48 8d 0d 00 00
	00 00		 lea	 rcx, OFFSET FLAT:??_C@_0BE@NAMJKDNF@missing?5color?5table@
  006e5	e8 00 00 00 00	 call	 stbi__err
  006ea	85 c0		 test	 eax, eax
  006ec	74 0d		 je	 SHORT $LN63@stbi__gif_
  006ee	48 c7 85 38 02
	00 00 00 00 00
	00		 mov	 QWORD PTR tv315[rbp], 0
  006f9	eb 0b		 jmp	 SHORT $LN64@stbi__gif_
$LN63@stbi__gif_:
  006fb	48 c7 85 38 02
	00 00 00 00 00
	00		 mov	 QWORD PTR tv315[rbp], 0
$LN64@stbi__gif_:
  00706	48 8b 85 38 02
	00 00		 mov	 rax, QWORD PTR tv315[rbp]
  0070d	e9 b3 02 00 00	 jmp	 $LN1@stbi__gif_
$LN40@stbi__gif_:
$LN38@stbi__gif_:

; 6449 : 
; 6450 :             o = stbi__process_gif_raster(s, g);

  00712	48 8b 95 68 02
	00 00		 mov	 rdx, QWORD PTR g$[rbp]
  00719	48 8b 8d 60 02
	00 00		 mov	 rcx, QWORD PTR s$[rbp]
  00720	e8 00 00 00 00	 call	 stbi__process_gif_raster
  00725	48 89 85 28 01
	00 00		 mov	 QWORD PTR o$6[rbp], rax

; 6451 :             if (!o) return NULL;

  0072c	48 83 bd 28 01
	00 00 00	 cmp	 QWORD PTR o$6[rbp], 0
  00734	75 07		 jne	 SHORT $LN41@stbi__gif_
  00736	33 c0		 xor	 eax, eax
  00738	e9 88 02 00 00	 jmp	 $LN1@stbi__gif_
$LN41@stbi__gif_:

; 6452 : 
; 6453 :             // if this was the first frame,
; 6454 :             pcount = g->w * g->h;

  0073d	48 8b 85 68 02
	00 00		 mov	 rax, QWORD PTR g$[rbp]
  00744	48 8b 8d 68 02
	00 00		 mov	 rcx, QWORD PTR g$[rbp]
  0074b	8b 00		 mov	 eax, DWORD PTR [rax]
  0074d	0f af 41 04	 imul	 eax, DWORD PTR [rcx+4]
  00751	89 45 64	 mov	 DWORD PTR pcount$[rbp], eax

; 6455 :             if (first_frame && (g->bgindex > 0)) {

  00754	83 7d 24 00	 cmp	 DWORD PTR first_frame$[rbp], 0
  00758	0f 84 a9 00 00
	00		 je	 $LN42@stbi__gif_
  0075e	48 8b 85 68 02
	00 00		 mov	 rax, QWORD PTR g$[rbp]
  00765	83 78 24 00	 cmp	 DWORD PTR [rax+36], 0
  00769	0f 8e 98 00 00
	00		 jle	 $LN42@stbi__gif_

; 6456 :                 // if first frame, any pixel not drawn to gets the background color
; 6457 :                 for (pi = 0; pi < pcount; ++pi) {

  0076f	c7 45 44 00 00
	00 00		 mov	 DWORD PTR pi$[rbp], 0
  00776	eb 08		 jmp	 SHORT $LN15@stbi__gif_
$LN13@stbi__gif_:
  00778	8b 45 44	 mov	 eax, DWORD PTR pi$[rbp]
  0077b	ff c0		 inc	 eax
  0077d	89 45 44	 mov	 DWORD PTR pi$[rbp], eax
$LN15@stbi__gif_:
  00780	8b 45 64	 mov	 eax, DWORD PTR pcount$[rbp]
  00783	39 45 44	 cmp	 DWORD PTR pi$[rbp], eax
  00786	7d 7f		 jge	 SHORT $LN14@stbi__gif_

; 6458 :                     if (g->history[pi] == 0) {

  00788	48 63 45 44	 movsxd	 rax, DWORD PTR pi$[rbp]
  0078c	48 8b 8d 68 02
	00 00		 mov	 rcx, QWORD PTR g$[rbp]
  00793	48 8b 49 18	 mov	 rcx, QWORD PTR [rcx+24]
  00797	0f b6 04 01	 movzx	 eax, BYTE PTR [rcx+rax]
  0079b	85 c0		 test	 eax, eax
  0079d	75 63		 jne	 SHORT $LN43@stbi__gif_

; 6459 :                         g->pal[g->bgindex][3] = 255; // just in case it was made transparent, undo that; It will be reset next frame if need be;

  0079f	48 8b 85 68 02
	00 00		 mov	 rax, QWORD PTR g$[rbp]
  007a6	48 63 40 24	 movsxd	 rax, DWORD PTR [rax+36]
  007aa	48 8b 8d 68 02
	00 00		 mov	 rcx, QWORD PTR g$[rbp]
  007b1	48 8d 44 81 34	 lea	 rax, QWORD PTR [rcx+rax*4+52]
  007b6	b9 01 00 00 00	 mov	 ecx, 1
  007bb	48 6b c9 03	 imul	 rcx, rcx, 3
  007bf	c6 04 08 ff	 mov	 BYTE PTR [rax+rcx], 255	; 000000ffH

; 6460 :                         memcpy(&g->out[pi * 4], &g->pal[g->bgindex], 4);

  007c3	48 8b 85 68 02
	00 00		 mov	 rax, QWORD PTR g$[rbp]
  007ca	48 63 40 24	 movsxd	 rax, DWORD PTR [rax+36]
  007ce	48 8b 8d 68 02
	00 00		 mov	 rcx, QWORD PTR g$[rbp]
  007d5	48 8d 44 81 34	 lea	 rax, QWORD PTR [rcx+rax*4+52]
  007da	8b 4d 44	 mov	 ecx, DWORD PTR pi$[rbp]
  007dd	c1 e1 02	 shl	 ecx, 2
  007e0	48 63 c9	 movsxd	 rcx, ecx
  007e3	48 8b 95 68 02
	00 00		 mov	 rdx, QWORD PTR g$[rbp]
  007ea	48 8b 52 08	 mov	 rdx, QWORD PTR [rdx+8]
  007ee	48 03 d1	 add	 rdx, rcx
  007f1	48 8b ca	 mov	 rcx, rdx
  007f4	41 b8 04 00 00
	00		 mov	 r8d, 4
  007fa	48 8b d0	 mov	 rdx, rax
  007fd	e8 00 00 00 00	 call	 memcpy
$LN43@stbi__gif_:

; 6461 :                     }
; 6462 :                 }

  00802	e9 71 ff ff ff	 jmp	 $LN13@stbi__gif_
$LN14@stbi__gif_:
$LN42@stbi__gif_:

; 6463 :             }
; 6464 : 
; 6465 :             return o;

  00807	48 8b 85 28 01
	00 00		 mov	 rax, QWORD PTR o$6[rbp]
  0080e	e9 b2 01 00 00	 jmp	 $LN1@stbi__gif_
$LN44@stbi__gif_:

; 6466 :         }
; 6467 : 
; 6468 :         case 0x21: // Comment Extension.
; 6469 :         {
; 6470 :             int len;
; 6471 :             int ext = stbi__get8(s);

  00813	48 8b 8d 60 02
	00 00		 mov	 rcx, QWORD PTR s$[rbp]
  0081a	e8 00 00 00 00	 call	 stbi__get8
  0081f	0f b6 c0	 movzx	 eax, al
  00822	89 85 64 01 00
	00		 mov	 DWORD PTR ext$8[rbp], eax

; 6472 :             if (ext == 0xF9) { // Graphic Control Extension.

  00828	81 bd 64 01 00
	00 f9 00 00 00	 cmp	 DWORD PTR ext$8[rbp], 249 ; 000000f9H
  00832	0f 85 1a 01 00
	00		 jne	 $LN45@stbi__gif_

; 6473 :                 len = stbi__get8(s);

  00838	48 8b 8d 60 02
	00 00		 mov	 rcx, QWORD PTR s$[rbp]
  0083f	e8 00 00 00 00	 call	 stbi__get8
  00844	0f b6 c0	 movzx	 eax, al
  00847	89 85 44 01 00
	00		 mov	 DWORD PTR len$7[rbp], eax

; 6474 :                 if (len == 4) {

  0084d	83 bd 44 01 00
	00 04		 cmp	 DWORD PTR len$7[rbp], 4
  00854	0f 85 e4 00 00
	00		 jne	 $LN46@stbi__gif_

; 6475 :                     g->eflags = stbi__get8(s);

  0085a	48 8b 8d 60 02
	00 00		 mov	 rcx, QWORD PTR s$[rbp]
  00861	e8 00 00 00 00	 call	 stbi__get8
  00866	0f b6 c0	 movzx	 eax, al
  00869	48 8b 8d 68 02
	00 00		 mov	 rcx, QWORD PTR g$[rbp]
  00870	89 41 30	 mov	 DWORD PTR [rcx+48], eax

; 6476 :                     g->delay = 10 * stbi__get16le(s); // delay - 1/100th of a second, saving as 1/1000ths.

  00873	48 8b 8d 60 02
	00 00		 mov	 rcx, QWORD PTR s$[rbp]
  0087a	e8 00 00 00 00	 call	 stbi__get16le
  0087f	6b c0 0a	 imul	 eax, eax, 10
  00882	48 8b 8d 68 02
	00 00		 mov	 rcx, QWORD PTR g$[rbp]
  00889	89 81 68 88 00
	00		 mov	 DWORD PTR [rcx+34920], eax

; 6477 : 
; 6478 :                     // unset old transparent
; 6479 :                     if (g->transparent >= 0) {

  0088f	48 8b 85 68 02
	00 00		 mov	 rax, QWORD PTR g$[rbp]
  00896	83 78 2c 00	 cmp	 DWORD PTR [rax+44], 0
  0089a	7c 24		 jl	 SHORT $LN48@stbi__gif_

; 6480 :                         g->pal[g->transparent][3] = 255;

  0089c	48 8b 85 68 02
	00 00		 mov	 rax, QWORD PTR g$[rbp]
  008a3	48 63 40 2c	 movsxd	 rax, DWORD PTR [rax+44]
  008a7	48 8b 8d 68 02
	00 00		 mov	 rcx, QWORD PTR g$[rbp]
  008ae	48 8d 44 81 34	 lea	 rax, QWORD PTR [rcx+rax*4+52]
  008b3	b9 01 00 00 00	 mov	 ecx, 1
  008b8	48 6b c9 03	 imul	 rcx, rcx, 3
  008bc	c6 04 08 ff	 mov	 BYTE PTR [rax+rcx], 255	; 000000ffH
$LN48@stbi__gif_:

; 6481 :                     }
; 6482 :                     if (g->eflags & 0x01) {

  008c0	48 8b 85 68 02
	00 00		 mov	 rax, QWORD PTR g$[rbp]
  008c7	8b 40 30	 mov	 eax, DWORD PTR [rax+48]
  008ca	83 e0 01	 and	 eax, 1
  008cd	85 c0		 test	 eax, eax
  008cf	74 4c		 je	 SHORT $LN49@stbi__gif_

; 6483 :                         g->transparent = stbi__get8(s);

  008d1	48 8b 8d 60 02
	00 00		 mov	 rcx, QWORD PTR s$[rbp]
  008d8	e8 00 00 00 00	 call	 stbi__get8
  008dd	0f b6 c0	 movzx	 eax, al
  008e0	48 8b 8d 68 02
	00 00		 mov	 rcx, QWORD PTR g$[rbp]
  008e7	89 41 2c	 mov	 DWORD PTR [rcx+44], eax

; 6484 :                         if (g->transparent >= 0) {

  008ea	48 8b 85 68 02
	00 00		 mov	 rax, QWORD PTR g$[rbp]
  008f1	83 78 2c 00	 cmp	 DWORD PTR [rax+44], 0
  008f5	7c 24		 jl	 SHORT $LN51@stbi__gif_

; 6485 :                             g->pal[g->transparent][3] = 0;

  008f7	48 8b 85 68 02
	00 00		 mov	 rax, QWORD PTR g$[rbp]
  008fe	48 63 40 2c	 movsxd	 rax, DWORD PTR [rax+44]
  00902	48 8b 8d 68 02
	00 00		 mov	 rcx, QWORD PTR g$[rbp]
  00909	48 8d 44 81 34	 lea	 rax, QWORD PTR [rcx+rax*4+52]
  0090e	b9 01 00 00 00	 mov	 ecx, 1
  00913	48 6b c9 03	 imul	 rcx, rcx, 3
  00917	c6 04 08 00	 mov	 BYTE PTR [rax+rcx], 0
$LN51@stbi__gif_:

; 6486 :                         }
; 6487 :                     }

  0091b	eb 1f		 jmp	 SHORT $LN50@stbi__gif_
$LN49@stbi__gif_:

; 6488 :                     else {
; 6489 :                         // don't need transparent
; 6490 :                         stbi__skip(s, 1);

  0091d	ba 01 00 00 00	 mov	 edx, 1
  00922	48 8b 8d 60 02
	00 00		 mov	 rcx, QWORD PTR s$[rbp]
  00929	e8 00 00 00 00	 call	 stbi__skip

; 6491 :                         g->transparent = -1;

  0092e	48 8b 85 68 02
	00 00		 mov	 rax, QWORD PTR g$[rbp]
  00935	c7 40 2c ff ff
	ff ff		 mov	 DWORD PTR [rax+44], -1
$LN50@stbi__gif_:

; 6492 :                     }
; 6493 :                 }

  0093c	eb 14		 jmp	 SHORT $LN47@stbi__gif_
$LN46@stbi__gif_:

; 6494 :                 else {
; 6495 :                     stbi__skip(s, len);

  0093e	8b 95 44 01 00
	00		 mov	 edx, DWORD PTR len$7[rbp]
  00944	48 8b 8d 60 02
	00 00		 mov	 rcx, QWORD PTR s$[rbp]
  0094b	e8 00 00 00 00	 call	 stbi__skip

; 6496 :                     break;

  00950	eb 6e		 jmp	 SHORT $LN11@stbi__gif_
$LN47@stbi__gif_:
$LN45@stbi__gif_:
$LN16@stbi__gif_:

; 6497 :                 }
; 6498 :             }
; 6499 :             while ((len = stbi__get8(s)) != 0) {

  00952	48 8b 8d 60 02
	00 00		 mov	 rcx, QWORD PTR s$[rbp]
  00959	e8 00 00 00 00	 call	 stbi__get8
  0095e	0f b6 c0	 movzx	 eax, al
  00961	89 85 44 01 00
	00		 mov	 DWORD PTR len$7[rbp], eax
  00967	83 bd 44 01 00
	00 00		 cmp	 DWORD PTR len$7[rbp], 0
  0096e	74 14		 je	 SHORT $LN17@stbi__gif_

; 6500 :                 stbi__skip(s, len);

  00970	8b 95 44 01 00
	00		 mov	 edx, DWORD PTR len$7[rbp]
  00976	48 8b 8d 60 02
	00 00		 mov	 rcx, QWORD PTR s$[rbp]
  0097d	e8 00 00 00 00	 call	 stbi__skip

; 6501 :             }

  00982	eb ce		 jmp	 SHORT $LN16@stbi__gif_
$LN17@stbi__gif_:

; 6502 :             break;

  00984	eb 3a		 jmp	 SHORT $LN11@stbi__gif_
$LN52@stbi__gif_:

; 6503 :         }
; 6504 : 
; 6505 :         case 0x3B: // gif stream termination code
; 6506 :             return (stbi_uc*)s; // using '1' causes warning on some compilers

  00986	48 8b 85 60 02
	00 00		 mov	 rax, QWORD PTR s$[rbp]
  0098d	eb 36		 jmp	 SHORT $LN1@stbi__gif_
$LN53@stbi__gif_:

; 6507 : 
; 6508 :         default:
; 6509 :             return stbi__errpuc("unknown code", "Corrupt GIF");

  0098f	48 8d 0d 00 00
	00 00		 lea	 rcx, OFFSET FLAT:??_C@_0N@DJABBOOH@unknown?5code@
  00996	e8 00 00 00 00	 call	 stbi__err
  0099b	85 c0		 test	 eax, eax
  0099d	74 0d		 je	 SHORT $LN65@stbi__gif_
  0099f	48 c7 85 38 02
	00 00 00 00 00
	00		 mov	 QWORD PTR tv409[rbp], 0
  009aa	eb 0b		 jmp	 SHORT $LN66@stbi__gif_
$LN65@stbi__gif_:
  009ac	48 c7 85 38 02
	00 00 00 00 00
	00		 mov	 QWORD PTR tv409[rbp], 0
$LN66@stbi__gif_:
  009b7	48 8b 85 38 02
	00 00		 mov	 rax, QWORD PTR tv409[rbp]
  009be	eb 05		 jmp	 SHORT $LN1@stbi__gif_
$LN11@stbi__gif_:

; 6510 :         }
; 6511 :     }

  009c0	e9 b7 f9 ff ff	 jmp	 $LN8@stbi__gif_
$LN1@stbi__gif_:

; 6512 : }

  009c5	48 8d a5 48 02
	00 00		 lea	 rsp, QWORD PTR [rbp+584]
  009cc	5f		 pop	 rdi
  009cd	5d		 pop	 rbp
  009ce	c3		 ret	 0
stbi__gif_load_next ENDP
_TEXT	ENDS
; Function compile flags: /Odtp /RTCsu /ZI
; File D:\NitloadIndustry\\1-Flagship\TH2020\ProjectFile\\StgSharpC\stb_image.c
;	COMDAT stbi__process_gif_raster
_TEXT	SEGMENT
lzw_cs$ = 4
len$ = 36
init_code$ = 68
first$ = 100
codesize$ = 132
codemask$ = 164
avail$ = 196
oldcode$ = 228
bits$ = 260
valid_bits$ = 292
clear$ = 324
p$ = 360
code$1 = 388
tv297 = 596
tv273 = 596
tv246 = 596
tv242 = 596
tv192 = 596
tv210 = 600
tv198 = 600
tv174 = 600
tv163 = 600
s$ = 640
g$ = 648
stbi__process_gif_raster PROC				; COMDAT

; 6241 : {

  00000	48 89 54 24 10	 mov	 QWORD PTR [rsp+16], rdx
  00005	48 89 4c 24 08	 mov	 QWORD PTR [rsp+8], rcx
  0000a	55		 push	 rbp
  0000b	57		 push	 rdi
  0000c	48 81 ec 88 02
	00 00		 sub	 rsp, 648		; 00000288H
  00013	48 8d 6c 24 20	 lea	 rbp, QWORD PTR [rsp+32]
  00018	48 8d 0d 00 00
	00 00		 lea	 rcx, OFFSET FLAT:__C5A6C9A6_stb_image@c
  0001f	e8 00 00 00 00	 call	 __CheckForDebuggerJustMyCode

; 6242 :     stbi_uc lzw_cs;
; 6243 :     stbi__int32 len, init_code;
; 6244 :     stbi__uint32 first;
; 6245 :     stbi__int32 codesize, codemask, avail, oldcode, bits, valid_bits, clear;
; 6246 :     stbi__gif_lzw* p;
; 6247 : 
; 6248 :     lzw_cs = stbi__get8(s);

  00024	48 8b 8d 80 02
	00 00		 mov	 rcx, QWORD PTR s$[rbp]
  0002b	e8 00 00 00 00	 call	 stbi__get8
  00030	88 45 04	 mov	 BYTE PTR lzw_cs$[rbp], al

; 6249 :     if (lzw_cs > 12) return NULL;

  00033	0f b6 45 04	 movzx	 eax, BYTE PTR lzw_cs$[rbp]
  00037	83 f8 0c	 cmp	 eax, 12
  0003a	7e 07		 jle	 SHORT $LN10@stbi__proc
  0003c	33 c0		 xor	 eax, eax
  0003e	e9 9f 04 00 00	 jmp	 $LN1@stbi__proc
$LN10@stbi__proc:

; 6250 :     clear = 1 << lzw_cs;

  00043	0f b6 45 04	 movzx	 eax, BYTE PTR lzw_cs$[rbp]
  00047	b9 01 00 00 00	 mov	 ecx, 1
  0004c	89 8d 54 02 00
	00		 mov	 DWORD PTR tv242[rbp], ecx
  00052	0f b6 c8	 movzx	 ecx, al
  00055	8b 85 54 02 00
	00		 mov	 eax, DWORD PTR tv242[rbp]
  0005b	d3 e0		 shl	 eax, cl
  0005d	89 85 44 01 00
	00		 mov	 DWORD PTR clear$[rbp], eax

; 6251 :     first = 1;

  00063	c7 45 64 01 00
	00 00		 mov	 DWORD PTR first$[rbp], 1

; 6252 :     codesize = lzw_cs + 1;

  0006a	0f b6 45 04	 movzx	 eax, BYTE PTR lzw_cs$[rbp]
  0006e	ff c0		 inc	 eax
  00070	89 85 84 00 00
	00		 mov	 DWORD PTR codesize$[rbp], eax

; 6253 :     codemask = (1 << codesize) - 1;

  00076	8b 85 84 00 00
	00		 mov	 eax, DWORD PTR codesize$[rbp]
  0007c	b9 01 00 00 00	 mov	 ecx, 1
  00081	89 8d 54 02 00
	00		 mov	 DWORD PTR tv246[rbp], ecx
  00087	0f b6 c8	 movzx	 ecx, al
  0008a	8b 85 54 02 00
	00		 mov	 eax, DWORD PTR tv246[rbp]
  00090	d3 e0		 shl	 eax, cl
  00092	ff c8		 dec	 eax
  00094	89 85 a4 00 00
	00		 mov	 DWORD PTR codemask$[rbp], eax

; 6254 :     bits = 0;

  0009a	c7 85 04 01 00
	00 00 00 00 00	 mov	 DWORD PTR bits$[rbp], 0

; 6255 :     valid_bits = 0;

  000a4	c7 85 24 01 00
	00 00 00 00 00	 mov	 DWORD PTR valid_bits$[rbp], 0

; 6256 :     for (init_code = 0; init_code < clear; init_code++) {

  000ae	c7 45 44 00 00
	00 00		 mov	 DWORD PTR init_code$[rbp], 0
  000b5	eb 08		 jmp	 SHORT $LN4@stbi__proc
$LN2@stbi__proc:
  000b7	8b 45 44	 mov	 eax, DWORD PTR init_code$[rbp]
  000ba	ff c0		 inc	 eax
  000bc	89 45 44	 mov	 DWORD PTR init_code$[rbp], eax
$LN4@stbi__proc:
  000bf	8b 85 44 01 00
	00		 mov	 eax, DWORD PTR clear$[rbp]
  000c5	39 45 44	 cmp	 DWORD PTR init_code$[rbp], eax
  000c8	7d 46		 jge	 SHORT $LN3@stbi__proc

; 6257 :         g->codes[init_code].prefix = -1;

  000ca	48 63 45 44	 movsxd	 rax, DWORD PTR init_code$[rbp]
  000ce	b9 ff ff ff ff	 mov	 ecx, -1
  000d3	48 8b 95 88 02
	00 00		 mov	 rdx, QWORD PTR g$[rbp]
  000da	66 89 8c 82 34
	08 00 00	 mov	 WORD PTR [rdx+rax*4+2100], cx

; 6258 :         g->codes[init_code].first = (stbi_uc)init_code;

  000e2	48 63 45 44	 movsxd	 rax, DWORD PTR init_code$[rbp]
  000e6	48 8b 8d 88 02
	00 00		 mov	 rcx, QWORD PTR g$[rbp]
  000ed	0f b6 55 44	 movzx	 edx, BYTE PTR init_code$[rbp]
  000f1	88 94 81 36 08
	00 00		 mov	 BYTE PTR [rcx+rax*4+2102], dl

; 6259 :         g->codes[init_code].suffix = (stbi_uc)init_code;

  000f8	48 63 45 44	 movsxd	 rax, DWORD PTR init_code$[rbp]
  000fc	48 8b 8d 88 02
	00 00		 mov	 rcx, QWORD PTR g$[rbp]
  00103	0f b6 55 44	 movzx	 edx, BYTE PTR init_code$[rbp]
  00107	88 94 81 37 08
	00 00		 mov	 BYTE PTR [rcx+rax*4+2103], dl

; 6260 :     }

  0010e	eb a7		 jmp	 SHORT $LN2@stbi__proc
$LN3@stbi__proc:

; 6261 : 
; 6262 :     // support no starting clear code
; 6263 :     avail = clear + 2;

  00110	8b 85 44 01 00
	00		 mov	 eax, DWORD PTR clear$[rbp]
  00116	83 c0 02	 add	 eax, 2
  00119	89 85 c4 00 00
	00		 mov	 DWORD PTR avail$[rbp], eax

; 6264 :     oldcode = -1;

  0011f	c7 85 e4 00 00
	00 ff ff ff ff	 mov	 DWORD PTR oldcode$[rbp], -1

; 6265 : 
; 6266 :     len = 0;

  00129	c7 45 24 00 00
	00 00		 mov	 DWORD PTR len$[rbp], 0
$LN5@stbi__proc:

; 6267 :     for (;;) {
; 6268 :         if (valid_bits < codesize) {

  00130	8b 85 84 00 00
	00		 mov	 eax, DWORD PTR codesize$[rbp]
  00136	39 85 24 01 00
	00		 cmp	 DWORD PTR valid_bits$[rbp], eax
  0013c	7d 71		 jge	 SHORT $LN11@stbi__proc

; 6269 :             if (len == 0) {

  0013e	83 7d 24 00	 cmp	 DWORD PTR len$[rbp], 0
  00142	75 28		 jne	 SHORT $LN13@stbi__proc

; 6270 :                 len = stbi__get8(s); // start new block

  00144	48 8b 8d 80 02
	00 00		 mov	 rcx, QWORD PTR s$[rbp]
  0014b	e8 00 00 00 00	 call	 stbi__get8
  00150	0f b6 c0	 movzx	 eax, al
  00153	89 45 24	 mov	 DWORD PTR len$[rbp], eax

; 6271 :                 if (len == 0)

  00156	83 7d 24 00	 cmp	 DWORD PTR len$[rbp], 0
  0015a	75 10		 jne	 SHORT $LN14@stbi__proc

; 6272 :                     return g->out;

  0015c	48 8b 85 88 02
	00 00		 mov	 rax, QWORD PTR g$[rbp]
  00163	48 8b 40 08	 mov	 rax, QWORD PTR [rax+8]
  00167	e9 76 03 00 00	 jmp	 $LN1@stbi__proc
$LN14@stbi__proc:
$LN13@stbi__proc:

; 6273 :             }
; 6274 :             --len;

  0016c	8b 45 24	 mov	 eax, DWORD PTR len$[rbp]
  0016f	ff c8		 dec	 eax
  00171	89 45 24	 mov	 DWORD PTR len$[rbp], eax

; 6275 :             bits |= (stbi__int32)stbi__get8(s) << valid_bits;

  00174	48 8b 8d 80 02
	00 00		 mov	 rcx, QWORD PTR s$[rbp]
  0017b	e8 00 00 00 00	 call	 stbi__get8
  00180	0f b6 c0	 movzx	 eax, al
  00183	8b 8d 24 01 00
	00		 mov	 ecx, DWORD PTR valid_bits$[rbp]
  00189	d3 e0		 shl	 eax, cl
  0018b	8b 8d 04 01 00
	00		 mov	 ecx, DWORD PTR bits$[rbp]
  00191	0b c8		 or	 ecx, eax
  00193	8b c1		 mov	 eax, ecx
  00195	89 85 04 01 00
	00		 mov	 DWORD PTR bits$[rbp], eax

; 6276 :             valid_bits += 8;

  0019b	8b 85 24 01 00
	00		 mov	 eax, DWORD PTR valid_bits$[rbp]
  001a1	83 c0 08	 add	 eax, 8
  001a4	89 85 24 01 00
	00		 mov	 DWORD PTR valid_bits$[rbp], eax

; 6277 :         }

  001aa	e9 2e 03 00 00	 jmp	 $LN12@stbi__proc
$LN11@stbi__proc:

; 6278 :         else {
; 6279 :             stbi__int32 code = bits & codemask;

  001af	8b 85 a4 00 00
	00		 mov	 eax, DWORD PTR codemask$[rbp]
  001b5	8b 8d 04 01 00
	00		 mov	 ecx, DWORD PTR bits$[rbp]
  001bb	23 c8		 and	 ecx, eax
  001bd	8b c1		 mov	 eax, ecx
  001bf	89 85 84 01 00
	00		 mov	 DWORD PTR code$1[rbp], eax

; 6280 :             bits >>= codesize;

  001c5	8b 85 84 00 00
	00		 mov	 eax, DWORD PTR codesize$[rbp]
  001cb	0f b6 c8	 movzx	 ecx, al
  001ce	8b 85 04 01 00
	00		 mov	 eax, DWORD PTR bits$[rbp]
  001d4	d3 f8		 sar	 eax, cl
  001d6	89 85 04 01 00
	00		 mov	 DWORD PTR bits$[rbp], eax

; 6281 :             valid_bits -= codesize;

  001dc	8b 85 84 00 00
	00		 mov	 eax, DWORD PTR codesize$[rbp]
  001e2	8b 8d 24 01 00
	00		 mov	 ecx, DWORD PTR valid_bits$[rbp]
  001e8	2b c8		 sub	 ecx, eax
  001ea	8b c1		 mov	 eax, ecx
  001ec	89 85 24 01 00
	00		 mov	 DWORD PTR valid_bits$[rbp], eax

; 6282 :             // @OPTIMIZE: is there some way we can accelerate the non-clear path?
; 6283 :             if (code == clear) {  // clear code

  001f2	8b 85 44 01 00
	00		 mov	 eax, DWORD PTR clear$[rbp]
  001f8	39 85 84 01 00
	00		 cmp	 DWORD PTR code$1[rbp], eax
  001fe	75 55		 jne	 SHORT $LN15@stbi__proc

; 6284 :                 codesize = lzw_cs + 1;

  00200	0f b6 45 04	 movzx	 eax, BYTE PTR lzw_cs$[rbp]
  00204	ff c0		 inc	 eax
  00206	89 85 84 00 00
	00		 mov	 DWORD PTR codesize$[rbp], eax

; 6285 :                 codemask = (1 << codesize) - 1;

  0020c	8b 85 84 00 00
	00		 mov	 eax, DWORD PTR codesize$[rbp]
  00212	b9 01 00 00 00	 mov	 ecx, 1
  00217	89 8d 54 02 00
	00		 mov	 DWORD PTR tv273[rbp], ecx
  0021d	0f b6 c8	 movzx	 ecx, al
  00220	8b 85 54 02 00
	00		 mov	 eax, DWORD PTR tv273[rbp]
  00226	d3 e0		 shl	 eax, cl
  00228	ff c8		 dec	 eax
  0022a	89 85 a4 00 00
	00		 mov	 DWORD PTR codemask$[rbp], eax

; 6286 :                 avail = clear + 2;

  00230	8b 85 44 01 00
	00		 mov	 eax, DWORD PTR clear$[rbp]
  00236	83 c0 02	 add	 eax, 2
  00239	89 85 c4 00 00
	00		 mov	 DWORD PTR avail$[rbp], eax

; 6287 :                 oldcode = -1;

  0023f	c7 85 e4 00 00
	00 ff ff ff ff	 mov	 DWORD PTR oldcode$[rbp], -1

; 6288 :                 first = 0;

  00249	c7 45 64 00 00
	00 00		 mov	 DWORD PTR first$[rbp], 0

; 6289 :             }

  00250	e9 88 02 00 00	 jmp	 $LN16@stbi__proc
$LN15@stbi__proc:

; 6290 :             else if (code == clear + 1) { // end of stream code

  00255	8b 85 44 01 00
	00		 mov	 eax, DWORD PTR clear$[rbp]
  0025b	ff c0		 inc	 eax
  0025d	39 85 84 01 00
	00		 cmp	 DWORD PTR code$1[rbp], eax
  00263	75 4d		 jne	 SHORT $LN17@stbi__proc

; 6291 :                 stbi__skip(s, len);

  00265	8b 55 24	 mov	 edx, DWORD PTR len$[rbp]
  00268	48 8b 8d 80 02
	00 00		 mov	 rcx, QWORD PTR s$[rbp]
  0026f	e8 00 00 00 00	 call	 stbi__skip
$LN8@stbi__proc:

; 6292 :                 while ((len = stbi__get8(s)) > 0)

  00274	48 8b 8d 80 02
	00 00		 mov	 rcx, QWORD PTR s$[rbp]
  0027b	e8 00 00 00 00	 call	 stbi__get8
  00280	0f b6 c0	 movzx	 eax, al
  00283	89 45 24	 mov	 DWORD PTR len$[rbp], eax
  00286	83 7d 24 00	 cmp	 DWORD PTR len$[rbp], 0
  0028a	7e 11		 jle	 SHORT $LN9@stbi__proc

; 6293 :                     stbi__skip(s, len);

  0028c	8b 55 24	 mov	 edx, DWORD PTR len$[rbp]
  0028f	48 8b 8d 80 02
	00 00		 mov	 rcx, QWORD PTR s$[rbp]
  00296	e8 00 00 00 00	 call	 stbi__skip
  0029b	eb d7		 jmp	 SHORT $LN8@stbi__proc
$LN9@stbi__proc:

; 6294 :                 return g->out;

  0029d	48 8b 85 88 02
	00 00		 mov	 rax, QWORD PTR g$[rbp]
  002a4	48 8b 40 08	 mov	 rax, QWORD PTR [rax+8]
  002a8	e9 35 02 00 00	 jmp	 $LN1@stbi__proc

; 6295 :             }

  002ad	e9 2b 02 00 00	 jmp	 $LN18@stbi__proc
$LN17@stbi__proc:

; 6296 :             else if (code <= avail) {

  002b2	8b 85 c4 00 00
	00		 mov	 eax, DWORD PTR avail$[rbp]
  002b8	39 85 84 01 00
	00		 cmp	 DWORD PTR code$1[rbp], eax
  002be	0f 8f e8 01 00
	00		 jg	 $LN19@stbi__proc

; 6297 :                 if (first) {

  002c4	83 7d 64 00	 cmp	 DWORD PTR first$[rbp], 0
  002c8	74 34		 je	 SHORT $LN21@stbi__proc

; 6298 :                     return stbi__errpuc("no clear code", "Corrupt GIF");

  002ca	48 8d 0d 00 00
	00 00		 lea	 rcx, OFFSET FLAT:??_C@_0O@MGDACKOJ@no?5clear?5code@
  002d1	e8 00 00 00 00	 call	 stbi__err
  002d6	85 c0		 test	 eax, eax
  002d8	74 0d		 je	 SHORT $LN28@stbi__proc
  002da	48 c7 85 58 02
	00 00 00 00 00
	00		 mov	 QWORD PTR tv163[rbp], 0
  002e5	eb 0b		 jmp	 SHORT $LN29@stbi__proc
$LN28@stbi__proc:
  002e7	48 c7 85 58 02
	00 00 00 00 00
	00		 mov	 QWORD PTR tv163[rbp], 0
$LN29@stbi__proc:
  002f2	48 8b 85 58 02
	00 00		 mov	 rax, QWORD PTR tv163[rbp]
  002f9	e9 e4 01 00 00	 jmp	 $LN1@stbi__proc
$LN21@stbi__proc:

; 6299 :                 }
; 6300 : 
; 6301 :                 if (oldcode >= 0) {

  002fe	83 bd e4 00 00
	00 00		 cmp	 DWORD PTR oldcode$[rbp], 0
  00305	0f 8c ec 00 00
	00		 jl	 $LN22@stbi__proc

; 6302 :                     p = &g->codes[avail++];

  0030b	48 63 85 c4 00
	00 00		 movsxd	 rax, DWORD PTR avail$[rbp]
  00312	48 8b 8d 88 02
	00 00		 mov	 rcx, QWORD PTR g$[rbp]
  00319	48 8d 84 81 34
	08 00 00	 lea	 rax, QWORD PTR [rcx+rax*4+2100]
  00321	48 89 85 68 01
	00 00		 mov	 QWORD PTR p$[rbp], rax
  00328	8b 85 c4 00 00
	00		 mov	 eax, DWORD PTR avail$[rbp]
  0032e	ff c0		 inc	 eax
  00330	89 85 c4 00 00
	00		 mov	 DWORD PTR avail$[rbp], eax

; 6303 :                     if (avail > 8192) {

  00336	81 bd c4 00 00
	00 00 20 00 00	 cmp	 DWORD PTR avail$[rbp], 8192 ; 00002000H
  00340	7e 34		 jle	 SHORT $LN24@stbi__proc

; 6304 :                         return stbi__errpuc("too many codes", "Corrupt GIF");

  00342	48 8d 0d 00 00
	00 00		 lea	 rcx, OFFSET FLAT:??_C@_0P@GJNJCPDJ@too?5many?5codes@
  00349	e8 00 00 00 00	 call	 stbi__err
  0034e	85 c0		 test	 eax, eax
  00350	74 0d		 je	 SHORT $LN30@stbi__proc
  00352	48 c7 85 58 02
	00 00 00 00 00
	00		 mov	 QWORD PTR tv174[rbp], 0
  0035d	eb 0b		 jmp	 SHORT $LN31@stbi__proc
$LN30@stbi__proc:
  0035f	48 c7 85 58 02
	00 00 00 00 00
	00		 mov	 QWORD PTR tv174[rbp], 0
$LN31@stbi__proc:
  0036a	48 8b 85 58 02
	00 00		 mov	 rax, QWORD PTR tv174[rbp]
  00371	e9 6c 01 00 00	 jmp	 $LN1@stbi__proc
$LN24@stbi__proc:

; 6305 :                     }
; 6306 : 
; 6307 :                     p->prefix = (stbi__int16)oldcode;

  00376	48 8b 85 68 01
	00 00		 mov	 rax, QWORD PTR p$[rbp]
  0037d	0f b7 8d e4 00
	00 00		 movzx	 ecx, WORD PTR oldcode$[rbp]
  00384	66 89 08	 mov	 WORD PTR [rax], cx

; 6308 :                     p->first = g->codes[oldcode].first;

  00387	48 63 85 e4 00
	00 00		 movsxd	 rax, DWORD PTR oldcode$[rbp]
  0038e	48 8b 8d 68 01
	00 00		 mov	 rcx, QWORD PTR p$[rbp]
  00395	48 8b 95 88 02
	00 00		 mov	 rdx, QWORD PTR g$[rbp]
  0039c	0f b6 84 82 36
	08 00 00	 movzx	 eax, BYTE PTR [rdx+rax*4+2102]
  003a4	88 41 02	 mov	 BYTE PTR [rcx+2], al

; 6309 :                     p->suffix = (code == avail) ? p->first : g->codes[code].first;

  003a7	8b 85 c4 00 00
	00		 mov	 eax, DWORD PTR avail$[rbp]
  003ad	39 85 84 01 00
	00		 cmp	 DWORD PTR code$1[rbp], eax
  003b3	75 13		 jne	 SHORT $LN32@stbi__proc
  003b5	48 8b 85 68 01
	00 00		 mov	 rax, QWORD PTR p$[rbp]
  003bc	0f b6 40 02	 movzx	 eax, BYTE PTR [rax+2]
  003c0	89 85 54 02 00
	00		 mov	 DWORD PTR tv192[rbp], eax
  003c6	eb 1c		 jmp	 SHORT $LN33@stbi__proc
$LN32@stbi__proc:
  003c8	48 63 85 84 01
	00 00		 movsxd	 rax, DWORD PTR code$1[rbp]
  003cf	48 8b 8d 88 02
	00 00		 mov	 rcx, QWORD PTR g$[rbp]
  003d6	0f b6 84 81 36
	08 00 00	 movzx	 eax, BYTE PTR [rcx+rax*4+2102]
  003de	89 85 54 02 00
	00		 mov	 DWORD PTR tv192[rbp], eax
$LN33@stbi__proc:
  003e4	48 8b 85 68 01
	00 00		 mov	 rax, QWORD PTR p$[rbp]
  003eb	0f b6 8d 54 02
	00 00		 movzx	 ecx, BYTE PTR tv192[rbp]
  003f2	88 48 03	 mov	 BYTE PTR [rax+3], cl

; 6310 :                 }

  003f5	eb 42		 jmp	 SHORT $LN23@stbi__proc
$LN22@stbi__proc:

; 6311 :                 else if (code == avail)

  003f7	8b 85 c4 00 00
	00		 mov	 eax, DWORD PTR avail$[rbp]
  003fd	39 85 84 01 00
	00		 cmp	 DWORD PTR code$1[rbp], eax
  00403	75 34		 jne	 SHORT $LN25@stbi__proc

; 6312 :                     return stbi__errpuc("illegal code in raster", "Corrupt GIF");

  00405	48 8d 0d 00 00
	00 00		 lea	 rcx, OFFSET FLAT:??_C@_0BH@LOKBIIOJ@illegal?5code?5in?5raster@
  0040c	e8 00 00 00 00	 call	 stbi__err
  00411	85 c0		 test	 eax, eax
  00413	74 0d		 je	 SHORT $LN34@stbi__proc
  00415	48 c7 85 58 02
	00 00 00 00 00
	00		 mov	 QWORD PTR tv198[rbp], 0
  00420	eb 0b		 jmp	 SHORT $LN35@stbi__proc
$LN34@stbi__proc:
  00422	48 c7 85 58 02
	00 00 00 00 00
	00		 mov	 QWORD PTR tv198[rbp], 0
$LN35@stbi__proc:
  0042d	48 8b 85 58 02
	00 00		 mov	 rax, QWORD PTR tv198[rbp]
  00434	e9 a9 00 00 00	 jmp	 $LN1@stbi__proc
$LN25@stbi__proc:
$LN23@stbi__proc:

; 6313 : 
; 6314 :                 stbi__out_gif_code(g, (stbi__uint16)code);

  00439	0f b7 95 84 01
	00 00		 movzx	 edx, WORD PTR code$1[rbp]
  00440	48 8b 8d 88 02
	00 00		 mov	 rcx, QWORD PTR g$[rbp]
  00447	e8 00 00 00 00	 call	 stbi__out_gif_code

; 6315 : 
; 6316 :                 if ((avail & codemask) == 0 && avail <= 0x0FFF) {

  0044c	8b 85 a4 00 00
	00		 mov	 eax, DWORD PTR codemask$[rbp]
  00452	8b 8d c4 00 00
	00		 mov	 ecx, DWORD PTR avail$[rbp]
  00458	23 c8		 and	 ecx, eax
  0045a	8b c1		 mov	 eax, ecx
  0045c	85 c0		 test	 eax, eax
  0045e	75 3e		 jne	 SHORT $LN26@stbi__proc
  00460	81 bd c4 00 00
	00 ff 0f 00 00	 cmp	 DWORD PTR avail$[rbp], 4095 ; 00000fffH
  0046a	7f 32		 jg	 SHORT $LN26@stbi__proc

; 6317 :                     codesize++;

  0046c	8b 85 84 00 00
	00		 mov	 eax, DWORD PTR codesize$[rbp]
  00472	ff c0		 inc	 eax
  00474	89 85 84 00 00
	00		 mov	 DWORD PTR codesize$[rbp], eax

; 6318 :                     codemask = (1 << codesize) - 1;

  0047a	8b 85 84 00 00
	00		 mov	 eax, DWORD PTR codesize$[rbp]
  00480	b9 01 00 00 00	 mov	 ecx, 1
  00485	89 8d 54 02 00
	00		 mov	 DWORD PTR tv297[rbp], ecx
  0048b	0f b6 c8	 movzx	 ecx, al
  0048e	8b 85 54 02 00
	00		 mov	 eax, DWORD PTR tv297[rbp]
  00494	d3 e0		 shl	 eax, cl
  00496	ff c8		 dec	 eax
  00498	89 85 a4 00 00
	00		 mov	 DWORD PTR codemask$[rbp], eax
$LN26@stbi__proc:

; 6319 :                 }
; 6320 : 
; 6321 :                 oldcode = code;

  0049e	8b 85 84 01 00
	00		 mov	 eax, DWORD PTR code$1[rbp]
  004a4	89 85 e4 00 00
	00		 mov	 DWORD PTR oldcode$[rbp], eax

; 6322 :             }

  004aa	eb 31		 jmp	 SHORT $LN20@stbi__proc
$LN19@stbi__proc:

; 6323 :             else {
; 6324 :                 return stbi__errpuc("illegal code in raster", "Corrupt GIF");

  004ac	48 8d 0d 00 00
	00 00		 lea	 rcx, OFFSET FLAT:??_C@_0BH@LOKBIIOJ@illegal?5code?5in?5raster@
  004b3	e8 00 00 00 00	 call	 stbi__err
  004b8	85 c0		 test	 eax, eax
  004ba	74 0d		 je	 SHORT $LN36@stbi__proc
  004bc	48 c7 85 58 02
	00 00 00 00 00
	00		 mov	 QWORD PTR tv210[rbp], 0
  004c7	eb 0b		 jmp	 SHORT $LN37@stbi__proc
$LN36@stbi__proc:
  004c9	48 c7 85 58 02
	00 00 00 00 00
	00		 mov	 QWORD PTR tv210[rbp], 0
$LN37@stbi__proc:
  004d4	48 8b 85 58 02
	00 00		 mov	 rax, QWORD PTR tv210[rbp]
  004db	eb 05		 jmp	 SHORT $LN1@stbi__proc
$LN20@stbi__proc:
$LN18@stbi__proc:
$LN16@stbi__proc:
$LN12@stbi__proc:

; 6325 :             }
; 6326 :         }
; 6327 :     }

  004dd	e9 4e fc ff ff	 jmp	 $LN5@stbi__proc
$LN1@stbi__proc:

; 6328 : }

  004e2	48 8d a5 68 02
	00 00		 lea	 rsp, QWORD PTR [rbp+616]
  004e9	5f		 pop	 rdi
  004ea	5d		 pop	 rbp
  004eb	c3		 ret	 0
stbi__process_gif_raster ENDP
_TEXT	ENDS
; Function compile flags: /Odtp /RTCsu /ZI
; File D:\NitloadIndustry\\1-Flagship\TH2020\ProjectFile\\StgSharpC\stb_image.c
;	COMDAT stbi__out_gif_code
_TEXT	SEGMENT
p$ = 8
c$ = 40
idx$ = 68
tv257 = 276
g$ = 320
code$ = 328
stbi__out_gif_code PROC					; COMDAT

; 6204 : {

  00000	66 89 54 24 10	 mov	 WORD PTR [rsp+16], dx
  00005	48 89 4c 24 08	 mov	 QWORD PTR [rsp+8], rcx
  0000a	55		 push	 rbp
  0000b	57		 push	 rdi
  0000c	48 81 ec 48 01
	00 00		 sub	 rsp, 328		; 00000148H
  00013	48 8d 6c 24 20	 lea	 rbp, QWORD PTR [rsp+32]
  00018	48 8d 0d 00 00
	00 00		 lea	 rcx, OFFSET FLAT:__C5A6C9A6_stb_image@c
  0001f	e8 00 00 00 00	 call	 __CheckForDebuggerJustMyCode

; 6205 :     stbi_uc* p, * c;
; 6206 :     int idx;
; 6207 : 
; 6208 :     // recurse to decode the prefixes, since the linked-list is backwards,
; 6209 :     // and working backwards through an interleaved image would be nasty
; 6210 :     if (g->codes[code].prefix >= 0)

  00024	0f b7 85 48 01
	00 00		 movzx	 eax, WORD PTR code$[rbp]
  0002b	48 8b 8d 40 01
	00 00		 mov	 rcx, QWORD PTR g$[rbp]
  00032	0f bf 84 81 34
	08 00 00	 movsx	 eax, WORD PTR [rcx+rax*4+2100]
  0003a	85 c0		 test	 eax, eax
  0003c	7c 22		 jl	 SHORT $LN4@stbi__out_

; 6211 :         stbi__out_gif_code(g, g->codes[code].prefix);

  0003e	0f b7 85 48 01
	00 00		 movzx	 eax, WORD PTR code$[rbp]
  00045	48 8b 8d 40 01
	00 00		 mov	 rcx, QWORD PTR g$[rbp]
  0004c	0f b7 94 81 34
	08 00 00	 movzx	 edx, WORD PTR [rcx+rax*4+2100]
  00054	48 8b 8d 40 01
	00 00		 mov	 rcx, QWORD PTR g$[rbp]
  0005b	e8 00 00 00 00	 call	 stbi__out_gif_code
$LN4@stbi__out_:

; 6212 : 
; 6213 :     if (g->cur_y >= g->max_y) return;

  00060	48 8b 85 40 01
	00 00		 mov	 rax, QWORD PTR g$[rbp]
  00067	48 8b 8d 40 01
	00 00		 mov	 rcx, QWORD PTR g$[rbp]
  0006e	8b 89 58 88 00
	00		 mov	 ecx, DWORD PTR [rcx+34904]
  00074	39 88 60 88 00
	00		 cmp	 DWORD PTR [rax+34912], ecx
  0007a	7c 05		 jl	 SHORT $LN5@stbi__out_
  0007c	e9 64 02 00 00	 jmp	 $LN1@stbi__out_
$LN5@stbi__out_:

; 6214 : 
; 6215 :     idx = g->cur_x + g->cur_y;

  00081	48 8b 85 40 01
	00 00		 mov	 rax, QWORD PTR g$[rbp]
  00088	8b 80 5c 88 00
	00		 mov	 eax, DWORD PTR [rax+34908]
  0008e	48 8b 8d 40 01
	00 00		 mov	 rcx, QWORD PTR g$[rbp]
  00095	03 81 60 88 00
	00		 add	 eax, DWORD PTR [rcx+34912]
  0009b	89 45 44	 mov	 DWORD PTR idx$[rbp], eax

; 6216 :     p = &g->out[idx];

  0009e	48 63 45 44	 movsxd	 rax, DWORD PTR idx$[rbp]
  000a2	48 8b 8d 40 01
	00 00		 mov	 rcx, QWORD PTR g$[rbp]
  000a9	48 8b 49 08	 mov	 rcx, QWORD PTR [rcx+8]
  000ad	48 03 c8	 add	 rcx, rax
  000b0	48 8b c1	 mov	 rax, rcx
  000b3	48 89 45 08	 mov	 QWORD PTR p$[rbp], rax

; 6217 :     g->history[idx / 4] = 1;

  000b7	8b 45 44	 mov	 eax, DWORD PTR idx$[rbp]
  000ba	99		 cdq
  000bb	83 e2 03	 and	 edx, 3
  000be	03 c2		 add	 eax, edx
  000c0	c1 f8 02	 sar	 eax, 2
  000c3	48 98		 cdqe
  000c5	48 8b 8d 40 01
	00 00		 mov	 rcx, QWORD PTR g$[rbp]
  000cc	48 8b 49 18	 mov	 rcx, QWORD PTR [rcx+24]
  000d0	c6 04 01 01	 mov	 BYTE PTR [rcx+rax], 1

; 6218 : 
; 6219 :     c = &g->color_table[g->codes[code].suffix * 4];

  000d4	0f b7 85 48 01
	00 00		 movzx	 eax, WORD PTR code$[rbp]
  000db	48 8b 8d 40 01
	00 00		 mov	 rcx, QWORD PTR g$[rbp]
  000e2	0f b6 84 81 37
	08 00 00	 movzx	 eax, BYTE PTR [rcx+rax*4+2103]
  000ea	c1 e0 02	 shl	 eax, 2
  000ed	48 98		 cdqe
  000ef	48 8b 8d 40 01
	00 00		 mov	 rcx, QWORD PTR g$[rbp]
  000f6	48 8b 89 38 88
	00 00		 mov	 rcx, QWORD PTR [rcx+34872]
  000fd	48 03 c8	 add	 rcx, rax
  00100	48 8b c1	 mov	 rax, rcx
  00103	48 89 45 28	 mov	 QWORD PTR c$[rbp], rax

; 6220 :     if (c[3] > 128) { // don't render transparent pixels;

  00107	b8 01 00 00 00	 mov	 eax, 1
  0010c	48 6b c0 03	 imul	 rax, rax, 3
  00110	48 8b 4d 28	 mov	 rcx, QWORD PTR c$[rbp]
  00114	0f b6 04 01	 movzx	 eax, BYTE PTR [rcx+rax]
  00118	3d 80 00 00 00	 cmp	 eax, 128		; 00000080H
  0011d	0f 8e 88 00 00
	00		 jle	 $LN6@stbi__out_

; 6221 :         p[0] = c[2];

  00123	b8 01 00 00 00	 mov	 eax, 1
  00128	48 6b c0 02	 imul	 rax, rax, 2
  0012c	b9 01 00 00 00	 mov	 ecx, 1
  00131	48 6b c9 00	 imul	 rcx, rcx, 0
  00135	48 8b 55 08	 mov	 rdx, QWORD PTR p$[rbp]
  00139	4c 8b 45 28	 mov	 r8, QWORD PTR c$[rbp]
  0013d	41 0f b6 04 00	 movzx	 eax, BYTE PTR [r8+rax]
  00142	88 04 0a	 mov	 BYTE PTR [rdx+rcx], al

; 6222 :         p[1] = c[1];

  00145	b8 01 00 00 00	 mov	 eax, 1
  0014a	48 6b c0 01	 imul	 rax, rax, 1
  0014e	b9 01 00 00 00	 mov	 ecx, 1
  00153	48 6b c9 01	 imul	 rcx, rcx, 1
  00157	48 8b 55 08	 mov	 rdx, QWORD PTR p$[rbp]
  0015b	4c 8b 45 28	 mov	 r8, QWORD PTR c$[rbp]
  0015f	41 0f b6 04 00	 movzx	 eax, BYTE PTR [r8+rax]
  00164	88 04 0a	 mov	 BYTE PTR [rdx+rcx], al

; 6223 :         p[2] = c[0];

  00167	b8 01 00 00 00	 mov	 eax, 1
  0016c	48 6b c0 00	 imul	 rax, rax, 0
  00170	b9 01 00 00 00	 mov	 ecx, 1
  00175	48 6b c9 02	 imul	 rcx, rcx, 2
  00179	48 8b 55 08	 mov	 rdx, QWORD PTR p$[rbp]
  0017d	4c 8b 45 28	 mov	 r8, QWORD PTR c$[rbp]
  00181	41 0f b6 04 00	 movzx	 eax, BYTE PTR [r8+rax]
  00186	88 04 0a	 mov	 BYTE PTR [rdx+rcx], al

; 6224 :         p[3] = c[3];

  00189	b8 01 00 00 00	 mov	 eax, 1
  0018e	48 6b c0 03	 imul	 rax, rax, 3
  00192	b9 01 00 00 00	 mov	 ecx, 1
  00197	48 6b c9 03	 imul	 rcx, rcx, 3
  0019b	48 8b 55 08	 mov	 rdx, QWORD PTR p$[rbp]
  0019f	4c 8b 45 28	 mov	 r8, QWORD PTR c$[rbp]
  001a3	41 0f b6 04 00	 movzx	 eax, BYTE PTR [r8+rax]
  001a8	88 04 0a	 mov	 BYTE PTR [rdx+rcx], al
$LN6@stbi__out_:

; 6225 :     }
; 6226 :     g->cur_x += 4;

  001ab	48 8b 85 40 01
	00 00		 mov	 rax, QWORD PTR g$[rbp]
  001b2	8b 80 5c 88 00
	00		 mov	 eax, DWORD PTR [rax+34908]
  001b8	83 c0 04	 add	 eax, 4
  001bb	48 8b 8d 40 01
	00 00		 mov	 rcx, QWORD PTR g$[rbp]
  001c2	89 81 5c 88 00
	00		 mov	 DWORD PTR [rcx+34908], eax

; 6227 : 
; 6228 :     if (g->cur_x >= g->max_x) {

  001c8	48 8b 85 40 01
	00 00		 mov	 rax, QWORD PTR g$[rbp]
  001cf	48 8b 8d 40 01
	00 00		 mov	 rcx, QWORD PTR g$[rbp]
  001d6	8b 89 54 88 00
	00		 mov	 ecx, DWORD PTR [rcx+34900]
  001dc	39 88 5c 88 00
	00		 cmp	 DWORD PTR [rax+34908], ecx
  001e2	0f 8c fd 00 00
	00		 jl	 $LN7@stbi__out_

; 6229 :         g->cur_x = g->start_x;

  001e8	48 8b 85 40 01
	00 00		 mov	 rax, QWORD PTR g$[rbp]
  001ef	48 8b 8d 40 01
	00 00		 mov	 rcx, QWORD PTR g$[rbp]
  001f6	8b 89 4c 88 00
	00		 mov	 ecx, DWORD PTR [rcx+34892]
  001fc	89 88 5c 88 00
	00		 mov	 DWORD PTR [rax+34908], ecx

; 6230 :         g->cur_y += g->step;

  00202	48 8b 85 40 01
	00 00		 mov	 rax, QWORD PTR g$[rbp]
  00209	8b 80 60 88 00
	00		 mov	 eax, DWORD PTR [rax+34912]
  0020f	48 8b 8d 40 01
	00 00		 mov	 rcx, QWORD PTR g$[rbp]
  00216	03 81 44 88 00
	00		 add	 eax, DWORD PTR [rcx+34884]
  0021c	48 8b 8d 40 01
	00 00		 mov	 rcx, QWORD PTR g$[rbp]
  00223	89 81 60 88 00
	00		 mov	 DWORD PTR [rcx+34912], eax
$LN2@stbi__out_:

; 6231 : 
; 6232 :         while (g->cur_y >= g->max_y && g->parse > 0) {

  00229	48 8b 85 40 01
	00 00		 mov	 rax, QWORD PTR g$[rbp]
  00230	48 8b 8d 40 01
	00 00		 mov	 rcx, QWORD PTR g$[rbp]
  00237	8b 89 58 88 00
	00		 mov	 ecx, DWORD PTR [rcx+34904]
  0023d	39 88 60 88 00
	00		 cmp	 DWORD PTR [rax+34912], ecx
  00243	0f 8c 9c 00 00
	00		 jl	 $LN3@stbi__out_
  00249	48 8b 85 40 01
	00 00		 mov	 rax, QWORD PTR g$[rbp]
  00250	83 b8 40 88 00
	00 00		 cmp	 DWORD PTR [rax+34880], 0
  00257	0f 8e 88 00 00
	00		 jle	 $LN3@stbi__out_

; 6233 :             g->step = (1 << g->parse) * g->line_size;

  0025d	48 8b 85 40 01
	00 00		 mov	 rax, QWORD PTR g$[rbp]
  00264	8b 80 40 88 00
	00		 mov	 eax, DWORD PTR [rax+34880]
  0026a	b9 01 00 00 00	 mov	 ecx, 1
  0026f	89 8d 14 01 00
	00		 mov	 DWORD PTR tv257[rbp], ecx
  00275	0f b6 c8	 movzx	 ecx, al
  00278	8b 85 14 01 00
	00		 mov	 eax, DWORD PTR tv257[rbp]
  0027e	d3 e0		 shl	 eax, cl
  00280	48 8b 8d 40 01
	00 00		 mov	 rcx, QWORD PTR g$[rbp]
  00287	0f af 81 64 88
	00 00		 imul	 eax, DWORD PTR [rcx+34916]
  0028e	48 8b 8d 40 01
	00 00		 mov	 rcx, QWORD PTR g$[rbp]
  00295	89 81 44 88 00
	00		 mov	 DWORD PTR [rcx+34884], eax

; 6234 :             g->cur_y = g->start_y + (g->step >> 1);

  0029b	48 8b 85 40 01
	00 00		 mov	 rax, QWORD PTR g$[rbp]
  002a2	8b 80 44 88 00
	00		 mov	 eax, DWORD PTR [rax+34884]
  002a8	d1 f8		 sar	 eax, 1
  002aa	48 8b 8d 40 01
	00 00		 mov	 rcx, QWORD PTR g$[rbp]
  002b1	03 81 50 88 00
	00		 add	 eax, DWORD PTR [rcx+34896]
  002b7	48 8b 8d 40 01
	00 00		 mov	 rcx, QWORD PTR g$[rbp]
  002be	89 81 60 88 00
	00		 mov	 DWORD PTR [rcx+34912], eax

; 6235 :             --g->parse;

  002c4	48 8b 85 40 01
	00 00		 mov	 rax, QWORD PTR g$[rbp]
  002cb	8b 80 40 88 00
	00		 mov	 eax, DWORD PTR [rax+34880]
  002d1	ff c8		 dec	 eax
  002d3	48 8b 8d 40 01
	00 00		 mov	 rcx, QWORD PTR g$[rbp]
  002da	89 81 40 88 00
	00		 mov	 DWORD PTR [rcx+34880], eax

; 6236 :         }

  002e0	e9 44 ff ff ff	 jmp	 $LN2@stbi__out_
$LN3@stbi__out_:
$LN7@stbi__out_:
$LN1@stbi__out_:

; 6237 :     }
; 6238 : }

  002e5	48 8d a5 28 01
	00 00		 lea	 rsp, QWORD PTR [rbp+296]
  002ec	5f		 pop	 rdi
  002ed	5d		 pop	 rbp
  002ee	c3		 ret	 0
stbi__out_gif_code ENDP
_TEXT	ENDS
; Function compile flags: /Odtp /RTCsu /ZI
; File D:\NitloadIndustry\\1-Flagship\TH2020\ProjectFile\\StgSharpC\stb_image.c
;	COMDAT stbi__gif_info_raw
_TEXT	SEGMENT
g$ = 8
s$ = 256
x$ = 264
y$ = 272
comp$ = 280
stbi__gif_info_raw PROC					; COMDAT

; 6189 : {

  00000	4c 89 4c 24 20	 mov	 QWORD PTR [rsp+32], r9
  00005	4c 89 44 24 18	 mov	 QWORD PTR [rsp+24], r8
  0000a	48 89 54 24 10	 mov	 QWORD PTR [rsp+16], rdx
  0000f	48 89 4c 24 08	 mov	 QWORD PTR [rsp+8], rcx
  00014	55		 push	 rbp
  00015	57		 push	 rdi
  00016	48 81 ec 08 01
	00 00		 sub	 rsp, 264		; 00000108H
  0001d	48 8d 6c 24 20	 lea	 rbp, QWORD PTR [rsp+32]
  00022	48 8d 0d 00 00
	00 00		 lea	 rcx, OFFSET FLAT:__C5A6C9A6_stb_image@c
  00029	e8 00 00 00 00	 call	 __CheckForDebuggerJustMyCode

; 6190 :     stbi__gif* g = (stbi__gif*)stbi__malloc(sizeof(stbi__gif));

  0002e	b9 70 88 00 00	 mov	 ecx, 34928		; 00008870H
  00033	e8 00 00 00 00	 call	 stbi__malloc
  00038	48 89 45 08	 mov	 QWORD PTR g$[rbp], rax

; 6191 :     if (!g) return stbi__err("outofmem", "Out of memory");

  0003c	48 83 7d 08 00	 cmp	 QWORD PTR g$[rbp], 0
  00041	75 0e		 jne	 SHORT $LN2@stbi__gif_
  00043	48 8d 0d 00 00
	00 00		 lea	 rcx, OFFSET FLAT:??_C@_08NOGIMCHF@outofmem@
  0004a	e8 00 00 00 00	 call	 stbi__err
  0004f	eb 7d		 jmp	 SHORT $LN1@stbi__gif_
$LN2@stbi__gif_:

; 6192 :     if (!stbi__gif_header(s, g, comp, 1)) {

  00051	41 b9 01 00 00
	00		 mov	 r9d, 1
  00057	4c 8b 85 18 01
	00 00		 mov	 r8, QWORD PTR comp$[rbp]
  0005e	48 8b 55 08	 mov	 rdx, QWORD PTR g$[rbp]
  00062	48 8b 8d 00 01
	00 00		 mov	 rcx, QWORD PTR s$[rbp]
  00069	e8 00 00 00 00	 call	 stbi__gif_header
  0006e	85 c0		 test	 eax, eax
  00070	75 1a		 jne	 SHORT $LN3@stbi__gif_

; 6193 :         STBI_FREE(g);

  00072	48 8b 4d 08	 mov	 rcx, QWORD PTR g$[rbp]
  00076	ff 15 00 00 00
	00		 call	 QWORD PTR __imp_free

; 6194 :         stbi__rewind(s);

  0007c	48 8b 8d 00 01
	00 00		 mov	 rcx, QWORD PTR s$[rbp]
  00083	e8 00 00 00 00	 call	 stbi__rewind

; 6195 :         return 0;

  00088	33 c0		 xor	 eax, eax
  0008a	eb 42		 jmp	 SHORT $LN1@stbi__gif_
$LN3@stbi__gif_:

; 6196 :     }
; 6197 :     if (x) *x = g->w;

  0008c	48 83 bd 08 01
	00 00 00	 cmp	 QWORD PTR x$[rbp], 0
  00094	74 0f		 je	 SHORT $LN4@stbi__gif_
  00096	48 8b 85 08 01
	00 00		 mov	 rax, QWORD PTR x$[rbp]
  0009d	48 8b 4d 08	 mov	 rcx, QWORD PTR g$[rbp]
  000a1	8b 09		 mov	 ecx, DWORD PTR [rcx]
  000a3	89 08		 mov	 DWORD PTR [rax], ecx
$LN4@stbi__gif_:

; 6198 :     if (y) *y = g->h;

  000a5	48 83 bd 10 01
	00 00 00	 cmp	 QWORD PTR y$[rbp], 0
  000ad	74 10		 je	 SHORT $LN5@stbi__gif_
  000af	48 8b 85 10 01
	00 00		 mov	 rax, QWORD PTR y$[rbp]
  000b6	48 8b 4d 08	 mov	 rcx, QWORD PTR g$[rbp]
  000ba	8b 49 04	 mov	 ecx, DWORD PTR [rcx+4]
  000bd	89 08		 mov	 DWORD PTR [rax], ecx
$LN5@stbi__gif_:

; 6199 :     STBI_FREE(g);

  000bf	48 8b 4d 08	 mov	 rcx, QWORD PTR g$[rbp]
  000c3	ff 15 00 00 00
	00		 call	 QWORD PTR __imp_free

; 6200 :     return 1;

  000c9	b8 01 00 00 00	 mov	 eax, 1
$LN1@stbi__gif_:

; 6201 : }

  000ce	48 8d a5 e8 00
	00 00		 lea	 rsp, QWORD PTR [rbp+232]
  000d5	5f		 pop	 rdi
  000d6	5d		 pop	 rbp
  000d7	c3		 ret	 0
stbi__gif_info_raw ENDP
_TEXT	ENDS
; Function compile flags: /Odtp /RTCsu /ZI
; File D:\NitloadIndustry\\1-Flagship\TH2020\ProjectFile\\StgSharpC\stb_image.c
;	COMDAT stbi__gif_header
_TEXT	SEGMENT
version$ = 4
tv225 = 212
s$ = 256
g$ = 264
comp$ = 272
is_info$ = 280
stbi__gif_header PROC					; COMDAT

; 6158 : {

  00000	44 89 4c 24 20	 mov	 DWORD PTR [rsp+32], r9d
  00005	4c 89 44 24 18	 mov	 QWORD PTR [rsp+24], r8
  0000a	48 89 54 24 10	 mov	 QWORD PTR [rsp+16], rdx
  0000f	48 89 4c 24 08	 mov	 QWORD PTR [rsp+8], rcx
  00014	55		 push	 rbp
  00015	57		 push	 rdi
  00016	48 81 ec 08 01
	00 00		 sub	 rsp, 264		; 00000108H
  0001d	48 8d 6c 24 20	 lea	 rbp, QWORD PTR [rsp+32]
  00022	48 8d 0d 00 00
	00 00		 lea	 rcx, OFFSET FLAT:__C5A6C9A6_stb_image@c
  00029	e8 00 00 00 00	 call	 __CheckForDebuggerJustMyCode

; 6159 :     stbi_uc version;
; 6160 :     if (stbi__get8(s) != 'G' || stbi__get8(s) != 'I' || stbi__get8(s) != 'F' || stbi__get8(s) != '8')

  0002e	48 8b 8d 00 01
	00 00		 mov	 rcx, QWORD PTR s$[rbp]
  00035	e8 00 00 00 00	 call	 stbi__get8
  0003a	0f b6 c0	 movzx	 eax, al
  0003d	83 f8 47	 cmp	 eax, 71			; 00000047H
  00040	75 3c		 jne	 SHORT $LN3@stbi__gif_
  00042	48 8b 8d 00 01
	00 00		 mov	 rcx, QWORD PTR s$[rbp]
  00049	e8 00 00 00 00	 call	 stbi__get8
  0004e	0f b6 c0	 movzx	 eax, al
  00051	83 f8 49	 cmp	 eax, 73			; 00000049H
  00054	75 28		 jne	 SHORT $LN3@stbi__gif_
  00056	48 8b 8d 00 01
	00 00		 mov	 rcx, QWORD PTR s$[rbp]
  0005d	e8 00 00 00 00	 call	 stbi__get8
  00062	0f b6 c0	 movzx	 eax, al
  00065	83 f8 46	 cmp	 eax, 70			; 00000046H
  00068	75 14		 jne	 SHORT $LN3@stbi__gif_
  0006a	48 8b 8d 00 01
	00 00		 mov	 rcx, QWORD PTR s$[rbp]
  00071	e8 00 00 00 00	 call	 stbi__get8
  00076	0f b6 c0	 movzx	 eax, al
  00079	83 f8 38	 cmp	 eax, 56			; 00000038H
  0007c	74 11		 je	 SHORT $LN2@stbi__gif_
$LN3@stbi__gif_:

; 6161 :         return stbi__err("not GIF", "Corrupt GIF");

  0007e	48 8d 0d 00 00
	00 00		 lea	 rcx, OFFSET FLAT:??_C@_07KMJLPAII@not?5GIF@
  00085	e8 00 00 00 00	 call	 stbi__err
  0008a	e9 c6 01 00 00	 jmp	 $LN1@stbi__gif_
$LN2@stbi__gif_:

; 6162 : 
; 6163 :     version = stbi__get8(s);

  0008f	48 8b 8d 00 01
	00 00		 mov	 rcx, QWORD PTR s$[rbp]
  00096	e8 00 00 00 00	 call	 stbi__get8
  0009b	88 45 04	 mov	 BYTE PTR version$[rbp], al

; 6164 :     if (version != '7' && version != '9')    return stbi__err("not GIF", "Corrupt GIF");

  0009e	0f b6 45 04	 movzx	 eax, BYTE PTR version$[rbp]
  000a2	83 f8 37	 cmp	 eax, 55			; 00000037H
  000a5	74 1a		 je	 SHORT $LN4@stbi__gif_
  000a7	0f b6 45 04	 movzx	 eax, BYTE PTR version$[rbp]
  000ab	83 f8 39	 cmp	 eax, 57			; 00000039H
  000ae	74 11		 je	 SHORT $LN4@stbi__gif_
  000b0	48 8d 0d 00 00
	00 00		 lea	 rcx, OFFSET FLAT:??_C@_07KMJLPAII@not?5GIF@
  000b7	e8 00 00 00 00	 call	 stbi__err
  000bc	e9 94 01 00 00	 jmp	 $LN1@stbi__gif_
$LN4@stbi__gif_:

; 6165 :     if (stbi__get8(s) != 'a')                return stbi__err("not GIF", "Corrupt GIF");

  000c1	48 8b 8d 00 01
	00 00		 mov	 rcx, QWORD PTR s$[rbp]
  000c8	e8 00 00 00 00	 call	 stbi__get8
  000cd	0f b6 c0	 movzx	 eax, al
  000d0	83 f8 61	 cmp	 eax, 97			; 00000061H
  000d3	74 11		 je	 SHORT $LN5@stbi__gif_
  000d5	48 8d 0d 00 00
	00 00		 lea	 rcx, OFFSET FLAT:??_C@_07KMJLPAII@not?5GIF@
  000dc	e8 00 00 00 00	 call	 stbi__err
  000e1	e9 6f 01 00 00	 jmp	 $LN1@stbi__gif_
$LN5@stbi__gif_:

; 6166 : 
; 6167 :     stbi__g_failure_reason = "";

  000e6	b8 00 00 00 00	 mov	 eax, OFFSET FLAT:stbi__g_failure_reason
  000eb	8b c0		 mov	 eax, eax
  000ed	8b 0d 00 00 00
	00		 mov	 ecx, DWORD PTR _tls_index
  000f3	65 48 8b 14 25
	58 00 00 00	 mov	 rdx, QWORD PTR gs:88
  000fc	48 8b 0c ca	 mov	 rcx, QWORD PTR [rdx+rcx*8]
  00100	48 8d 15 00 00
	00 00		 lea	 rdx, OFFSET FLAT:??_C@_00CNPNBAHC@@
  00107	48 89 14 08	 mov	 QWORD PTR [rax+rcx], rdx

; 6168 :     g->w = stbi__get16le(s);

  0010b	48 8b 8d 00 01
	00 00		 mov	 rcx, QWORD PTR s$[rbp]
  00112	e8 00 00 00 00	 call	 stbi__get16le
  00117	48 8b 8d 08 01
	00 00		 mov	 rcx, QWORD PTR g$[rbp]
  0011e	89 01		 mov	 DWORD PTR [rcx], eax

; 6169 :     g->h = stbi__get16le(s);

  00120	48 8b 8d 00 01
	00 00		 mov	 rcx, QWORD PTR s$[rbp]
  00127	e8 00 00 00 00	 call	 stbi__get16le
  0012c	48 8b 8d 08 01
	00 00		 mov	 rcx, QWORD PTR g$[rbp]
  00133	89 41 04	 mov	 DWORD PTR [rcx+4], eax

; 6170 :     g->flags = stbi__get8(s);

  00136	48 8b 8d 00 01
	00 00		 mov	 rcx, QWORD PTR s$[rbp]
  0013d	e8 00 00 00 00	 call	 stbi__get8
  00142	0f b6 c0	 movzx	 eax, al
  00145	48 8b 8d 08 01
	00 00		 mov	 rcx, QWORD PTR g$[rbp]
  0014c	89 41 20	 mov	 DWORD PTR [rcx+32], eax

; 6171 :     g->bgindex = stbi__get8(s);

  0014f	48 8b 8d 00 01
	00 00		 mov	 rcx, QWORD PTR s$[rbp]
  00156	e8 00 00 00 00	 call	 stbi__get8
  0015b	0f b6 c0	 movzx	 eax, al
  0015e	48 8b 8d 08 01
	00 00		 mov	 rcx, QWORD PTR g$[rbp]
  00165	89 41 24	 mov	 DWORD PTR [rcx+36], eax

; 6172 :     g->ratio = stbi__get8(s);

  00168	48 8b 8d 00 01
	00 00		 mov	 rcx, QWORD PTR s$[rbp]
  0016f	e8 00 00 00 00	 call	 stbi__get8
  00174	0f b6 c0	 movzx	 eax, al
  00177	48 8b 8d 08 01
	00 00		 mov	 rcx, QWORD PTR g$[rbp]
  0017e	89 41 28	 mov	 DWORD PTR [rcx+40], eax

; 6173 :     g->transparent = -1;

  00181	48 8b 85 08 01
	00 00		 mov	 rax, QWORD PTR g$[rbp]
  00188	c7 40 2c ff ff
	ff ff		 mov	 DWORD PTR [rax+44], -1

; 6174 : 
; 6175 :     if (g->w > STBI_MAX_DIMENSIONS) return stbi__err("too large", "Very large image (corrupt?)");

  0018f	48 8b 85 08 01
	00 00		 mov	 rax, QWORD PTR g$[rbp]
  00196	81 38 00 00 00
	01		 cmp	 DWORD PTR [rax], 16777216 ; 01000000H
  0019c	7e 11		 jle	 SHORT $LN6@stbi__gif_
  0019e	48 8d 0d 00 00
	00 00		 lea	 rcx, OFFSET FLAT:??_C@_09OJDLMMBJ@too?5large@
  001a5	e8 00 00 00 00	 call	 stbi__err
  001aa	e9 a6 00 00 00	 jmp	 $LN1@stbi__gif_
$LN6@stbi__gif_:

; 6176 :     if (g->h > STBI_MAX_DIMENSIONS) return stbi__err("too large", "Very large image (corrupt?)");

  001af	48 8b 85 08 01
	00 00		 mov	 rax, QWORD PTR g$[rbp]
  001b6	81 78 04 00 00
	00 01		 cmp	 DWORD PTR [rax+4], 16777216 ; 01000000H
  001bd	7e 11		 jle	 SHORT $LN7@stbi__gif_
  001bf	48 8d 0d 00 00
	00 00		 lea	 rcx, OFFSET FLAT:??_C@_09OJDLMMBJ@too?5large@
  001c6	e8 00 00 00 00	 call	 stbi__err
  001cb	e9 85 00 00 00	 jmp	 $LN1@stbi__gif_
$LN7@stbi__gif_:

; 6177 : 
; 6178 :     if (comp != 0) *comp = 4;  // can't actually tell whether it's 3 or 4 until we parse the comments

  001d0	48 83 bd 10 01
	00 00 00	 cmp	 QWORD PTR comp$[rbp], 0
  001d8	74 0d		 je	 SHORT $LN8@stbi__gif_
  001da	48 8b 85 10 01
	00 00		 mov	 rax, QWORD PTR comp$[rbp]
  001e1	c7 00 04 00 00
	00		 mov	 DWORD PTR [rax], 4
$LN8@stbi__gif_:

; 6179 : 
; 6180 :     if (is_info) return 1;

  001e7	83 bd 18 01 00
	00 00		 cmp	 DWORD PTR is_info$[rbp], 0
  001ee	74 07		 je	 SHORT $LN9@stbi__gif_
  001f0	b8 01 00 00 00	 mov	 eax, 1
  001f5	eb 5e		 jmp	 SHORT $LN1@stbi__gif_
$LN9@stbi__gif_:

; 6181 : 
; 6182 :     if (g->flags & 0x80)

  001f7	48 8b 85 08 01
	00 00		 mov	 rax, QWORD PTR g$[rbp]
  001fe	8b 40 20	 mov	 eax, DWORD PTR [rax+32]
  00201	25 80 00 00 00	 and	 eax, 128		; 00000080H
  00206	85 c0		 test	 eax, eax
  00208	74 46		 je	 SHORT $LN10@stbi__gif_

; 6183 :         stbi__gif_parse_colortable(s, g->pal, 2 << (g->flags & 7), -1);

  0020a	48 8b 85 08 01
	00 00		 mov	 rax, QWORD PTR g$[rbp]
  00211	8b 40 20	 mov	 eax, DWORD PTR [rax+32]
  00214	83 e0 07	 and	 eax, 7
  00217	b9 02 00 00 00	 mov	 ecx, 2
  0021c	89 8d d4 00 00
	00		 mov	 DWORD PTR tv225[rbp], ecx
  00222	0f b6 c8	 movzx	 ecx, al
  00225	8b 85 d4 00 00
	00		 mov	 eax, DWORD PTR tv225[rbp]
  0022b	d3 e0		 shl	 eax, cl
  0022d	48 8b 8d 08 01
	00 00		 mov	 rcx, QWORD PTR g$[rbp]
  00234	48 83 c1 34	 add	 rcx, 52			; 00000034H
  00238	41 b9 ff ff ff
	ff		 mov	 r9d, -1
  0023e	44 8b c0	 mov	 r8d, eax
  00241	48 8b d1	 mov	 rdx, rcx
  00244	48 8b 8d 00 01
	00 00		 mov	 rcx, QWORD PTR s$[rbp]
  0024b	e8 00 00 00 00	 call	 stbi__gif_parse_colortable
$LN10@stbi__gif_:

; 6184 : 
; 6185 :     return 1;

  00250	b8 01 00 00 00	 mov	 eax, 1
$LN1@stbi__gif_:

; 6186 : }

  00255	48 8d a5 e8 00
	00 00		 lea	 rsp, QWORD PTR [rbp+232]
  0025c	5f		 pop	 rdi
  0025d	5d		 pop	 rbp
  0025e	c3		 ret	 0
stbi__gif_header ENDP
_TEXT	ENDS
; Function compile flags: /Odtp /RTCsu /ZI
; File D:\NitloadIndustry\\1-Flagship\TH2020\ProjectFile\\StgSharpC\stb_image.c
;	COMDAT stbi__gif_parse_colortable
_TEXT	SEGMENT
i$ = 4
tv93 = 212
s$ = 256
pal$ = 264
num_entries$ = 272
transp$ = 280
stbi__gif_parse_colortable PROC				; COMDAT

; 6147 : {

  00000	44 89 4c 24 20	 mov	 DWORD PTR [rsp+32], r9d
  00005	44 89 44 24 18	 mov	 DWORD PTR [rsp+24], r8d
  0000a	48 89 54 24 10	 mov	 QWORD PTR [rsp+16], rdx
  0000f	48 89 4c 24 08	 mov	 QWORD PTR [rsp+8], rcx
  00014	55		 push	 rbp
  00015	57		 push	 rdi
  00016	48 81 ec 08 01
	00 00		 sub	 rsp, 264		; 00000108H
  0001d	48 8d 6c 24 20	 lea	 rbp, QWORD PTR [rsp+32]
  00022	48 8d 0d 00 00
	00 00		 lea	 rcx, OFFSET FLAT:__C5A6C9A6_stb_image@c
  00029	e8 00 00 00 00	 call	 __CheckForDebuggerJustMyCode

; 6148 :     int i;
; 6149 :     for (i = 0; i < num_entries; ++i) {

  0002e	c7 45 04 00 00
	00 00		 mov	 DWORD PTR i$[rbp], 0
  00035	eb 08		 jmp	 SHORT $LN4@stbi__gif_
$LN2@stbi__gif_:
  00037	8b 45 04	 mov	 eax, DWORD PTR i$[rbp]
  0003a	ff c0		 inc	 eax
  0003c	89 45 04	 mov	 DWORD PTR i$[rbp], eax
$LN4@stbi__gif_:
  0003f	8b 85 10 01 00
	00		 mov	 eax, DWORD PTR num_entries$[rbp]
  00045	39 45 04	 cmp	 DWORD PTR i$[rbp], eax
  00048	0f 8d bd 00 00
	00		 jge	 $LN3@stbi__gif_

; 6150 :         pal[i][2] = stbi__get8(s);

  0004e	48 8b 8d 00 01
	00 00		 mov	 rcx, QWORD PTR s$[rbp]
  00055	e8 00 00 00 00	 call	 stbi__get8
  0005a	48 63 4d 04	 movsxd	 rcx, DWORD PTR i$[rbp]
  0005e	48 8b 95 08 01
	00 00		 mov	 rdx, QWORD PTR pal$[rbp]
  00065	48 8d 0c 8a	 lea	 rcx, QWORD PTR [rdx+rcx*4]
  00069	ba 01 00 00 00	 mov	 edx, 1
  0006e	48 6b d2 02	 imul	 rdx, rdx, 2
  00072	88 04 11	 mov	 BYTE PTR [rcx+rdx], al

; 6151 :         pal[i][1] = stbi__get8(s);

  00075	48 8b 8d 00 01
	00 00		 mov	 rcx, QWORD PTR s$[rbp]
  0007c	e8 00 00 00 00	 call	 stbi__get8
  00081	48 63 4d 04	 movsxd	 rcx, DWORD PTR i$[rbp]
  00085	48 8b 95 08 01
	00 00		 mov	 rdx, QWORD PTR pal$[rbp]
  0008c	48 8d 0c 8a	 lea	 rcx, QWORD PTR [rdx+rcx*4]
  00090	ba 01 00 00 00	 mov	 edx, 1
  00095	48 6b d2 01	 imul	 rdx, rdx, 1
  00099	88 04 11	 mov	 BYTE PTR [rcx+rdx], al

; 6152 :         pal[i][0] = stbi__get8(s);

  0009c	48 8b 8d 00 01
	00 00		 mov	 rcx, QWORD PTR s$[rbp]
  000a3	e8 00 00 00 00	 call	 stbi__get8
  000a8	48 63 4d 04	 movsxd	 rcx, DWORD PTR i$[rbp]
  000ac	48 8b 95 08 01
	00 00		 mov	 rdx, QWORD PTR pal$[rbp]
  000b3	48 8d 0c 8a	 lea	 rcx, QWORD PTR [rdx+rcx*4]
  000b7	ba 01 00 00 00	 mov	 edx, 1
  000bc	48 6b d2 00	 imul	 rdx, rdx, 0
  000c0	88 04 11	 mov	 BYTE PTR [rcx+rdx], al

; 6153 :         pal[i][3] = transp == i ? 0 : 255;

  000c3	8b 45 04	 mov	 eax, DWORD PTR i$[rbp]
  000c6	39 85 18 01 00
	00		 cmp	 DWORD PTR transp$[rbp], eax
  000cc	75 0c		 jne	 SHORT $LN6@stbi__gif_
  000ce	c7 85 d4 00 00
	00 00 00 00 00	 mov	 DWORD PTR tv93[rbp], 0
  000d8	eb 0a		 jmp	 SHORT $LN7@stbi__gif_
$LN6@stbi__gif_:
  000da	c7 85 d4 00 00
	00 ff 00 00 00	 mov	 DWORD PTR tv93[rbp], 255 ; 000000ffH
$LN7@stbi__gif_:
  000e4	48 63 45 04	 movsxd	 rax, DWORD PTR i$[rbp]
  000e8	48 8b 8d 08 01
	00 00		 mov	 rcx, QWORD PTR pal$[rbp]
  000ef	48 8d 04 81	 lea	 rax, QWORD PTR [rcx+rax*4]
  000f3	b9 01 00 00 00	 mov	 ecx, 1
  000f8	48 6b c9 03	 imul	 rcx, rcx, 3
  000fc	0f b6 95 d4 00
	00 00		 movzx	 edx, BYTE PTR tv93[rbp]
  00103	88 14 08	 mov	 BYTE PTR [rax+rcx], dl

; 6154 :     }

  00106	e9 2c ff ff ff	 jmp	 $LN2@stbi__gif_
$LN3@stbi__gif_:

; 6155 : }

  0010b	48 8d a5 e8 00
