; Listing generated by Microsoft (R) Optimizing Compiler Version 19.39.33523.0 

include listing.inc

INCLUDELIB OLDNAMES

EXTRN	__imp__aligned_free:PROC
PUBLIC	deinit_mat2
PUBLIC	transpose2to4
PUBLIC	transpose2to3
; Function compile flags: /Ogtpy
;	COMDAT transpose2to3
_TEXT	SEGMENT
source$ = 8
target$ = 16
transpose2to3 PROC					; COMDAT
; File D:\NitloadIndustry\研究项目\1-Flagship\TH2020\ProjectFile\源代码\StgSharpC\mat2.c
; Line 6
  00000	0f 10 21	 movups	 xmm4, XMMWORD PTR [rcx]
  00003	0f 10 59 10	 movups	 xmm3, XMMWORD PTR [rcx+16]
  00007	0f 28 cc	 movaps	 xmm1, xmm4
  0000a	0f 57 d2	 xorps	 xmm2, xmm2
  0000d	0f c6 cb 44	 shufps	 xmm1, xmm3, 68		; 00000044H
; Line 9
  00011	0f 28 c1	 movaps	 xmm0, xmm1
  00014	0f c6 e3 ee	 shufps	 xmm4, xmm3, 238		; 000000eeH
  00018	0f c6 c2 88	 shufps	 xmm0, xmm2, 136		; 00000088H
; Line 10
  0001c	0f c6 ca dd	 shufps	 xmm1, xmm2, 221		; 000000ddH
; Line 11
  00020	0f c6 e2 88	 shufps	 xmm4, xmm2, 136		; 00000088H
  00024	0f 11 02	 movups	 XMMWORD PTR [rdx], xmm0
  00027	0f 11 4a 10	 movups	 XMMWORD PTR [rdx+16], xmm1
  0002b	0f 11 62 20	 movups	 XMMWORD PTR [rdx+32], xmm4
; Line 12
  0002f	c3		 ret	 0
transpose2to3 ENDP
_TEXT	ENDS
; Function compile flags: /Ogtpy
;	COMDAT transpose2to4
_TEXT	SEGMENT
source$ = 8
target$ = 16
transpose2to4 PROC					; COMDAT
; File D:\NitloadIndustry\研究项目\1-Flagship\TH2020\ProjectFile\源代码\StgSharpC\mat2.c
; Line 16
  00000	0f 10 41 10	 movups	 xmm0, XMMWORD PTR [rcx+16]
  00004	0f 10 19	 movups	 xmm3, XMMWORD PTR [rcx]
  00007	0f 57 c9	 xorps	 xmm1, xmm1
  0000a	0f 28 d3	 movaps	 xmm2, xmm3
; Line 17
  0000d	0f c6 d8 ee	 shufps	 xmm3, xmm0, 238		; 000000eeH
  00011	0f c6 d0 44	 shufps	 xmm2, xmm0, 68		; 00000044H
; Line 19
  00015	0f 28 c2	 movaps	 xmm0, xmm2
; Line 20
  00018	0f c6 d1 dd	 shufps	 xmm2, xmm1, 221		; 000000ddH
  0001c	0f c6 c1 88	 shufps	 xmm0, xmm1, 136		; 00000088H
  00020	0f 11 02	 movups	 XMMWORD PTR [rdx], xmm0
; Line 21
  00023	0f 28 c3	 movaps	 xmm0, xmm3
  00026	0f c6 c1 88	 shufps	 xmm0, xmm1, 136		; 00000088H
; Line 22
  0002a	0f c6 d9 dd	 shufps	 xmm3, xmm1, 221		; 000000ddH
  0002e	0f 11 42 20	 movups	 XMMWORD PTR [rdx+32], xmm0
  00032	0f 11 52 10	 movups	 XMMWORD PTR [rdx+16], xmm2
  00036	0f 11 5a 30	 movups	 XMMWORD PTR [rdx+48], xmm3
; Line 23
  0003a	c3		 ret	 0
transpose2to4 ENDP
_TEXT	ENDS
; Function compile flags: /Ogtpy
;	COMDAT deinit_mat2
_TEXT	SEGMENT
mat$ = 8
deinit_mat2 PROC					; COMDAT
; File D:\NitloadIndustry\研究项目\1-Flagship\TH2020\ProjectFile\源代码\StgSharpC\mat2.c
; Line 27
  00000	48 ff 25 00 00
	00 00		 rex_jmp QWORD PTR __imp__aligned_free
deinit_mat2 ENDP
_TEXT	ENDS
END
