; Listing generated by Microsoft (R) Optimizing Compiler Version 19.39.33519.0 

include listing.inc

INCLUDELIB OLDNAMES

PUBLIC	??_C@_0BD@CBEDEJPH@unknown?5image?5type@	; `string'
PUBLIC	??_C@_08NOGIMCHF@outofmem@			; `string'
PUBLIC	??_C@_02JDPG@rb@				; `string'
PUBLIC	??_C@_0M@JPDHFAGK@can?8t?5fopen@		; `string'
PUBLIC	??_C@_0CB@DDANHPKI@can?8t?5fopen?0?5Unable?5to?5open?5fil@ ; `string'
PUBLIC	??_C@_0M@MHDBFHD@unsupported@			; `string'
PUBLIC	??_C@_0O@DEFOLMLB@bad?5size?5list@		; `string'
PUBLIC	??_C@_0BB@FOKGPEKG@bad?5code?5lengths@		; `string'
PUBLIC	??_C@_0BB@IIMLINA@bad?5huffman?5code@		; `string'
PUBLIC	??_C@_09IFDKCGFO@bad?5delta@			; `string'
PUBLIC	??_C@_0BG@PJBJDAGM@can?8t?5merge?5dc?5and?5ac@	; `string'
PUBLIC	??_C@_0BA@KLNDOKJD@expected?5marker@		; `string'
PUBLIC	??_C@_0M@LPHNODCG@bad?5DRI?5len@		; `string'
PUBLIC	??_C@_0N@BOFJCHAP@bad?5DQT?5type@		; `string'
PUBLIC	??_C@_0O@CNHKKDIM@bad?5DQT?5table@		; `string'
PUBLIC	??_C@_0P@JLGKOCGN@bad?5DHT?5header@		; `string'
PUBLIC	??_C@_0M@CICAFFCH@bad?5COM?5len@		; `string'
PUBLIC	??_C@_0M@EENLKPDI@bad?5APP?5len@		; `string'
PUBLIC	??_C@_0P@NNGPHMMK@unknown?5marker@		; `string'
PUBLIC	??_C@_0BI@DHFJCMBA@bad?5SOS?5component?5count@	; `string'
PUBLIC	??_C@_0M@GNEHAHOH@bad?5SOS?5len@		; `string'
PUBLIC	??_C@_0M@NOCCBFAC@bad?5DC?5huff@		; `string'
PUBLIC	??_C@_0M@JGMCBLGG@bad?5AC?5huff@		; `string'
PUBLIC	??_C@_07EEJOMGGP@bad?5SOS@			; `string'
PUBLIC	??_C@_0M@DOFMJEMP@bad?5SOF?5len@		; `string'
PUBLIC	??_C@_0L@BCINMEBJ@only?58?9bit@			; `string'
PUBLIC	??_C@_0BB@LNEGOMA@no?5header?5height@		; `string'
PUBLIC	??_C@_07BIDACDEF@0?5width@			; `string'
PUBLIC	??_C@_09OJDLMMBJ@too?5large@			; `string'
PUBLIC	??_C@_0BE@DAPHADHL@bad?5component?5count@	; `string'
PUBLIC	??_C@_05BLPKENEJ@bad?5H@			; `string'
PUBLIC	??_C@_05MPLLHCJG@bad?5V@			; `string'
PUBLIC	??_C@_06LJIHDFHI@bad?5TQ@			; `string'
PUBLIC	??_C@_06CLMBLEP@no?5SOI@			; `string'
PUBLIC	??_C@_06IFCEAHIA@no?5SOF@			; `string'
PUBLIC	??_C@_0M@EPMOIECP@bad?5DNL?5len@		; `string'
PUBLIC	??_C@_0P@PNCLKCLJ@bad?5DNL?5height@		; `string'
PUBLIC	??_C@_0N@KBPNPPBJ@bad?5req_comp@		; `string'
PUBLIC	??_C@_09EOHLEIKL@bad?5sizes@			; `string'
PUBLIC	??_C@_0BA@MDNKOBMC@bad?5codelengths@		; `string'
PUBLIC	??_C@_0BE@IBFIPFO@output?5buffer?5limit@	; `string'
PUBLIC	??_C@_08DIAPIMGJ@bad?5dist@			; `string'
PUBLIC	??_C@_0N@IECDHMDI@zlib?5corrupt@		; `string'
PUBLIC	??_C@_0BB@PIPBCKIA@read?5past?5buffer@		; `string'
PUBLIC	??_C@_0BA@OBKOPAFL@bad?5zlib?5header@		; `string'
PUBLIC	??_C@_0P@DOGMHEBI@no?5preset?5dict@		; `string'
PUBLIC	??_C@_0BA@MCNBDLPD@bad?5compression@		; `string'
PUBLIC	??_C@_0M@DMDNBACF@bad?5png?5sig@		; `string'
PUBLIC	??_C@_0BC@BHMPBBMG@not?5enough?5pixels@		; `string'
PUBLIC	??_C@_0P@FBBCPGMN@invalid?5filter@		; `string'
PUBLIC	??_C@_0O@MKGNGALN@invalid?5width@		; `string'
PUBLIC	??_C@_0O@KBHBNJOK@multiple?5IHDR@		; `string'
PUBLIC	??_C@_0N@POJLKMKK@bad?5IHDR?5len@		; `string'
PUBLIC	??_C@_0BE@EJHIPKNO@1?12?14?18?116?9bit?5only@	; `string'
PUBLIC	??_C@_09MBBNGCKB@bad?5ctype@			; `string'
PUBLIC	??_C@_0BA@MDMBDDFG@bad?5comp?5method@		; `string'
PUBLIC	??_C@_0BC@GHLIKKMD@bad?5filter?5method@		; `string'
PUBLIC	??_C@_0BF@JCGDPBAA@bad?5interlace?5method@	; `string'
PUBLIC	??_C@_0O@FNFBHCOO@0?9pixel?5image@		; `string'
PUBLIC	??_C@_0P@JEAFOMAF@first?5not?5IHDR@		; `string'
PUBLIC	??_C@_0N@JCPAJAKB@invalid?5PLTE@		; `string'
PUBLIC	??_C@_0BA@PCPJHDKJ@tRNS?5after?5IDAT@		; `string'
PUBLIC	??_C@_0BB@CEDNNLBG@tRNS?5before?5PLTE@		; `string'
PUBLIC	??_C@_0N@KDLCCKCH@bad?5tRNS?5len@		; `string'
PUBLIC	??_C@_0BA@ENDPGCHB@tRNS?5with?5alpha@		; `string'
PUBLIC	??_C@_07CKIELOEH@no?5PLTE@			; `string'
PUBLIC	??_C@_0BA@PLHGLONG@IDAT?5size?5limit@		; `string'
PUBLIC	??_C@_09MNNCNKEO@outofdata@			; `string'
PUBLIC	??_C@_07MLPECBNA@no?5IDAT@			; `string'
PUBLIC	??_C@_0BF@NOEEEFMF@bad?5bits_per_channel@	; `string'
PUBLIC	??_C@_07IANEBNLB@not?5BMP@			; `string'
PUBLIC	??_C@_07IEJCHBDI@bad?5BMP@			; `string'
PUBLIC	??_C@_0M@KHBIBJBG@unknown?5BMP@			; `string'
PUBLIC	??_C@_07IMHMNOIB@BMP?5RLE@			; `string'
PUBLIC	??_C@_0N@ODCBCBFN@BMP?5JPEG?1PNG@		; `string'
PUBLIC	??_C@_0L@PJHPAMCH@bad?5header@			; `string'
PUBLIC	??_C@_0L@JDPIFELH@bad?5offset@			; `string'
PUBLIC	??_C@_07MALOAKCI@invalid@			; `string'
PUBLIC	??_C@_07JNJHIMGH@bad?5bpp@			; `string'
PUBLIC	??_C@_09DAEBACAB@bad?5masks@			; `string'
PUBLIC	??_C@_0L@DMAPJJO@bad?5format@			; `string'
PUBLIC	??_C@_0M@ILLOCNCO@bad?5palette@			; `string'
PUBLIC	??_C@_07ECNCNLIK@not?5PSD@			; `string'
PUBLIC	??_C@_0O@CHBCDKKC@wrong?5version@		; `string'
PUBLIC	??_C@_0BE@PJBNGDBE@wrong?5channel?5count@	; `string'
PUBLIC	??_C@_0BG@NOLDLPP@unsupported?5bit?5depth@	; `string'
PUBLIC	??_C@_0BD@IOGGBMNK@wrong?5color?5format@	; `string'
PUBLIC	??_C@_07DPPMCAKL@corrupt@			; `string'
PUBLIC	??_C@_04KBFEPHFH@S?$IA?v4@			; `string'
PUBLIC	??_C@_04ELNJHLFH@PICT@				; `string'
PUBLIC	??_C@_08GGMBIFE@bad?5file@			; `string'
PUBLIC	??_C@_07KMJLPAII@not?5GIF@			; `string'
PUBLIC	??_C@_00CNPNBAHC@@				; `string'
PUBLIC	??_C@_0O@MGDACKOJ@no?5clear?5code@		; `string'
PUBLIC	??_C@_0P@GJNJCPDJ@too?5many?5codes@		; `string'
PUBLIC	??_C@_0BH@LOKBIIOJ@illegal?5code?5in?5raster@	; `string'
PUBLIC	??_C@_0BF@GIAALCNJ@bad?5Image?5Descriptor@	; `string'
PUBLIC	??_C@_0BE@NAMJKDNF@missing?5color?5table@	; `string'
PUBLIC	??_C@_0N@DJABBOOH@unknown?5code@		; `string'
PUBLIC	??_C@_0M@HOIDFNFN@?$CD?$DPRADIANCE?6@		; `string'
PUBLIC	??_C@_07KFDJIKCK@?$CD?$DPRGBE?6@		; `string'
PUBLIC	??_C@_0L@NCPEAJBD@?$CD?$DPRADIANCE@		; `string'
PUBLIC	??_C@_06NDOKKIDJ@?$CD?$DPRGBE@			; `string'
PUBLIC	??_C@_07NCIOKENI@not?5HDR@			; `string'
PUBLIC	??_C@_0BH@JFGBLLKC@FORMAT?$DN32?9bit_rle_rgbe@	; `string'
PUBLIC	??_C@_0BD@NKJFFLKL@unsupported?5format@		; `string'
PUBLIC	??_C@_03HKAKGGJN@?9Y?5@				; `string'
PUBLIC	??_C@_0BI@DCNDPIOH@unsupported?5data?5layout@	; `string'
PUBLIC	??_C@_03FOKDFDHG@?$CLX?5@			; `string'
PUBLIC	??_C@_0CA@JBEOCDFN@invalid?5decoded?5scanline?5length@ ; `string'
PUBLIC	??_C@_07IDKIDMGJ@bad?5PNM@			; `string'
PUBLIC	??_C@_0BH@OBINMOBC@integer?5parse?5overflow@	; `string'
PUBLIC	??_C@_0BC@CNFMOKHC@max?5value?5?$DO?565535@	; `string'
EXTRN	__imp_malloc:PROC
EXTRN	__imp_fread:PROC
EXTRN	__imp_feof:PROC
EXTRN	__imp_ungetc:PROC
EXTRN	__imp_free:PROC
EXTRN	__imp_ldexp:PROC
EXTRN	__imp_strtol:PROC
EXTRN	__imp_fopen_s:PROC
EXTRN	__imp_strncmp:PROC
EXTRN	__imp_fgetc:PROC
EXTRN	__imp_fseek:PROC
EXTRN	__imp_realloc:PROC
EXTRN	__imp_fclose:PROC
EXTRN	__imp_ferror:PROC
EXTRN	__imp_ftell:PROC
stbi__unpremultiply_on_load_global DD 01H DUP (?)
stbi__vertically_flip_on_load_global DD 01H DUP (?)
stbi__de_iphone_flag_global DD 01H DUP (?)
_BSS	ENDS
stbi__jbias DD	00H
	DD	0ffffffffH
	DD	0fffffffdH
	DD	0fffffff9H
	DD	0fffffff1H
	DD	0ffffffe1H
	DD	0ffffffc1H
	DD	0ffffff81H
	DD	0ffffff01H
	DD	0fffffe01H
	DD	0fffffc01H
	DD	0fffff801H
	DD	0fffff001H
	DD	0ffffe001H
	DD	0ffffc001H
	DD	0ffff8001H
stbi__zdefault_length DB 08H
	DB	08H
	DB	08H
	DB	08H
	DB	08H
	DB	08H
	DB	08H
	DB	08H
	DB	08H
	DB	08H
	DB	08H
	DB	08H
	DB	08H
	DB	08H
	DB	08H
	DB	08H
	DB	08H
	DB	08H
	DB	08H
	DB	08H
	DB	08H
	DB	08H
	DB	08H
	DB	08H
	DB	08H
	DB	08H
	DB	08H
	DB	08H
	DB	08H
	DB	08H
	DB	08H
	DB	08H
	DB	08H
	DB	08H
	DB	08H
	DB	08H
	DB	08H
	DB	08H
	DB	08H
	DB	08H
	DB	08H
	DB	08H
	DB	08H
	DB	08H
	DB	08H
	DB	08H
	DB	08H
	DB	08H
	DB	08H
	DB	08H
	DB	08H
	DB	08H
	DB	08H
	DB	08H
	DB	08H
	DB	08H
	DB	08H
	DB	08H
	DB	08H
	DB	08H
	DB	08H
	DB	08H
	DB	08H
	DB	08H
	DB	08H
	DB	08H
	DB	08H
	DB	08H
	DB	08H
	DB	08H
	DB	08H
	DB	08H
	DB	08H
	DB	08H
	DB	08H
	DB	08H
	DB	08H
	DB	08H
	DB	08H
	DB	08H
	DB	08H
	DB	08H
	DB	08H
	DB	08H
	DB	08H
	DB	08H
	DB	08H
	DB	08H
	DB	08H
	DB	08H
	DB	08H
	DB	08H
	DB	08H
	DB	08H
	DB	08H
	DB	08H
	DB	08H
	DB	08H
	DB	08H
	DB	08H
	DB	08H
	DB	08H
	DB	08H
	DB	08H
	DB	08H
	DB	08H
	DB	08H
	DB	08H
	DB	08H
	DB	08H
	DB	08H
	DB	08H
	DB	08H
	DB	08H
	DB	08H
	DB	08H
	DB	08H
	DB	08H
	DB	08H
	DB	08H
	DB	08H
	DB	08H
	DB	08H
	DB	08H
	DB	08H
	DB	08H
	DB	08H
	DB	08H
	DB	08H
	DB	08H
	DB	08H
	DB	08H
	DB	08H
	DB	08H
	DB	08H
	DB	08H
	DB	08H
	DB	08H
	DB	08H
	DB	08H
	DB	08H
	DB	08H
	DB	08H
	DB	08H
	DB	09H
	DB	09H
	DB	09H
	DB	09H
	DB	09H
	DB	09H
	DB	09H
	DB	09H
	DB	09H
	DB	09H
	DB	09H
	DB	09H
	DB	09H
	DB	09H
	DB	09H
	DB	09H
	DB	09H
	DB	09H
	DB	09H
	DB	09H
	DB	09H
	DB	09H
	DB	09H
	DB	09H
	DB	09H
	DB	09H
	DB	09H
	DB	09H
	DB	09H
	DB	09H
	DB	09H
	DB	09H
	DB	09H
	DB	09H
	DB	09H
	DB	09H
	DB	09H
	DB	09H
	DB	09H
	DB	09H
	DB	09H
	DB	09H
	DB	09H
	DB	09H
	DB	09H
	DB	09H
	DB	09H
	DB	09H
	DB	09H
	DB	09H
	DB	09H
	DB	09H
	DB	09H
	DB	09H
	DB	09H
	DB	09H
	DB	09H
	DB	09H
	DB	09H
	DB	09H
	DB	09H
	DB	09H
	DB	09H
	DB	09H
	DB	09H
	DB	09H
	DB	09H
	DB	09H
	DB	09H
	DB	09H
	DB	09H
	DB	09H
	DB	09H
	DB	09H
	DB	09H
	DB	09H
	DB	09H
	DB	09H
	DB	09H
	DB	09H
	DB	09H
	DB	09H
	DB	09H
	DB	09H
	DB	09H
	DB	09H
	DB	09H
	DB	09H
	DB	09H
	DB	09H
	DB	09H
	DB	09H
	DB	09H
	DB	09H
	DB	09H
	DB	09H
	DB	09H
	DB	09H
	DB	09H
	DB	09H
	DB	09H
	DB	09H
	DB	09H
	DB	09H
	DB	09H
	DB	09H
	DB	09H
	DB	09H
	DB	09H
	DB	09H
	DB	09H
	DB	09H
	DB	07H
	DB	07H
	DB	07H
	DB	07H
	DB	07H
	DB	07H
	DB	07H
	DB	07H
	DB	07H
	DB	07H
	DB	07H
	DB	07H
	DB	07H
	DB	07H
	DB	07H
	DB	07H
	DB	07H
	DB	07H
	DB	07H
	DB	07H
	DB	07H
	DB	07H
	DB	07H
	DB	07H
	DB	08H
	DB	08H
	DB	08H
	DB	08H
	DB	08H
	DB	08H
	DB	08H
	DB	08H
stbi__jpeg_dezigzag DB 00H
	DB	01H
	DB	08H
	DB	010H
	DB	09H
	DB	02H
	DB	03H
	DB	0aH
	DB	011H
	DB	018H
	DB	020H
	DB	019H
	DB	012H
	DB	0bH
	DB	04H
	DB	05H
	DB	0cH
	DB	013H
	DB	01aH
	DB	021H
	DB	028H
	DB	030H
	DB	029H
	DB	022H
	DB	01bH
	DB	014H
	DB	0dH
	DB	06H
	DB	07H
	DB	0eH
	DB	015H
	DB	01cH
	DB	023H
	DB	02aH
	DB	031H
	DB	038H
	DB	039H
	DB	032H
	DB	02bH
	DB	024H
	DB	01dH
	DB	016H
	DB	0fH
	DB	017H
	DB	01eH
	DB	025H
	DB	02cH
	DB	033H
	DB	03aH
	DB	03bH
	DB	034H
	DB	02dH
	DB	026H
	DB	01fH
	DB	027H
	DB	02eH
	DB	035H
	DB	03cH
	DB	03dH
	DB	036H
	DB	02fH
	DB	037H
	DB	03eH
	DB	03fH
	DB	03fH
	DB	03fH
	DB	03fH
	DB	03fH
	DB	03fH
	DB	03fH
	DB	03fH
	DB	03fH
	DB	03fH
	DB	03fH
	DB	03fH
	DB	03fH
	DB	03fH
	DB	03fH
	DB	03fH
	ORG $+1
?rgb@?5??stbi__process_frame_header@@9@9 DB 052H	; `stbi__process_frame_header'::`6'::rgb
	DB	047H
	DB	042H
	ORG $+13
stbi__zlength_base DD 03H
	DD	04H
	DD	05H
	DD	06H
	DD	07H
	DD	08H
	DD	09H
	DD	0aH
	DD	0bH
	DD	0dH
	DD	0fH
	DD	011H
	DD	013H
	DD	017H
	DD	01bH
	DD	01fH
	DD	023H
	DD	02bH
	DD	033H
	DD	03bH
	DD	043H
	DD	053H
	DD	063H
	DD	073H
	DD	083H
	DD	0a3H
	DD	0c3H
	DD	0e3H
	DD	0102H
	DD	00H
	DD	00H
	ORG $+4
stbi__zdist_base DD 01H
	DD	02H
	DD	03H
	DD	04H
	DD	05H
	DD	07H
	DD	09H
	DD	0dH
	DD	011H
	DD	019H
	DD	021H
	DD	031H
	DD	041H
	DD	061H
	DD	081H
	DD	0c1H
	DD	0101H
	DD	0181H
	DD	0201H
	DD	0301H
	DD	0401H
	DD	0601H
	DD	0801H
	DD	0c01H
	DD	01001H
	DD	01801H
	DD	02001H
	DD	03001H
	DD	04001H
	DD	06001H
	DD	00H
	DD	00H
stbi__bmask DD	00H
	DD	01H
	DD	03H
	DD	07H
	DD	0fH
	DD	01fH
	DD	03fH
	DD	07fH
	DD	0ffH
	DD	01ffH
	DD	03ffH
	DD	07ffH
	DD	0fffH
	DD	01fffH
	DD	03fffH
	DD	07fffH
	DD	0ffffH
	ORG $+12
stbi__zlength_extra DD 00H
	DD	00H
	DD	00H
	DD	00H
	DD	00H
	DD	00H
	DD	00H
	DD	00H
	DD	01H
	DD	01H
	DD	01H
	DD	01H
	DD	02H
	DD	02H
	DD	02H
	DD	02H
	DD	03H
	DD	03H
	DD	03H
	DD	03H
	DD	04H
	DD	04H
	DD	04H
	DD	04H
	DD	05H
	DD	05H
	DD	05H
	DD	05H
	DD	00H
	DD	00H
	DD	00H
?tag@?O@??stbi__process_marker@@9@9 DB 04aH		; `stbi__process_marker'::`14'::tag
	DB	046H
	DB	049H
	DB	046H
	DB	00H
	ORG $+3
first_row_filter DB 00H
	DB	01H
	DB	00H
	DB	05H
	DB	06H
	ORG $+7
?length_dezigzag@?1??stbi__compute_huffman_codes@@9@9 DB 010H ; `stbi__compute_huffman_codes'::`2'::length_dezigzag
	DB	011H
	DB	012H
	DB	00H
	DB	08H
	DB	07H
	DB	09H
	DB	06H
	DB	0aH
	DB	05H
	DB	0bH
	DB	04H
	DB	0cH
	DB	03H
	DB	0dH
	DB	02H
	DB	0eH
	DB	01H
	DB	0fH
	ORG $+5
stbi__depth_scale_table DB 00H
	DB	0ffH
	DB	055H
	DB	00H
	DB	011H
	DB	00H
	DB	00H
	DB	00H
	DB	01H
	ORG $+7
stbi__zdefault_distance DB 05H
	DB	05H
	DB	05H
	DB	05H
	DB	05H
	DB	05H
	DB	05H
	DB	05H
	DB	05H
	DB	05H
	DB	05H
	DB	05H
	DB	05H
	DB	05H
	DB	05H
	DB	05H
	DB	05H
	DB	05H
	DB	05H
	DB	05H
	DB	05H
	DB	05H
	DB	05H
	DB	05H
	DB	05H
	DB	05H
	DB	05H
	DB	05H
	DB	05H
	DB	05H
	DB	05H
	DB	05H
?tag@?BA@??stbi__process_marker@@9@9 DB 041H		; `stbi__process_marker'::`16'::tag
	DB	064H
	DB	06fH
	DB	062H
	DB	065H
	DB	00H
	ORG $+2
?shift_table@?1??stbi__shiftsigned@@9@9 DD 00H		; `stbi__shiftsigned'::`2'::shift_table
	DD	00H
	DD	00H
	DD	01H
	DD	00H
	DD	02H
	DD	04H
	DD	06H
	DD	00H
	ORG $+4
?mul_table@?1??stbi__shiftsigned@@9@9 DD 00H		; `stbi__shiftsigned'::`2'::mul_table
	DD	0ffH
	DD	055H
	DD	049H
	DD	011H
	DD	021H
	DD	041H
	DD	081H
	DD	01H
stbi__h2l_gamma_i DD 03ee8ba2er			; 0.454545
stbi__zdist_extra DD 00H
	DD	00H
	DD	00H
	DD	00H
	DD	01H
	DD	01H
	DD	02H
	DD	02H
	DD	03H
	DD	03H
	DD	04H
	DD	04H
	DD	05H
	DD	05H
	DD	06H
	DD	06H
	DD	07H
	DD	07H
	DD	08H
	DD	08H
	DD	09H
	DD	09H
	DD	0aH
	DD	0aH
	DD	0bH
	DD	0bH
	DD	0cH
	DD	0cH
	DD	0dH
	DD	0dH
	ORG $+8
stbi__h2l_scale_i DD 03f800000r			; 1
	ORG $+4
?png_sig@?1??stbi__check_png_header@@9@9 DB 089H	; `stbi__check_png_header'::`2'::png_sig
	DB	050H
	DB	04eH
	DB	047H
	DB	0dH
	DB	0aH
	DB	01aH
	DB	0aH
CONST	ENDS
;	COMDAT ??_C@_0BC@CNFMOKHC@max?5value?5?$DO?565535@
CONST	SEGMENT
??_C@_0BC@CNFMOKHC@max?5value?5?$DO?565535@ DB 'max value > 65535', 00H ; `string'
CONST	ENDS
;	COMDAT ??_C@_0BH@OBINMOBC@integer?5parse?5overflow@
CONST	SEGMENT
??_C@_0BH@OBINMOBC@integer?5parse?5overflow@ DB 'integer parse overflow', 00H ; `string'
CONST	ENDS
;	COMDAT ??_C@_07IDKIDMGJ@bad?5PNM@
CONST	SEGMENT
??_C@_07IDKIDMGJ@bad?5PNM@ DB 'bad PNM', 00H		; `string'
CONST	ENDS
;	COMDAT ??_C@_0CA@JBEOCDFN@invalid?5decoded?5scanline?5length@
CONST	SEGMENT
??_C@_0CA@JBEOCDFN@invalid?5decoded?5scanline?5length@ DB 'invalid decode'
	DB	'd scanline length', 00H			; `string'
CONST	ENDS
;	COMDAT ??_C@_03FOKDFDHG@?$CLX?5@
CONST	SEGMENT
??_C@_03FOKDFDHG@?$CLX?5@ DB '+X ', 00H			; `string'
CONST	ENDS
;	COMDAT ??_C@_0BI@DCNDPIOH@unsupported?5data?5layout@
CONST	SEGMENT
??_C@_0BI@DCNDPIOH@unsupported?5data?5layout@ DB 'unsupported data layout'
	DB	00H						; `string'
CONST	ENDS
;	COMDAT ??_C@_03HKAKGGJN@?9Y?5@
CONST	SEGMENT
??_C@_03HKAKGGJN@?9Y?5@ DB '-Y ', 00H			; `string'
CONST	ENDS
;	COMDAT ??_C@_0BD@NKJFFLKL@unsupported?5format@
CONST	SEGMENT
??_C@_0BD@NKJFFLKL@unsupported?5format@ DB 'unsupported format', 00H ; `string'
CONST	ENDS
;	COMDAT ??_C@_0BH@JFGBLLKC@FORMAT?$DN32?9bit_rle_rgbe@
CONST	SEGMENT
??_C@_0BH@JFGBLLKC@FORMAT?$DN32?9bit_rle_rgbe@ DB 'FORMAT=32-bit_rle_rgbe'
	DB	00H						; `string'
CONST	ENDS
;	COMDAT ??_C@_07NCIOKENI@not?5HDR@
CONST	SEGMENT
??_C@_07NCIOKENI@not?5HDR@ DB 'not HDR', 00H		; `string'
CONST	ENDS
;	COMDAT ??_C@_06NDOKKIDJ@?$CD?$DPRGBE@
CONST	SEGMENT
??_C@_06NDOKKIDJ@?$CD?$DPRGBE@ DB '#?RGBE', 00H		; `string'
CONST	ENDS
;	COMDAT ??_C@_0L@NCPEAJBD@?$CD?$DPRADIANCE@
CONST	SEGMENT
??_C@_0L@NCPEAJBD@?$CD?$DPRADIANCE@ DB '#?RADIANCE', 00H ; `string'
CONST	ENDS
;	COMDAT ??_C@_07KFDJIKCK@?$CD?$DPRGBE?6@
CONST	SEGMENT
??_C@_07KFDJIKCK@?$CD?$DPRGBE?6@ DB '#?RGBE', 0aH, 00H	; `string'
CONST	ENDS
;	COMDAT ??_C@_0M@HOIDFNFN@?$CD?$DPRADIANCE?6@
CONST	SEGMENT
??_C@_0M@HOIDFNFN@?$CD?$DPRADIANCE?6@ DB '#?RADIANCE', 0aH, 00H ; `string'
CONST	ENDS
;	COMDAT ??_C@_0N@DJABBOOH@unknown?5code@
CONST	SEGMENT
??_C@_0N@DJABBOOH@unknown?5code@ DB 'unknown code', 00H	; `string'
CONST	ENDS
;	COMDAT ??_C@_0BE@NAMJKDNF@missing?5color?5table@
CONST	SEGMENT
??_C@_0BE@NAMJKDNF@missing?5color?5table@ DB 'missing color table', 00H ; `string'
CONST	ENDS
;	COMDAT ??_C@_0BF@GIAALCNJ@bad?5Image?5Descriptor@
CONST	SEGMENT
??_C@_0BF@GIAALCNJ@bad?5Image?5Descriptor@ DB 'bad Image Descriptor', 00H ; `string'
CONST	ENDS
;	COMDAT ??_C@_0BH@LOKBIIOJ@illegal?5code?5in?5raster@
CONST	SEGMENT
??_C@_0BH@LOKBIIOJ@illegal?5code?5in?5raster@ DB 'illegal code in raster', 00H ; `string'
CONST	ENDS
;	COMDAT ??_C@_0P@GJNJCPDJ@too?5many?5codes@
CONST	SEGMENT
??_C@_0P@GJNJCPDJ@too?5many?5codes@ DB 'too many codes', 00H ; `string'
CONST	ENDS
;	COMDAT ??_C@_0O@MGDACKOJ@no?5clear?5code@
CONST	SEGMENT
??_C@_0O@MGDACKOJ@no?5clear?5code@ DB 'no clear code', 00H ; `string'
CONST	ENDS
;	COMDAT ??_C@_00CNPNBAHC@@
CONST	SEGMENT
??_C@_00CNPNBAHC@@ DB 00H				; `string'
CONST	ENDS
;	COMDAT ??_C@_07KMJLPAII@not?5GIF@
CONST	SEGMENT
??_C@_07KMJLPAII@not?5GIF@ DB 'not GIF', 00H		; `string'
CONST	ENDS
;	COMDAT ??_C@_08GGMBIFE@bad?5file@
CONST	SEGMENT
??_C@_08GGMBIFE@bad?5file@ DB 'bad file', 00H		; `string'
CONST	ENDS
;	COMDAT ??_C@_04ELNJHLFH@PICT@
CONST	SEGMENT
??_C@_04ELNJHLFH@PICT@ DB 'PICT', 00H			; `string'
CONST	ENDS
;	COMDAT ??_C@_04KBFEPHFH@S?$IA?v4@
CONST	SEGMENT
??_C@_04KBFEPHFH@S?$IA?v4@ DB 'S', 080H, 0f6H, '4', 00H	; `string'
CONST	ENDS
;	COMDAT ??_C@_07DPPMCAKL@corrupt@
CONST	SEGMENT
??_C@_07DPPMCAKL@corrupt@ DB 'corrupt', 00H		; `string'
CONST	ENDS
;	COMDAT ??_C@_0BD@IOGGBMNK@wrong?5color?5format@
CONST	SEGMENT
??_C@_0BD@IOGGBMNK@wrong?5color?5format@ DB 'wrong color format', 00H ; `string'
CONST	ENDS
;	COMDAT ??_C@_0BG@NOLDLPP@unsupported?5bit?5depth@
CONST	SEGMENT
??_C@_0BG@NOLDLPP@unsupported?5bit?5depth@ DB 'unsupported bit depth', 00H ; `string'
CONST	ENDS
;	COMDAT ??_C@_0BE@PJBNGDBE@wrong?5channel?5count@
CONST	SEGMENT
??_C@_0BE@PJBNGDBE@wrong?5channel?5count@ DB 'wrong channel count', 00H ; `string'
CONST	ENDS
;	COMDAT ??_C@_0O@CHBCDKKC@wrong?5version@
CONST	SEGMENT
??_C@_0O@CHBCDKKC@wrong?5version@ DB 'wrong version', 00H ; `string'
CONST	ENDS
;	COMDAT ??_C@_07ECNCNLIK@not?5PSD@
CONST	SEGMENT
??_C@_07ECNCNLIK@not?5PSD@ DB 'not PSD', 00H		; `string'
CONST	ENDS
;	COMDAT ??_C@_0M@ILLOCNCO@bad?5palette@
CONST	SEGMENT
??_C@_0M@ILLOCNCO@bad?5palette@ DB 'bad palette', 00H	; `string'
CONST	ENDS
;	COMDAT ??_C@_0L@DMAPJJO@bad?5format@
CONST	SEGMENT
??_C@_0L@DMAPJJO@bad?5format@ DB 'bad format', 00H	; `string'
CONST	ENDS
;	COMDAT ??_C@_09DAEBACAB@bad?5masks@
CONST	SEGMENT
??_C@_09DAEBACAB@bad?5masks@ DB 'bad masks', 00H	; `string'
CONST	ENDS
;	COMDAT ??_C@_07JNJHIMGH@bad?5bpp@
CONST	SEGMENT
??_C@_07JNJHIMGH@bad?5bpp@ DB 'bad bpp', 00H		; `string'
CONST	ENDS
;	COMDAT ??_C@_07MALOAKCI@invalid@
CONST	SEGMENT
??_C@_07MALOAKCI@invalid@ DB 'invalid', 00H		; `string'
CONST	ENDS
;	COMDAT ??_C@_0L@JDPIFELH@bad?5offset@
CONST	SEGMENT
??_C@_0L@JDPIFELH@bad?5offset@ DB 'bad offset', 00H	; `string'
CONST	ENDS
;	COMDAT ??_C@_0L@PJHPAMCH@bad?5header@
CONST	SEGMENT
??_C@_0L@PJHPAMCH@bad?5header@ DB 'bad header', 00H	; `string'
CONST	ENDS
;	COMDAT ??_C@_0N@ODCBCBFN@BMP?5JPEG?1PNG@
CONST	SEGMENT
??_C@_0N@ODCBCBFN@BMP?5JPEG?1PNG@ DB 'BMP JPEG/PNG', 00H ; `string'
CONST	ENDS
;	COMDAT ??_C@_07IMHMNOIB@BMP?5RLE@
CONST	SEGMENT
??_C@_07IMHMNOIB@BMP?5RLE@ DB 'BMP RLE', 00H		; `string'
CONST	ENDS
;	COMDAT ??_C@_0M@KHBIBJBG@unknown?5BMP@
CONST	SEGMENT
??_C@_0M@KHBIBJBG@unknown?5BMP@ DB 'unknown BMP', 00H	; `string'
CONST	ENDS
;	COMDAT ??_C@_07IEJCHBDI@bad?5BMP@
CONST	SEGMENT
??_C@_07IEJCHBDI@bad?5BMP@ DB 'bad BMP', 00H		; `string'
CONST	ENDS
;	COMDAT ??_C@_07IANEBNLB@not?5BMP@
CONST	SEGMENT
??_C@_07IANEBNLB@not?5BMP@ DB 'not BMP', 00H		; `string'
CONST	ENDS
;	COMDAT ??_C@_0BF@NOEEEFMF@bad?5bits_per_channel@
CONST	SEGMENT
??_C@_0BF@NOEEEFMF@bad?5bits_per_channel@ DB 'bad bits_per_channel', 00H ; `string'
CONST	ENDS
;	COMDAT ??_C@_07MLPECBNA@no?5IDAT@
CONST	SEGMENT
??_C@_07MLPECBNA@no?5IDAT@ DB 'no IDAT', 00H		; `string'
CONST	ENDS
;	COMDAT ??_C@_09MNNCNKEO@outofdata@
CONST	SEGMENT
??_C@_09MNNCNKEO@outofdata@ DB 'outofdata', 00H		; `string'
CONST	ENDS
;	COMDAT ??_C@_0BA@PLHGLONG@IDAT?5size?5limit@
CONST	SEGMENT
??_C@_0BA@PLHGLONG@IDAT?5size?5limit@ DB 'IDAT size limit', 00H ; `string'
CONST	ENDS
;	COMDAT ??_C@_07CKIELOEH@no?5PLTE@
CONST	SEGMENT
??_C@_07CKIELOEH@no?5PLTE@ DB 'no PLTE', 00H		; `string'
CONST	ENDS
;	COMDAT ??_C@_0BA@ENDPGCHB@tRNS?5with?5alpha@
CONST	SEGMENT
??_C@_0BA@ENDPGCHB@tRNS?5with?5alpha@ DB 'tRNS with alpha', 00H ; `string'
CONST	ENDS
;	COMDAT ??_C@_0N@KDLCCKCH@bad?5tRNS?5len@
CONST	SEGMENT
??_C@_0N@KDLCCKCH@bad?5tRNS?5len@ DB 'bad tRNS len', 00H ; `string'
CONST	ENDS
;	COMDAT ??_C@_0BB@CEDNNLBG@tRNS?5before?5PLTE@
CONST	SEGMENT
??_C@_0BB@CEDNNLBG@tRNS?5before?5PLTE@ DB 'tRNS before PLTE', 00H ; `string'
CONST	ENDS
;	COMDAT ??_C@_0BA@PCPJHDKJ@tRNS?5after?5IDAT@
CONST	SEGMENT
??_C@_0BA@PCPJHDKJ@tRNS?5after?5IDAT@ DB 'tRNS after IDAT', 00H ; `string'
CONST	ENDS
;	COMDAT ??_C@_0N@JCPAJAKB@invalid?5PLTE@
CONST	SEGMENT
??_C@_0N@JCPAJAKB@invalid?5PLTE@ DB 'invalid PLTE', 00H	; `string'
CONST	ENDS
;	COMDAT ??_C@_0P@JEAFOMAF@first?5not?5IHDR@
CONST	SEGMENT
??_C@_0P@JEAFOMAF@first?5not?5IHDR@ DB 'first not IHDR', 00H ; `string'
CONST	ENDS
;	COMDAT ??_C@_0O@FNFBHCOO@0?9pixel?5image@
CONST	SEGMENT
??_C@_0O@FNFBHCOO@0?9pixel?5image@ DB '0-pixel image', 00H ; `string'
CONST	ENDS
;	COMDAT ??_C@_0BF@JCGDPBAA@bad?5interlace?5method@
CONST	SEGMENT
??_C@_0BF@JCGDPBAA@bad?5interlace?5method@ DB 'bad interlace method', 00H ; `string'
CONST	ENDS
;	COMDAT ??_C@_0BC@GHLIKKMD@bad?5filter?5method@
CONST	SEGMENT
??_C@_0BC@GHLIKKMD@bad?5filter?5method@ DB 'bad filter method', 00H ; `string'
CONST	ENDS
;	COMDAT ??_C@_0BA@MDMBDDFG@bad?5comp?5method@
CONST	SEGMENT
??_C@_0BA@MDMBDDFG@bad?5comp?5method@ DB 'bad comp method', 00H ; `string'
CONST	ENDS
;	COMDAT ??_C@_09MBBNGCKB@bad?5ctype@
CONST	SEGMENT
??_C@_09MBBNGCKB@bad?5ctype@ DB 'bad ctype', 00H	; `string'
CONST	ENDS
;	COMDAT ??_C@_0BE@EJHIPKNO@1?12?14?18?116?9bit?5only@
CONST	SEGMENT
??_C@_0BE@EJHIPKNO@1?12?14?18?116?9bit?5only@ DB '1/2/4/8/16-bit only', 00H ; `string'
CONST	ENDS
;	COMDAT ??_C@_0N@POJLKMKK@bad?5IHDR?5len@
CONST	SEGMENT
??_C@_0N@POJLKMKK@bad?5IHDR?5len@ DB 'bad IHDR len', 00H ; `string'
CONST	ENDS
;	COMDAT ??_C@_0O@KBHBNJOK@multiple?5IHDR@
CONST	SEGMENT
??_C@_0O@KBHBNJOK@multiple?5IHDR@ DB 'multiple IHDR', 00H ; `string'
CONST	ENDS
;	COMDAT ??_C@_0O@MKGNGALN@invalid?5width@
CONST	SEGMENT
??_C@_0O@MKGNGALN@invalid?5width@ DB 'invalid width', 00H ; `string'
CONST	ENDS
;	COMDAT ??_C@_0P@FBBCPGMN@invalid?5filter@
CONST	SEGMENT
??_C@_0P@FBBCPGMN@invalid?5filter@ DB 'invalid filter', 00H ; `string'
CONST	ENDS
;	COMDAT ??_C@_0BC@BHMPBBMG@not?5enough?5pixels@
CONST	SEGMENT
??_C@_0BC@BHMPBBMG@not?5enough?5pixels@ DB 'not enough pixels', 00H ; `string'
CONST	ENDS
;	COMDAT ??_C@_0M@DMDNBACF@bad?5png?5sig@
CONST	SEGMENT
??_C@_0M@DMDNBACF@bad?5png?5sig@ DB 'bad png sig', 00H	; `string'
CONST	ENDS
;	COMDAT ??_C@_0BA@MCNBDLPD@bad?5compression@
CONST	SEGMENT
??_C@_0BA@MCNBDLPD@bad?5compression@ DB 'bad compression', 00H ; `string'
CONST	ENDS
;	COMDAT ??_C@_0P@DOGMHEBI@no?5preset?5dict@
CONST	SEGMENT
??_C@_0P@DOGMHEBI@no?5preset?5dict@ DB 'no preset dict', 00H ; `string'
CONST	ENDS
;	COMDAT ??_C@_0BA@OBKOPAFL@bad?5zlib?5header@
CONST	SEGMENT
??_C@_0BA@OBKOPAFL@bad?5zlib?5header@ DB 'bad zlib header', 00H ; `string'
CONST	ENDS
;	COMDAT ??_C@_0BB@PIPBCKIA@read?5past?5buffer@
CONST	SEGMENT
??_C@_0BB@PIPBCKIA@read?5past?5buffer@ DB 'read past buffer', 00H ; `string'
CONST	ENDS
;	COMDAT ??_C@_0N@IECDHMDI@zlib?5corrupt@
CONST	SEGMENT
??_C@_0N@IECDHMDI@zlib?5corrupt@ DB 'zlib corrupt', 00H	; `string'
CONST	ENDS
;	COMDAT ??_C@_08DIAPIMGJ@bad?5dist@
CONST	SEGMENT
??_C@_08DIAPIMGJ@bad?5dist@ DB 'bad dist', 00H		; `string'
CONST	ENDS
;	COMDAT ??_C@_0BE@IBFIPFO@output?5buffer?5limit@
CONST	SEGMENT
??_C@_0BE@IBFIPFO@output?5buffer?5limit@ DB 'output buffer limit', 00H ; `string'
CONST	ENDS
;	COMDAT ??_C@_0BA@MDNKOBMC@bad?5codelengths@
CONST	SEGMENT
??_C@_0BA@MDNKOBMC@bad?5codelengths@ DB 'bad codelengths', 00H ; `string'
CONST	ENDS
;	COMDAT ??_C@_09EOHLEIKL@bad?5sizes@
CONST	SEGMENT
??_C@_09EOHLEIKL@bad?5sizes@ DB 'bad sizes', 00H	; `string'
CONST	ENDS
;	COMDAT ??_C@_0N@KBPNPPBJ@bad?5req_comp@
CONST	SEGMENT
??_C@_0N@KBPNPPBJ@bad?5req_comp@ DB 'bad req_comp', 00H	; `string'
CONST	ENDS
;	COMDAT ??_C@_0P@PNCLKCLJ@bad?5DNL?5height@
CONST	SEGMENT
??_C@_0P@PNCLKCLJ@bad?5DNL?5height@ DB 'bad DNL height', 00H ; `string'
CONST	ENDS
;	COMDAT ??_C@_0M@EPMOIECP@bad?5DNL?5len@
CONST	SEGMENT
??_C@_0M@EPMOIECP@bad?5DNL?5len@ DB 'bad DNL len', 00H	; `string'
CONST	ENDS
;	COMDAT ??_C@_06IFCEAHIA@no?5SOF@
CONST	SEGMENT
??_C@_06IFCEAHIA@no?5SOF@ DB 'no SOF', 00H		; `string'
CONST	ENDS
;	COMDAT ??_C@_06CLMBLEP@no?5SOI@
CONST	SEGMENT
??_C@_06CLMBLEP@no?5SOI@ DB 'no SOI', 00H		; `string'
CONST	ENDS
;	COMDAT ??_C@_06LJIHDFHI@bad?5TQ@
CONST	SEGMENT
??_C@_06LJIHDFHI@bad?5TQ@ DB 'bad TQ', 00H		; `string'
CONST	ENDS
;	COMDAT ??_C@_05MPLLHCJG@bad?5V@
CONST	SEGMENT
??_C@_05MPLLHCJG@bad?5V@ DB 'bad V', 00H		; `string'
CONST	ENDS
;	COMDAT ??_C@_05BLPKENEJ@bad?5H@
CONST	SEGMENT
??_C@_05BLPKENEJ@bad?5H@ DB 'bad H', 00H		; `string'
CONST	ENDS
;	COMDAT ??_C@_0BE@DAPHADHL@bad?5component?5count@
CONST	SEGMENT
??_C@_0BE@DAPHADHL@bad?5component?5count@ DB 'bad component count', 00H ; `string'
CONST	ENDS
;	COMDAT ??_C@_09OJDLMMBJ@too?5large@
CONST	SEGMENT
??_C@_09OJDLMMBJ@too?5large@ DB 'too large', 00H	; `string'
CONST	ENDS
;	COMDAT ??_C@_07BIDACDEF@0?5width@
CONST	SEGMENT
??_C@_07BIDACDEF@0?5width@ DB '0 width', 00H		; `string'
CONST	ENDS
;	COMDAT ??_C@_0BB@LNEGOMA@no?5header?5height@
CONST	SEGMENT
??_C@_0BB@LNEGOMA@no?5header?5height@ DB 'no header height', 00H ; `string'
CONST	ENDS
;	COMDAT ??_C@_0L@BCINMEBJ@only?58?9bit@
CONST	SEGMENT
??_C@_0L@BCINMEBJ@only?58?9bit@ DB 'only 8-bit', 00H	; `string'
CONST	ENDS
;	COMDAT ??_C@_0M@DOFMJEMP@bad?5SOF?5len@
CONST	SEGMENT
??_C@_0M@DOFMJEMP@bad?5SOF?5len@ DB 'bad SOF len', 00H	; `string'
CONST	ENDS
;	COMDAT ??_C@_07EEJOMGGP@bad?5SOS@
CONST	SEGMENT
??_C@_07EEJOMGGP@bad?5SOS@ DB 'bad SOS', 00H		; `string'
CONST	ENDS
;	COMDAT ??_C@_0M@JGMCBLGG@bad?5AC?5huff@
CONST	SEGMENT
??_C@_0M@JGMCBLGG@bad?5AC?5huff@ DB 'bad AC huff', 00H	; `string'
CONST	ENDS
;	COMDAT ??_C@_0M@NOCCBFAC@bad?5DC?5huff@
CONST	SEGMENT
??_C@_0M@NOCCBFAC@bad?5DC?5huff@ DB 'bad DC huff', 00H	; `string'
CONST	ENDS
;	COMDAT ??_C@_0M@GNEHAHOH@bad?5SOS?5len@
CONST	SEGMENT
??_C@_0M@GNEHAHOH@bad?5SOS?5len@ DB 'bad SOS len', 00H	; `string'
CONST	ENDS
;	COMDAT ??_C@_0BI@DHFJCMBA@bad?5SOS?5component?5count@
CONST	SEGMENT
??_C@_0BI@DHFJCMBA@bad?5SOS?5component?5count@ DB 'bad SOS component coun'
	DB	't', 00H					; `string'
CONST	ENDS
;	COMDAT ??_C@_0P@NNGPHMMK@unknown?5marker@
CONST	SEGMENT
??_C@_0P@NNGPHMMK@unknown?5marker@ DB 'unknown marker', 00H ; `string'
CONST	ENDS
;	COMDAT ??_C@_0M@EENLKPDI@bad?5APP?5len@
CONST	SEGMENT
??_C@_0M@EENLKPDI@bad?5APP?5len@ DB 'bad APP len', 00H	; `string'
CONST	ENDS
;	COMDAT ??_C@_0M@CICAFFCH@bad?5COM?5len@
CONST	SEGMENT
??_C@_0M@CICAFFCH@bad?5COM?5len@ DB 'bad COM len', 00H	; `string'
CONST	ENDS
;	COMDAT ??_C@_0P@JLGKOCGN@bad?5DHT?5header@
CONST	SEGMENT
??_C@_0P@JLGKOCGN@bad?5DHT?5header@ DB 'bad DHT header', 00H ; `string'
CONST	ENDS
;	COMDAT ??_C@_0O@CNHKKDIM@bad?5DQT?5table@
CONST	SEGMENT
??_C@_0O@CNHKKDIM@bad?5DQT?5table@ DB 'bad DQT table', 00H ; `string'
CONST	ENDS
;	COMDAT ??_C@_0N@BOFJCHAP@bad?5DQT?5type@
CONST	SEGMENT
??_C@_0N@BOFJCHAP@bad?5DQT?5type@ DB 'bad DQT type', 00H ; `string'
CONST	ENDS
;	COMDAT ??_C@_0M@LPHNODCG@bad?5DRI?5len@
CONST	SEGMENT
??_C@_0M@LPHNODCG@bad?5DRI?5len@ DB 'bad DRI len', 00H	; `string'
CONST	ENDS
;	COMDAT ??_C@_0BA@KLNDOKJD@expected?5marker@
CONST	SEGMENT
??_C@_0BA@KLNDOKJD@expected?5marker@ DB 'expected marker', 00H ; `string'
CONST	ENDS
;	COMDAT ??_C@_0BG@PJBJDAGM@can?8t?5merge?5dc?5and?5ac@
CONST	SEGMENT
??_C@_0BG@PJBJDAGM@can?8t?5merge?5dc?5and?5ac@ DB 'can''t merge dc and ac'
	DB	00H						; `string'
CONST	ENDS
;	COMDAT ??_C@_09IFDKCGFO@bad?5delta@
CONST	SEGMENT
??_C@_09IFDKCGFO@bad?5delta@ DB 'bad delta', 00H	; `string'
CONST	ENDS
;	COMDAT ??_C@_0BB@IIMLINA@bad?5huffman?5code@
CONST	SEGMENT
??_C@_0BB@IIMLINA@bad?5huffman?5code@ DB 'bad huffman code', 00H ; `string'
CONST	ENDS
;	COMDAT ??_C@_0BB@FOKGPEKG@bad?5code?5lengths@
CONST	SEGMENT
??_C@_0BB@FOKGPEKG@bad?5code?5lengths@ DB 'bad code lengths', 00H ; `string'
CONST	ENDS
;	COMDAT ??_C@_0O@DEFOLMLB@bad?5size?5list@
CONST	SEGMENT
??_C@_0O@DEFOLMLB@bad?5size?5list@ DB 'bad size list', 00H ; `string'
CONST	ENDS
;	COMDAT ??_C@_0M@MHDBFHD@unsupported@
CONST	SEGMENT
??_C@_0M@MHDBFHD@unsupported@ DB 'unsupported', 00H	; `string'
CONST	ENDS
;	COMDAT ??_C@_0CB@DDANHPKI@can?8t?5fopen?0?5Unable?5to?5open?5fil@
CONST	SEGMENT
??_C@_0CB@DDANHPKI@can?8t?5fopen?0?5Unable?5to?5open?5fil@ DB 'can''t fop'
	DB	'en, Unable to open file', 00H		; `string'
CONST	ENDS
;	COMDAT ??_C@_0M@JPDHFAGK@can?8t?5fopen@
CONST	SEGMENT
??_C@_0M@JPDHFAGK@can?8t?5fopen@ DB 'can''t fopen', 00H	; `string'
CONST	ENDS
;	COMDAT ??_C@_02JDPG@rb@
CONST	SEGMENT
??_C@_02JDPG@rb@ DB 'rb', 00H				; `string'
CONST	ENDS
;	COMDAT ??_C@_08NOGIMCHF@outofmem@
CONST	SEGMENT
??_C@_08NOGIMCHF@outofmem@ DB 'outofmem', 00H		; `string'
CONST	ENDS
;	COMDAT ??_C@_0BD@CBEDEJPH@unknown?5image?5type@
CONST	SEGMENT
??_C@_0BD@CBEDEJPH@unknown?5image?5type@ DB 'unknown image type', 00H ; `string'
CONST	ENDS
PUBLIC	stbi_zlib_decode_malloc_guesssize_headerflag
PUBLIC	stbi_load_from_file
PUBLIC	stbi_load
stbi__vertically_flip_on_load_local DD 01H DUP (?)
	ALIGN	8

stbi__g_failure_reason DQ 01H DUP (?)
stbi__unpremultiply_on_load_set DD 01H DUP (?)
stbi__de_iphone_flag_local DD 01H DUP (?)
stbi__de_iphone_flag_set DD 01H DUP (?)
stbi__unpremultiply_on_load_local DD 01H DUP (?)
stbi__vertically_flip_on_load_set DD 01H DUP (?)
_TLS	ENDS
;	COMDAT pdata
pdata	SEGMENT
$pdata$stbi__pnm_info DD imagerel stbi__pnm_info
	DD	imagerel stbi__pnm_info+596
	DD	imagerel $unwind$stbi__pnm_info
pdata	ENDS
;	COMDAT pdata
pdata	SEGMENT
$pdata$stbi__pnm_getinteger DD imagerel stbi__pnm_getinteger
	DD	imagerel stbi__pnm_getinteger+314
	DD	imagerel $unwind$stbi__pnm_getinteger
pdata	ENDS
;	COMDAT pdata
pdata	SEGMENT
$pdata$stbi__pnm_skip_whitespace DD imagerel stbi__pnm_skip_whitespace
	DD	imagerel stbi__pnm_skip_whitespace+485
	DD	imagerel $unwind$stbi__pnm_skip_whitespace
pdata	ENDS
;	COMDAT pdata
pdata	SEGMENT
$pdata$stbi__pnm_load DD imagerel stbi__pnm_load
	DD	imagerel stbi__pnm_load+640
	DD	imagerel $unwind$stbi__pnm_load
pdata	ENDS
;	COMDAT pdata
pdata	SEGMENT
$pdata$stbi__pnm_test DD imagerel stbi__pnm_test
	DD	imagerel stbi__pnm_test+225
	DD	imagerel $unwind$stbi__pnm_test
pdata	ENDS
;	COMDAT pdata
pdata	SEGMENT
$pdata$stbi__hdr_load DD imagerel stbi__hdr_load
	DD	imagerel stbi__hdr_load+2206
	DD	imagerel $unwind$stbi__hdr_load
pdata	ENDS
;	COMDAT pdata
pdata	SEGMENT
$pdata$stbi__hdr_convert DD imagerel stbi__hdr_convert
	DD	imagerel stbi__hdr_convert+302
	DD	imagerel $unwind$stbi__hdr_convert
pdata	ENDS
;	COMDAT pdata
pdata	SEGMENT
$pdata$stbi__hdr_gettoken DD imagerel stbi__hdr_gettoken
	DD	imagerel stbi__hdr_gettoken+409
	DD	imagerel $unwind$stbi__hdr_gettoken
pdata	ENDS
;	COMDAT pdata
pdata	SEGMENT
$pdata$stbi__hdr_test DD imagerel stbi__hdr_test
	DD	imagerel stbi__hdr_test+283
	DD	imagerel $unwind$stbi__hdr_test
pdata	ENDS
;	COMDAT pdata
pdata	SEGMENT
$pdata$stbi__hdr_test_core DD imagerel stbi__hdr_test_core
	DD	imagerel stbi__hdr_test_core+186
	DD	imagerel $unwind$stbi__hdr_test_core
pdata	ENDS
;	COMDAT pdata
pdata	SEGMENT
$pdata$stbi__gif_load DD imagerel stbi__gif_load
	DD	imagerel stbi__gif_load+240
	DD	imagerel $unwind$stbi__gif_load
pdata	ENDS
;	COMDAT pdata
pdata	SEGMENT
$pdata$stbi__gif_load_next DD imagerel stbi__gif_load_next
	DD	imagerel stbi__gif_load_next+1803
	DD	imagerel $unwind$stbi__gif_load_next
pdata	ENDS
;	COMDAT pdata
pdata	SEGMENT
$pdata$stbi__process_gif_raster DD imagerel stbi__process_gif_raster
	DD	imagerel stbi__process_gif_raster+78
	DD	imagerel $unwind$stbi__process_gif_raster
pdata	ENDS
;	COMDAT pdata
pdata	SEGMENT
$pdata$5$stbi__process_gif_raster DD imagerel stbi__process_gif_raster+78
	DD	imagerel stbi__process_gif_raster+392
	DD	imagerel $chain$5$stbi__process_gif_raster
pdata	ENDS
;	COMDAT pdata
pdata	SEGMENT
$pdata$7$stbi__process_gif_raster DD imagerel stbi__process_gif_raster+392
	DD	imagerel stbi__process_gif_raster+1156
	DD	imagerel $chain$7$stbi__process_gif_raster
pdata	ENDS
;	COMDAT pdata
pdata	SEGMENT
$pdata$stbi__out_gif_code DD imagerel stbi__out_gif_code
	DD	imagerel stbi__out_gif_code+279
	DD	imagerel $unwind$stbi__out_gif_code
pdata	ENDS
;	COMDAT pdata
pdata	SEGMENT
$pdata$stbi__gif_header DD imagerel stbi__gif_header
	DD	imagerel stbi__gif_header+396
	DD	imagerel $unwind$stbi__gif_header
pdata	ENDS
;	COMDAT pdata
pdata	SEGMENT
$pdata$0$stbi__gif_header DD imagerel stbi__gif_header+396
	DD	imagerel stbi__gif_header+747
	DD	imagerel $chain$0$stbi__gif_header
pdata	ENDS
;	COMDAT pdata
pdata	SEGMENT
$pdata$1$stbi__gif_header DD imagerel stbi__gif_header+747
	DD	imagerel stbi__gif_header+769
	DD	imagerel $chain$1$stbi__gif_header
pdata	ENDS
;	COMDAT pdata
pdata	SEGMENT
$pdata$2$stbi__gif_header DD imagerel stbi__gif_header+769
	DD	imagerel stbi__gif_header+783
	DD	imagerel $chain$2$stbi__gif_header
pdata	ENDS
;	COMDAT pdata
pdata	SEGMENT
$pdata$3$stbi__gif_header DD imagerel stbi__gif_header+783
	DD	imagerel stbi__gif_header+862
	DD	imagerel $chain$3$stbi__gif_header
pdata	ENDS
;	COMDAT pdata
pdata	SEGMENT
$pdata$stbi__gif_parse_colortable DD imagerel stbi__gif_parse_colortable
	DD	imagerel stbi__gif_parse_colortable+31
	DD	imagerel $unwind$stbi__gif_parse_colortable
pdata	ENDS
;	COMDAT pdata
pdata	SEGMENT
$pdata$0$stbi__gif_parse_colortable DD imagerel stbi__gif_parse_colortable+31
	DD	imagerel stbi__gif_parse_colortable+334
	DD	imagerel $chain$0$stbi__gif_parse_colortable
pdata	ENDS
;	COMDAT pdata
pdata	SEGMENT
$pdata$1$stbi__gif_parse_colortable DD imagerel stbi__gif_parse_colortable+334
	DD	imagerel stbi__gif_parse_colortable+335
	DD	imagerel $chain$1$stbi__gif_parse_colortable
pdata	ENDS
;	COMDAT pdata
pdata	SEGMENT
$pdata$stbi__gif_test DD imagerel stbi__gif_test
	DD	imagerel stbi__gif_test+48
	DD	imagerel $unwind$stbi__gif_test
pdata	ENDS
;	COMDAT pdata
pdata	SEGMENT
$pdata$stbi__gif_test_raw DD imagerel stbi__gif_test_raw
	DD	imagerel stbi__gif_test_raw+367
	DD	imagerel $unwind$stbi__gif_test_raw
pdata	ENDS
;	COMDAT pdata
pdata	SEGMENT
$pdata$stbi__pic_test DD imagerel stbi__pic_test
	DD	imagerel stbi__pic_test+48
	DD	imagerel $unwind$stbi__pic_test
pdata	ENDS
;	COMDAT pdata
pdata	SEGMENT
$pdata$2$stbi__pic_test DD imagerel stbi__pic_test+48
	DD	imagerel stbi__pic_test+229
	DD	imagerel $chain$2$stbi__pic_test
pdata	ENDS
;	COMDAT pdata
pdata	SEGMENT
$pdata$3$stbi__pic_test DD imagerel stbi__pic_test+229
	DD	imagerel stbi__pic_test+271
	DD	imagerel $chain$3$stbi__pic_test
pdata	ENDS
;	COMDAT pdata
pdata	SEGMENT
$pdata$stbi__pic_load DD imagerel stbi__pic_load
	DD	imagerel stbi__pic_load+353
	DD	imagerel $unwind$stbi__pic_load
pdata	ENDS
;	COMDAT pdata
pdata	SEGMENT
$pdata$1$stbi__pic_load DD imagerel stbi__pic_load+353
	DD	imagerel stbi__pic_load+584
	DD	imagerel $chain$1$stbi__pic_load
pdata	ENDS
;	COMDAT pdata
pdata	SEGMENT
$pdata$2$stbi__pic_load DD imagerel stbi__pic_load+584
	DD	imagerel stbi__pic_load+611
	DD	imagerel $chain$2$stbi__pic_load
pdata	ENDS
;	COMDAT pdata
pdata	SEGMENT
$pdata$stbi__pic_load_core DD imagerel stbi__pic_load_core
	DD	imagerel stbi__pic_load_core+1488
	DD	imagerel $unwind$stbi__pic_load_core
pdata	ENDS
;	COMDAT pdata
pdata	SEGMENT
$pdata$stbi__readval DD imagerel stbi__readval
	DD	imagerel stbi__readval+269
	DD	imagerel $unwind$stbi__readval
pdata	ENDS
;	COMDAT pdata
pdata	SEGMENT
$pdata$stbi__pic_test_core DD imagerel stbi__pic_test_core
	DD	imagerel stbi__pic_test_core+233
	DD	imagerel $unwind$stbi__pic_test_core
pdata	ENDS
;	COMDAT pdata
pdata	SEGMENT
$pdata$stbi__pic_is4 DD imagerel stbi__pic_is4
	DD	imagerel stbi__pic_is4+154
	DD	imagerel $unwind$stbi__pic_is4
pdata	ENDS
;	COMDAT pdata
pdata	SEGMENT
$pdata$stbi__psd_load DD imagerel stbi__psd_load
	DD	imagerel stbi__psd_load+157
	DD	imagerel $unwind$stbi__psd_load
pdata	ENDS
;	COMDAT pdata
pdata	SEGMENT
$pdata$2$stbi__psd_load DD imagerel stbi__psd_load+157
	DD	imagerel stbi__psd_load+924
	DD	imagerel $chain$2$stbi__psd_load
pdata	ENDS
;	COMDAT pdata
pdata	SEGMENT
$pdata$4$stbi__psd_load DD imagerel stbi__psd_load+924
	DD	imagerel stbi__psd_load+1015
	DD	imagerel $chain$4$stbi__psd_load
pdata	ENDS
;	COMDAT pdata
pdata	SEGMENT
$pdata$5$stbi__psd_load DD imagerel stbi__psd_load+1015
	DD	imagerel stbi__psd_load+1265
	DD	imagerel $chain$5$stbi__psd_load
pdata	ENDS
;	COMDAT pdata
pdata	SEGMENT
$pdata$6$stbi__psd_load DD imagerel stbi__psd_load+1265
	DD	imagerel stbi__psd_load+1278
	DD	imagerel $chain$6$stbi__psd_load
pdata	ENDS
;	COMDAT pdata
pdata	SEGMENT
$pdata$7$stbi__psd_load DD imagerel stbi__psd_load+1278
	DD	imagerel stbi__psd_load+1300
	DD	imagerel $chain$7$stbi__psd_load
pdata	ENDS
;	COMDAT pdata
pdata	SEGMENT
$pdata$9$stbi__psd_load DD imagerel stbi__psd_load+1300
	DD	imagerel stbi__psd_load+3196
	DD	imagerel $chain$9$stbi__psd_load
pdata	ENDS
;	COMDAT pdata
pdata	SEGMENT
$pdata$10$stbi__psd_load DD imagerel stbi__psd_load+3196
	DD	imagerel stbi__psd_load+3238
	DD	imagerel $chain$10$stbi__psd_load
pdata	ENDS
;	COMDAT pdata
pdata	SEGMENT
$pdata$11$stbi__psd_load DD imagerel stbi__psd_load+3238
	DD	imagerel stbi__psd_load+3287
	DD	imagerel $chain$11$stbi__psd_load
pdata	ENDS
;	COMDAT pdata
pdata	SEGMENT
$pdata$stbi__psd_decode_rle DD imagerel stbi__psd_decode_rle
	DD	imagerel stbi__psd_decode_rle+418
	DD	imagerel $unwind$stbi__psd_decode_rle
pdata	ENDS
;	COMDAT pdata
pdata	SEGMENT
$pdata$stbi__psd_test DD imagerel stbi__psd_test
	DD	imagerel stbi__psd_test+84
	DD	imagerel $unwind$stbi__psd_test
pdata	ENDS
;	COMDAT pdata
pdata	SEGMENT
$pdata$stbi__tga_load DD imagerel stbi__tga_load
	DD	imagerel stbi__tga_load+2677
	DD	imagerel $unwind$stbi__tga_load
pdata	ENDS
;	COMDAT pdata
pdata	SEGMENT
$pdata$stbi__tga_read_rgb16 DD imagerel stbi__tga_read_rgb16
	DD	imagerel stbi__tga_read_rgb16+130
	DD	imagerel $unwind$stbi__tga_read_rgb16
pdata	ENDS
;	COMDAT pdata
pdata	SEGMENT
$pdata$stbi__tga_test DD imagerel stbi__tga_test
	DD	imagerel stbi__tga_test+156
	DD	imagerel $unwind$stbi__tga_test
pdata	ENDS
;	COMDAT pdata
pdata	SEGMENT
$pdata$2$stbi__tga_test DD imagerel stbi__tga_test+156
	DD	imagerel stbi__tga_test+643
	DD	imagerel $chain$2$stbi__tga_test
pdata	ENDS
;	COMDAT pdata
pdata	SEGMENT
$pdata$3$stbi__tga_test DD imagerel stbi__tga_test+643
	DD	imagerel stbi__tga_test+693
	DD	imagerel $chain$3$stbi__tga_test
pdata	ENDS
;	COMDAT pdata
pdata	SEGMENT
$pdata$stbi__bmp_load DD imagerel stbi__bmp_load
	DD	imagerel stbi__bmp_load+4870
	DD	imagerel $unwind$stbi__bmp_load
pdata	ENDS
;	COMDAT pdata
pdata	SEGMENT
$pdata$stbi__bmp_parse_header DD imagerel stbi__bmp_parse_header
	DD	imagerel stbi__bmp_parse_header+130
	DD	imagerel $unwind$stbi__bmp_parse_header
pdata	ENDS
;	COMDAT pdata
pdata	SEGMENT
$pdata$1$stbi__bmp_parse_header DD imagerel stbi__bmp_parse_header+130
	DD	imagerel stbi__bmp_parse_header+447
	DD	imagerel $chain$1$stbi__bmp_parse_header
pdata	ENDS
;	COMDAT pdata
pdata	SEGMENT
$pdata$2$stbi__bmp_parse_header DD imagerel stbi__bmp_parse_header+447
	DD	imagerel stbi__bmp_parse_header+557
	DD	imagerel $chain$2$stbi__bmp_parse_header
pdata	ENDS
;	COMDAT pdata
pdata	SEGMENT
$pdata$3$stbi__bmp_parse_header DD imagerel stbi__bmp_parse_header+557
	DD	imagerel stbi__bmp_parse_header+575
	DD	imagerel $chain$3$stbi__bmp_parse_header
pdata	ENDS
;	COMDAT pdata
pdata	SEGMENT
$pdata$5$stbi__bmp_parse_header DD imagerel stbi__bmp_parse_header+575
	DD	imagerel stbi__bmp_parse_header+1376
	DD	imagerel $chain$5$stbi__bmp_parse_header
pdata	ENDS
;	COMDAT pdata
pdata	SEGMENT
$pdata$6$stbi__bmp_parse_header DD imagerel stbi__bmp_parse_header+1376
	DD	imagerel stbi__bmp_parse_header+1421
	DD	imagerel $chain$6$stbi__bmp_parse_header
pdata	ENDS
;	COMDAT pdata
pdata	SEGMENT
$pdata$stbi__bmp_test DD imagerel stbi__bmp_test
	DD	imagerel stbi__bmp_test+275
	DD	imagerel $unwind$stbi__bmp_test
pdata	ENDS
;	COMDAT pdata
pdata	SEGMENT
$pdata$stbi__bmp_test_raw DD imagerel stbi__bmp_test_raw
	DD	imagerel stbi__bmp_test_raw+256
	DD	imagerel $unwind$stbi__bmp_test_raw
pdata	ENDS
;	COMDAT pdata
pdata	SEGMENT
$pdata$stbi__png_test DD imagerel stbi__png_test
	DD	imagerel stbi__png_test+48
	DD	imagerel $unwind$stbi__png_test
pdata	ENDS
;	COMDAT pdata
pdata	SEGMENT
$pdata$stbi__png_load DD imagerel stbi__png_load
	DD	imagerel stbi__png_load+385
	DD	imagerel $unwind$stbi__png_load
pdata	ENDS
;	COMDAT pdata
pdata	SEGMENT
$pdata$stbi__do_png DD imagerel stbi__do_png
	DD	imagerel stbi__do_png+353
	DD	imagerel $unwind$stbi__do_png
pdata	ENDS
;	COMDAT pdata
pdata	SEGMENT
$pdata$stbi__parse_png_file DD imagerel stbi__parse_png_file
	DD	imagerel stbi__parse_png_file+3874
	DD	imagerel $unwind$stbi__parse_png_file
pdata	ENDS
;	COMDAT pdata
pdata	SEGMENT
$pdata$stbi__de_iphone DD imagerel stbi__de_iphone
	DD	imagerel stbi__de_iphone+134
	DD	imagerel $unwind$stbi__de_iphone
pdata	ENDS
;	COMDAT pdata
pdata	SEGMENT
$pdata$0$stbi__de_iphone DD imagerel stbi__de_iphone+134
	DD	imagerel stbi__de_iphone+256
	DD	imagerel $chain$0$stbi__de_iphone
pdata	ENDS
;	COMDAT pdata
pdata	SEGMENT
$pdata$1$stbi__de_iphone DD imagerel stbi__de_iphone+256
	DD	imagerel stbi__de_iphone+283
	DD	imagerel $chain$1$stbi__de_iphone
pdata	ENDS
;	COMDAT pdata
pdata	SEGMENT
$pdata$stbi__expand_png_palette DD imagerel stbi__expand_png_palette
	DD	imagerel stbi__expand_png_palette+307
	DD	imagerel $unwind$stbi__expand_png_palette
pdata	ENDS
;	COMDAT pdata
pdata	SEGMENT
$pdata$stbi__create_png_image DD imagerel stbi__create_png_image
	DD	imagerel stbi__create_png_image+139
	DD	imagerel $unwind$stbi__create_png_image
pdata	ENDS
;	COMDAT pdata
pdata	SEGMENT
$pdata$0$stbi__create_png_image DD imagerel stbi__create_png_image+139
	DD	imagerel stbi__create_png_image+247
	DD	imagerel $chain$0$stbi__create_png_image
pdata	ENDS
;	COMDAT pdata
pdata	SEGMENT
$pdata$2$stbi__create_png_image DD imagerel stbi__create_png_image+247
	DD	imagerel stbi__create_png_image+1003
	DD	imagerel $chain$2$stbi__create_png_image
pdata	ENDS
;	COMDAT pdata
pdata	SEGMENT
$pdata$3$stbi__create_png_image DD imagerel stbi__create_png_image+1003
	DD	imagerel stbi__create_png_image+1026
	DD	imagerel $chain$3$stbi__create_png_image
pdata	ENDS
;	COMDAT pdata
pdata	SEGMENT
$pdata$5$stbi__create_png_image DD imagerel stbi__create_png_image+1026
	DD	imagerel stbi__create_png_image+1041
	DD	imagerel $chain$5$stbi__create_png_image
pdata	ENDS
;	COMDAT pdata
pdata	SEGMENT
$pdata$6$stbi__create_png_image DD imagerel stbi__create_png_image+1041
	DD	imagerel stbi__create_png_image+1080
	DD	imagerel $chain$6$stbi__create_png_image
pdata	ENDS
;	COMDAT pdata
pdata	SEGMENT
$pdata$stbi__create_png_image_raw DD imagerel stbi__create_png_image_raw
	DD	imagerel stbi__create_png_image_raw+248
	DD	imagerel $unwind$stbi__create_png_image_raw
pdata	ENDS
;	COMDAT pdata
pdata	SEGMENT
$pdata$0$stbi__create_png_image_raw DD imagerel stbi__create_png_image_raw+248
	DD	imagerel stbi__create_png_image_raw+437
	DD	imagerel $chain$0$stbi__create_png_image_raw
pdata	ENDS
;	COMDAT pdata
pdata	SEGMENT
$pdata$1$stbi__create_png_image_raw DD imagerel stbi__create_png_image_raw+437
	DD	imagerel stbi__create_png_image_raw+455
	DD	imagerel $chain$1$stbi__create_png_image_raw
pdata	ENDS
;	COMDAT pdata
pdata	SEGMENT
$pdata$2$stbi__create_png_image_raw DD imagerel stbi__create_png_image_raw+455
	DD	imagerel stbi__create_png_image_raw+4675
	DD	imagerel $chain$2$stbi__create_png_image_raw
pdata	ENDS
;	COMDAT pdata
pdata	SEGMENT
$pdata$3$stbi__create_png_image_raw DD imagerel stbi__create_png_image_raw+4675
	DD	imagerel stbi__create_png_image_raw+4808
	DD	imagerel $chain$3$stbi__create_png_image_raw
pdata	ENDS
;	COMDAT pdata
pdata	SEGMENT
$pdata$stbi__paeth DD imagerel stbi__paeth
	DD	imagerel stbi__paeth+86
	DD	imagerel $unwind$stbi__paeth
pdata	ENDS
;	COMDAT pdata
pdata	SEGMENT
$pdata$stbi__check_png_header DD imagerel stbi__check_png_header
	DD	imagerel stbi__check_png_header+189
	DD	imagerel $unwind$stbi__check_png_header
pdata	ENDS
;	COMDAT pdata
pdata	SEGMENT
$pdata$stbi__get_chunk_header DD imagerel stbi__get_chunk_header
	DD	imagerel stbi__get_chunk_header+84
	DD	imagerel $unwind$stbi__get_chunk_header
pdata	ENDS
;	COMDAT pdata
pdata	SEGMENT
$pdata$stbi_zlib_decode_malloc_guesssize_headerflag DD imagerel $LN16@stbi_zlib_
	DD	imagerel $LN16@stbi_zlib_+185
	DD	imagerel $unwind$stbi_zlib_decode_malloc_guesssize_headerflag
pdata	ENDS
;	COMDAT pdata
pdata	SEGMENT
$pdata$stbi__parse_zlib DD imagerel stbi__parse_zlib
	DD	imagerel stbi__parse_zlib+656
	DD	imagerel $unwind$stbi__parse_zlib
pdata	ENDS
;	COMDAT pdata
pdata	SEGMENT
$pdata$stbi__parse_uncompressed_block DD imagerel stbi__parse_uncompressed_block
	DD	imagerel stbi__parse_uncompressed_block+485
	DD	imagerel $unwind$stbi__parse_uncompressed_block
pdata	ENDS
;	COMDAT pdata
pdata	SEGMENT
$pdata$stbi__compute_huffman_codes DD imagerel stbi__compute_huffman_codes
	DD	imagerel stbi__compute_huffman_codes+37
	DD	imagerel $unwind$stbi__compute_huffman_codes
pdata	ENDS
;	COMDAT pdata
pdata	SEGMENT
$pdata$0$stbi__compute_huffman_codes DD imagerel stbi__compute_huffman_codes+37
	DD	imagerel stbi__compute_huffman_codes+310
	DD	imagerel $chain$0$stbi__compute_huffman_codes
pdata	ENDS
;	COMDAT pdata
pdata	SEGMENT
$pdata$2$stbi__compute_huffman_codes DD imagerel stbi__compute_huffman_codes+310
	DD	imagerel stbi__compute_huffman_codes+773
	DD	imagerel $chain$2$stbi__compute_huffman_codes
pdata	ENDS
;	COMDAT pdata
pdata	SEGMENT
$pdata$3$stbi__compute_huffman_codes DD imagerel stbi__compute_huffman_codes+773
	DD	imagerel stbi__compute_huffman_codes+1637
	DD	imagerel $chain$3$stbi__compute_huffman_codes
pdata	ENDS
;	COMDAT pdata
pdata	SEGMENT
$pdata$stbi__parse_huffman_block DD imagerel stbi__parse_huffman_block
	DD	imagerel stbi__parse_huffman_block+1067
	DD	imagerel $unwind$stbi__parse_huffman_block
pdata	ENDS
;	COMDAT pdata
pdata	SEGMENT
$pdata$stbi__zexpand DD imagerel stbi__zexpand
	DD	imagerel stbi__zexpand+164
	DD	imagerel $unwind$stbi__zexpand
pdata	ENDS
;	COMDAT pdata
pdata	SEGMENT
$pdata$0$stbi__zexpand DD imagerel stbi__zexpand+164
	DD	imagerel stbi__zexpand+242
	DD	imagerel $chain$0$stbi__zexpand
pdata	ENDS
;	COMDAT pdata
pdata	SEGMENT
$pdata$2$stbi__zexpand DD imagerel stbi__zexpand+242
	DD	imagerel stbi__zexpand+284
	DD	imagerel $chain$2$stbi__zexpand
pdata	ENDS
;	COMDAT pdata
pdata	SEGMENT
$pdata$stbi__zhuffman_decode DD imagerel stbi__zhuffman_decode
	DD	imagerel stbi__zhuffman_decode+45
	DD	imagerel $unwind$stbi__zhuffman_decode
pdata	ENDS
;	COMDAT pdata
pdata	SEGMENT
$pdata$0$stbi__zhuffman_decode DD imagerel stbi__zhuffman_decode+45
	DD	imagerel stbi__zhuffman_decode+141
	DD	imagerel $chain$0$stbi__zhuffman_decode
pdata	ENDS
;	COMDAT pdata
pdata	SEGMENT
$pdata$1$stbi__zhuffman_decode DD imagerel stbi__zhuffman_decode+141
	DD	imagerel stbi__zhuffman_decode+205
	DD	imagerel $chain$1$stbi__zhuffman_decode
pdata	ENDS
;	COMDAT pdata
pdata	SEGMENT
$pdata$stbi__zreceive DD imagerel stbi__zreceive
	DD	imagerel stbi__zreceive+28
	DD	imagerel $unwind$stbi__zreceive
pdata	ENDS
;	COMDAT pdata
pdata	SEGMENT
$pdata$0$stbi__zreceive DD imagerel stbi__zreceive+28
	DD	imagerel stbi__zreceive+129
	DD	imagerel $chain$0$stbi__zreceive
pdata	ENDS
;	COMDAT pdata
pdata	SEGMENT
$pdata$1$stbi__zreceive DD imagerel stbi__zreceive+129
	DD	imagerel stbi__zreceive+162
	DD	imagerel $chain$1$stbi__zreceive
pdata	ENDS
;	COMDAT pdata
pdata	SEGMENT
$pdata$stbi__zbuild_huffman DD imagerel stbi__zbuild_huffman
	DD	imagerel stbi__zbuild_huffman+177
	DD	imagerel $unwind$stbi__zbuild_huffman
pdata	ENDS
;	COMDAT pdata
pdata	SEGMENT
$pdata$0$stbi__zbuild_huffman DD imagerel stbi__zbuild_huffman+177
	DD	imagerel stbi__zbuild_huffman+563
	DD	imagerel $chain$0$stbi__zbuild_huffman
pdata	ENDS
;	COMDAT pdata
pdata	SEGMENT
$pdata$1$stbi__zbuild_huffman DD imagerel stbi__zbuild_huffman+563
	DD	imagerel stbi__zbuild_huffman+594
	DD	imagerel $chain$1$stbi__zbuild_huffman
pdata	ENDS
;	COMDAT pdata
pdata	SEGMENT
$pdata$2$stbi__zbuild_huffman DD imagerel stbi__zbuild_huffman+594
	DD	imagerel stbi__zbuild_huffman+633
	DD	imagerel $chain$2$stbi__zbuild_huffman
pdata	ENDS
;	COMDAT pdata
pdata	SEGMENT
$pdata$3$stbi__zbuild_huffman DD imagerel stbi__zbuild_huffman+633
	DD	imagerel stbi__zbuild_huffman+672
	DD	imagerel $chain$3$stbi__zbuild_huffman
pdata	ENDS
;	COMDAT pdata
pdata	SEGMENT
$pdata$stbi__jpeg_test DD imagerel stbi__jpeg_test
	DD	imagerel stbi__jpeg_test+274
	DD	imagerel $unwind$stbi__jpeg_test
pdata	ENDS
;	COMDAT pdata
pdata	SEGMENT
$pdata$stbi__jpeg_load DD imagerel stbi__jpeg_load
	DD	imagerel stbi__jpeg_load+285
	DD	imagerel $unwind$stbi__jpeg_load
pdata	ENDS
;	COMDAT pdata
pdata	SEGMENT
$pdata$load_jpeg_image DD imagerel load_jpeg_image
	DD	imagerel load_jpeg_image+124
	DD	imagerel $unwind$load_jpeg_image
pdata	ENDS
;	COMDAT pdata
pdata	SEGMENT
$pdata$0$load_jpeg_image DD imagerel load_jpeg_image+124
	DD	imagerel load_jpeg_image+252
	DD	imagerel $chain$0$load_jpeg_image
pdata	ENDS
;	COMDAT pdata
pdata	SEGMENT
$pdata$4$load_jpeg_image DD imagerel load_jpeg_image+252
	DD	imagerel load_jpeg_image+453
	DD	imagerel $chain$4$load_jpeg_image
pdata	ENDS
;	COMDAT pdata
pdata	SEGMENT
$pdata$5$load_jpeg_image DD imagerel load_jpeg_image+453
	DD	imagerel load_jpeg_image+481
	DD	imagerel $chain$5$load_jpeg_image
pdata	ENDS
;	COMDAT pdata
pdata	SEGMENT
$pdata$6$load_jpeg_image DD imagerel load_jpeg_image+481
	DD	imagerel load_jpeg_image+2115
	DD	imagerel $chain$6$load_jpeg_image
pdata	ENDS
;	COMDAT pdata
pdata	SEGMENT
$pdata$7$load_jpeg_image DD imagerel load_jpeg_image+2115
	DD	imagerel load_jpeg_image+2123
	DD	imagerel $chain$7$load_jpeg_image
pdata	ENDS
;	COMDAT pdata
pdata	SEGMENT
$pdata$8$load_jpeg_image DD imagerel load_jpeg_image+2123
	DD	imagerel load_jpeg_image+2152
	DD	imagerel $chain$8$load_jpeg_image
pdata	ENDS
;	COMDAT pdata
pdata	SEGMENT
$pdata$9$load_jpeg_image DD imagerel load_jpeg_image+2152
	DD	imagerel load_jpeg_image+2208
	DD	imagerel $chain$9$load_jpeg_image
pdata	ENDS
;	COMDAT pdata
pdata	SEGMENT
$pdata$10$load_jpeg_image DD imagerel load_jpeg_image+2208
	DD	imagerel load_jpeg_image+2247
	DD	imagerel $chain$10$load_jpeg_image
pdata	ENDS
;	COMDAT pdata
pdata	SEGMENT
$pdata$stbi__setup_jpeg DD imagerel stbi__setup_jpeg
	DD	imagerel stbi__setup_jpeg+114
	DD	imagerel $unwind$stbi__setup_jpeg
pdata	ENDS
;	COMDAT pdata
pdata	SEGMENT
$pdata$stbi__YCbCr_to_RGB_simd DD imagerel stbi__YCbCr_to_RGB_simd
	DD	imagerel stbi__YCbCr_to_RGB_simd+59
	DD	imagerel $unwind$stbi__YCbCr_to_RGB_simd
pdata	ENDS
;	COMDAT pdata
pdata	SEGMENT
$pdata$4$stbi__YCbCr_to_RGB_simd DD imagerel stbi__YCbCr_to_RGB_simd+59
	DD	imagerel stbi__YCbCr_to_RGB_simd+140
	DD	imagerel $chain$4$stbi__YCbCr_to_RGB_simd
pdata	ENDS
;	COMDAT pdata
pdata	SEGMENT
$pdata$5$stbi__YCbCr_to_RGB_simd DD imagerel stbi__YCbCr_to_RGB_simd+140
	DD	imagerel stbi__YCbCr_to_RGB_simd+339
	DD	imagerel $chain$5$stbi__YCbCr_to_RGB_simd
pdata	ENDS
;	COMDAT pdata
pdata	SEGMENT
$pdata$6$stbi__YCbCr_to_RGB_simd DD imagerel stbi__YCbCr_to_RGB_simd+339
	DD	imagerel stbi__YCbCr_to_RGB_simd+367
	DD	imagerel $chain$6$stbi__YCbCr_to_RGB_simd
pdata	ENDS
;	COMDAT pdata
pdata	SEGMENT
$pdata$7$stbi__YCbCr_to_RGB_simd DD imagerel stbi__YCbCr_to_RGB_simd+367
	DD	imagerel stbi__YCbCr_to_RGB_simd+382
	DD	imagerel $chain$7$stbi__YCbCr_to_RGB_simd
pdata	ENDS
;	COMDAT pdata
pdata	SEGMENT
$pdata$9$stbi__YCbCr_to_RGB_simd DD imagerel stbi__YCbCr_to_RGB_simd+382
	DD	imagerel stbi__YCbCr_to_RGB_simd+630
	DD	imagerel $chain$9$stbi__YCbCr_to_RGB_simd
pdata	ENDS
;	COMDAT pdata
pdata	SEGMENT
$pdata$10$stbi__YCbCr_to_RGB_simd DD imagerel stbi__YCbCr_to_RGB_simd+630
	DD	imagerel stbi__YCbCr_to_RGB_simd+647
	DD	imagerel $chain$10$stbi__YCbCr_to_RGB_simd
pdata	ENDS
;	COMDAT pdata
pdata	SEGMENT
$pdata$stbi__YCbCr_to_RGB_row DD imagerel stbi__YCbCr_to_RGB_row
	DD	imagerel stbi__YCbCr_to_RGB_row+36
	DD	imagerel $unwind$stbi__YCbCr_to_RGB_row
pdata	ENDS
;	COMDAT pdata
pdata	SEGMENT
$pdata$1$stbi__YCbCr_to_RGB_row DD imagerel stbi__YCbCr_to_RGB_row+36
	DD	imagerel stbi__YCbCr_to_RGB_row+278
	DD	imagerel $chain$1$stbi__YCbCr_to_RGB_row
pdata	ENDS
;	COMDAT pdata
pdata	SEGMENT
$pdata$2$stbi__YCbCr_to_RGB_row DD imagerel stbi__YCbCr_to_RGB_row+278
	DD	imagerel stbi__YCbCr_to_RGB_row+292
	DD	imagerel $chain$2$stbi__YCbCr_to_RGB_row
pdata	ENDS
;	COMDAT pdata
pdata	SEGMENT
$pdata$stbi__resample_row_hv_2_simd DD imagerel stbi__resample_row_hv_2_simd
	DD	imagerel stbi__resample_row_hv_2_simd+89
	DD	imagerel $unwind$stbi__resample_row_hv_2_simd
pdata	ENDS
;	COMDAT pdata
pdata	SEGMENT
$pdata$3$stbi__resample_row_hv_2_simd DD imagerel stbi__resample_row_hv_2_simd+89
	DD	imagerel stbi__resample_row_hv_2_simd+335
	DD	imagerel $chain$3$stbi__resample_row_hv_2_simd
pdata	ENDS
;	COMDAT pdata
pdata	SEGMENT
$pdata$4$stbi__resample_row_hv_2_simd DD imagerel stbi__resample_row_hv_2_simd+335
	DD	imagerel stbi__resample_row_hv_2_simd+507
	DD	imagerel $chain$4$stbi__resample_row_hv_2_simd
pdata	ENDS
;	COMDAT pdata
pdata	SEGMENT
$pdata$stbi__resample_row_hv_2 DD imagerel stbi__resample_row_hv_2
	DD	imagerel stbi__resample_row_hv_2+192
	DD	imagerel $unwind$stbi__resample_row_hv_2
pdata	ENDS
;	COMDAT pdata
pdata	SEGMENT
$pdata$stbi__resample_row_h_2 DD imagerel stbi__resample_row_h_2
	DD	imagerel stbi__resample_row_h_2+226
	DD	imagerel $unwind$stbi__resample_row_h_2
pdata	ENDS
;	COMDAT pdata
pdata	SEGMENT
$pdata$stbi__resample_row_v_2 DD imagerel stbi__resample_row_v_2
	DD	imagerel stbi__resample_row_v_2+88
	DD	imagerel $unwind$stbi__resample_row_v_2
pdata	ENDS
;	COMDAT pdata
pdata	SEGMENT
$pdata$2$stbi__resample_row_v_2 DD imagerel stbi__resample_row_v_2+88
	DD	imagerel stbi__resample_row_v_2+447
	DD	imagerel $chain$2$stbi__resample_row_v_2
pdata	ENDS
;	COMDAT pdata
pdata	SEGMENT
$pdata$3$stbi__resample_row_v_2 DD imagerel stbi__resample_row_v_2+447
	DD	imagerel stbi__resample_row_v_2+523
	DD	imagerel $chain$3$stbi__resample_row_v_2
pdata	ENDS
;	COMDAT pdata
pdata	SEGMENT
$pdata$stbi__decode_jpeg_image DD imagerel stbi__decode_jpeg_image
	DD	imagerel stbi__decode_jpeg_image+667
	DD	imagerel $unwind$stbi__decode_jpeg_image
pdata	ENDS
;	COMDAT pdata
pdata	SEGMENT
$pdata$stbi__skip_jpeg_junk_at_end DD imagerel stbi__skip_jpeg_junk_at_end
	DD	imagerel stbi__skip_jpeg_junk_at_end+292
	DD	imagerel $unwind$stbi__skip_jpeg_junk_at_end
pdata	ENDS
;	COMDAT pdata
pdata	SEGMENT
$pdata$stbi__decode_jpeg_header DD imagerel stbi__decode_jpeg_header
	DD	imagerel stbi__decode_jpeg_header+896
	DD	imagerel $unwind$stbi__decode_jpeg_header
pdata	ENDS
;	COMDAT pdata
pdata	SEGMENT
$pdata$stbi__process_frame_header DD imagerel stbi__process_frame_header
	DD	imagerel stbi__process_frame_header+437
	DD	imagerel $unwind$stbi__process_frame_header
pdata	ENDS
;	COMDAT pdata
pdata	SEGMENT
$pdata$0$stbi__process_frame_header DD imagerel stbi__process_frame_header+437
	DD	imagerel stbi__process_frame_header+546
	DD	imagerel $chain$0$stbi__process_frame_header
pdata	ENDS
;	COMDAT pdata
pdata	SEGMENT
$pdata$4$stbi__process_frame_header DD imagerel stbi__process_frame_header+546
	DD	imagerel stbi__process_frame_header+1632
	DD	imagerel $chain$4$stbi__process_frame_header
pdata	ENDS
;	COMDAT pdata
pdata	SEGMENT
$pdata$6$stbi__process_frame_header DD imagerel stbi__process_frame_header+1632
	DD	imagerel stbi__process_frame_header+1951
	DD	imagerel $chain$6$stbi__process_frame_header
pdata	ENDS
;	COMDAT pdata
pdata	SEGMENT
$pdata$7$stbi__process_frame_header DD imagerel stbi__process_frame_header+1951
	DD	imagerel stbi__process_frame_header+2047
	DD	imagerel $chain$7$stbi__process_frame_header
pdata	ENDS
;	COMDAT pdata
pdata	SEGMENT
$pdata$stbi__free_jpeg_components DD imagerel stbi__free_jpeg_components
	DD	imagerel stbi__free_jpeg_components+13
	DD	imagerel $unwind$stbi__free_jpeg_components
pdata	ENDS
;	COMDAT pdata
pdata	SEGMENT
$pdata$2$stbi__free_jpeg_components DD imagerel stbi__free_jpeg_components+13
	DD	imagerel stbi__free_jpeg_components+127
	DD	imagerel $chain$2$stbi__free_jpeg_components
pdata	ENDS
;	COMDAT pdata
pdata	SEGMENT
$pdata$3$stbi__free_jpeg_components DD imagerel stbi__free_jpeg_components+127
	DD	imagerel stbi__free_jpeg_components+135
	DD	imagerel $chain$3$stbi__free_jpeg_components
pdata	ENDS
;	COMDAT pdata
pdata	SEGMENT
$pdata$stbi__process_scan_header DD imagerel stbi__process_scan_header
	DD	imagerel stbi__process_scan_header+197
	DD	imagerel $unwind$stbi__process_scan_header
pdata	ENDS
;	COMDAT pdata
pdata	SEGMENT
$pdata$1$stbi__process_scan_header DD imagerel stbi__process_scan_header+197
	DD	imagerel stbi__process_scan_header+866
	DD	imagerel $chain$1$stbi__process_scan_header
pdata	ENDS
;	COMDAT pdata
pdata	SEGMENT
$pdata$3$stbi__process_scan_header DD imagerel stbi__process_scan_header+866
	DD	imagerel stbi__process_scan_header+961
	DD	imagerel $chain$3$stbi__process_scan_header
pdata	ENDS
;	COMDAT pdata
pdata	SEGMENT
$pdata$4$stbi__process_scan_header DD imagerel stbi__process_scan_header+961
	DD	imagerel stbi__process_scan_header+1014
	DD	imagerel $chain$4$stbi__process_scan_header
pdata	ENDS
;	COMDAT pdata
pdata	SEGMENT
$pdata$stbi__process_marker DD imagerel stbi__process_marker
	DD	imagerel stbi__process_marker+2780
	DD	imagerel $unwind$stbi__process_marker
pdata	ENDS
;	COMDAT pdata
pdata	SEGMENT
$pdata$stbi__jpeg_finish DD imagerel stbi__jpeg_finish
	DD	imagerel stbi__jpeg_finish+28
	DD	imagerel $unwind$stbi__jpeg_finish
pdata	ENDS
;	COMDAT pdata
pdata	SEGMENT
$pdata$0$stbi__jpeg_finish DD imagerel stbi__jpeg_finish+28
	DD	imagerel stbi__jpeg_finish+45
	DD	imagerel $chain$0$stbi__jpeg_finish
pdata	ENDS
;	COMDAT pdata
pdata	SEGMENT
$pdata$6$stbi__jpeg_finish DD imagerel stbi__jpeg_finish+45
	DD	imagerel stbi__jpeg_finish+456
	DD	imagerel $chain$6$stbi__jpeg_finish
pdata	ENDS
;	COMDAT pdata
pdata	SEGMENT
$pdata$7$stbi__jpeg_finish DD imagerel stbi__jpeg_finish+456
	DD	imagerel stbi__jpeg_finish+461
	DD	imagerel $chain$7$stbi__jpeg_finish
pdata	ENDS
;	COMDAT pdata
pdata	SEGMENT
$pdata$8$stbi__jpeg_finish DD imagerel stbi__jpeg_finish+461
	DD	imagerel stbi__jpeg_finish+468
	DD	imagerel $chain$8$stbi__jpeg_finish
pdata	ENDS
;	COMDAT pdata
pdata	SEGMENT
$pdata$stbi__parse_entropy_coded_data DD imagerel stbi__parse_entropy_coded_data
	DD	imagerel stbi__parse_entropy_coded_data+2061
	DD	imagerel $unwind$stbi__parse_entropy_coded_data
pdata	ENDS
;	COMDAT pdata
pdata	SEGMENT
$pdata$stbi__get_marker DD imagerel stbi__get_marker
	DD	imagerel stbi__get_marker+33
	DD	imagerel $unwind$stbi__get_marker
pdata	ENDS
;	COMDAT pdata
pdata	SEGMENT
$pdata$0$stbi__get_marker DD imagerel stbi__get_marker+33
	DD	imagerel stbi__get_marker+168
	DD	imagerel $chain$0$stbi__get_marker
pdata	ENDS
;	COMDAT pdata
pdata	SEGMENT
$pdata$2$stbi__get_marker DD imagerel stbi__get_marker+168
	DD	imagerel stbi__get_marker+184
	DD	imagerel $chain$2$stbi__get_marker
pdata	ENDS
;	COMDAT pdata
pdata	SEGMENT
$pdata$4$stbi__get_marker DD imagerel stbi__get_marker+184
	DD	imagerel stbi__get_marker+197
	DD	imagerel $chain$4$stbi__get_marker
pdata	ENDS
;	COMDAT pdata
pdata	SEGMENT
$pdata$stbi__idct_simd DD imagerel stbi__idct_simd
	DD	imagerel stbi__idct_simd+2084
	DD	imagerel $unwind$stbi__idct_simd
pdata	ENDS
;	COMDAT pdata
pdata	SEGMENT
$pdata$stbi__idct_block DD imagerel stbi__idct_block
	DD	imagerel stbi__idct_block+1555
	DD	imagerel $unwind$stbi__idct_block
pdata	ENDS
;	COMDAT pdata
pdata	SEGMENT
$pdata$stbi__jpeg_decode_block_prog_ac DD imagerel stbi__jpeg_decode_block_prog_ac
	DD	imagerel stbi__jpeg_decode_block_prog_ac+1795
	DD	imagerel $unwind$stbi__jpeg_decode_block_prog_ac
pdata	ENDS
;	COMDAT pdata
pdata	SEGMENT
$pdata$stbi__jpeg_decode_block_prog_dc DD imagerel stbi__jpeg_decode_block_prog_dc
	DD	imagerel stbi__jpeg_decode_block_prog_dc+891
	DD	imagerel $unwind$stbi__jpeg_decode_block_prog_dc
pdata	ENDS
;	COMDAT pdata
pdata	SEGMENT
$pdata$stbi__jpeg_decode_block DD imagerel stbi__jpeg_decode_block
	DD	imagerel stbi__jpeg_decode_block+617
	DD	imagerel $unwind$stbi__jpeg_decode_block
pdata	ENDS
;	COMDAT pdata
pdata	SEGMENT
$pdata$0$stbi__jpeg_decode_block DD imagerel stbi__jpeg_decode_block+617
	DD	imagerel stbi__jpeg_decode_block+790
	DD	imagerel $chain$0$stbi__jpeg_decode_block
pdata	ENDS
;	COMDAT pdata
pdata	SEGMENT
$pdata$4$stbi__jpeg_decode_block DD imagerel stbi__jpeg_decode_block+790
	DD	imagerel stbi__jpeg_decode_block+1389
	DD	imagerel $chain$4$stbi__jpeg_decode_block
pdata	ENDS
;	COMDAT pdata
pdata	SEGMENT
$pdata$6$stbi__jpeg_decode_block DD imagerel stbi__jpeg_decode_block+1389
	DD	imagerel stbi__jpeg_decode_block+1438
	DD	imagerel $chain$6$stbi__jpeg_decode_block
pdata	ENDS
;	COMDAT pdata
pdata	SEGMENT
$pdata$stbi__jpeg_get_bit DD imagerel stbi__jpeg_get_bit
	DD	imagerel stbi__jpeg_get_bit+77
	DD	imagerel $unwind$stbi__jpeg_get_bit
pdata	ENDS
;	COMDAT pdata
pdata	SEGMENT
$pdata$stbi__jpeg_get_bits DD imagerel stbi__jpeg_get_bits
	DD	imagerel stbi__jpeg_get_bits+109
	DD	imagerel $unwind$stbi__jpeg_get_bits
pdata	ENDS
;	COMDAT pdata
pdata	SEGMENT
$pdata$stbi__extend_receive DD imagerel stbi__extend_receive
	DD	imagerel stbi__extend_receive+149
	DD	imagerel $unwind$stbi__extend_receive
pdata	ENDS
;	COMDAT pdata
pdata	SEGMENT
$pdata$stbi__jpeg_huff_decode DD imagerel stbi__jpeg_huff_decode
	DD	imagerel stbi__jpeg_huff_decode+278
	DD	imagerel $unwind$stbi__jpeg_huff_decode
pdata	ENDS
;	COMDAT pdata
pdata	SEGMENT
$pdata$stbi__grow_buffer_unsafe DD imagerel stbi__grow_buffer_unsafe
	DD	imagerel stbi__grow_buffer_unsafe+381
	DD	imagerel $unwind$stbi__grow_buffer_unsafe
pdata	ENDS
;	COMDAT pdata
pdata	SEGMENT
$pdata$stbi__build_fast_ac DD imagerel stbi__build_fast_ac
	DD	imagerel stbi__build_fast_ac+218
	DD	imagerel $unwind$stbi__build_fast_ac
pdata	ENDS
;	COMDAT pdata
pdata	SEGMENT
$pdata$stbi__build_huffman DD imagerel stbi__build_huffman
	DD	imagerel stbi__build_huffman+96
	DD	imagerel $unwind$stbi__build_huffman
pdata	ENDS
;	COMDAT pdata
pdata	SEGMENT
$pdata$1$stbi__build_huffman DD imagerel stbi__build_huffman+96
	DD	imagerel stbi__build_huffman+302
	DD	imagerel $chain$1$stbi__build_huffman
pdata	ENDS
;	COMDAT pdata
pdata	SEGMENT
$pdata$2$stbi__build_huffman DD imagerel stbi__build_huffman+302
	DD	imagerel stbi__build_huffman+389
	DD	imagerel $chain$2$stbi__build_huffman
pdata	ENDS
;	COMDAT pdata
pdata	SEGMENT
$pdata$3$stbi__build_huffman DD imagerel stbi__build_huffman+389
	DD	imagerel stbi__build_huffman+413
	DD	imagerel $chain$3$stbi__build_huffman
pdata	ENDS
;	COMDAT pdata
pdata	SEGMENT
$pdata$4$stbi__build_huffman DD imagerel stbi__build_huffman+413
	DD	imagerel stbi__build_huffman+459
	DD	imagerel $chain$4$stbi__build_huffman
pdata	ENDS
;	COMDAT pdata
pdata	SEGMENT
$pdata$5$stbi__build_huffman DD imagerel stbi__build_huffman+459
	DD	imagerel stbi__build_huffman+498
	DD	imagerel $chain$5$stbi__build_huffman
pdata	ENDS
;	COMDAT pdata
pdata	SEGMENT
$pdata$stbi__hdr_to_ldr DD imagerel stbi__hdr_to_ldr
	DD	imagerel stbi__hdr_to_ldr+164
	DD	imagerel $unwind$stbi__hdr_to_ldr
pdata	ENDS
;	COMDAT pdata
pdata	SEGMENT
$pdata$7$stbi__hdr_to_ldr DD imagerel stbi__hdr_to_ldr+164
	DD	imagerel stbi__hdr_to_ldr+504
	DD	imagerel $chain$7$stbi__hdr_to_ldr
pdata	ENDS
;	COMDAT pdata
pdata	SEGMENT
$pdata$8$stbi__hdr_to_ldr DD imagerel stbi__hdr_to_ldr+504
	DD	imagerel stbi__hdr_to_ldr+586
	DD	imagerel $chain$8$stbi__hdr_to_ldr
pdata	ENDS
;	COMDAT pdata
pdata	SEGMENT
$pdata$stbi__convert_format16 DD imagerel stbi__convert_format16
	DD	imagerel stbi__convert_format16+49
	DD	imagerel $unwind$stbi__convert_format16
pdata	ENDS
;	COMDAT pdata
pdata	SEGMENT
$pdata$0$stbi__convert_format16 DD imagerel stbi__convert_format16+49
	DD	imagerel stbi__convert_format16+130
	DD	imagerel $chain$0$stbi__convert_format16
pdata	ENDS
;	COMDAT pdata
pdata	SEGMENT
$pdata$2$stbi__convert_format16 DD imagerel stbi__convert_format16+130
	DD	imagerel stbi__convert_format16+728
	DD	imagerel $chain$2$stbi__convert_format16
pdata	ENDS
;	COMDAT pdata
pdata	SEGMENT
$pdata$3$stbi__convert_format16 DD imagerel stbi__convert_format16+728
	DD	imagerel stbi__convert_format16+747
	DD	imagerel $chain$3$stbi__convert_format16
pdata	ENDS
;	COMDAT pdata
pdata	SEGMENT
$pdata$5$stbi__convert_format16 DD imagerel stbi__convert_format16+747
	DD	imagerel stbi__convert_format16+1248
	DD	imagerel $chain$5$stbi__convert_format16
pdata	ENDS
;	COMDAT pdata
pdata	SEGMENT
$pdata$stbi__convert_format DD imagerel stbi__convert_format
	DD	imagerel stbi__convert_format+49
	DD	imagerel $unwind$stbi__convert_format
pdata	ENDS
;	COMDAT pdata
pdata	SEGMENT
$pdata$2$stbi__convert_format DD imagerel stbi__convert_format+49
	DD	imagerel stbi__convert_format+1046
	DD	imagerel $chain$2$stbi__convert_format
pdata	ENDS
;	COMDAT pdata
pdata	SEGMENT
$pdata$4$stbi__convert_format DD imagerel stbi__convert_format+1046
	DD	imagerel stbi__convert_format+1103
	DD	imagerel $chain$4$stbi__convert_format
pdata	ENDS
;	COMDAT pdata
pdata	SEGMENT
$pdata$5$stbi__convert_format DD imagerel stbi__convert_format+1103
	DD	imagerel stbi__convert_format+1168
	DD	imagerel $chain$5$stbi__convert_format
pdata	ENDS
;	COMDAT pdata
pdata	SEGMENT
$pdata$6$stbi__convert_format DD imagerel stbi__convert_format+1168
	DD	imagerel stbi__convert_format+1272
	DD	imagerel $chain$6$stbi__convert_format
pdata	ENDS
;	COMDAT pdata
pdata	SEGMENT
$pdata$stbi__get32le DD imagerel stbi__get32le
	DD	imagerel stbi__get32le+44
	DD	imagerel $unwind$stbi__get32le
pdata	ENDS
;	COMDAT pdata
pdata	SEGMENT
$pdata$stbi__get16le DD imagerel stbi__get16le
	DD	imagerel stbi__get16le+177
	DD	imagerel $unwind$stbi__get16le
pdata	ENDS
;	COMDAT pdata
pdata	SEGMENT
$pdata$stbi__get32be DD imagerel stbi__get32be
	DD	imagerel stbi__get32be+44
	DD	imagerel $unwind$stbi__get32be
pdata	ENDS
;	COMDAT pdata
pdata	SEGMENT
$pdata$stbi__get16be DD imagerel stbi__get16be
	DD	imagerel stbi__get16be+177
	DD	imagerel $unwind$stbi__get16be
pdata	ENDS
;	COMDAT pdata
pdata	SEGMENT
$pdata$stbi__getn DD imagerel stbi__getn
	DD	imagerel stbi__getn+197
	DD	imagerel $unwind$stbi__getn
pdata	ENDS
;	COMDAT pdata
pdata	SEGMENT
$pdata$stbi__at_eof DD imagerel stbi__at_eof
	DD	imagerel stbi__at_eof+75
	DD	imagerel $unwind$stbi__at_eof
pdata	ENDS
;	COMDAT pdata
pdata	SEGMENT
$pdata$stbi__get8 DD imagerel stbi__get8
	DD	imagerel stbi__get8+62
	DD	imagerel $unwind$stbi__get8
pdata	ENDS
;	COMDAT pdata
pdata	SEGMENT
$pdata$0$stbi__get8 DD imagerel stbi__get8+62
	DD	imagerel stbi__get8+155
	DD	imagerel $chain$0$stbi__get8
pdata	ENDS
;	COMDAT pdata
pdata	SEGMENT
$pdata$1$stbi__get8 DD imagerel stbi__get8+155
	DD	imagerel stbi__get8+163
	DD	imagerel $chain$1$stbi__get8
pdata	ENDS
;	COMDAT pdata
pdata	SEGMENT
$pdata$stbi__refill_buffer DD imagerel stbi__refill_buffer
	DD	imagerel stbi__refill_buffer+116
	DD	imagerel $unwind$stbi__refill_buffer
pdata	ENDS
;	COMDAT pdata
pdata	SEGMENT
$pdata$stbi_load_from_file DD imagerel $LN9@stbi_load_
	DD	imagerel $LN9@stbi_load_+157
	DD	imagerel $unwind$stbi_load_from_file
pdata	ENDS
;	COMDAT pdata
pdata	SEGMENT
$pdata$stbi_load DD imagerel $LN13@stbi_load
	DD	imagerel $LN13@stbi_load+187
	DD	imagerel $unwind$stbi_load
pdata	ENDS
;	COMDAT pdata
pdata	SEGMENT
$pdata$stbi__fopen DD imagerel stbi__fopen
	DD	imagerel stbi__fopen+87
	DD	imagerel $unwind$stbi__fopen
pdata	ENDS
;	COMDAT pdata
pdata	SEGMENT
$pdata$stbi__load_and_postprocess_8bit DD imagerel stbi__load_and_postprocess_8bit
	DD	imagerel stbi__load_and_postprocess_8bit+215
	DD	imagerel $unwind$stbi__load_and_postprocess_8bit
pdata	ENDS
;	COMDAT pdata
pdata	SEGMENT
$pdata$stbi__vertical_flip DD imagerel stbi__vertical_flip
	DD	imagerel stbi__vertical_flip+58
	DD	imagerel $unwind$stbi__vertical_flip
pdata	ENDS
;	COMDAT pdata
pdata	SEGMENT
$pdata$5$stbi__vertical_flip DD imagerel stbi__vertical_flip+58
	DD	imagerel stbi__vertical_flip+257
	DD	imagerel $chain$5$stbi__vertical_flip
pdata	ENDS
;	COMDAT pdata
pdata	SEGMENT
$pdata$6$stbi__vertical_flip DD imagerel stbi__vertical_flip+257
	DD	imagerel stbi__vertical_flip+285
	DD	imagerel $chain$6$stbi__vertical_flip
pdata	ENDS
;	COMDAT pdata
pdata	SEGMENT
$pdata$stbi__convert_16_to_8 DD imagerel stbi__convert_16_to_8
	DD	imagerel stbi__convert_16_to_8+449
	DD	imagerel $unwind$stbi__convert_16_to_8
pdata	ENDS
;	COMDAT pdata
pdata	SEGMENT
$pdata$stbi__load_main DD imagerel stbi__load_main
	DD	imagerel stbi__load_main+2002
	DD	imagerel $unwind$stbi__load_main
pdata	ENDS
;	COMDAT pdata
pdata	SEGMENT
$pdata$stbi__stdio_eof DD imagerel stbi__stdio_eof
	DD	imagerel stbi__stdio_eof+49
	DD	imagerel $unwind$stbi__stdio_eof
pdata	ENDS
;	COMDAT pdata
pdata	SEGMENT
$pdata$stbi__stdio_skip DD imagerel stbi__stdio_skip
	DD	imagerel stbi__stdio_skip+58
	DD	imagerel $unwind$stbi__stdio_skip
pdata	ENDS
;	COMDAT pdata
pdata	SEGMENT
$pdata$stbi__start_callbacks DD imagerel stbi__start_callbacks
	DD	imagerel stbi__start_callbacks+200
	DD	imagerel $unwind$stbi__start_callbacks
pdata	ENDS
;	COMDAT pdata
pdata	SEGMENT
$pdata$stbi__sse2_available DD imagerel stbi__sse2_available
	DD	imagerel stbi__sse2_available+29
	DD	imagerel $unwind$stbi__sse2_available
pdata	ENDS
;	COMDAT pdata
pdata	SEGMENT
$pdata$stbi__cpuid3 DD imagerel stbi__cpuid3
	DD	imagerel stbi__cpuid3+23
	DD	imagerel $unwind$stbi__cpuid3
?invalid_chunk@?BP@??stbi__parse_png_file@@9@9 DB 'XXXX PNG chunk not kno'
	DB	'wn', 00H					; `stbi__parse_png_file'::`31'::invalid_chunk
	ORG $+7
stbi__stdio_callbacks DQ FLAT:stbi__stdio_read
	DQ	FLAT:stbi__stdio_skip
	DQ	FLAT:stbi__stdio_eof
_DATA	ENDS
;	COMDAT xdata
xdata	SEGMENT
$unwind$stbi__cpuid3 DQ 03002120600020601r	; 1.95074e-77
xdata	ENDS
;	COMDAT xdata
xdata	SEGMENT
$unwind$stbi__sse2_available DQ 03002120600020601r ; 1.95074e-77
xdata	ENDS
;	COMDAT xdata
xdata	SEGMENT
$unwind$stbi__start_callbacks DQ 00006340a00040a01r ; 8.62672e-309
	DD	07006320aH
xdata	ENDS
;	COMDAT xdata
xdata	SEGMENT
$unwind$stbi__stdio_skip DQ 03002320600020601r	; 1.96423e-77
xdata	ENDS
;	COMDAT xdata
xdata	SEGMENT
$unwind$stbi__stdio_eof DQ 03002320600020601r	; 1.96423e-77
xdata	ENDS
;	COMDAT xdata
xdata	SEGMENT
$unwind$stbi__load_main DQ 000150114000a2619r	; 2.921e-308
	DQ	0c007d009e00bf00dr		; -2.97658
	DQ	03002500360047005r		; 1.97688e-77
	DD	imagerel __GSHandlerCheck
	DD	098H
xdata	ENDS
;	COMDAT xdata
xdata	SEGMENT
$unwind$stbi__convert_16_to_8 DQ 00008641400081401r ; 1.1669e-308
	DQ	00006341400075414r		; 8.62693e-309
	DD	070103214H
xdata	ENDS
;	COMDAT xdata
xdata	SEGMENT
$chain$6$stbi__vertical_flip DD 021H
	DD	imagerel stbi__vertical_flip
	DD	imagerel stbi__vertical_flip+58
	DD	imagerel $unwind$stbi__vertical_flip
xdata	ENDS
;	COMDAT xdata
xdata	SEGMENT
$chain$5$stbi__vertical_flip DQ 00107e423000c2321r ; 1.08871e-303
	DQ	0010974140108d418r		; 1.1599e-303
	DQ	0010b540c010a6410r		; 1.24534e-303
	DD	010c3404H
	DD	imagerel stbi__vertical_flip
	DD	imagerel stbi__vertical_flip+58
	DD	imagerel $unwind$stbi__vertical_flip
xdata	ENDS
;	COMDAT xdata
xdata	SEGMENT
$unwind$stbi__vertical_flip DQ 0010d010e00042019r ; 1.3217e-303
	DD	0c005f007H
	DD	imagerel __GSHandlerCheck
	DD	0820H
xdata	ENDS
;	COMDAT xdata
xdata	SEGMENT
$unwind$stbi__load_and_postprocess_8bit DQ 0f008b20c00061b19r ; -4.79253e+231
	DQ	0300260037004e006r		; 1.98363e-77
	DD	imagerel __GSHandlerCheck
	DD	050H
xdata	ENDS
;	COMDAT xdata
xdata	SEGMENT
$unwind$stbi__fopen DQ 00000620400011319r	; 5.32451e-310
	DD	imagerel __GSHandlerCheck
	DD	028H
xdata	ENDS
;	COMDAT xdata
xdata	SEGMENT
$unwind$stbi_load DQ 0e007720b00061a19r		; -3.92941e+154
	DQ	03002500360047005r		; 1.97688e-77
	DD	imagerel __GSHandlerCheck
	DD	038H
xdata	ENDS
;	COMDAT xdata
xdata	SEGMENT
$unwind$stbi_load_from_file DQ 00024010e00072019r ; 5.56383e-308
	DQ	0500360047005e007r		; 2.80435e+77
	DD	03002H
	DD	imagerel __GSHandlerCheck
	DD	0110H
xdata	ENDS
;	COMDAT xdata
xdata	SEGMENT
$unwind$stbi__refill_buffer DQ 00006340a00040a01r ; 8.62672e-309
	DD	07006320aH
xdata	ENDS
;	COMDAT xdata
xdata	SEGMENT
$chain$1$stbi__get8 DD 021H
	DD	imagerel stbi__get8
	DD	imagerel stbi__get8+62
	DD	imagerel $unwind$stbi__get8
xdata	ENDS
;	COMDAT xdata
xdata	SEGMENT
$chain$0$stbi__get8 DQ 00006740500020521r	; 8.97428e-309
	DD	imagerel stbi__get8
	DD	imagerel stbi__get8+62
	DD	imagerel $unwind$stbi__get8
xdata	ENDS
;	COMDAT xdata
xdata	SEGMENT
$unwind$stbi__get8 DQ 03002320600020601r	; 1.96423e-77
xdata	ENDS
;	COMDAT xdata
xdata	SEGMENT
$unwind$stbi__at_eof DQ 03002320600020601r	; 1.96423e-77
xdata	ENDS
;	COMDAT xdata
xdata	SEGMENT
$unwind$stbi__getn DQ 0000b741e000c1e01r	; 1.59282e-308
	DQ	00009541e000a641er		; 1.2973e-308
	DQ	0f01a321e0008341er		; -1.01674e+232
	DD	0c016e018H
xdata	ENDS
;	COMDAT xdata
xdata	SEGMENT
$unwind$stbi__get16be DQ 00006340a00040a01r	; 8.62672e-309
	DD	07006320aH
xdata	ENDS
;	COMDAT xdata
xdata	SEGMENT
$unwind$stbi__get32be DQ 00006340a00040a01r	; 8.62672e-309
	DD	07006320aH
xdata	ENDS
;	COMDAT xdata
xdata	SEGMENT
$unwind$stbi__get16le DQ 00006340a00040a01r	; 8.62672e-309
	DD	07006320aH
xdata	ENDS
;	COMDAT xdata
xdata	SEGMENT
$unwind$stbi__get32le DQ 00006340a00040a01r	; 8.62672e-309
	DD	07006320aH
xdata	ENDS
;	COMDAT xdata
xdata	SEGMENT
$chain$6$stbi__convert_format DD 021H
	DD	imagerel stbi__convert_format
	DD	imagerel stbi__convert_format+49
	DD	imagerel $unwind$stbi__convert_format
xdata	ENDS
;	COMDAT xdata
xdata	SEGMENT
$chain$5$stbi__convert_format DQ 0000cf40000020021r ; 1.80135e-308
	DD	imagerel stbi__convert_format
	DD	imagerel stbi__convert_format+49
	DD	imagerel $unwind$stbi__convert_format
xdata	ENDS
;	COMDAT xdata
xdata	SEGMENT
$chain$4$stbi__convert_format DQ 0000cf40000060021r ; 1.80135e-308
	DQ	0000a7400000be400r		; 1.45369e-308
	DD	imagerel stbi__convert_format
	DD	imagerel stbi__convert_format+49
	DD	imagerel $unwind$stbi__convert_format
xdata	ENDS
;	COMDAT xdata
xdata	SEGMENT
$chain$2$stbi__convert_format DQ 0000be47700067721r ; 1.65385e-308
	DQ	0000cf405000a7470r		; 1.80136e-308
	DD	imagerel stbi__convert_format
	DD	imagerel stbi__convert_format+49
	DD	imagerel $unwind$stbi__convert_format
xdata	ENDS
;	COMDAT xdata
xdata	SEGMENT
$unwind$stbi__convert_format DQ 0d008320c00060c01r ; -3.50206e+77
	DQ	0300250036004c006r		; 1.97688e-77
xdata	ENDS
;	COMDAT xdata
xdata	SEGMENT
$chain$5$stbi__convert_format16 DQ 0000af40000060021r ; 1.52322e-308
	DQ	0000834000009e400r		; 1.14078e-308
	DD	imagerel stbi__convert_format16
	DD	imagerel stbi__convert_format16+49
	DD	imagerel $unwind$stbi__convert_format16
xdata	ENDS
;	COMDAT xdata
xdata	SEGMENT
$chain$3$stbi__convert_format16 DD 021H
	DD	imagerel stbi__convert_format16+49
	DD	imagerel stbi__convert_format16+130
	DD	imagerel $chain$0$stbi__convert_format16
xdata	ENDS
;	COMDAT xdata
xdata	SEGMENT
$chain$2$stbi__convert_format16 DQ 0000af40c00040c21r ; 1.52324e-308
	DD	083405H
	DD	imagerel stbi__convert_format16+49
	DD	imagerel stbi__convert_format16+130
	DD	imagerel $chain$0$stbi__convert_format16
xdata	ENDS
;	COMDAT xdata
xdata	SEGMENT
$chain$0$stbi__convert_format16 DQ 00009e40500020521r ; 1.37547e-308
	DD	imagerel stbi__convert_format16
	DD	imagerel stbi__convert_format16+49
	DD	imagerel $unwind$stbi__convert_format16
xdata	ENDS
;	COMDAT xdata
xdata	SEGMENT
$unwind$stbi__convert_format16 DQ 0000b540d00060d01r ; 1.5754e-308
	DQ	060067007c009320dr		; 3.76049e+154
xdata	ENDS
;	COMDAT xdata
xdata	SEGMENT
$chain$8$stbi__hdr_to_ldr DD 021H
	DD	imagerel stbi__hdr_to_ldr
	DD	imagerel stbi__hdr_to_ldr+164
	DD	imagerel $unwind$stbi__hdr_to_ldr
xdata	ENDS
;	COMDAT xdata
xdata	SEGMENT
$chain$7$stbi__hdr_to_ldr DQ 00004885800105821r	; 6.30335e-309
	DQ	00006683b00057848r		; 8.91024e-309
	DQ	0000fe42b000ef433r		; 2.20995e-308
	DQ	00016c4180017d423r		; 3.166e-308
	DD	0155408H
	DD	imagerel stbi__hdr_to_ldr
	DD	imagerel stbi__hdr_to_ldr+164
	DD	imagerel $unwind$stbi__hdr_to_ldr
xdata	ENDS
;	COMDAT xdata
xdata	SEGMENT
$unwind$stbi__hdr_to_ldr DQ 07008f20f00040f01r	; 4.84105e+231
	DD	030066007H
xdata	ENDS
;	COMDAT xdata
xdata	SEGMENT
$chain$5$stbi__build_huffman DQ 0000ae40000040021r ; 1.51453e-308
	DD	097400H
	DD	imagerel stbi__build_huffman
	DD	imagerel stbi__build_huffman+96
	DD	imagerel $unwind$stbi__build_huffman
xdata	ENDS
;	COMDAT xdata
xdata	SEGMENT
$chain$4$stbi__build_huffman DD 021H
	DD	imagerel stbi__build_huffman
	DD	imagerel stbi__build_huffman+96
	DD	imagerel $unwind$stbi__build_huffman
xdata	ENDS
;	COMDAT xdata
xdata	SEGMENT
$chain$3$stbi__build_huffman DD 021H
	DD	imagerel stbi__build_huffman+96
	DD	imagerel stbi__build_huffman+302
	DD	imagerel $chain$1$stbi__build_huffman
xdata	ENDS
;	COMDAT xdata
xdata	SEGMENT
$chain$2$stbi__build_huffman DQ 00008540500020521r ; 1.15818e-308
	DD	imagerel stbi__build_huffman+96
	DD	imagerel stbi__build_huffman+302
	DD	imagerel $chain$1$stbi__build_huffman
xdata	ENDS
;	COMDAT xdata
xdata	SEGMENT
$chain$1$stbi__build_huffman DQ 0000ae41000041021r ; 1.51456e-308
	DD	097405H
	DD	imagerel stbi__build_huffman
	DD	imagerel stbi__build_huffman+96
	DD	imagerel $unwind$stbi__build_huffman
xdata	ENDS
;	COMDAT xdata
xdata	SEGMENT
$unwind$stbi__build_huffman DQ 0f005320900040901r ; -4.11329e+231
	DD	030026003H
xdata	ENDS
;	COMDAT xdata
xdata	SEGMENT
$unwind$stbi__build_fast_ac DQ 00003741500071501r ; 4.80261e-309
	DQ	0000454060002340dr		; 6.01913e-309
	DD	06006H
xdata	ENDS
;	COMDAT xdata
xdata	SEGMENT
$unwind$stbi__grow_buffer_unsafe DQ 00006641200061201r ; 8.88764e-309
	DQ	07006320a0007340ar		; 4.30736e+231
xdata	ENDS
;	COMDAT xdata
xdata	SEGMENT
$unwind$stbi__jpeg_huff_decode DQ 00006340a00040a01r ; 8.62672e-309
	DD	07006320aH
xdata	ENDS
;	COMDAT xdata
xdata	SEGMENT
$unwind$stbi__extend_receive DQ 00006340a00040a01r ; 8.62672e-309
	DD	07006320aH
xdata	ENDS
;	COMDAT xdata
xdata	SEGMENT
$unwind$stbi__jpeg_get_bits DQ 00006340a00040a01r ; 8.62672e-309
	DD	07006320aH
xdata	ENDS
;	COMDAT xdata
xdata	SEGMENT
$unwind$stbi__jpeg_get_bit DQ 03002320600020601r ; 1.96423e-77
xdata	ENDS
;	COMDAT xdata
xdata	SEGMENT
$chain$6$stbi__jpeg_decode_block DQ 0000cd40000060021r ; 1.78397e-308
	DQ	0000a6400000bc400r		; 1.44499e-308
	DD	imagerel stbi__jpeg_decode_block
	DD	imagerel stbi__jpeg_decode_block+617
	DD	imagerel $unwind$stbi__jpeg_decode_block
xdata	ENDS
;	COMDAT xdata
xdata	SEGMENT
$chain$4$stbi__jpeg_decode_block DQ 0000a641b00061b21r ; 1.44505e-308
	DQ	0000bc400000cd405r		; 1.63621e-308
	DD	imagerel stbi__jpeg_decode_block
	DD	imagerel stbi__jpeg_decode_block+617
	DD	imagerel $unwind$stbi__jpeg_decode_block
xdata	ENDS
;	COMDAT xdata
xdata	SEGMENT
$chain$0$stbi__jpeg_decode_block DQ 0000bc40500020521r ; 1.63622e-308
	DD	imagerel stbi__jpeg_decode_block
	DD	imagerel stbi__jpeg_decode_block+617
	DD	imagerel $unwind$stbi__jpeg_decode_block
xdata	ENDS
;	COMDAT xdata
xdata	SEGMENT
$unwind$stbi__jpeg_decode_block DQ 0f008320c00060c01r ; -4.69549e+231
	DQ	0300250037004e006r		; 1.97688e-77
xdata	ENDS
;	COMDAT xdata
xdata	SEGMENT
$unwind$stbi__jpeg_decode_block_prog_dc DQ 00009f474000a7401r ; 1.3844e-308
	DQ	0000a340d0008546fr		; 1.41895e-308
	DQ	060067007e009320dr		; 3.76049e+154
xdata	ENDS
;	COMDAT xdata
xdata	SEGMENT
$unwind$stbi__jpeg_decode_block_prog_ac DQ 00004e479000c7901r ; 6.80382e-309
	DQ	0000c546f0005d474r		; 1.71467e-308
	DQ	0700dc00ff0115215r		; 5.77347e+231
	DD	0300b600cH
xdata	ENDS
;	COMDAT xdata
xdata	SEGMENT
$unwind$stbi__idct_block DQ 000303417000b2919r	; 9.01348e-308
	DQ	0e00ef01000260117r		; -5.18509e+154
	DQ	060077008c00ad00cr		; 3.92809e+154
	DD	05006H
	DD	imagerel __GSHandlerCheck
	DD	0120H
xdata	ENDS
;	COMDAT xdata
xdata	SEGMENT
$unwind$stbi__idct_simd DQ 00008f88f00168f01r	; 1.24756e-308
	DQ	0000ad87f0009e887r		; 1.50828e-308
	DQ	0000cb872000bc877r		; 1.769e-308
	DQ	0000e9868000da86dr		; 2.02973e-308
	DQ	00010782e000f8839r		; 2.29036e-308
	DQ	00025010a00116829r		; 5.84195e-308
xdata	ENDS
;	COMDAT xdata
xdata	SEGMENT
$chain$4$stbi__get_marker DQ 00006340000020021r	; 8.62651e-309
	DD	imagerel stbi__get_marker
	DD	imagerel stbi__get_marker+33
	DD	imagerel $unwind$stbi__get_marker
xdata	ENDS
;	COMDAT xdata
xdata	SEGMENT
$chain$2$stbi__get_marker DQ 00006340000020021r	; 8.62651e-309
	DD	imagerel stbi__get_marker
	DD	imagerel stbi__get_marker+33
	DD	imagerel $unwind$stbi__get_marker
xdata	ENDS
;	COMDAT xdata
xdata	SEGMENT
$chain$0$stbi__get_marker DQ 00006340500020521r	; 8.62661e-309
	DD	imagerel stbi__get_marker
	DD	imagerel stbi__get_marker+33
	DD	imagerel $unwind$stbi__get_marker
xdata	ENDS
;	COMDAT xdata
xdata	SEGMENT
$unwind$stbi__get_marker DQ 07002320600020601r	; 3.53109e+231
xdata	ENDS
;	COMDAT xdata
xdata	SEGMENT
$unwind$stbi__parse_entropy_coded_data DQ 00025641f000d3119r ; 5.9496e-308
	DQ	00023341f0024541fr		; 5.34118e-308
	DQ	0e016f018001c011fr		; -7.68866e+154
	DQ	000007010c012d014r		; 6.08774e-310
	DD	imagerel __GSHandlerCheck
	DD	0d0H
xdata	ENDS
;	COMDAT xdata
xdata	SEGMENT
$chain$8$stbi__jpeg_finish DD 021H
	DD	imagerel stbi__jpeg_finish
	DD	imagerel stbi__jpeg_finish+28
	DD	imagerel $unwind$stbi__jpeg_finish
xdata	ENDS
;	COMDAT xdata
xdata	SEGMENT
$chain$7$stbi__jpeg_finish DD 021H
	DD	imagerel stbi__jpeg_finish+28
	DD	imagerel stbi__jpeg_finish+45
	DD	imagerel $chain$0$stbi__jpeg_finish
xdata	ENDS
;	COMDAT xdata
xdata	SEGMENT
$chain$6$stbi__jpeg_finish DQ 00004f41f000c1f21r ; 6.88883e-309
	DQ	0000774170006c41br		; 1.03653e-308
	DQ	0000b540f000c6413r		; 1.5754e-308
	DD	0a3404H
	DD	imagerel stbi__jpeg_finish+28
	DD	imagerel stbi__jpeg_finish+45
	DD	imagerel $chain$0$stbi__jpeg_finish
xdata	ENDS
;	COMDAT xdata
xdata	SEGMENT
$chain$0$stbi__jpeg_finish DQ 00005d40400020421r ; 8.10509e-309
	DD	imagerel stbi__jpeg_finish
	DD	imagerel stbi__jpeg_finish+28
	DD	imagerel $unwind$stbi__jpeg_finish
xdata	ENDS
;	COMDAT xdata
xdata	SEGMENT
$unwind$stbi__jpeg_finish DQ 0e005720900020901r	; -3.59421e+154
xdata	ENDS
;	COMDAT xdata
xdata	SEGMENT
$unwind$stbi__process_marker DQ 00019641f000c2e19r ; 3.53107e-308
	DQ	00017341f0018541fr		; 3.22686e-308
	DQ	0d014e016f018f21fr		; -6.043e+77
	DD	07010c012H
	DD	imagerel __GSHandlerCheck
	DD	070H
xdata	ENDS
;	COMDAT xdata
xdata	SEGMENT
$chain$4$stbi__process_scan_header DD 021H
	DD	imagerel stbi__process_scan_header
	DD	imagerel stbi__process_scan_header+197
	DD	imagerel $unwind$stbi__process_scan_header
xdata	ENDS
;	COMDAT xdata
xdata	SEGMENT
$chain$3$stbi__process_scan_header DQ 00007e40000040021r ; 1.09733e-308
	DD	065400H
	DD	imagerel stbi__process_scan_header
	DD	imagerel stbi__process_scan_header+197
	DD	imagerel $unwind$stbi__process_scan_header
xdata	ENDS
;	COMDAT xdata
xdata	SEGMENT
$chain$1$stbi__process_scan_header DQ 00007e40c00040c21r ; 1.09735e-308
	DD	065405H
	DD	imagerel stbi__process_scan_header
	DD	imagerel stbi__process_scan_header+197
	DD	imagerel $unwind$stbi__process_scan_header
xdata	ENDS
;	COMDAT xdata
xdata	SEGMENT
$unwind$stbi__process_scan_header DQ 00009640f00060f01r ; 1.30596e-308
	DQ	0700b320f0008340fr		; 5.2777e+231
xdata	ENDS
;	COMDAT xdata
xdata	SEGMENT
$chain$3$stbi__free_jpeg_components DD 021H
	DD	imagerel stbi__free_jpeg_components
	DD	imagerel stbi__free_jpeg_components+13
	DD	imagerel $unwind$stbi__free_jpeg_components
xdata	ENDS
;	COMDAT xdata
xdata	SEGMENT
$chain$2$stbi__free_jpeg_components DQ 00008741800061821r ; 1.1756e-308
	DQ	00006340500075411r		; 8.62661e-309
	DD	imagerel stbi__free_jpeg_components
	DD	imagerel stbi__free_jpeg_components+13
	DD	imagerel $unwind$stbi__free_jpeg_components
xdata	ENDS
;	COMDAT xdata
xdata	SEGMENT
$unwind$stbi__free_jpeg_components DQ 06002320600020601r ; 3.04951e+154
xdata	ENDS
;	COMDAT xdata
xdata	SEGMENT
$chain$7$stbi__process_frame_header DD 021H
	DD	imagerel stbi__process_frame_header
	DD	imagerel stbi__process_frame_header+437
	DD	imagerel $unwind$stbi__process_frame_header
xdata	ENDS
;	COMDAT xdata
xdata	SEGMENT
$chain$6$stbi__process_frame_header DQ 0000de40000060021r ; 1.93173e-308
	DQ	0000ac400000cd400r		; 1.49714e-308
	DD	imagerel stbi__process_frame_header
	DD	imagerel stbi__process_frame_header+437
	DD	imagerel $unwind$stbi__process_frame_header
xdata	ENDS
;	COMDAT xdata
xdata	SEGMENT
$chain$4$stbi__process_frame_header DQ 0000de41800061821r ; 1.93178e-308
	DQ	0000ac400000cd405r		; 1.49714e-308
	DD	imagerel stbi__process_frame_header
	DD	imagerel stbi__process_frame_header+437
	DD	imagerel $unwind$stbi__process_frame_header
xdata	ENDS
;	COMDAT xdata
xdata	SEGMENT
$chain$0$stbi__process_frame_header DQ 0000ac40500020521r ; 1.49716e-308
	DD	imagerel stbi__process_frame_header
	DD	imagerel stbi__process_frame_header+437
	DD	imagerel $unwind$stbi__process_frame_header
xdata	ENDS
;	COMDAT xdata
xdata	SEGMENT
$unwind$stbi__process_frame_header DQ 0f00a320e00060e01r ; -5.08363e+231
	DQ	03005500660077008r		; 2.30074e-77
xdata	ENDS
;	COMDAT xdata
xdata	SEGMENT
$unwind$stbi__decode_jpeg_header DQ 00008641400081401r ; 1.1669e-308
	DQ	00006341400075414r		; 8.62693e-309
	DD	070103214H
xdata	ENDS
;	COMDAT xdata
xdata	SEGMENT
$unwind$stbi__skip_jpeg_junk_at_end DQ 00006340a00040a01r ; 8.62672e-309
	DD	07006320aH
xdata	ENDS
;	COMDAT xdata
xdata	SEGMENT
$unwind$stbi__decode_jpeg_image DQ 00006340a00040a01r ; 8.62672e-309
	DD	07006320aH
xdata	ENDS
;	COMDAT xdata
xdata	SEGMENT
$chain$3$stbi__resample_row_v_2 DD 021H
	DD	imagerel stbi__resample_row_v_2
	DD	imagerel stbi__resample_row_v_2+88
	DD	imagerel $unwind$stbi__resample_row_v_2
xdata	ENDS
;	COMDAT xdata
xdata	SEGMENT
$chain$2$stbi__resample_row_v_2 DQ 00004740f00060f21r ; 6.19315e-309
	DQ	0000254050003640ar		; 3.23776e-309
	DD	imagerel stbi__resample_row_v_2
	DD	imagerel stbi__resample_row_v_2+88
	DD	imagerel $unwind$stbi__resample_row_v_2
xdata	ENDS
;	COMDAT xdata
xdata	SEGMENT
$unwind$stbi__resample_row_v_2 DQ 00000300200010201r ; 2.60793e-310
xdata	ENDS
;	COMDAT xdata
xdata	SEGMENT
$unwind$stbi__resample_row_h_2 DQ 00000744000074001r ; 6.31506e-310
	DQ	00002342c00036434r		; 3.06476e-309
	DD	0204H
xdata	ENDS
;	COMDAT xdata
xdata	SEGMENT
$unwind$stbi__resample_row_hv_2 DQ 00002743e00053e01r ; 3.41281e-309
	DQ	00000600600033406r		; 5.21629e-310
xdata	ENDS
;	COMDAT xdata
xdata	SEGMENT
$chain$4$stbi__resample_row_hv_2_simd DD 021H
	DD	imagerel stbi__resample_row_hv_2_simd
	DD	imagerel stbi__resample_row_hv_2_simd+89
	DD	imagerel $unwind$stbi__resample_row_hv_2_simd
xdata	ENDS
;	COMDAT xdata
xdata	SEGMENT
$chain$3$stbi__resample_row_hv_2_simd DQ 00006f41c00061c21r ; 9.6701e-309
	DQ	0000454050005e40cr		; 6.0191e-309
	DD	imagerel stbi__resample_row_hv_2_simd
	DD	imagerel stbi__resample_row_hv_2_simd+89
	DD	imagerel $unwind$stbi__resample_row_hv_2_simd
xdata	ENDS
;	COMDAT xdata
xdata	SEGMENT
$unwind$stbi__resample_row_hv_2_simd DQ 00003343900043901r ; 4.4557e-309
	DD	060027003H
xdata	ENDS
;	COMDAT xdata
xdata	SEGMENT
$chain$2$stbi__YCbCr_to_RGB_row DD 021H
	DD	imagerel stbi__YCbCr_to_RGB_row
	DD	imagerel stbi__YCbCr_to_RGB_row+36
	DD	imagerel $unwind$stbi__YCbCr_to_RGB_row
xdata	ENDS
;	COMDAT xdata
xdata	SEGMENT
$chain$1$stbi__YCbCr_to_RGB_row DQ 00004f41900041921r ; 6.8887e-309
	DD	036405H
	DD	imagerel stbi__YCbCr_to_RGB_row
	DD	imagerel stbi__YCbCr_to_RGB_row+36
	DD	imagerel $unwind$stbi__YCbCr_to_RGB_row
xdata	ENDS
;	COMDAT xdata
xdata	SEGMENT
$unwind$stbi__YCbCr_to_RGB_row DQ 00006540d00060d01r ; 8.80062e-309
	DQ	0700be00d0005340dr		; 5.40959e+231
xdata	ENDS
;	COMDAT xdata
xdata	SEGMENT
$chain$10$stbi__YCbCr_to_RGB_simd DD 021H
	DD	imagerel stbi__YCbCr_to_RGB_simd+367
	DD	imagerel stbi__YCbCr_to_RGB_simd+382
	DD	imagerel $chain$7$stbi__YCbCr_to_RGB_simd
xdata	ENDS
;	COMDAT xdata
xdata	SEGMENT
$chain$9$stbi__YCbCr_to_RGB_simd DQ 00011e41700041721r ; 2.48805e-308
	DD	0103408H
	DD	imagerel stbi__YCbCr_to_RGB_simd+367
	DD	imagerel stbi__YCbCr_to_RGB_simd+382
	DD	imagerel $chain$7$stbi__YCbCr_to_RGB_simd
xdata	ENDS
;	COMDAT xdata
xdata	SEGMENT
$chain$7$stbi__YCbCr_to_RGB_simd DD 021H
	DD	imagerel stbi__YCbCr_to_RGB_simd
	DD	imagerel stbi__YCbCr_to_RGB_simd+59
	DD	imagerel $unwind$stbi__YCbCr_to_RGB_simd
xdata	ENDS
;	COMDAT xdata
xdata	SEGMENT
$chain$6$stbi__YCbCr_to_RGB_simd DD 021H
	DD	imagerel stbi__YCbCr_to_RGB_simd+59
	DD	imagerel stbi__YCbCr_to_RGB_simd+140
	DD	imagerel $chain$4$stbi__YCbCr_to_RGB_simd
xdata	ENDS
;	COMDAT xdata
xdata	SEGMENT
$chain$5$stbi__YCbCr_to_RGB_simd DQ 00005680500020521r ; 7.51842e-309
	DD	imagerel stbi__YCbCr_to_RGB_simd+59
	DD	imagerel stbi__YCbCr_to_RGB_simd+140
	DD	imagerel $chain$4$stbi__YCbCr_to_RGB_simd
xdata	ENDS
;	COMDAT xdata
xdata	SEGMENT
$chain$4$stbi__YCbCr_to_RGB_simd DQ 00000b83f000a3f21r ; 1.00088e-309
	DQ	0000298220001a831r		; 3.60777e-309
	DQ	00004780500038813r		; 6.21467e-309
	DD	imagerel stbi__YCbCr_to_RGB_simd
	DD	imagerel stbi__YCbCr_to_RGB_simd+59
	DD	imagerel $unwind$stbi__YCbCr_to_RGB_simd
xdata	ENDS
;	COMDAT xdata
xdata	SEGMENT
$unwind$stbi__YCbCr_to_RGB_simd DQ 00012540d00060d01r ; 2.54887e-308
	DQ	060067007f009b20dr		; 3.76049e+154
xdata	ENDS
;	COMDAT xdata
xdata	SEGMENT
$unwind$stbi__setup_jpeg DQ 03002120600020601r	; 1.95074e-77
xdata	ENDS
;	COMDAT xdata
xdata	SEGMENT
$chain$10$load_jpeg_image DD 021H
	DD	imagerel load_jpeg_image
	DD	imagerel load_jpeg_image+124
	DD	imagerel $unwind$load_jpeg_image
xdata	ENDS
;	COMDAT xdata
xdata	SEGMENT
$chain$9$load_jpeg_image DQ 0002fe400000a0021r	; 8.86987e-308
	DQ	0003174000030c400r		; 9.70862e-308
	DQ	00033340000325400r		; 1.06821e-307
	DD	imagerel load_jpeg_image
	DD	imagerel load_jpeg_image+124
	DD	imagerel $unwind$load_jpeg_image
xdata	ENDS
;	COMDAT xdata
xdata	SEGMENT
$chain$8$load_jpeg_image DD 021H
	DD	imagerel load_jpeg_image
	DD	imagerel load_jpeg_image+124
	DD	imagerel $unwind$load_jpeg_image
xdata	ENDS
;	COMDAT xdata
xdata	SEGMENT
$chain$7$load_jpeg_image DD 021H
	DD	imagerel load_jpeg_image+124
	DD	imagerel load_jpeg_image+252
	DD	imagerel $chain$0$load_jpeg_image
xdata	ENDS
;	COMDAT xdata
xdata	SEGMENT
$chain$6$load_jpeg_image DQ 0002fe40000080021r	; 8.86987e-308
	DQ	00032540000317400r		; 1.01954e-307
	DD	0333400H
	DD	imagerel load_jpeg_image+124
	DD	imagerel load_jpeg_image+252
	DD	imagerel $chain$0$load_jpeg_image
xdata	ENDS
;	COMDAT xdata
xdata	SEGMENT
$chain$5$load_jpeg_image DD 021H
	DD	imagerel load_jpeg_image+124
	DD	imagerel load_jpeg_image+252
	DD	imagerel $chain$0$load_jpeg_image
xdata	ENDS
;	COMDAT xdata
xdata	SEGMENT
$chain$4$load_jpeg_image DQ 0002fe42600082621r	; 8.87004e-308
	DQ	0003254130031741er		; 1.01955e-307
	DD	0333408H
	DD	imagerel load_jpeg_image+124
	DD	imagerel load_jpeg_image+252
	DD	imagerel $chain$0$load_jpeg_image
xdata	ENDS
;	COMDAT xdata
xdata	SEGMENT
$chain$0$load_jpeg_image DQ 00030c40800020821r	; 9.32626e-308
	DD	imagerel load_jpeg_image
	DD	imagerel load_jpeg_image+124
	DD	imagerel $unwind$load_jpeg_image
xdata	ENDS
;	COMDAT xdata
xdata	SEGMENT
$unwind$load_jpeg_image DQ 00034010d00051f19r	; 1.11277e-307
	DQ	000006002d004f006r		; 5.21561e-310
	DD	imagerel __GSHandlerCheck
	DD	0160H
xdata	ENDS
;	COMDAT xdata
xdata	SEGMENT
$unwind$stbi__jpeg_load DQ 0000d741a000a1a01r	; 1.87094e-308
	DQ	0000b541a000c641ar		; 1.57542e-308
	DQ	0e016721a000a341ar		; -7.52369e+154
xdata	ENDS
;	COMDAT xdata
xdata	SEGMENT
$unwind$stbi__jpeg_test DQ 00008345900065901r	; 1.14097e-308
	DQ	07006520a0009640ar		; 4.33162e+231
xdata	ENDS
;	COMDAT xdata
xdata	SEGMENT
$chain$3$stbi__zbuild_huffman DD 021H
	DD	imagerel stbi__zbuild_huffman
	DD	imagerel stbi__zbuild_huffman+177
	DD	imagerel $unwind$stbi__zbuild_huffman
xdata	ENDS
;	COMDAT xdata
xdata	SEGMENT
$chain$2$stbi__zbuild_huffman DQ 00020640000020021r ; 4.55879e-308
	DD	imagerel stbi__zbuild_huffman
	DD	imagerel stbi__zbuild_huffman+177
	DD	imagerel $unwind$stbi__zbuild_huffman
xdata	ENDS
;	COMDAT xdata
xdata	SEGMENT
$chain$1$stbi__zbuild_huffman DD 021H
	DD	imagerel stbi__zbuild_huffman
	DD	imagerel stbi__zbuild_huffman+177
	DD	imagerel $unwind$stbi__zbuild_huffman
xdata	ENDS
;	COMDAT xdata
xdata	SEGMENT
$chain$0$stbi__zbuild_huffman DQ 00020640800020821r ; 4.55883e-308
	DD	imagerel stbi__zbuild_huffman
	DD	imagerel stbi__zbuild_huffman+177
	DD	imagerel $unwind$stbi__zbuild_huffman
xdata	ENDS
;	COMDAT xdata
xdata	SEGMENT
$unwind$stbi__zbuild_huffman DQ 00018011100072319r ; 3.33819e-308
	DQ	050057006e008f00ar		; 3.10288e+77
	DD	03004H
	DD	imagerel __GSHandlerCheck
	DD	0b0H
xdata	ENDS
;	COMDAT xdata
xdata	SEGMENT
$chain$1$stbi__zreceive DD 021H
	DD	imagerel stbi__zreceive
	DD	imagerel stbi__zreceive+28
	DD	imagerel $unwind$stbi__zreceive
xdata	ENDS
;	COMDAT xdata
xdata	SEGMENT
$chain$0$stbi__zreceive DQ 00002340500020521r	; 3.06393e-309
	DD	imagerel stbi__zreceive
	DD	imagerel stbi__zreceive+28
	DD	imagerel $unwind$stbi__zreceive
xdata	ENDS
;	COMDAT xdata
xdata	SEGMENT
$unwind$stbi__zreceive DQ 00000700200010201r	; 6.08461e-310
xdata	ENDS
;	COMDAT xdata
xdata	SEGMENT
$chain$1$stbi__zhuffman_decode DD 021H
	DD	imagerel stbi__zhuffman_decode
	DD	imagerel stbi__zhuffman_decode+45
	DD	imagerel $unwind$stbi__zhuffman_decode
xdata	ENDS
;	COMDAT xdata
xdata	SEGMENT
$chain$0$stbi__zhuffman_decode DQ 00006340500020521r ; 8.62661e-309
	DD	imagerel stbi__zhuffman_decode
	DD	imagerel stbi__zhuffman_decode+45
	DD	imagerel $unwind$stbi__zhuffman_decode
xdata	ENDS
;	COMDAT xdata
xdata	SEGMENT
$unwind$stbi__zhuffman_decode DQ 07002320600020601r ; 3.53109e+231
xdata	ENDS
;	COMDAT xdata
xdata	SEGMENT
$chain$2$stbi__zexpand DQ 00006640000020021r	; 8.88726e-309
	DD	imagerel stbi__zexpand
	DD	imagerel stbi__zexpand+164
	DD	imagerel $unwind$stbi__zexpand
xdata	ENDS
;	COMDAT xdata
xdata	SEGMENT
$chain$0$stbi__zexpand DQ 00006640500020521r	; 8.88736e-309
	DD	imagerel stbi__zexpand
	DD	imagerel stbi__zexpand+164
	DD	imagerel $unwind$stbi__zexpand
xdata	ENDS
;	COMDAT xdata
xdata	SEGMENT
$unwind$stbi__zexpand DQ 00007340a00040a01r	; 1.00174e-308
	DD	07006320aH
xdata	ENDS
;	COMDAT xdata
xdata	SEGMENT
$unwind$stbi__parse_huffman_block DQ 00008e42b000c2b01r ; 1.23648e-308
	DQ	0000a5418000b6418r		; 1.43635e-308
	DQ	0f014321800093418r		; -7.83854e+231
	DD	07010c012H
xdata	ENDS
;	COMDAT xdata
xdata	SEGMENT
$chain$3$stbi__compute_huffman_codes DQ 0014c740000040021r ; 2.07455e-302
	DD	014b6400H
	DD	imagerel stbi__compute_huffman_codes
	DD	imagerel stbi__compute_huffman_codes+37
	DD	imagerel $unwind$stbi__compute_huffman_codes
xdata	ENDS
;	COMDAT xdata
xdata	SEGMENT
$chain$2$stbi__compute_huffman_codes DQ 0014b649b00049b21r ; 1.99726e-302
	DD	014c7408H
	DD	imagerel stbi__compute_huffman_codes+37
	DD	imagerel stbi__compute_huffman_codes+310
	DD	imagerel $chain$0$stbi__compute_huffman_codes
xdata	ENDS
;	COMDAT xdata
xdata	SEGMENT
$chain$0$stbi__compute_huffman_codes DQ 0014de40800020821r ; 2.17937e-302
	DD	imagerel stbi__compute_huffman_codes
	DD	imagerel stbi__compute_huffman_codes+37
	DD	imagerel $unwind$stbi__compute_huffman_codes
xdata	ENDS
;	COMDAT xdata
xdata	SEGMENT
$unwind$stbi__compute_huffman_codes DQ 00144011000072219r ; 1.45853e-302
	DQ	05003c005d007f009r		; 2.85863e+77
	DD	03002H
	DD	imagerel __GSHandlerCheck
	DD	0a10H
xdata	ENDS
;	COMDAT xdata
xdata	SEGMENT
$unwind$stbi__parse_uncompressed_block DQ 00007340a00040a01r ; 1.00174e-308
	DD	07006320aH
xdata	ENDS
;	COMDAT xdata
xdata	SEGMENT
$unwind$stbi__parse_zlib DQ 00008741500081501r	; 1.1756e-308
	DQ	00006341500076415r		; 8.62695e-309
	DD	0e0113215H
xdata	ENDS
;	COMDAT xdata
xdata	SEGMENT
$unwind$stbi_zlib_decode_malloc_guesssize_headerflag DQ 00207011200062419r ; 6.87007e-299
	DQ	03002500360047005r		; 1.97688e-77
	DD	imagerel __GSHandlerCheck
	DD	01020H
xdata	ENDS
;	COMDAT xdata
xdata	SEGMENT
$unwind$stbi__get_chunk_header DQ 00007640f00060f01r ; 1.02782e-308
	DQ	0700b320f0006340fr		; 5.2777e+231
xdata	ENDS
;	COMDAT xdata
xdata	SEGMENT
$unwind$stbi__check_png_header DQ 00007640f00060f01r ; 1.02782e-308
	DQ	0700b320f0006340fr		; 5.2777e+231
xdata	ENDS
;	COMDAT xdata
xdata	SEGMENT
$unwind$stbi__paeth DQ 00001340500020501r	; 1.67326e-309
xdata	ENDS
;	COMDAT xdata
xdata	SEGMENT
$chain$3$stbi__create_png_image_raw DD 021H
	DD	imagerel stbi__create_png_image_raw
	DD	imagerel stbi__create_png_image_raw+248
	DD	imagerel $unwind$stbi__create_png_image_raw
xdata	ENDS
;	COMDAT xdata
xdata	SEGMENT
$chain$2$stbi__create_png_image_raw DQ 0001fd40000020021r ; 4.42625e-308
	DD	imagerel stbi__create_png_image_raw
	DD	imagerel stbi__create_png_image_raw+248
	DD	imagerel $unwind$stbi__create_png_image_raw
xdata	ENDS
;	COMDAT xdata
xdata	SEGMENT
$chain$1$stbi__create_png_image_raw DD 021H
	DD	imagerel stbi__create_png_image_raw
	DD	imagerel stbi__create_png_image_raw+248
	DD	imagerel $unwind$stbi__create_png_image_raw
xdata	ENDS
;	COMDAT xdata
xdata	SEGMENT
$chain$0$stbi__create_png_image_raw DQ 0001fd40800020821r ; 4.42626e-308
	DD	imagerel stbi__create_png_image_raw
	DD	imagerel stbi__create_png_image_raw+248
	DD	imagerel $unwind$stbi__create_png_image_raw
xdata	ENDS
;	COMDAT xdata
xdata	SEGMENT
$unwind$stbi__create_png_image_raw DQ 00016011600091601r ; 3.06007e-308
	DQ	07009c00be00df00fr		; 4.9972e+231
	DQ	00000300650076008r		; 2.60885e-310
xdata	ENDS
;	COMDAT xdata
xdata	SEGMENT
$chain$6$stbi__create_png_image DQ 00023640000020021r ; 5.3932e-308
	DD	imagerel stbi__create_png_image
	DD	imagerel stbi__create_png_image+139
	DD	imagerel $unwind$stbi__create_png_image
xdata	ENDS
;	COMDAT xdata
xdata	SEGMENT
$chain$5$stbi__create_png_image DQ 00021f40000060021r ; 4.99338e-308
	DQ	0002364000022d400r		; 5.3932e-308
	DD	imagerel stbi__create_png_image
	DD	imagerel stbi__create_png_image+139
	DD	imagerel $unwind$stbi__create_png_image
xdata	ENDS
;	COMDAT xdata
xdata	SEGMENT
$chain$3$stbi__create_png_image DD 021H
	DD	imagerel stbi__create_png_image+139
	DD	imagerel stbi__create_png_image+247
	DD	imagerel $chain$0$stbi__create_png_image
xdata	ENDS
;	COMDAT xdata
xdata	SEGMENT
$chain$2$stbi__create_png_image DQ 00021f41300041321r ; 4.99346e-308
	DD	022d408H
	DD	imagerel stbi__create_png_image+139
	DD	imagerel stbi__create_png_image+247
	DD	imagerel $chain$0$stbi__create_png_image
xdata	ENDS
;	COMDAT xdata
xdata	SEGMENT
$chain$0$stbi__create_png_image DQ 00023640800020821r ; 5.39323e-308
	DD	imagerel stbi__create_png_image
	DD	imagerel stbi__create_png_image+139
	DD	imagerel $unwind$stbi__create_png_image
xdata	ENDS
;	COMDAT xdata
xdata	SEGMENT
$unwind$stbi__create_png_image DQ 00024012200072201r ; 5.56392e-308
	DQ	050167017c019e01br		; 6.49532e+77
	DD	03015H
xdata	ENDS
;	COMDAT xdata
xdata	SEGMENT
$unwind$stbi__expand_png_palette DQ 0000a6418000a1801r ; 1.44505e-308
	DQ	00008341800095418r		; 1.14084e-308
	DQ	07010e012f0143218r		; 6.5498e+231
xdata	ENDS
;	COMDAT xdata
xdata	SEGMENT
$chain$1$stbi__de_iphone DD 021H
	DD	imagerel stbi__de_iphone
	DD	imagerel stbi__de_iphone+134
	DD	imagerel $unwind$stbi__de_iphone
xdata	ENDS
;	COMDAT xdata
xdata	SEGMENT
$chain$0$stbi__de_iphone DQ 00000340400020421r	; 2.82565e-310
	DD	imagerel stbi__de_iphone
	DD	imagerel stbi__de_iphone+134
	DD	imagerel $unwind$stbi__de_iphone
xdata	ENDS
;	COMDAT xdata
xdata	SEGMENT
$unwind$stbi__de_iphone DQ 00000020400010401r	; 1.09495e-311
xdata	ENDS
;	COMDAT xdata
xdata	SEGMENT
$unwind$stbi__parse_png_file DQ 0029b742d000d3e19r ; 4.19785e-296
	DQ	00299342d029a642dr		; 3.85381e-296
	DQ	0e016f0180292012dr		; -7.68866e+154
	DQ	000005010c012d014r		; 4.3494e-310
	DD	imagerel __GSHandlerCheck
	DD	01480H
xdata	ENDS
;	COMDAT xdata
xdata	SEGMENT
$unwind$stbi__do_png DQ 0000d741e000c1e01r	; 1.87095e-308
	DQ	0000b541e000c641er		; 1.57543e-308
	DQ	0f01a521e000a341er		; -1.02159e+232
	DD	0c016e018H
xdata	ENDS
;	COMDAT xdata
xdata	SEGMENT
$unwind$stbi__png_load DQ 0f009c20d00071c19r	; -4.99872e+231
	DQ	0500360047005e007r		; 2.80435e+77
	DD	03002H
	DD	imagerel __GSHandlerCheck
	DD	058H
xdata	ENDS
;	COMDAT xdata
xdata	SEGMENT
$unwind$stbi__png_test DQ 03002320600020601r	; 1.96423e-77
xdata	ENDS
;	COMDAT xdata
xdata	SEGMENT
$unwind$stbi__bmp_test_raw DQ 00006340a00040a01r ; 8.62672e-309
	DD	07006320aH
xdata	ENDS
;	COMDAT xdata
xdata	SEGMENT
$unwind$stbi__bmp_test DQ 00006340a00040a01r	; 8.62672e-309
	DD	07006320aH
xdata	ENDS
;	COMDAT xdata
xdata	SEGMENT
$chain$6$stbi__bmp_parse_header DD 021H
	DD	imagerel stbi__bmp_parse_header
	DD	imagerel stbi__bmp_parse_header+130
	DD	imagerel $unwind$stbi__bmp_parse_header
xdata	ENDS
;	COMDAT xdata
xdata	SEGMENT
$chain$5$stbi__bmp_parse_header DQ 0000af40000060021r ; 1.52322e-308
	DQ	0000854000009e400r		; 1.15817e-308
	DD	imagerel stbi__bmp_parse_header
	DD	imagerel stbi__bmp_parse_header+130
	DD	imagerel $unwind$stbi__bmp_parse_header
xdata	ENDS
;	COMDAT xdata
xdata	SEGMENT
$chain$3$stbi__bmp_parse_header DD 021H
	DD	imagerel stbi__bmp_parse_header+130
	DD	imagerel stbi__bmp_parse_header+447
	DD	imagerel $chain$1$stbi__bmp_parse_header
xdata	ENDS
;	COMDAT xdata
xdata	SEGMENT
$chain$2$stbi__bmp_parse_header DQ 00009e40500020521r ; 1.37547e-308
	DD	imagerel stbi__bmp_parse_header+130
	DD	imagerel stbi__bmp_parse_header+447
	DD	imagerel $chain$1$stbi__bmp_parse_header
xdata	ENDS
;	COMDAT xdata
xdata	SEGMENT
$chain$1$stbi__bmp_parse_header DQ 0000af40d00040d21r ; 1.52325e-308
	DD	085405H
	DD	imagerel stbi__bmp_parse_header
	DD	imagerel stbi__bmp_parse_header+130
	DD	imagerel $unwind$stbi__bmp_parse_header
xdata	ENDS
;	COMDAT xdata
xdata	SEGMENT
$unwind$stbi__bmp_parse_header DQ 07004320800040801r ; 3.91922e+231
	DD	030026003H
xdata	ENDS
;	COMDAT xdata
xdata	SEGMENT
$unwind$stbi__bmp_load DQ 000a43426000b2601r	; 1.43855e-305
	DQ	0e01df01f009c0126r		; -1.00351e+155
	DQ	060167017c019d01br		; 7.52106e+154
	DD	05015H
xdata	ENDS
;	COMDAT xdata
xdata	SEGMENT
$chain$3$stbi__tga_test DD 021H
	DD	imagerel stbi__tga_test
	DD	imagerel stbi__tga_test+156
	DD	imagerel $unwind$stbi__tga_test
xdata	ENDS
;	COMDAT xdata
xdata	SEGMENT
$chain$2$stbi__tga_test DQ 0000af40500020521r	; 1.52323e-308
	DD	imagerel stbi__tga_test
	DD	imagerel stbi__tga_test+156
	DD	imagerel $unwind$stbi__tga_test
xdata	ENDS
;	COMDAT xdata
xdata	SEGMENT
$unwind$stbi__tga_test DQ 00009645100085101r	; 1.3061e-308
	DQ	0e00532090008544cr		; -3.55231e+154
	DD	030027003H
xdata	ENDS
;	COMDAT xdata
xdata	SEGMENT
$unwind$stbi__tga_read_rgb16 DQ 03002320600020601r ; 1.96423e-77
xdata	ENDS
;	COMDAT xdata
xdata	SEGMENT
$unwind$stbi__tga_load DQ 000130114000a2619r	; 2.64286e-308
	DQ	0c007d009e00bf00dr		; -2.97658
	DQ	03002500360047005r		; 1.97688e-77
	DD	imagerel __GSHandlerCheck
	DD	088H
xdata	ENDS
;	COMDAT xdata
xdata	SEGMENT
$unwind$stbi__psd_test DQ 00006340a00040a01r	; 8.62672e-309
	DD	07006320aH
xdata	ENDS
;	COMDAT xdata
xdata	SEGMENT
$unwind$stbi__psd_decode_rle DQ 0000b741e000c1e01r ; 1.59282e-308
	DQ	00009541e000a641er		; 1.2973e-308
	DQ	0f01a321e0008341er		; -1.01674e+232
	DD	0c016e018H
xdata	ENDS
;	COMDAT xdata
xdata	SEGMENT
$chain$11$stbi__psd_load DQ 0000e640000020021r	; 2.00126e-308
	DD	imagerel stbi__psd_load
	DD	imagerel stbi__psd_load+157
	DD	imagerel $unwind$stbi__psd_load
xdata	ENDS
;	COMDAT xdata
xdata	SEGMENT
$chain$10$stbi__psd_load DQ 0000af40000060021r	; 1.52322e-308
	DQ	0000e6400000be400r		; 2.00126e-308
	DD	imagerel stbi__psd_load
	DD	imagerel stbi__psd_load+157
	DD	imagerel $unwind$stbi__psd_load
xdata	ENDS
;	COMDAT xdata
xdata	SEGMENT
$chain$9$stbi__psd_load DQ 0000af400000c0021r	; 1.52322e-308
	DQ	0000cd400000be400r		; 1.78397e-308
	DQ	0000e6400000dc400r		; 2.00126e-308
	DD	0125400H
	DD	imagerel stbi__psd_load
	DD	imagerel stbi__psd_load+157
	DD	imagerel $unwind$stbi__psd_load
xdata	ENDS
;	COMDAT xdata
xdata	SEGMENT
$chain$7$stbi__psd_load DD 021H
	DD	imagerel stbi__psd_load+157
	DD	imagerel stbi__psd_load+924
	DD	imagerel $chain$2$stbi__psd_load
xdata	ENDS
;	COMDAT xdata
xdata	SEGMENT
$chain$6$stbi__psd_load DD 021H
	DD	imagerel stbi__psd_load+924
	DD	imagerel stbi__psd_load+1015
	DD	imagerel $chain$4$stbi__psd_load
xdata	ENDS
;	COMDAT xdata
xdata	SEGMENT
$chain$5$stbi__psd_load DQ 0000cd40500020521r	; 1.78398e-308
	DD	imagerel stbi__psd_load+924
	DD	imagerel stbi__psd_load+1015
	DD	imagerel $chain$4$stbi__psd_load
xdata	ENDS
;	COMDAT xdata
xdata	SEGMENT
$chain$4$stbi__psd_load DQ 0000dc41400041421r	; 1.91439e-308
	DD	0125408H
	DD	imagerel stbi__psd_load+157
	DD	imagerel stbi__psd_load+924
	DD	imagerel $chain$2$stbi__psd_load
xdata	ENDS
;	COMDAT xdata
xdata	SEGMENT
$chain$2$stbi__psd_load DQ 0000af46500066521r	; 1.52343e-308
	DQ	0000e6405000be45dr		; 2.00127e-308
	DD	imagerel stbi__psd_load
	DD	imagerel stbi__psd_load+157
	DD	imagerel $unwind$stbi__psd_load
xdata	ENDS
;	COMDAT xdata
xdata	SEGMENT
$unwind$stbi__psd_load DQ 07011e21500031501r	; 6.94097e+231
	DD	03010H
xdata	ENDS
;	COMDAT xdata
xdata	SEGMENT
$unwind$stbi__pic_is4 DQ 00007640f00060f01r	; 1.02782e-308
	DQ	0700b320f0006340fr		; 5.2777e+231
xdata	ENDS
;	COMDAT xdata
xdata	SEGMENT
$unwind$stbi__pic_test_core DQ 00008641400081401r ; 1.1669e-308
	DQ	00006341400075414r		; 8.62693e-309
	DD	070103214H
xdata	ENDS
;	COMDAT xdata
xdata	SEGMENT
$unwind$stbi__readval DQ 00009741a000a1a01r	; 1.31467e-308
	DQ	00007541a0008641ar		; 1.01916e-308
	DQ	0e016321a0006341ar		; -7.4399e+154
xdata	ENDS
;	COMDAT xdata
xdata	SEGMENT
$unwind$stbi__pic_load_core DQ 000106452000d5219r ; 2.27957e-308
	DQ	0001a343200115441r		; 3.6441e-308
	DQ	0e00af00c00120113r		; -4.51469e+154
	DQ	000007004c006d008r		; 6.08519e-310
	DD	imagerel __GSHandlerCheck
	DD	078H
xdata	ENDS
;	COMDAT xdata
xdata	SEGMENT
$chain$2$stbi__pic_load DD 021H
	DD	imagerel stbi__pic_load
	DD	imagerel stbi__pic_load+353
	DD	imagerel $unwind$stbi__pic_load
xdata	ENDS
;	COMDAT xdata
xdata	SEGMENT
$chain$1$stbi__pic_load DQ 0000be40d00040d21r	; 1.65362e-308
	DD	0c5405H
	DD	imagerel stbi__pic_load
	DD	imagerel stbi__pic_load+353
	DD	imagerel $unwind$stbi__pic_load
xdata	ENDS
;	COMDAT xdata
xdata	SEGMENT
$unwind$stbi__pic_load DQ 0f00ac20e00071d19r	; -5.19279e+231
	DQ	060037004c006d008r		; 3.25769e+154
	DD	03002H
	DD	imagerel __GSHandlerCheck
	DD	040H
xdata	ENDS
;	COMDAT xdata
xdata	SEGMENT
$chain$3$stbi__pic_test DD 021H
	DD	imagerel stbi__pic_test
	DD	imagerel stbi__pic_test+48
	DD	imagerel $unwind$stbi__pic_test
xdata	ENDS
;	COMDAT xdata
xdata	SEGMENT
$chain$2$stbi__pic_test DQ 00008641400061421r	; 1.1669e-308
	DQ	000097405000ac40fr		; 1.31463e-308
	DD	imagerel stbi__pic_test
	DD	imagerel stbi__pic_test+48
	DD	imagerel $unwind$stbi__pic_test
xdata	ENDS
;	COMDAT xdata
xdata	SEGMENT
$unwind$stbi__pic_test DQ 0000b340e00060e01r	; 1.55802e-308
	DQ	05006e008f00a320er		; 3.31095e+77
xdata	ENDS
;	COMDAT xdata
xdata	SEGMENT
$unwind$stbi__gif_test_raw DQ 00006340a00040a01r ; 8.62672e-309
	DD	07006320aH
xdata	ENDS
;	COMDAT xdata
xdata	SEGMENT
$unwind$stbi__gif_test DQ 03002320600020601r	; 1.96423e-77
xdata	ENDS
;	COMDAT xdata
xdata	SEGMENT
$chain$1$stbi__gif_parse_colortable DD 021H
	DD	imagerel stbi__gif_parse_colortable
	DD	imagerel stbi__gif_parse_colortable+31
	DD	imagerel $unwind$stbi__gif_parse_colortable
xdata	ENDS
;	COMDAT xdata
xdata	SEGMENT
$chain$0$stbi__gif_parse_colortable DQ 00008740500020521r ; 1.17556e-308
	DD	imagerel stbi__gif_parse_colortable
	DD	imagerel stbi__gif_parse_colortable+31
	DD	imagerel $unwind$stbi__gif_parse_colortable
xdata	ENDS
;	COMDAT xdata
xdata	SEGMENT
$unwind$stbi__gif_parse_colortable DQ 0000a541c00081c01r ; 1.43636e-308
	DQ	0f018321c0009341cr		; -9.39108e+231
	DD	06014e016H
xdata	ENDS
;	COMDAT xdata
xdata	SEGMENT
$chain$3$stbi__gif_header DD 021H
	DD	imagerel stbi__gif_header
	DD	imagerel stbi__gif_header+396
	DD	imagerel $unwind$stbi__gif_header
xdata	ENDS
;	COMDAT xdata
xdata	SEGMENT
$chain$2$stbi__gif_header DQ 00006e40000020021r	; 9.58259e-309
	DD	imagerel stbi__gif_header
	DD	imagerel stbi__gif_header+396
	DD	imagerel $unwind$stbi__gif_header
xdata	ENDS
;	COMDAT xdata
xdata	SEGMENT
$chain$1$stbi__gif_header DD 021H
	DD	imagerel stbi__gif_header
	DD	imagerel stbi__gif_header+396
	DD	imagerel $unwind$stbi__gif_header
xdata	ENDS
;	COMDAT xdata
xdata	SEGMENT
$chain$0$stbi__gif_header DQ 00006e40500020521r	; 9.5827e-309
	DD	imagerel stbi__gif_header
	DD	imagerel stbi__gif_header+396
	DD	imagerel $unwind$stbi__gif_header
xdata	ENDS
;	COMDAT xdata
xdata	SEGMENT
$unwind$stbi__gif_header DQ 00009741500081501r	; 1.31466e-308
	DQ	00007341500086415r		; 1.00176e-308
	DD	0f0113215H
xdata	ENDS
;	COMDAT xdata
xdata	SEGMENT
$unwind$stbi__out_gif_code DQ 00006340a00040a01r ; 8.62672e-309
	DD	07006320aH
xdata	ENDS
;	COMDAT xdata
xdata	SEGMENT
$chain$7$stbi__process_gif_raster DQ 00006f400000c0021r ; 9.66951e-309
	DQ	00008c4000007e400r		; 1.21901e-308
	DQ	0000a640000097400r		; 1.44499e-308
	DD	0f5400H
	DD	imagerel stbi__process_gif_raster
	DD	imagerel stbi__process_gif_raster+78
	DD	imagerel $unwind$stbi__process_gif_raster
xdata	ENDS
;	COMDAT xdata
xdata	SEGMENT
$chain$5$stbi__process_gif_raster DQ 00006f444000c4421r ; 9.67095e-309
	DQ	00008c4310007e438r		; 1.21911e-308
	DQ	0000a641600097425r		; 1.44504e-308
	DD	0f5405H
	DD	imagerel stbi__process_gif_raster
	DD	imagerel stbi__process_gif_raster+78
	DD	imagerel $unwind$stbi__process_gif_raster
xdata	ENDS
;	COMDAT xdata
xdata	SEGMENT
$unwind$stbi__process_gif_raster DQ 0d004a20800030801r ; -2.98641e+77
	DD	03002H
xdata	ENDS
;	COMDAT xdata
xdata	SEGMENT
$unwind$stbi__gif_load_next DQ 0000c6421000c2101r ; 1.7232e-308
	DQ	0000a3421000b5421r		; 1.41899e-308
	DQ	0d019e01bf01d3221r		; -7.49042e+77
	DD	07015c017H
xdata	ENDS
;	COMDAT xdata
xdata	SEGMENT
$unwind$stbi__gif_load DQ 01117011600082819r	; 2.42768e-226
	DQ	060047005e007f009r		; 3.42529e+154
	DD	030025003H
	DD	imagerel __GSHandlerCheck
	DD	088a0H
xdata	ENDS
;	COMDAT xdata
xdata	SEGMENT
$unwind$stbi__hdr_test_core DQ 00007640f00060f01r ; 1.02782e-308
	DQ	0700b320f0006340fr		; 5.2777e+231
xdata	ENDS
;	COMDAT xdata
xdata	SEGMENT
$unwind$stbi__hdr_test DQ 00008741500081501r	; 1.1756e-308
	DQ	00006341500076415r		; 8.62695e-309
	DD	0e0113215H
xdata	ENDS
;	COMDAT xdata
xdata	SEGMENT
$unwind$stbi__hdr_gettoken DQ 0000a6418000a1801r ; 1.44505e-308
	DQ	00008341800095418r		; 1.14084e-308
	DQ	07010e012f0143218r		; 6.5498e+231
xdata	ENDS
;	COMDAT xdata
xdata	SEGMENT
$unwind$stbi__hdr_convert DQ 00007640f00060f01r	; 1.02782e-308
	DQ	0700b320f0006340fr		; 5.2777e+231
xdata	ENDS
;	COMDAT xdata
xdata	SEGMENT
$unwind$stbi__hdr_load DQ 0008f011c000a2d19r	; 5.51895e-306
	DQ	0c007d009e00bf00dr		; -2.97658
	DQ	05002300360047005r		; 2.63247e+77
	DD	imagerel __GSHandlerCheck
	DD	0460H
xdata	ENDS
;	COMDAT xdata
xdata	SEGMENT
$unwind$stbi__pnm_test DQ 00006340a00040a01r	; 8.62672e-309
	DD	07006320aH
xdata	ENDS
;	COMDAT xdata
xdata	SEGMENT
$unwind$stbi__pnm_load DQ 0000d741e000c1e01r	; 1.87095e-308
	DQ	0000b541e000c641er		; 1.57543e-308
	DQ	0f01a521e000a341er		; -1.02159e+232
	DD	0c016e018H
xdata	ENDS
;	COMDAT xdata
xdata	SEGMENT
$unwind$stbi__pnm_skip_whitespace DQ 0000b741e000c1e01r ; 1.59282e-308
	DQ	00009541e000a641er		; 1.2973e-308
	DQ	0f01a321e0008341er		; -1.01674e+232
	DD	0c016e018H
xdata	ENDS
;	COMDAT xdata
xdata	SEGMENT
$unwind$stbi__pnm_getinteger DQ 0000b741e000c1e01r ; 1.59282e-308
	DQ	00009541e000a641er		; 1.2973e-308
	DQ	0f01a321e0008341er		; -1.01674e+232
	DD	0c016e018H
xdata	ENDS
;	COMDAT xdata
xdata	SEGMENT
$unwind$stbi__pnm_info DQ 0f009620d00071c19r	; -4.92595e+231
	DQ	0500360047005e007r		; 2.80435e+77
	DD	03002H
	DD	imagerel __GSHandlerCheck
	DD	028H
END
