; Listing generated by Microsoft (R) Optimizing Compiler Version 19.39.33519.0 

include listing.inc

INCLUDELIB OLDNAMES

PUBLIC	infolog
PUBLIC	??_C@_05JMLLFKBP@?$CFllu?6@			; `string'
PUBLIC	??_C@_0BL@MOJGOJJP@Failed?5to?5load?5OpenGL?5api?3@ ; `string'
PUBLIC	??_C@_03OFAPEBGM@?$CFs?6@			; `string'
EXTRN	glfwGetProcAddress:PROC
EXTRN	glfwWindowHint:PROC
EXTRN	__imp___stdio_common_vfprintf:PROC
EXTRN	__imp___acrt_iob_func:PROC
EXTRN	__report_rangecheckfailure:PROC
infolog	DB	0200H DUP (?)
_BSS	ENDS
;	COMDAT ??_C@_03OFAPEBGM@?$CFs?6@
CONST	SEGMENT
??_C@_03OFAPEBGM@?$CFs?6@ DB '%s', 0aH, 00H		; `string'
CONST	ENDS
;	COMDAT ??_C@_0BL@MOJGOJJP@Failed?5to?5load?5OpenGL?5api?3@
CONST	SEGMENT
??_C@_0BL@MOJGOJJP@Failed?5to?5load?5OpenGL?5api?3@ DB 'Failed to load Op'
	DB	'enGL api:', 00H				; `string'
CONST	ENDS
;	COMDAT ??_C@_05JMLLFKBP@?$CFllu?6@
CONST	SEGMENT
??_C@_05JMLLFKBP@?$CFllu?6@ DB '%llu', 0aH, 00H		; `string'
PUBLIC	readLog
PUBLIC	unloadImageData
PUBLIC	loadImageData
PUBLIC	linkShaderProgram
PUBLIC	loadGlfuncDefault
PUBLIC	initGL
PUBLIC	printf
PUBLIC	_vfprintf_l
PUBLIC	__local_stdio_printf_options
;	COMDAT pdata
pdata	SEGMENT
$pdata$loadImageData DD imagerel $LN5@loadImageD
	DD	imagerel $LN5@loadImageD+54
	DD	imagerel $unwind$loadImageData
pdata	ENDS
;	COMDAT pdata
pdata	SEGMENT
$pdata$linkShaderProgram DD imagerel $LN7@linkShader
	DD	imagerel $LN7@linkShader+116
	DD	imagerel $unwind$linkShaderProgram
pdata	ENDS
;	COMDAT pdata
pdata	SEGMENT
$pdata$loadGlfuncDefault DD imagerel $LN19@loadGlfunc
	DD	imagerel $LN19@loadGlfunc+31
	DD	imagerel $unwind$loadGlfuncDefault
pdata	ENDS
;	COMDAT pdata
pdata	SEGMENT
$pdata$initGL DD imagerel $LN4@initGL
	DD	imagerel $LN4@initGL+52
	DD	imagerel $unwind$initGL
pdata	ENDS
;	COMDAT pdata
pdata	SEGMENT
$pdata$printf DD imagerel $LN6@printf
	DD	imagerel $LN6@printf+85
	DD	imagerel $unwind$printf
pdata	ENDS
;	COMDAT pdata
pdata	SEGMENT
$pdata$_vfprintf_l DD imagerel $LN4@vfprintf_l
	DD	imagerel $LN4@vfprintf_l+68
	DD	imagerel $unwind$_vfprintf_l
pdata	ENDS
;	COMDAT xdata
xdata	SEGMENT
$unwind$_vfprintf_l DQ 00009640f00060f01r	; 1.30596e-308
	DQ	0700b520f0008340fr		; 5.30195e+231
xdata	ENDS
;	COMDAT xdata
xdata	SEGMENT
$unwind$printf DQ 07017521b00041b01r		; 9.05146e+231
	DD	030156016H
xdata	ENDS
;	COMDAT xdata
xdata	SEGMENT
$unwind$initGL DQ 03002320600020601r		; 1.96423e-77
xdata	ENDS
;	COMDAT xdata
xdata	SEGMENT
$unwind$loadGlfuncDefault DQ 00000420400010401r	; 3.58617e-310
xdata	ENDS
;	COMDAT xdata
xdata	SEGMENT
$unwind$linkShaderProgram DQ 0000a340a00041919r	; 1.41894e-308
	DD	07006520aH
	DD	imagerel __GSHandlerCheck
	DD	028H
xdata	ENDS
;	COMDAT xdata
xdata	SEGMENT
$unwind$loadImageData DQ 03002520600020601r	; 1.97773e-77
END
